
test.bin:     file format elf64-x86-64


Disassembly of section .text:

ffffffff81003000 <spinlock_init>:
ffffffff81003000:	55                   	push   %rbp
ffffffff81003001:	48 89 e5             	mov    %rsp,%rbp
ffffffff81003004:	48 83 ec 08          	sub    $0x8,%rsp
ffffffff81003008:	48 89 7d f8          	mov    %rdi,-0x8(%rbp)
ffffffff8100300c:	48 8b 45 f8          	mov    -0x8(%rbp),%rax
ffffffff81003010:	c7 40 04 00 00 00 00 	movl   $0x0,0x4(%rax)
ffffffff81003017:	48 8b 45 f8          	mov    -0x8(%rbp),%rax
ffffffff8100301b:	c7 00 00 00 00 00    	movl   $0x0,(%rax)
ffffffff81003021:	90                   	nop
ffffffff81003022:	c9                   	leaveq 
ffffffff81003023:	c3                   	retq   

ffffffff81003024 <spinlock_lock>:
ffffffff81003024:	55                   	push   %rbp
ffffffff81003025:	48 89 e5             	mov    %rsp,%rbp
ffffffff81003028:	48 83 ec 08          	sub    $0x8,%rsp
ffffffff8100302c:	48 89 7d f8          	mov    %rdi,-0x8(%rbp)
ffffffff81003030:	90                   	nop
ffffffff81003031:	48 8b 55 f8          	mov    -0x8(%rbp),%rdx
ffffffff81003035:	b8 00 00 00 00       	mov    $0x0,%eax
ffffffff8100303a:	b9 01 00 00 00       	mov    $0x1,%ecx
ffffffff8100303f:	f0 0f b1 0a          	lock cmpxchg %ecx,(%rdx)
ffffffff81003043:	0f 94 c0             	sete   %al
ffffffff81003046:	83 f0 01             	xor    $0x1,%eax
ffffffff81003049:	84 c0                	test   %al,%al
ffffffff8100304b:	75 e4                	jne    ffffffff81003031 <spinlock_lock+0xd>
ffffffff8100304d:	90                   	nop
ffffffff8100304e:	90                   	nop
ffffffff8100304f:	c9                   	leaveq 
ffffffff81003050:	c3                   	retq   

ffffffff81003051 <spinlock_try_lock>:
ffffffff81003051:	55                   	push   %rbp
ffffffff81003052:	48 89 e5             	mov    %rsp,%rbp
ffffffff81003055:	48 83 ec 08          	sub    $0x8,%rsp
ffffffff81003059:	48 89 7d f8          	mov    %rdi,-0x8(%rbp)
ffffffff8100305d:	48 8b 55 f8          	mov    -0x8(%rbp),%rdx
ffffffff81003061:	b8 00 00 00 00       	mov    $0x0,%eax
ffffffff81003066:	b9 01 00 00 00       	mov    $0x1,%ecx
ffffffff8100306b:	f0 0f b1 0a          	lock cmpxchg %ecx,(%rdx)
ffffffff8100306f:	0f 94 c0             	sete   %al
ffffffff81003072:	83 f0 01             	xor    $0x1,%eax
ffffffff81003075:	0f b6 c0             	movzbl %al,%eax
ffffffff81003078:	c9                   	leaveq 
ffffffff81003079:	c3                   	retq   

ffffffff8100307a <spinlock_unlock>:
ffffffff8100307a:	55                   	push   %rbp
ffffffff8100307b:	48 89 e5             	mov    %rsp,%rbp
ffffffff8100307e:	48 83 ec 08          	sub    $0x8,%rsp
ffffffff81003082:	48 89 7d f8          	mov    %rdi,-0x8(%rbp)
ffffffff81003086:	48 8b 55 f8          	mov    -0x8(%rbp),%rdx
ffffffff8100308a:	b8 01 00 00 00       	mov    $0x1,%eax
ffffffff8100308f:	b9 00 00 00 00       	mov    $0x0,%ecx
ffffffff81003094:	f0 0f b1 0a          	lock cmpxchg %ecx,(%rdx)
ffffffff81003098:	90                   	nop
ffffffff81003099:	c9                   	leaveq 
ffffffff8100309a:	c3                   	retq   

ffffffff8100309b <spinlock_lock_interrupt>:
ffffffff8100309b:	55                   	push   %rbp
ffffffff8100309c:	48 89 e5             	mov    %rsp,%rbp
ffffffff8100309f:	48 83 ec 08          	sub    $0x8,%rsp
ffffffff810030a3:	48 89 7d f8          	mov    %rdi,-0x8(%rbp)
ffffffff810030a7:	90                   	nop
ffffffff810030a8:	c9                   	leaveq 
ffffffff810030a9:	c3                   	retq   

ffffffff810030aa <spinlock_unlock_interrupt>:
ffffffff810030aa:	55                   	push   %rbp
ffffffff810030ab:	48 89 e5             	mov    %rsp,%rbp
ffffffff810030ae:	48 83 ec 08          	sub    $0x8,%rsp
ffffffff810030b2:	48 89 7d f8          	mov    %rdi,-0x8(%rbp)
ffffffff810030b6:	90                   	nop
ffffffff810030b7:	c9                   	leaveq 
ffffffff810030b8:	c3                   	retq   

ffffffff810030b9 <spinlock_try_lock_interrupt>:
ffffffff810030b9:	55                   	push   %rbp
ffffffff810030ba:	48 89 e5             	mov    %rsp,%rbp
ffffffff810030bd:	48 83 ec 20          	sub    $0x20,%rsp
ffffffff810030c1:	48 89 7d e8          	mov    %rdi,-0x18(%rbp)
ffffffff810030c5:	c7 45 fc 00 00 00 00 	movl   $0x0,-0x4(%rbp)
ffffffff810030cc:	b8 00 00 00 00       	mov    $0x0,%eax
ffffffff810030d1:	e8 63 3a 00 00       	callq  ffffffff81006b39 <_geti>
ffffffff810030d6:	48 8b 55 e8          	mov    -0x18(%rbp),%rdx
ffffffff810030da:	89 42 04             	mov    %eax,0x4(%rdx)
ffffffff810030dd:	48 8b 45 e8          	mov    -0x18(%rbp),%rax
ffffffff810030e1:	8b 40 04             	mov    0x4(%rax),%eax
ffffffff810030e4:	85 c0                	test   %eax,%eax
ffffffff810030e6:	74 0a                	je     ffffffff810030f2 <spinlock_try_lock_interrupt+0x39>
ffffffff810030e8:	b8 00 00 00 00       	mov    $0x0,%eax
ffffffff810030ed:	e8 43 3a 00 00       	callq  ffffffff81006b35 <_cli>
ffffffff810030f2:	48 8b 45 e8          	mov    -0x18(%rbp),%rax
ffffffff810030f6:	48 89 c7             	mov    %rax,%rdi
ffffffff810030f9:	e8 53 ff ff ff       	callq  ffffffff81003051 <spinlock_try_lock>
ffffffff810030fe:	89 45 fc             	mov    %eax,-0x4(%rbp)
ffffffff81003101:	83 7d fc 00          	cmpl   $0x0,-0x4(%rbp)
ffffffff81003105:	74 15                	je     ffffffff8100311c <spinlock_try_lock_interrupt+0x63>
ffffffff81003107:	48 8b 45 e8          	mov    -0x18(%rbp),%rax
ffffffff8100310b:	8b 40 04             	mov    0x4(%rax),%eax
ffffffff8100310e:	85 c0                	test   %eax,%eax
ffffffff81003110:	74 0a                	je     ffffffff8100311c <spinlock_try_lock_interrupt+0x63>
ffffffff81003112:	b8 00 00 00 00       	mov    $0x0,%eax
ffffffff81003117:	e8 1b 3a 00 00       	callq  ffffffff81006b37 <_sti>
ffffffff8100311c:	8b 45 fc             	mov    -0x4(%rbp),%eax
ffffffff8100311f:	c9                   	leaveq 
ffffffff81003120:	c3                   	retq   

ffffffff81003121 <idt_entry_add>:
ffffffff81003121:	55                   	push   %rbp
ffffffff81003122:	48 89 e5             	mov    %rsp,%rbp
ffffffff81003125:	48 83 ec 20          	sub    $0x20,%rsp
ffffffff81003129:	48 89 7d f8          	mov    %rdi,-0x8(%rbp)
ffffffff8100312d:	89 c8                	mov    %ecx,%eax
ffffffff8100312f:	4c 89 45 e0          	mov    %r8,-0x20(%rbp)
ffffffff81003133:	89 f1                	mov    %esi,%ecx
ffffffff81003135:	88 4d f4             	mov    %cl,-0xc(%rbp)
ffffffff81003138:	88 55 f0             	mov    %dl,-0x10(%rbp)
ffffffff8100313b:	66 89 45 ec          	mov    %ax,-0x14(%rbp)
ffffffff8100313f:	48 83 7d e0 00       	cmpq   $0x0,-0x20(%rbp)
ffffffff81003144:	75 07                	jne    ffffffff8100314d <idt_entry_add+0x2c>
ffffffff81003146:	b8 ff ff ff ff       	mov    $0xffffffff,%eax
ffffffff8100314b:	eb 4c                	jmp    ffffffff81003199 <idt_entry_add+0x78>
ffffffff8100314d:	48 8b 45 f8          	mov    -0x8(%rbp),%rax
ffffffff81003151:	89 c2                	mov    %eax,%edx
ffffffff81003153:	48 8b 45 e0          	mov    -0x20(%rbp),%rax
ffffffff81003157:	66 89 10             	mov    %dx,(%rax)
ffffffff8100315a:	48 8b 45 f8          	mov    -0x8(%rbp),%rax
ffffffff8100315e:	48 c1 e8 10          	shr    $0x10,%rax
ffffffff81003162:	89 c2                	mov    %eax,%edx
ffffffff81003164:	48 8b 45 e0          	mov    -0x20(%rbp),%rax
ffffffff81003168:	66 89 50 06          	mov    %dx,0x6(%rax)
ffffffff8100316c:	48 8b 45 f8          	mov    -0x8(%rbp),%rax
ffffffff81003170:	48 c1 e8 20          	shr    $0x20,%rax
ffffffff81003174:	89 c2                	mov    %eax,%edx
ffffffff81003176:	48 8b 45 e0          	mov    -0x20(%rbp),%rax
ffffffff8100317a:	89 50 08             	mov    %edx,0x8(%rax)
ffffffff8100317d:	48 8b 45 e0          	mov    -0x20(%rbp),%rax
ffffffff81003181:	0f b7 55 ec          	movzwl -0x14(%rbp),%edx
ffffffff81003185:	66 89 50 02          	mov    %dx,0x2(%rax)
ffffffff81003189:	48 8b 45 e0          	mov    -0x20(%rbp),%rax
ffffffff8100318d:	0f b6 55 f4          	movzbl -0xc(%rbp),%edx
ffffffff81003191:	88 50 05             	mov    %dl,0x5(%rax)
ffffffff81003194:	b8 00 00 00 00       	mov    $0x0,%eax
ffffffff81003199:	c9                   	leaveq 
ffffffff8100319a:	c3                   	retq   

ffffffff8100319b <isr_init>:
ffffffff8100319b:	55                   	push   %rbp
ffffffff8100319c:	48 89 e5             	mov    %rsp,%rbp
ffffffff8100319f:	48 83 ec 30          	sub    $0x30,%rsp
ffffffff810031a3:	48 c7 45 e0 00 00 00 	movq   $0x0,-0x20(%rbp)
ffffffff810031aa:	00 
ffffffff810031ab:	c7 45 dc 00 00 00 00 	movl   $0x0,-0x24(%rbp)
ffffffff810031b2:	66 c7 45 fe 00 00    	movw   $0x0,-0x2(%rbp)
ffffffff810031b8:	66 c7 45 fc 00 00    	movw   $0x0,-0x4(%rbp)
ffffffff810031be:	48 c7 45 f0 00 00 00 	movq   $0x0,-0x10(%rbp)
ffffffff810031c5:	00 
ffffffff810031c6:	48 c7 c7 00 e0 00 81 	mov    $0xffffffff8100e000,%rdi
ffffffff810031cd:	b8 00 00 00 00       	mov    $0x0,%eax
ffffffff810031d2:	e8 fe 3e 00 00       	callq  ffffffff810070d5 <kprintf>
ffffffff810031d7:	b8 00 00 00 00       	mov    $0x0,%eax
ffffffff810031dc:	e8 54 39 00 00       	callq  ffffffff81006b35 <_cli>
ffffffff810031e1:	ba 20 00 00 00       	mov    $0x20,%edx
ffffffff810031e6:	be 00 00 00 00       	mov    $0x0,%esi
ffffffff810031eb:	48 c7 c7 00 10 01 81 	mov    $0xffffffff81011000,%rdi
ffffffff810031f2:	e8 c3 75 00 00       	callq  ffffffff8100a7ba <memset>
ffffffff810031f7:	ba 01 00 00 00       	mov    $0x1,%edx
ffffffff810031fc:	be 00 10 00 00       	mov    $0x1000,%esi
ffffffff81003201:	bf 00 00 00 00       	mov    $0x0,%edi
ffffffff81003206:	e8 3e 52 00 00       	callq  ffffffff81008449 <vmmgr_alloc>
ffffffff8100320b:	48 89 05 ee dd 00 00 	mov    %rax,0xddee(%rip)        # ffffffff81011000 <_bss>
ffffffff81003212:	48 8b 05 e7 dd 00 00 	mov    0xdde7(%rip),%rax        # ffffffff81011000 <_bss>
ffffffff81003219:	48 85 c0             	test   %rax,%rax
ffffffff8100321c:	75 0a                	jne    ffffffff81003228 <isr_init+0x8d>
ffffffff8100321e:	b8 ff ff ff ff       	mov    $0xffffffff,%eax
ffffffff81003223:	e9 db 01 00 00       	jmpq   ffffffff81003403 <isr_init+0x268>
ffffffff81003228:	ba 01 00 00 00       	mov    $0x1,%edx
ffffffff8100322d:	be 00 18 00 00       	mov    $0x1800,%esi
ffffffff81003232:	bf 00 00 00 00       	mov    $0x0,%edi
ffffffff81003237:	e8 0d 52 00 00       	callq  ffffffff81008449 <vmmgr_alloc>
ffffffff8100323c:	48 89 05 d5 dd 00 00 	mov    %rax,0xddd5(%rip)        # ffffffff81011018 <_bss+0x18>
ffffffff81003243:	48 8b 05 ce dd 00 00 	mov    0xddce(%rip),%rax        # ffffffff81011018 <_bss+0x18>
ffffffff8100324a:	48 85 c0             	test   %rax,%rax
ffffffff8100324d:	75 0a                	jne    ffffffff81003259 <isr_init+0xbe>
ffffffff8100324f:	b8 ff ff ff ff       	mov    $0xffffffff,%eax
ffffffff81003254:	e9 aa 01 00 00       	jmpq   ffffffff81003403 <isr_init+0x268>
ffffffff81003259:	48 8b 05 b8 dd 00 00 	mov    0xddb8(%rip),%rax        # ffffffff81011018 <_bss+0x18>
ffffffff81003260:	ba 00 18 00 00       	mov    $0x1800,%edx
ffffffff81003265:	be 00 00 00 00       	mov    $0x0,%esi
ffffffff8100326a:	48 89 c7             	mov    %rax,%rdi
ffffffff8100326d:	e8 48 75 00 00       	callq  ffffffff8100a7ba <memset>
ffffffff81003272:	48 8b 05 87 dd 00 00 	mov    0xdd87(%rip),%rax        # ffffffff81011000 <_bss>
ffffffff81003279:	ba 00 10 00 00       	mov    $0x1000,%edx
ffffffff8100327e:	be 00 00 00 00       	mov    $0x0,%esi
ffffffff81003283:	48 89 c7             	mov    %rax,%rdi
ffffffff81003286:	e8 2f 75 00 00       	callq  ffffffff8100a7ba <memset>
ffffffff8100328b:	48 8b 05 6e dd 00 00 	mov    0xdd6e(%rip),%rax        # ffffffff81011000 <_bss>
ffffffff81003292:	48 89 45 e0          	mov    %rax,-0x20(%rbp)
ffffffff81003296:	66 c7 45 ee 00 00    	movw   $0x0,-0x12(%rbp)
ffffffff8100329c:	e9 2e 01 00 00       	jmpq   ffffffff810033cf <isr_init+0x234>
ffffffff810032a1:	66 83 7d ee 14       	cmpw   $0x14,-0x12(%rbp)
ffffffff810032a6:	76 0b                	jbe    ffffffff810032b3 <isr_init+0x118>
ffffffff810032a8:	66 83 7d ee 1f       	cmpw   $0x1f,-0x12(%rbp)
ffffffff810032ad:	0f 86 10 01 00 00    	jbe    ffffffff810033c3 <isr_init+0x228>
ffffffff810032b3:	66 83 7d ee 0f       	cmpw   $0xf,-0x12(%rbp)
ffffffff810032b8:	0f 84 05 01 00 00    	je     ffffffff810033c3 <isr_init+0x228>
ffffffff810032be:	66 83 7d ee 14       	cmpw   $0x14,-0x12(%rbp)
ffffffff810032c3:	0f 87 8e 00 00 00    	ja     ffffffff81003357 <isr_init+0x1bc>
ffffffff810032c9:	0f b7 45 ee          	movzwl -0x12(%rbp),%eax
ffffffff810032cd:	ba 00 7d 02 00       	mov    $0x27d00,%edx
ffffffff810032d2:	89 c1                	mov    %eax,%ecx
ffffffff810032d4:	d3 fa                	sar    %cl,%edx
ffffffff810032d6:	89 d0                	mov    %edx,%eax
ffffffff810032d8:	83 e0 01             	and    $0x1,%eax
ffffffff810032db:	85 c0                	test   %eax,%eax
ffffffff810032dd:	74 3c                	je     ffffffff8100331b <isr_init+0x180>
ffffffff810032df:	48 c7 c2 35 6b 00 81 	mov    $0xffffffff81006b35,%rdx
ffffffff810032e6:	48 c7 c0 fd 6a 00 81 	mov    $0xffffffff81006afd,%rax
ffffffff810032ed:	48 29 c2             	sub    %rax,%rdx
ffffffff810032f0:	48 89 d0             	mov    %rdx,%rax
ffffffff810032f3:	89 45 dc             	mov    %eax,-0x24(%rbp)
ffffffff810032f6:	0f b7 45 fc          	movzwl -0x4(%rbp),%eax
ffffffff810032fa:	0f af 45 dc          	imul   -0x24(%rbp),%eax
ffffffff810032fe:	89 c2                	mov    %eax,%edx
ffffffff81003300:	48 c7 c0 ad 69 00 81 	mov    $0xffffffff810069ad,%rax
ffffffff81003307:	48 01 d0             	add    %rdx,%rax
ffffffff8100330a:	48 89 45 f0          	mov    %rax,-0x10(%rbp)
ffffffff8100330e:	0f b7 45 fc          	movzwl -0x4(%rbp),%eax
ffffffff81003312:	83 c0 01             	add    $0x1,%eax
ffffffff81003315:	66 89 45 fc          	mov    %ax,-0x4(%rbp)
ffffffff81003319:	eb 76                	jmp    ffffffff81003391 <isr_init+0x1f6>
ffffffff8100331b:	48 c7 c2 3a 3e 00 81 	mov    $0xffffffff81003e3a,%rdx
ffffffff81003322:	48 c7 c0 09 3e 00 81 	mov    $0xffffffff81003e09,%rax
ffffffff81003329:	48 29 c2             	sub    %rax,%rdx
ffffffff8100332c:	48 89 d0             	mov    %rdx,%rax
ffffffff8100332f:	89 45 dc             	mov    %eax,-0x24(%rbp)
ffffffff81003332:	0f b7 45 fe          	movzwl -0x2(%rbp),%eax
ffffffff81003336:	0f af 45 dc          	imul   -0x24(%rbp),%eax
ffffffff8100333a:	89 c2                	mov    %eax,%edx
ffffffff8100333c:	48 c7 c0 50 3c 00 81 	mov    $0xffffffff81003c50,%rax
ffffffff81003343:	48 01 d0             	add    %rdx,%rax
ffffffff81003346:	48 89 45 f0          	mov    %rax,-0x10(%rbp)
ffffffff8100334a:	0f b7 45 fe          	movzwl -0x2(%rbp),%eax
ffffffff8100334e:	83 c0 01             	add    $0x1,%eax
ffffffff81003351:	66 89 45 fe          	mov    %ax,-0x2(%rbp)
ffffffff81003355:	eb 3a                	jmp    ffffffff81003391 <isr_init+0x1f6>
ffffffff81003357:	48 c7 c2 3a 3e 00 81 	mov    $0xffffffff81003e3a,%rdx
ffffffff8100335e:	48 c7 c0 09 3e 00 81 	mov    $0xffffffff81003e09,%rax
ffffffff81003365:	48 29 c2             	sub    %rax,%rdx
ffffffff81003368:	48 89 d0             	mov    %rdx,%rax
ffffffff8100336b:	89 45 dc             	mov    %eax,-0x24(%rbp)
ffffffff8100336e:	0f b7 45 fe          	movzwl -0x2(%rbp),%eax
ffffffff81003372:	0f af 45 dc          	imul   -0x24(%rbp),%eax
ffffffff81003376:	89 c2                	mov    %eax,%edx
ffffffff81003378:	48 c7 c0 50 3c 00 81 	mov    $0xffffffff81003c50,%rax
ffffffff8100337f:	48 01 d0             	add    %rdx,%rax
ffffffff81003382:	48 89 45 f0          	mov    %rax,-0x10(%rbp)
ffffffff81003386:	0f b7 45 fe          	movzwl -0x2(%rbp),%eax
ffffffff8100338a:	83 c0 01             	add    $0x1,%eax
ffffffff8100338d:	66 89 45 fe          	mov    %ax,-0x2(%rbp)
ffffffff81003391:	0f b7 45 ee          	movzwl -0x12(%rbp),%eax
ffffffff81003395:	48 c1 e0 04          	shl    $0x4,%rax
ffffffff81003399:	48 89 c2             	mov    %rax,%rdx
ffffffff8100339c:	48 8b 45 e0          	mov    -0x20(%rbp),%rax
ffffffff810033a0:	48 01 c2             	add    %rax,%rdx
ffffffff810033a3:	48 8b 45 f0          	mov    -0x10(%rbp),%rax
ffffffff810033a7:	49 89 d0             	mov    %rdx,%r8
ffffffff810033aa:	b9 08 00 00 00       	mov    $0x8,%ecx
ffffffff810033af:	ba 00 00 00 00       	mov    $0x0,%edx
ffffffff810033b4:	be 8e 00 00 00       	mov    $0x8e,%esi
ffffffff810033b9:	48 89 c7             	mov    %rax,%rdi
ffffffff810033bc:	e8 60 fd ff ff       	callq  ffffffff81003121 <idt_entry_add>
ffffffff810033c1:	eb 01                	jmp    ffffffff810033c4 <isr_init+0x229>
ffffffff810033c3:	90                   	nop
ffffffff810033c4:	0f b7 45 ee          	movzwl -0x12(%rbp),%eax
ffffffff810033c8:	83 c0 01             	add    $0x1,%eax
ffffffff810033cb:	66 89 45 ee          	mov    %ax,-0x12(%rbp)
ffffffff810033cf:	66 81 7d ee ff 00    	cmpw   $0xff,-0x12(%rbp)
ffffffff810033d5:	0f 86 c6 fe ff ff    	jbe    ffffffff810032a1 <isr_init+0x106>
ffffffff810033db:	48 8b 05 1e dc 00 00 	mov    0xdc1e(%rip),%rax        # ffffffff81011000 <_bss>
ffffffff810033e2:	48 89 05 21 dc 00 00 	mov    %rax,0xdc21(%rip)        # ffffffff8101100a <_bss+0xa>
ffffffff810033e9:	66 c7 05 16 dc 00 00 	movw   $0xfff,0xdc16(%rip)        # ffffffff81011008 <_bss+0x8>
ffffffff810033f0:	ff 0f 
ffffffff810033f2:	48 c7 c7 08 10 01 81 	mov    $0xffffffff81011008,%rdi
ffffffff810033f9:	e8 44 37 00 00       	callq  ffffffff81006b42 <_lidt>
ffffffff810033fe:	b8 00 00 00 00       	mov    $0x0,%eax
ffffffff81003403:	c9                   	leaveq 
ffffffff81003404:	c3                   	retq   

ffffffff81003405 <isr_install>:
ffffffff81003405:	55                   	push   %rbp
ffffffff81003406:	48 89 e5             	mov    %rsp,%rbp
ffffffff81003409:	48 83 ec 28          	sub    $0x28,%rsp
ffffffff8100340d:	48 89 7d e8          	mov    %rdi,-0x18(%rbp)
ffffffff81003411:	48 89 75 e0          	mov    %rsi,-0x20(%rbp)
ffffffff81003415:	89 d0                	mov    %edx,%eax
ffffffff81003417:	66 89 45 dc          	mov    %ax,-0x24(%rbp)
ffffffff8100341b:	48 c7 45 f0 00 00 00 	movq   $0x0,-0x10(%rbp)
ffffffff81003422:	00 
ffffffff81003423:	48 8b 05 ee db 00 00 	mov    0xdbee(%rip),%rax        # ffffffff81011018 <_bss+0x18>
ffffffff8100342a:	48 89 45 f0          	mov    %rax,-0x10(%rbp)
ffffffff8100342e:	66 c7 45 fe 00 00    	movw   $0x0,-0x2(%rbp)
ffffffff81003434:	e9 9e 00 00 00       	jmpq   ffffffff810034d7 <isr_install+0xd2>
ffffffff81003439:	0f b7 55 fe          	movzwl -0x2(%rbp),%edx
ffffffff8100343d:	48 89 d0             	mov    %rdx,%rax
ffffffff81003440:	48 01 c0             	add    %rax,%rax
ffffffff81003443:	48 01 d0             	add    %rdx,%rax
ffffffff81003446:	48 c1 e0 03          	shl    $0x3,%rax
ffffffff8100344a:	48 89 c2             	mov    %rax,%rdx
ffffffff8100344d:	48 8b 45 f0          	mov    -0x10(%rbp),%rax
ffffffff81003451:	48 01 d0             	add    %rdx,%rax
ffffffff81003454:	48 8b 40 08          	mov    0x8(%rax),%rax
ffffffff81003458:	48 85 c0             	test   %rax,%rax
ffffffff8100345b:	75 6f                	jne    ffffffff810034cc <isr_install+0xc7>
ffffffff8100345d:	0f b7 55 fe          	movzwl -0x2(%rbp),%edx
ffffffff81003461:	48 89 d0             	mov    %rdx,%rax
ffffffff81003464:	48 01 c0             	add    %rax,%rax
ffffffff81003467:	48 01 d0             	add    %rdx,%rax
ffffffff8100346a:	48 c1 e0 03          	shl    $0x3,%rax
ffffffff8100346e:	48 89 c2             	mov    %rax,%rdx
ffffffff81003471:	48 8b 45 f0          	mov    -0x10(%rbp),%rax
ffffffff81003475:	48 01 c2             	add    %rax,%rdx
ffffffff81003478:	48 8b 45 e8          	mov    -0x18(%rbp),%rax
ffffffff8100347c:	48 89 42 08          	mov    %rax,0x8(%rdx)
ffffffff81003480:	0f b7 55 fe          	movzwl -0x2(%rbp),%edx
ffffffff81003484:	48 89 d0             	mov    %rdx,%rax
ffffffff81003487:	48 01 c0             	add    %rax,%rax
ffffffff8100348a:	48 01 d0             	add    %rdx,%rax
ffffffff8100348d:	48 c1 e0 03          	shl    $0x3,%rax
ffffffff81003491:	48 89 c2             	mov    %rax,%rdx
ffffffff81003494:	48 8b 45 f0          	mov    -0x10(%rbp),%rax
ffffffff81003498:	48 01 c2             	add    %rax,%rdx
ffffffff8100349b:	0f b7 45 dc          	movzwl -0x24(%rbp),%eax
ffffffff8100349f:	66 89 02             	mov    %ax,(%rdx)
ffffffff810034a2:	0f b7 55 fe          	movzwl -0x2(%rbp),%edx
ffffffff810034a6:	48 89 d0             	mov    %rdx,%rax
ffffffff810034a9:	48 01 c0             	add    %rax,%rax
ffffffff810034ac:	48 01 d0             	add    %rdx,%rax
ffffffff810034af:	48 c1 e0 03          	shl    $0x3,%rax
ffffffff810034b3:	48 89 c2             	mov    %rax,%rdx
ffffffff810034b6:	48 8b 45 f0          	mov    -0x10(%rbp),%rax
ffffffff810034ba:	48 01 c2             	add    %rax,%rdx
ffffffff810034bd:	48 8b 45 e0          	mov    -0x20(%rbp),%rax
ffffffff810034c1:	48 89 42 10          	mov    %rax,0x10(%rdx)
ffffffff810034c5:	b8 00 00 00 00       	mov    $0x0,%eax
ffffffff810034ca:	eb 1c                	jmp    ffffffff810034e8 <isr_install+0xe3>
ffffffff810034cc:	0f b7 45 fe          	movzwl -0x2(%rbp),%eax
ffffffff810034d0:	83 c0 01             	add    $0x1,%eax
ffffffff810034d3:	66 89 45 fe          	mov    %ax,-0x2(%rbp)
ffffffff810034d7:	66 81 7d fe ff 00    	cmpw   $0xff,-0x2(%rbp)
ffffffff810034dd:	0f 86 56 ff ff ff    	jbe    ffffffff81003439 <isr_install+0x34>
ffffffff810034e3:	b8 ff ff ff ff       	mov    $0xffffffff,%eax
ffffffff810034e8:	c9                   	leaveq 
ffffffff810034e9:	c3                   	retq   

ffffffff810034ea <isr_uninstall>:
ffffffff810034ea:	55                   	push   %rbp
ffffffff810034eb:	48 89 e5             	mov    %rsp,%rbp
ffffffff810034ee:	48 83 ec 18          	sub    $0x18,%rsp
ffffffff810034f2:	48 89 7d e8          	mov    %rdi,-0x18(%rbp)
ffffffff810034f6:	48 c7 45 f0 00 00 00 	movq   $0x0,-0x10(%rbp)
ffffffff810034fd:	00 
ffffffff810034fe:	48 8b 05 13 db 00 00 	mov    0xdb13(%rip),%rax        # ffffffff81011018 <_bss+0x18>
ffffffff81003505:	48 89 45 f0          	mov    %rax,-0x10(%rbp)
ffffffff81003509:	66 c7 45 fe 00 00    	movw   $0x0,-0x2(%rbp)
ffffffff8100350f:	e9 96 00 00 00       	jmpq   ffffffff810035aa <isr_uninstall+0xc0>
ffffffff81003514:	0f b7 55 fe          	movzwl -0x2(%rbp),%edx
ffffffff81003518:	48 89 d0             	mov    %rdx,%rax
ffffffff8100351b:	48 01 c0             	add    %rax,%rax
ffffffff8100351e:	48 01 d0             	add    %rdx,%rax
ffffffff81003521:	48 c1 e0 03          	shl    $0x3,%rax
ffffffff81003525:	48 89 c2             	mov    %rax,%rdx
ffffffff81003528:	48 8b 45 f0          	mov    -0x10(%rbp),%rax
ffffffff8100352c:	48 01 d0             	add    %rdx,%rax
ffffffff8100352f:	48 8b 40 08          	mov    0x8(%rax),%rax
ffffffff81003533:	48 39 45 e8          	cmp    %rax,-0x18(%rbp)
ffffffff81003537:	75 66                	jne    ffffffff8100359f <isr_uninstall+0xb5>
ffffffff81003539:	0f b7 55 fe          	movzwl -0x2(%rbp),%edx
ffffffff8100353d:	48 89 d0             	mov    %rdx,%rax
ffffffff81003540:	48 01 c0             	add    %rax,%rax
ffffffff81003543:	48 01 d0             	add    %rdx,%rax
ffffffff81003546:	48 c1 e0 03          	shl    $0x3,%rax
ffffffff8100354a:	48 89 c2             	mov    %rax,%rdx
ffffffff8100354d:	48 8b 45 f0          	mov    -0x10(%rbp),%rax
ffffffff81003551:	48 01 d0             	add    %rdx,%rax
ffffffff81003554:	48 c7 40 08 00 00 00 	movq   $0x0,0x8(%rax)
ffffffff8100355b:	00 
ffffffff8100355c:	0f b7 55 fe          	movzwl -0x2(%rbp),%edx
ffffffff81003560:	48 89 d0             	mov    %rdx,%rax
ffffffff81003563:	48 01 c0             	add    %rax,%rax
ffffffff81003566:	48 01 d0             	add    %rdx,%rax
ffffffff81003569:	48 c1 e0 03          	shl    $0x3,%rax
ffffffff8100356d:	48 89 c2             	mov    %rax,%rdx
ffffffff81003570:	48 8b 45 f0          	mov    -0x10(%rbp),%rax
ffffffff81003574:	48 01 d0             	add    %rdx,%rax
ffffffff81003577:	66 c7 00 00 00       	movw   $0x0,(%rax)
ffffffff8100357c:	0f b7 55 fe          	movzwl -0x2(%rbp),%edx
ffffffff81003580:	48 89 d0             	mov    %rdx,%rax
ffffffff81003583:	48 01 c0             	add    %rax,%rax
ffffffff81003586:	48 01 d0             	add    %rdx,%rax
ffffffff81003589:	48 c1 e0 03          	shl    $0x3,%rax
ffffffff8100358d:	48 89 c2             	mov    %rax,%rdx
ffffffff81003590:	48 8b 45 f0          	mov    -0x10(%rbp),%rax
ffffffff81003594:	48 01 d0             	add    %rdx,%rax
ffffffff81003597:	48 c7 40 10 00 00 00 	movq   $0x0,0x10(%rax)
ffffffff8100359e:	00 
ffffffff8100359f:	0f b7 45 fe          	movzwl -0x2(%rbp),%eax
ffffffff810035a3:	83 c0 01             	add    $0x1,%eax
ffffffff810035a6:	66 89 45 fe          	mov    %ax,-0x2(%rbp)
ffffffff810035aa:	66 81 7d fe ff 00    	cmpw   $0xff,-0x2(%rbp)
ffffffff810035b0:	0f 86 5e ff ff ff    	jbe    ffffffff81003514 <isr_uninstall+0x2a>
ffffffff810035b6:	b8 ff ff ff ff       	mov    $0xffffffff,%eax
ffffffff810035bb:	c9                   	leaveq 
ffffffff810035bc:	c3                   	retq   

ffffffff810035bd <isr_dispatcher>:
ffffffff810035bd:	55                   	push   %rbp
ffffffff810035be:	48 89 e5             	mov    %rsp,%rbp
ffffffff810035c1:	48 83 ec 30          	sub    $0x30,%rsp
ffffffff810035c5:	48 89 7d e8          	mov    %rdi,-0x18(%rbp)
ffffffff810035c9:	48 89 75 e0          	mov    %rsi,-0x20(%rbp)
ffffffff810035cd:	48 89 55 d8          	mov    %rdx,-0x28(%rbp)
ffffffff810035d1:	c7 45 f8 00 00 00 00 	movl   $0x0,-0x8(%rbp)
ffffffff810035d8:	48 c7 45 f0 00 00 00 	movq   $0x0,-0x10(%rbp)
ffffffff810035df:	00 
ffffffff810035e0:	66 c7 45 fe 00 00    	movw   $0x0,-0x2(%rbp)
ffffffff810035e6:	e9 84 00 00 00       	jmpq   ffffffff8100366f <isr_dispatcher+0xb2>
ffffffff810035eb:	48 8b 0d 26 da 00 00 	mov    0xda26(%rip),%rcx        # ffffffff81011018 <_bss+0x18>
ffffffff810035f2:	0f b7 55 fe          	movzwl -0x2(%rbp),%edx
ffffffff810035f6:	48 89 d0             	mov    %rdx,%rax
ffffffff810035f9:	48 01 c0             	add    %rax,%rax
ffffffff810035fc:	48 01 d0             	add    %rdx,%rax
ffffffff810035ff:	48 c1 e0 03          	shl    $0x3,%rax
ffffffff81003603:	48 01 c8             	add    %rcx,%rax
ffffffff81003606:	48 89 45 f0          	mov    %rax,-0x10(%rbp)
ffffffff8100360a:	48 8b 45 f0          	mov    -0x10(%rbp),%rax
ffffffff8100360e:	0f b7 00             	movzwl (%rax),%eax
ffffffff81003611:	0f b7 c0             	movzwl %ax,%eax
ffffffff81003614:	48 39 45 e8          	cmp    %rax,-0x18(%rbp)
ffffffff81003618:	75 4a                	jne    ffffffff81003664 <isr_dispatcher+0xa7>
ffffffff8100361a:	48 8b 45 f0          	mov    -0x10(%rbp),%rax
ffffffff8100361e:	48 8b 40 08          	mov    0x8(%rax),%rax
ffffffff81003622:	48 85 c0             	test   %rax,%rax
ffffffff81003625:	74 3d                	je     ffffffff81003664 <isr_dispatcher+0xa7>
ffffffff81003627:	48 8b 45 d8          	mov    -0x28(%rbp),%rax
ffffffff8100362b:	48 89 c6             	mov    %rax,%rsi
ffffffff8100362e:	48 c7 c7 0a e0 00 81 	mov    $0xffffffff8100e00a,%rdi
ffffffff81003635:	b8 00 00 00 00       	mov    $0x0,%eax
ffffffff8100363a:	e8 96 3a 00 00       	callq  ffffffff810070d5 <kprintf>
ffffffff8100363f:	48 8b 45 f0          	mov    -0x10(%rbp),%rax
ffffffff81003643:	48 8b 48 08          	mov    0x8(%rax),%rcx
ffffffff81003647:	48 8b 45 f0          	mov    -0x10(%rbp),%rax
ffffffff8100364b:	48 8b 40 10          	mov    0x10(%rax),%rax
ffffffff8100364f:	48 8b 55 e0          	mov    -0x20(%rbp),%rdx
ffffffff81003653:	48 89 d6             	mov    %rdx,%rsi
ffffffff81003656:	48 89 c7             	mov    %rax,%rdi
ffffffff81003659:	ff d1                	callq  *%rcx
ffffffff8100365b:	89 45 f8             	mov    %eax,-0x8(%rbp)
ffffffff8100365e:	83 7d f8 00          	cmpl   $0x0,-0x8(%rbp)
ffffffff81003662:	74 19                	je     ffffffff8100367d <isr_dispatcher+0xc0>
ffffffff81003664:	0f b7 45 fe          	movzwl -0x2(%rbp),%eax
ffffffff81003668:	83 c0 01             	add    $0x1,%eax
ffffffff8100366b:	66 89 45 fe          	mov    %ax,-0x2(%rbp)
ffffffff8100366f:	66 81 7d fe ff 00    	cmpw   $0xff,-0x2(%rbp)
ffffffff81003675:	0f 86 70 ff ff ff    	jbe    ffffffff810035eb <isr_dispatcher+0x2e>
ffffffff8100367b:	eb 01                	jmp    ffffffff8100367e <isr_dispatcher+0xc1>
ffffffff8100367d:	90                   	nop
ffffffff8100367e:	90                   	nop
ffffffff8100367f:	c9                   	leaveq 
ffffffff81003680:	c3                   	retq   

ffffffff81003681 <lapic_init>:
ffffffff81003681:	55                   	push   %rbp
ffffffff81003682:	48 89 e5             	mov    %rsp,%rbp
ffffffff81003685:	48 83 ec 10          	sub    $0x10,%rsp
ffffffff81003689:	48 c7 45 f8 00 00 00 	movq   $0x0,-0x8(%rbp)
ffffffff81003690:	00 
ffffffff81003691:	e8 71 96 00 00       	callq  ffffffff8100cd07 <read_lapic_base>
ffffffff81003696:	48 25 00 f0 ff ff    	and    $0xfffffffffffff000,%rax
ffffffff8100369c:	48 89 05 95 d9 00 00 	mov    %rax,0xd995(%rip)        # ffffffff81011038 <lapic_root+0x18>
ffffffff810036a3:	48 8b 05 8e d9 00 00 	mov    0xd98e(%rip),%rax        # ffffffff81011038 <lapic_root+0x18>
ffffffff810036aa:	b9 0d 00 00 00       	mov    $0xd,%ecx
ffffffff810036af:	ba 10 04 00 00       	mov    $0x410,%edx
ffffffff810036b4:	be 00 00 00 00       	mov    $0x0,%esi
ffffffff810036b9:	48 89 c7             	mov    %rax,%rdi
ffffffff810036bc:	e8 88 4a 00 00       	callq  ffffffff81008149 <vmmgr_map>
ffffffff810036c1:	48 89 05 78 d9 00 00 	mov    %rax,0xd978(%rip)        # ffffffff81011040 <lapic_root+0x20>
ffffffff810036c8:	48 8b 05 69 d9 00 00 	mov    0xd969(%rip),%rax        # ffffffff81011038 <lapic_root+0x18>
ffffffff810036cf:	48 89 c6             	mov    %rax,%rsi
ffffffff810036d2:	48 c7 c7 20 e0 00 81 	mov    $0xffffffff8100e020,%rdi
ffffffff810036d9:	b8 00 00 00 00       	mov    $0x0,%eax
ffffffff810036de:	e8 f2 39 00 00       	callq  ffffffff810070d5 <kprintf>
ffffffff810036e3:	48 8b 05 56 d9 00 00 	mov    0xd956(%rip),%rax        # ffffffff81011040 <lapic_root+0x20>
ffffffff810036ea:	48 85 c0             	test   %rax,%rax
ffffffff810036ed:	75 07                	jne    ffffffff810036f6 <lapic_init+0x75>
ffffffff810036ef:	b8 ff ff ff ff       	mov    $0xffffffff,%eax
ffffffff810036f4:	eb 6f                	jmp    ffffffff81003765 <lapic_init+0xe4>
ffffffff810036f6:	48 8b 05 43 d9 00 00 	mov    0xd943(%rip),%rax        # ffffffff81011040 <lapic_root+0x20>
ffffffff810036fd:	48 89 45 f8          	mov    %rax,-0x8(%rbp)
ffffffff81003701:	48 8b 45 f8          	mov    -0x8(%rbp),%rax
ffffffff81003705:	8b 80 f0 00 00 00    	mov    0xf0(%rax),%eax
ffffffff8100370b:	80 e4 fe             	and    $0xfe,%ah
ffffffff8100370e:	89 c2                	mov    %eax,%edx
ffffffff81003710:	48 8b 45 f8          	mov    -0x8(%rbp),%rax
ffffffff81003714:	89 90 f0 00 00 00    	mov    %edx,0xf0(%rax)
ffffffff8100371a:	ba f0 00 00 00       	mov    $0xf0,%edx
ffffffff8100371f:	be 00 00 00 00       	mov    $0x0,%esi
ffffffff81003724:	48 c7 c7 46 38 00 81 	mov    $0xffffffff81003846,%rdi
ffffffff8100372b:	e8 d5 fc ff ff       	callq  ffffffff81003405 <isr_install>
ffffffff81003730:	ba 20 00 00 00       	mov    $0x20,%edx
ffffffff81003735:	48 c7 c6 20 10 01 81 	mov    $0xffffffff81011020,%rsi
ffffffff8100373c:	48 c7 c7 67 37 00 81 	mov    $0xffffffff81003767,%rdi
ffffffff81003743:	e8 bd fc ff ff       	callq  ffffffff81003405 <isr_install>
ffffffff81003748:	48 8b 45 f8          	mov    -0x8(%rbp),%rax
ffffffff8100374c:	c7 80 f0 00 00 00 f0 	movl   $0x1f0,0xf0(%rax)
ffffffff81003753:	01 00 00 
ffffffff81003756:	b8 00 00 00 00       	mov    $0x0,%eax
ffffffff8100375b:	e8 d7 33 00 00       	callq  ffffffff81006b37 <_sti>
ffffffff81003760:	b8 00 00 00 00       	mov    $0x0,%eax
ffffffff81003765:	c9                   	leaveq 
ffffffff81003766:	c3                   	retq   

ffffffff81003767 <lapic_timer_isr>:
ffffffff81003767:	55                   	push   %rbp
ffffffff81003768:	48 89 e5             	mov    %rsp,%rbp
ffffffff8100376b:	48 83 ec 20          	sub    $0x20,%rsp
ffffffff8100376f:	48 89 7d e8          	mov    %rdi,-0x18(%rbp)
ffffffff81003773:	48 89 75 e0          	mov    %rsi,-0x20(%rbp)
ffffffff81003777:	48 8b 45 e8          	mov    -0x18(%rbp),%rax
ffffffff8100377b:	48 89 45 f8          	mov    %rax,-0x8(%rbp)
ffffffff8100377f:	48 c7 45 f0 00 00 00 	movq   $0x0,-0x10(%rbp)
ffffffff81003786:	00 
ffffffff81003787:	48 8b 45 f8          	mov    -0x8(%rbp),%rax
ffffffff8100378b:	48 8b 40 20          	mov    0x20(%rax),%rax
ffffffff8100378f:	48 89 45 f0          	mov    %rax,-0x10(%rbp)
ffffffff81003793:	48 c7 c6 50 e0 00 81 	mov    $0xffffffff8100e050,%rsi
ffffffff8100379a:	48 c7 c7 30 e0 00 81 	mov    $0xffffffff8100e030,%rdi
ffffffff810037a1:	b8 00 00 00 00       	mov    $0x0,%eax
ffffffff810037a6:	e8 2a 39 00 00       	callq  ffffffff810070d5 <kprintf>
ffffffff810037ab:	48 8b 45 f0          	mov    -0x10(%rbp),%rax
ffffffff810037af:	c7 80 b0 00 00 00 01 	movl   $0x1,0xb0(%rax)
ffffffff810037b6:	00 00 00 
ffffffff810037b9:	b8 00 00 00 00       	mov    $0x0,%eax
ffffffff810037be:	c9                   	leaveq 
ffffffff810037bf:	c3                   	retq   

ffffffff810037c0 <lapic_isr>:
ffffffff810037c0:	55                   	push   %rbp
ffffffff810037c1:	48 89 e5             	mov    %rsp,%rbp
ffffffff810037c4:	48 83 ec 30          	sub    $0x30,%rsp
ffffffff810037c8:	48 89 7d d8          	mov    %rdi,-0x28(%rbp)
ffffffff810037cc:	48 89 75 d0          	mov    %rsi,-0x30(%rbp)
ffffffff810037d0:	48 8b 45 d8          	mov    -0x28(%rbp),%rax
ffffffff810037d4:	48 89 45 f8          	mov    %rax,-0x8(%rbp)
ffffffff810037d8:	48 c7 45 f0 00 00 00 	movq   $0x0,-0x10(%rbp)
ffffffff810037df:	00 
ffffffff810037e0:	e8 22 95 00 00       	callq  ffffffff8100cd07 <read_lapic_base>
ffffffff810037e5:	48 25 00 f0 ff ff    	and    $0xfffffffffffff000,%rax
ffffffff810037eb:	48 89 45 e8          	mov    %rax,-0x18(%rbp)
ffffffff810037ef:	48 8b 45 f8          	mov    -0x8(%rbp),%rax
ffffffff810037f3:	48 8b 40 18          	mov    0x18(%rax),%rax
ffffffff810037f7:	48 39 45 e8          	cmp    %rax,-0x18(%rbp)
ffffffff810037fb:	75 1c                	jne    ffffffff81003819 <lapic_isr+0x59>
ffffffff810037fd:	48 8b 45 f8          	mov    -0x8(%rbp),%rax
ffffffff81003801:	48 8b 40 20          	mov    0x20(%rax),%rax
ffffffff81003805:	48 89 45 f0          	mov    %rax,-0x10(%rbp)
ffffffff81003809:	48 8b 45 f0          	mov    -0x10(%rbp),%rax
ffffffff8100380d:	8b 80 80 02 00 00    	mov    0x280(%rax),%eax
ffffffff81003813:	85 c0                	test   %eax,%eax
ffffffff81003815:	74 1a                	je     ffffffff81003831 <lapic_isr+0x71>
ffffffff81003817:	eb 07                	jmp    ffffffff81003820 <lapic_isr+0x60>
ffffffff81003819:	b8 ff ff ff ff       	mov    $0xffffffff,%eax
ffffffff8100381e:	eb 24                	jmp    ffffffff81003844 <lapic_isr+0x84>
ffffffff81003820:	48 c7 c7 34 e0 00 81 	mov    $0xffffffff8100e034,%rdi
ffffffff81003827:	b8 00 00 00 00       	mov    $0x0,%eax
ffffffff8100382c:	e8 a4 38 00 00       	callq  ffffffff810070d5 <kprintf>
ffffffff81003831:	48 8b 45 f0          	mov    -0x10(%rbp),%rax
ffffffff81003835:	c7 80 b0 00 00 00 01 	movl   $0x1,0xb0(%rax)
ffffffff8100383c:	00 00 00 
ffffffff8100383f:	b8 00 00 00 00       	mov    $0x0,%eax
ffffffff81003844:	c9                   	leaveq 
ffffffff81003845:	c3                   	retq   

ffffffff81003846 <lapic_spurious_isr>:
ffffffff81003846:	55                   	push   %rbp
ffffffff81003847:	48 89 e5             	mov    %rsp,%rbp
ffffffff8100384a:	48 83 ec 10          	sub    $0x10,%rsp
ffffffff8100384e:	48 89 7d f8          	mov    %rdi,-0x8(%rbp)
ffffffff81003852:	48 89 75 f0          	mov    %rsi,-0x10(%rbp)
ffffffff81003856:	b8 00 00 00 00       	mov    $0x0,%eax
ffffffff8100385b:	c9                   	leaveq 
ffffffff8100385c:	c3                   	retq   

ffffffff8100385d <apic_timer_start>:
ffffffff8100385d:	55                   	push   %rbp
ffffffff8100385e:	48 89 e5             	mov    %rsp,%rbp
ffffffff81003861:	48 83 ec 18          	sub    $0x18,%rsp
ffffffff81003865:	89 7d ec             	mov    %edi,-0x14(%rbp)
ffffffff81003868:	48 8b 05 d1 d7 00 00 	mov    0xd7d1(%rip),%rax        # ffffffff81011040 <lapic_root+0x20>
ffffffff8100386f:	48 89 45 f8          	mov    %rax,-0x8(%rbp)
ffffffff81003873:	48 8b 45 f8          	mov    -0x8(%rbp),%rax
ffffffff81003877:	c7 80 20 03 00 00 20 	movl   $0x20020,0x320(%rax)
ffffffff8100387e:	00 02 00 
ffffffff81003881:	48 8b 45 f8          	mov    -0x8(%rbp),%rax
ffffffff81003885:	c7 80 f0 03 00 00 0a 	movl   $0xa,0x3f0(%rax)
ffffffff8100388c:	00 00 00 
ffffffff8100388f:	48 8b 45 f8          	mov    -0x8(%rbp),%rax
ffffffff81003893:	8b 55 ec             	mov    -0x14(%rbp),%edx
ffffffff81003896:	89 90 80 03 00 00    	mov    %edx,0x380(%rax)
ffffffff8100389c:	90                   	nop
ffffffff8100389d:	c9                   	leaveq 
ffffffff8100389e:	c3                   	retq   

ffffffff8100389f <apic_add_to_list>:
ffffffff8100389f:	55                   	push   %rbp
ffffffff810038a0:	48 89 e5             	mov    %rsp,%rbp
ffffffff810038a3:	90                   	nop
ffffffff810038a4:	5d                   	pop    %rbp
ffffffff810038a5:	c3                   	retq   

ffffffff810038a6 <gdt_entry_encode>:
ffffffff810038a6:	55                   	push   %rbp
ffffffff810038a7:	48 89 e5             	mov    %rsp,%rbp
ffffffff810038aa:	48 83 ec 20          	sub    $0x20,%rsp
ffffffff810038ae:	48 89 7d f8          	mov    %rdi,-0x8(%rbp)
ffffffff810038b2:	89 75 f4             	mov    %esi,-0xc(%rbp)
ffffffff810038b5:	89 55 f0             	mov    %edx,-0x10(%rbp)
ffffffff810038b8:	48 89 4d e8          	mov    %rcx,-0x18(%rbp)
ffffffff810038bc:	48 83 7d e8 00       	cmpq   $0x0,-0x18(%rbp)
ffffffff810038c1:	75 0a                	jne    ffffffff810038cd <gdt_entry_encode+0x27>
ffffffff810038c3:	b8 ff ff ff ff       	mov    $0xffffffff,%eax
ffffffff810038c8:	e9 71 01 00 00       	jmpq   ffffffff81003a3e <gdt_entry_encode+0x198>
ffffffff810038cd:	48 8b 45 e8          	mov    -0x18(%rbp),%rax
ffffffff810038d1:	ba 08 00 00 00       	mov    $0x8,%edx
ffffffff810038d6:	be 00 00 00 00       	mov    $0x0,%esi
ffffffff810038db:	48 89 c7             	mov    %rax,%rdi
ffffffff810038de:	e8 d7 6e 00 00       	callq  ffffffff8100a7ba <memset>
ffffffff810038e3:	48 8b 45 f8          	mov    -0x8(%rbp),%rax
ffffffff810038e7:	48 c1 e8 18          	shr    $0x18,%rax
ffffffff810038eb:	89 c2                	mov    %eax,%edx
ffffffff810038ed:	48 8b 45 e8          	mov    -0x18(%rbp),%rax
ffffffff810038f1:	88 50 07             	mov    %dl,0x7(%rax)
ffffffff810038f4:	48 8b 45 f8          	mov    -0x8(%rbp),%rax
ffffffff810038f8:	48 c1 e8 10          	shr    $0x10,%rax
ffffffff810038fc:	89 c2                	mov    %eax,%edx
ffffffff810038fe:	48 8b 45 e8          	mov    -0x18(%rbp),%rax
ffffffff81003902:	88 50 04             	mov    %dl,0x4(%rax)
ffffffff81003905:	48 8b 45 f8          	mov    -0x8(%rbp),%rax
ffffffff81003909:	89 c2                	mov    %eax,%edx
ffffffff8100390b:	48 8b 45 e8          	mov    -0x18(%rbp),%rax
ffffffff8100390f:	66 89 50 02          	mov    %dx,0x2(%rax)
ffffffff81003913:	8b 45 f0             	mov    -0x10(%rbp),%eax
ffffffff81003916:	83 e0 0f             	and    $0xf,%eax
ffffffff81003919:	48 8b 55 e8          	mov    -0x18(%rbp),%rdx
ffffffff8100391d:	83 e0 0f             	and    $0xf,%eax
ffffffff81003920:	89 c1                	mov    %eax,%ecx
ffffffff81003922:	0f b6 42 05          	movzbl 0x5(%rdx),%eax
ffffffff81003926:	83 e0 f0             	and    $0xfffffff0,%eax
ffffffff81003929:	09 c8                	or     %ecx,%eax
ffffffff8100392b:	88 42 05             	mov    %al,0x5(%rdx)
ffffffff8100392e:	8b 45 f0             	mov    -0x10(%rbp),%eax
ffffffff81003931:	c1 e8 04             	shr    $0x4,%eax
ffffffff81003934:	83 e0 01             	and    $0x1,%eax
ffffffff81003937:	48 8b 55 e8          	mov    -0x18(%rbp),%rdx
ffffffff8100393b:	83 e0 01             	and    $0x1,%eax
ffffffff8100393e:	c1 e0 04             	shl    $0x4,%eax
ffffffff81003941:	89 c1                	mov    %eax,%ecx
ffffffff81003943:	0f b6 42 05          	movzbl 0x5(%rdx),%eax
ffffffff81003947:	83 e0 ef             	and    $0xffffffef,%eax
ffffffff8100394a:	09 c8                	or     %ecx,%eax
ffffffff8100394c:	88 42 05             	mov    %al,0x5(%rdx)
ffffffff8100394f:	8b 45 f0             	mov    -0x10(%rbp),%eax
ffffffff81003952:	c1 e8 05             	shr    $0x5,%eax
ffffffff81003955:	83 e0 03             	and    $0x3,%eax
ffffffff81003958:	48 8b 55 e8          	mov    -0x18(%rbp),%rdx
ffffffff8100395c:	83 e0 03             	and    $0x3,%eax
ffffffff8100395f:	c1 e0 05             	shl    $0x5,%eax
ffffffff81003962:	89 c1                	mov    %eax,%ecx
ffffffff81003964:	0f b6 42 05          	movzbl 0x5(%rdx),%eax
ffffffff81003968:	83 e0 9f             	and    $0xffffff9f,%eax
ffffffff8100396b:	09 c8                	or     %ecx,%eax
ffffffff8100396d:	88 42 05             	mov    %al,0x5(%rdx)
ffffffff81003970:	8b 45 f0             	mov    -0x10(%rbp),%eax
ffffffff81003973:	c1 e8 07             	shr    $0x7,%eax
ffffffff81003976:	83 e0 01             	and    $0x1,%eax
ffffffff81003979:	48 8b 55 e8          	mov    -0x18(%rbp),%rdx
ffffffff8100397d:	c1 e0 07             	shl    $0x7,%eax
ffffffff81003980:	89 c1                	mov    %eax,%ecx
ffffffff81003982:	0f b6 42 05          	movzbl 0x5(%rdx),%eax
ffffffff81003986:	83 e0 7f             	and    $0x7f,%eax
ffffffff81003989:	09 c8                	or     %ecx,%eax
ffffffff8100398b:	88 42 05             	mov    %al,0x5(%rdx)
ffffffff8100398e:	8b 45 f0             	mov    -0x10(%rbp),%eax
ffffffff81003991:	c1 e8 0c             	shr    $0xc,%eax
ffffffff81003994:	83 e0 01             	and    $0x1,%eax
ffffffff81003997:	48 8b 55 e8          	mov    -0x18(%rbp),%rdx
ffffffff8100399b:	83 e0 01             	and    $0x1,%eax
ffffffff8100399e:	c1 e0 04             	shl    $0x4,%eax
ffffffff810039a1:	89 c1                	mov    %eax,%ecx
ffffffff810039a3:	0f b6 42 06          	movzbl 0x6(%rdx),%eax
ffffffff810039a7:	83 e0 ef             	and    $0xffffffef,%eax
ffffffff810039aa:	09 c8                	or     %ecx,%eax
ffffffff810039ac:	88 42 06             	mov    %al,0x6(%rdx)
ffffffff810039af:	8b 45 f0             	mov    -0x10(%rbp),%eax
ffffffff810039b2:	c1 e8 0d             	shr    $0xd,%eax
ffffffff810039b5:	83 e0 01             	and    $0x1,%eax
ffffffff810039b8:	48 8b 55 e8          	mov    -0x18(%rbp),%rdx
ffffffff810039bc:	83 e0 01             	and    $0x1,%eax
ffffffff810039bf:	c1 e0 05             	shl    $0x5,%eax
ffffffff810039c2:	89 c1                	mov    %eax,%ecx
ffffffff810039c4:	0f b6 42 06          	movzbl 0x6(%rdx),%eax
ffffffff810039c8:	83 e0 df             	and    $0xffffffdf,%eax
ffffffff810039cb:	09 c8                	or     %ecx,%eax
ffffffff810039cd:	88 42 06             	mov    %al,0x6(%rdx)
ffffffff810039d0:	8b 45 f0             	mov    -0x10(%rbp),%eax
ffffffff810039d3:	c1 e8 0e             	shr    $0xe,%eax
ffffffff810039d6:	83 e0 01             	and    $0x1,%eax
ffffffff810039d9:	48 8b 55 e8          	mov    -0x18(%rbp),%rdx
ffffffff810039dd:	83 e0 01             	and    $0x1,%eax
ffffffff810039e0:	c1 e0 06             	shl    $0x6,%eax
ffffffff810039e3:	89 c1                	mov    %eax,%ecx
ffffffff810039e5:	0f b6 42 06          	movzbl 0x6(%rdx),%eax
ffffffff810039e9:	83 e0 bf             	and    $0xffffffbf,%eax
ffffffff810039ec:	09 c8                	or     %ecx,%eax
ffffffff810039ee:	88 42 06             	mov    %al,0x6(%rdx)
ffffffff810039f1:	8b 45 f0             	mov    -0x10(%rbp),%eax
ffffffff810039f4:	c1 e8 0f             	shr    $0xf,%eax
ffffffff810039f7:	83 e0 01             	and    $0x1,%eax
ffffffff810039fa:	48 8b 55 e8          	mov    -0x18(%rbp),%rdx
ffffffff810039fe:	c1 e0 07             	shl    $0x7,%eax
ffffffff81003a01:	89 c1                	mov    %eax,%ecx
ffffffff81003a03:	0f b6 42 06          	movzbl 0x6(%rdx),%eax
ffffffff81003a07:	83 e0 7f             	and    $0x7f,%eax
ffffffff81003a0a:	09 c8                	or     %ecx,%eax
ffffffff81003a0c:	88 42 06             	mov    %al,0x6(%rdx)
ffffffff81003a0f:	8b 45 f4             	mov    -0xc(%rbp),%eax
ffffffff81003a12:	89 c2                	mov    %eax,%edx
ffffffff81003a14:	48 8b 45 e8          	mov    -0x18(%rbp),%rax
ffffffff81003a18:	66 89 10             	mov    %dx,(%rax)
ffffffff81003a1b:	8b 45 f4             	mov    -0xc(%rbp),%eax
ffffffff81003a1e:	c1 e8 10             	shr    $0x10,%eax
ffffffff81003a21:	83 e0 0f             	and    $0xf,%eax
ffffffff81003a24:	48 8b 55 e8          	mov    -0x18(%rbp),%rdx
ffffffff81003a28:	83 e0 0f             	and    $0xf,%eax
ffffffff81003a2b:	89 c1                	mov    %eax,%ecx
ffffffff81003a2d:	0f b6 42 06          	movzbl 0x6(%rdx),%eax
ffffffff81003a31:	83 e0 f0             	and    $0xfffffff0,%eax
ffffffff81003a34:	09 c8                	or     %ecx,%eax
ffffffff81003a36:	88 42 06             	mov    %al,0x6(%rdx)
ffffffff81003a39:	b8 00 00 00 00       	mov    $0x0,%eax
ffffffff81003a3e:	c9                   	leaveq 
ffffffff81003a3f:	c3                   	retq   

ffffffff81003a40 <gdt_init>:
ffffffff81003a40:	55                   	push   %rbp
ffffffff81003a41:	48 89 e5             	mov    %rsp,%rbp
ffffffff81003a44:	48 83 ec 20          	sub    $0x20,%rsp
ffffffff81003a48:	c7 45 fc 00 00 00 00 	movl   $0x0,-0x4(%rbp)
ffffffff81003a4f:	48 c7 45 f0 00 00 00 	movq   $0x0,-0x10(%rbp)
ffffffff81003a56:	00 
ffffffff81003a57:	48 c7 45 e8 00 00 00 	movq   $0x0,-0x18(%rbp)
ffffffff81003a5e:	00 
ffffffff81003a5f:	ba 20 00 00 00       	mov    $0x20,%edx
ffffffff81003a64:	be 00 00 00 00       	mov    $0x0,%esi
ffffffff81003a69:	48 c7 c7 60 10 01 81 	mov    $0xffffffff81011060,%rdi
ffffffff81003a70:	e8 45 6d 00 00       	callq  ffffffff8100a7ba <memset>
ffffffff81003a75:	48 c7 c7 60 e0 00 81 	mov    $0xffffffff8100e060,%rdi
ffffffff81003a7c:	b8 00 00 00 00       	mov    $0x0,%eax
ffffffff81003a81:	e8 4f 36 00 00       	callq  ffffffff810070d5 <kprintf>
ffffffff81003a86:	ba 01 00 00 00       	mov    $0x1,%edx
ffffffff81003a8b:	be 00 00 01 00       	mov    $0x10000,%esi
ffffffff81003a90:	bf 00 00 00 00       	mov    $0x0,%edi
ffffffff81003a95:	e8 af 49 00 00       	callq  ffffffff81008449 <vmmgr_alloc>
ffffffff81003a9a:	48 89 05 bf d5 00 00 	mov    %rax,0xd5bf(%rip)        # ffffffff81011060 <gdt_root>
ffffffff81003aa1:	ba 01 00 00 00       	mov    $0x1,%edx
ffffffff81003aa6:	be 68 00 00 00       	mov    $0x68,%esi
ffffffff81003aab:	bf 00 00 00 00       	mov    $0x0,%edi
ffffffff81003ab0:	e8 94 49 00 00       	callq  ffffffff81008449 <vmmgr_alloc>
ffffffff81003ab5:	48 89 05 bc d5 00 00 	mov    %rax,0xd5bc(%rip)        # ffffffff81011078 <gdt_root+0x18>
ffffffff81003abc:	48 8b 05 9d d5 00 00 	mov    0xd59d(%rip),%rax        # ffffffff81011060 <gdt_root>
ffffffff81003ac3:	48 85 c0             	test   %rax,%rax
ffffffff81003ac6:	74 0c                	je     ffffffff81003ad4 <gdt_init+0x94>
ffffffff81003ac8:	48 8b 05 a9 d5 00 00 	mov    0xd5a9(%rip),%rax        # ffffffff81011078 <gdt_root+0x18>
ffffffff81003acf:	48 85 c0             	test   %rax,%rax
ffffffff81003ad2:	75 0a                	jne    ffffffff81003ade <gdt_init+0x9e>
ffffffff81003ad4:	b8 ff ff ff ff       	mov    $0xffffffff,%eax
ffffffff81003ad9:	e9 6b 01 00 00       	jmpq   ffffffff81003c49 <gdt_init+0x209>
ffffffff81003ade:	48 8b 05 7b d5 00 00 	mov    0xd57b(%rip),%rax        # ffffffff81011060 <gdt_root>
ffffffff81003ae5:	48 89 45 f0          	mov    %rax,-0x10(%rbp)
ffffffff81003ae9:	48 8b 05 88 d5 00 00 	mov    0xd588(%rip),%rax        # ffffffff81011078 <gdt_root+0x18>
ffffffff81003af0:	48 89 45 e8          	mov    %rax,-0x18(%rbp)
ffffffff81003af4:	48 8b 45 f0          	mov    -0x10(%rbp),%rax
ffffffff81003af8:	ba 00 00 01 00       	mov    $0x10000,%edx
ffffffff81003afd:	be 00 00 00 00       	mov    $0x0,%esi
ffffffff81003b02:	48 89 c7             	mov    %rax,%rdi
ffffffff81003b05:	e8 b0 6c 00 00       	callq  ffffffff8100a7ba <memset>
ffffffff81003b0a:	48 8b 45 e8          	mov    -0x18(%rbp),%rax
ffffffff81003b0e:	ba 68 00 00 00       	mov    $0x68,%edx
ffffffff81003b13:	be 00 00 00 00       	mov    $0x0,%esi
ffffffff81003b18:	48 89 c7             	mov    %rax,%rdi
ffffffff81003b1b:	e8 9a 6c 00 00       	callq  ffffffff8100a7ba <memset>
ffffffff81003b20:	c7 45 fc 9a a0 00 00 	movl   $0xa09a,-0x4(%rbp)
ffffffff81003b27:	48 8b 45 f0          	mov    -0x10(%rbp),%rax
ffffffff81003b2b:	48 8d 50 08          	lea    0x8(%rax),%rdx
ffffffff81003b2f:	8b 45 fc             	mov    -0x4(%rbp),%eax
ffffffff81003b32:	48 89 d1             	mov    %rdx,%rcx
ffffffff81003b35:	89 c2                	mov    %eax,%edx
ffffffff81003b37:	be ff ff ff ff       	mov    $0xffffffff,%esi
ffffffff81003b3c:	bf 00 00 00 00       	mov    $0x0,%edi
ffffffff81003b41:	e8 60 fd ff ff       	callq  ffffffff810038a6 <gdt_entry_encode>
ffffffff81003b46:	c7 45 fc 92 80 00 00 	movl   $0x8092,-0x4(%rbp)
ffffffff81003b4d:	48 8b 45 f0          	mov    -0x10(%rbp),%rax
ffffffff81003b51:	48 8d 50 10          	lea    0x10(%rax),%rdx
ffffffff81003b55:	8b 45 fc             	mov    -0x4(%rbp),%eax
ffffffff81003b58:	48 89 d1             	mov    %rdx,%rcx
ffffffff81003b5b:	89 c2                	mov    %eax,%edx
ffffffff81003b5d:	be ff ff ff ff       	mov    $0xffffffff,%esi
ffffffff81003b62:	bf 00 00 00 00       	mov    $0x0,%edi
ffffffff81003b67:	e8 3a fd ff ff       	callq  ffffffff810038a6 <gdt_entry_encode>
ffffffff81003b6c:	c7 45 fc fa a0 00 00 	movl   $0xa0fa,-0x4(%rbp)
ffffffff81003b73:	48 8b 45 f0          	mov    -0x10(%rbp),%rax
ffffffff81003b77:	48 8d 50 18          	lea    0x18(%rax),%rdx
ffffffff81003b7b:	8b 45 fc             	mov    -0x4(%rbp),%eax
ffffffff81003b7e:	48 89 d1             	mov    %rdx,%rcx
ffffffff81003b81:	89 c2                	mov    %eax,%edx
ffffffff81003b83:	be ff ff ff ff       	mov    $0xffffffff,%esi
ffffffff81003b88:	bf 00 00 00 00       	mov    $0x0,%edi
ffffffff81003b8d:	e8 14 fd ff ff       	callq  ffffffff810038a6 <gdt_entry_encode>
ffffffff81003b92:	c7 45 fc f2 80 00 00 	movl   $0x80f2,-0x4(%rbp)
ffffffff81003b99:	48 8b 45 f0          	mov    -0x10(%rbp),%rax
ffffffff81003b9d:	48 8d 50 20          	lea    0x20(%rax),%rdx
ffffffff81003ba1:	8b 45 fc             	mov    -0x4(%rbp),%eax
ffffffff81003ba4:	48 89 d1             	mov    %rdx,%rcx
ffffffff81003ba7:	89 c2                	mov    %eax,%edx
ffffffff81003ba9:	be ff ff ff ff       	mov    $0xffffffff,%esi
ffffffff81003bae:	bf 00 00 00 00       	mov    $0x0,%edi
ffffffff81003bb3:	e8 ee fc ff ff       	callq  ffffffff810038a6 <gdt_entry_encode>
ffffffff81003bb8:	c7 45 fc 89 80 00 00 	movl   $0x8089,-0x4(%rbp)
ffffffff81003bbf:	48 8b 45 e8          	mov    -0x18(%rbp),%rax
ffffffff81003bc3:	66 c7 40 66 08 00    	movw   $0x8,0x66(%rax)
ffffffff81003bc9:	48 8b 45 f0          	mov    -0x10(%rbp),%rax
ffffffff81003bcd:	48 8d 48 28          	lea    0x28(%rax),%rcx
ffffffff81003bd1:	48 8b 45 e8          	mov    -0x18(%rbp),%rax
ffffffff81003bd5:	8b 55 fc             	mov    -0x4(%rbp),%edx
ffffffff81003bd8:	be 07 00 00 00       	mov    $0x7,%esi
ffffffff81003bdd:	48 89 c7             	mov    %rax,%rdi
ffffffff81003be0:	e8 c1 fc ff ff       	callq  ffffffff810038a6 <gdt_entry_encode>
ffffffff81003be5:	48 8b 55 e8          	mov    -0x18(%rbp),%rdx
ffffffff81003be9:	48 8b 45 f0          	mov    -0x10(%rbp),%rax
ffffffff81003bed:	48 83 c0 30          	add    $0x30,%rax
ffffffff81003bf1:	48 c1 ea 20          	shr    $0x20,%rdx
ffffffff81003bf5:	48 89 10             	mov    %rdx,(%rax)
ffffffff81003bf8:	48 8b 45 f0          	mov    -0x10(%rbp),%rax
ffffffff81003bfc:	48 89 05 67 d4 00 00 	mov    %rax,0xd467(%rip)        # ffffffff8101106a <gdt_root+0xa>
ffffffff81003c03:	66 c7 05 5c d4 00 00 	movw   $0xffff,0xd45c(%rip)        # ffffffff81011068 <gdt_root+0x8>
ffffffff81003c0a:	ff ff 
ffffffff81003c0c:	48 c7 c7 68 10 01 81 	mov    $0xffffffff81011068,%rdi
ffffffff81003c13:	e8 2e 2f 00 00       	callq  ffffffff81006b46 <_lgdt>
ffffffff81003c18:	bf 28 00 00 00       	mov    $0x28,%edi
ffffffff81003c1d:	e8 28 2f 00 00       	callq  ffffffff81006b4a <_ltr>
ffffffff81003c22:	48 8b 15 4f d4 00 00 	mov    0xd44f(%rip),%rdx        # ffffffff81011078 <gdt_root+0x18>
ffffffff81003c29:	48 8b 05 30 d4 00 00 	mov    0xd430(%rip),%rax        # ffffffff81011060 <gdt_root>
ffffffff81003c30:	48 89 c6             	mov    %rax,%rsi
ffffffff81003c33:	48 c7 c7 6a e0 00 81 	mov    $0xffffffff8100e06a,%rdi
ffffffff81003c3a:	b8 00 00 00 00       	mov    $0x0,%eax
ffffffff81003c3f:	e8 91 34 00 00       	callq  ffffffff810070d5 <kprintf>
ffffffff81003c44:	b8 00 00 00 00       	mov    $0x0,%eax
ffffffff81003c49:	c9                   	leaveq 
ffffffff81003c4a:	c3                   	retq   
ffffffff81003c4b:	0f 1f 44 00 00       	nopl   0x0(%rax,%rax,1)

ffffffff81003c50 <isr_no_ec_begin>:
ffffffff81003c50:	55                   	push   %rbp
ffffffff81003c51:	48 89 e5             	mov    %rsp,%rbp
ffffffff81003c54:	41 53                	push   %r11
ffffffff81003c56:	41 52                	push   %r10
ffffffff81003c58:	41 51                	push   %r9
ffffffff81003c5a:	41 50                	push   %r8
ffffffff81003c5c:	57                   	push   %rdi
ffffffff81003c5d:	56                   	push   %rsi
ffffffff81003c5e:	51                   	push   %rcx
ffffffff81003c5f:	52                   	push   %rdx
ffffffff81003c60:	50                   	push   %rax
ffffffff81003c61:	fc                   	cld    
ffffffff81003c62:	bf 00 00 00 00       	mov    $0x0,%edi
ffffffff81003c67:	be 00 00 00 00       	mov    $0x0,%esi
ffffffff81003c6c:	e8 4c f9 ff ff       	callq  ffffffff810035bd <isr_dispatcher>
ffffffff81003c71:	58                   	pop    %rax
ffffffff81003c72:	5a                   	pop    %rdx
ffffffff81003c73:	59                   	pop    %rcx
ffffffff81003c74:	5e                   	pop    %rsi
ffffffff81003c75:	5f                   	pop    %rdi
ffffffff81003c76:	41 58                	pop    %r8
ffffffff81003c78:	41 59                	pop    %r9
ffffffff81003c7a:	41 5a                	pop    %r10
ffffffff81003c7c:	41 5b                	pop    %r11
ffffffff81003c7e:	5d                   	pop    %rbp
ffffffff81003c7f:	48 cf                	iretq  

ffffffff81003c81 <isr_1>:
ffffffff81003c81:	55                   	push   %rbp
ffffffff81003c82:	48 89 e5             	mov    %rsp,%rbp
ffffffff81003c85:	41 53                	push   %r11
ffffffff81003c87:	41 52                	push   %r10
ffffffff81003c89:	41 51                	push   %r9
ffffffff81003c8b:	41 50                	push   %r8
ffffffff81003c8d:	57                   	push   %rdi
ffffffff81003c8e:	56                   	push   %rsi
ffffffff81003c8f:	51                   	push   %rcx
ffffffff81003c90:	52                   	push   %rdx
ffffffff81003c91:	50                   	push   %rax
ffffffff81003c92:	fc                   	cld    
ffffffff81003c93:	bf 01 00 00 00       	mov    $0x1,%edi
ffffffff81003c98:	be 00 00 00 00       	mov    $0x0,%esi
ffffffff81003c9d:	e8 1b f9 ff ff       	callq  ffffffff810035bd <isr_dispatcher>
ffffffff81003ca2:	58                   	pop    %rax
ffffffff81003ca3:	5a                   	pop    %rdx
ffffffff81003ca4:	59                   	pop    %rcx
ffffffff81003ca5:	5e                   	pop    %rsi
ffffffff81003ca6:	5f                   	pop    %rdi
ffffffff81003ca7:	41 58                	pop    %r8
ffffffff81003ca9:	41 59                	pop    %r9
ffffffff81003cab:	41 5a                	pop    %r10
ffffffff81003cad:	41 5b                	pop    %r11
ffffffff81003caf:	5d                   	pop    %rbp
ffffffff81003cb0:	48 cf                	iretq  

ffffffff81003cb2 <isr_2>:
ffffffff81003cb2:	55                   	push   %rbp
ffffffff81003cb3:	48 89 e5             	mov    %rsp,%rbp
ffffffff81003cb6:	41 53                	push   %r11
ffffffff81003cb8:	41 52                	push   %r10
ffffffff81003cba:	41 51                	push   %r9
ffffffff81003cbc:	41 50                	push   %r8
ffffffff81003cbe:	57                   	push   %rdi
ffffffff81003cbf:	56                   	push   %rsi
ffffffff81003cc0:	51                   	push   %rcx
ffffffff81003cc1:	52                   	push   %rdx
ffffffff81003cc2:	50                   	push   %rax
ffffffff81003cc3:	fc                   	cld    
ffffffff81003cc4:	bf 02 00 00 00       	mov    $0x2,%edi
ffffffff81003cc9:	be 00 00 00 00       	mov    $0x0,%esi
ffffffff81003cce:	e8 ea f8 ff ff       	callq  ffffffff810035bd <isr_dispatcher>
ffffffff81003cd3:	58                   	pop    %rax
ffffffff81003cd4:	5a                   	pop    %rdx
ffffffff81003cd5:	59                   	pop    %rcx
ffffffff81003cd6:	5e                   	pop    %rsi
ffffffff81003cd7:	5f                   	pop    %rdi
ffffffff81003cd8:	41 58                	pop    %r8
ffffffff81003cda:	41 59                	pop    %r9
ffffffff81003cdc:	41 5a                	pop    %r10
ffffffff81003cde:	41 5b                	pop    %r11
ffffffff81003ce0:	5d                   	pop    %rbp
ffffffff81003ce1:	48 cf                	iretq  

ffffffff81003ce3 <isr_3>:
ffffffff81003ce3:	55                   	push   %rbp
ffffffff81003ce4:	48 89 e5             	mov    %rsp,%rbp
ffffffff81003ce7:	41 53                	push   %r11
ffffffff81003ce9:	41 52                	push   %r10
ffffffff81003ceb:	41 51                	push   %r9
ffffffff81003ced:	41 50                	push   %r8
ffffffff81003cef:	57                   	push   %rdi
ffffffff81003cf0:	56                   	push   %rsi
ffffffff81003cf1:	51                   	push   %rcx
ffffffff81003cf2:	52                   	push   %rdx
ffffffff81003cf3:	50                   	push   %rax
ffffffff81003cf4:	fc                   	cld    
ffffffff81003cf5:	bf 03 00 00 00       	mov    $0x3,%edi
ffffffff81003cfa:	be 00 00 00 00       	mov    $0x0,%esi
ffffffff81003cff:	e8 b9 f8 ff ff       	callq  ffffffff810035bd <isr_dispatcher>
ffffffff81003d04:	58                   	pop    %rax
ffffffff81003d05:	5a                   	pop    %rdx
ffffffff81003d06:	59                   	pop    %rcx
ffffffff81003d07:	5e                   	pop    %rsi
ffffffff81003d08:	5f                   	pop    %rdi
ffffffff81003d09:	41 58                	pop    %r8
ffffffff81003d0b:	41 59                	pop    %r9
ffffffff81003d0d:	41 5a                	pop    %r10
ffffffff81003d0f:	41 5b                	pop    %r11
ffffffff81003d11:	5d                   	pop    %rbp
ffffffff81003d12:	48 cf                	iretq  

ffffffff81003d14 <isr_4>:
ffffffff81003d14:	55                   	push   %rbp
ffffffff81003d15:	48 89 e5             	mov    %rsp,%rbp
ffffffff81003d18:	41 53                	push   %r11
ffffffff81003d1a:	41 52                	push   %r10
ffffffff81003d1c:	41 51                	push   %r9
ffffffff81003d1e:	41 50                	push   %r8
ffffffff81003d20:	57                   	push   %rdi
ffffffff81003d21:	56                   	push   %rsi
ffffffff81003d22:	51                   	push   %rcx
ffffffff81003d23:	52                   	push   %rdx
ffffffff81003d24:	50                   	push   %rax
ffffffff81003d25:	fc                   	cld    
ffffffff81003d26:	bf 04 00 00 00       	mov    $0x4,%edi
ffffffff81003d2b:	be 00 00 00 00       	mov    $0x0,%esi
ffffffff81003d30:	e8 88 f8 ff ff       	callq  ffffffff810035bd <isr_dispatcher>
ffffffff81003d35:	58                   	pop    %rax
ffffffff81003d36:	5a                   	pop    %rdx
ffffffff81003d37:	59                   	pop    %rcx
ffffffff81003d38:	5e                   	pop    %rsi
ffffffff81003d39:	5f                   	pop    %rdi
ffffffff81003d3a:	41 58                	pop    %r8
ffffffff81003d3c:	41 59                	pop    %r9
ffffffff81003d3e:	41 5a                	pop    %r10
ffffffff81003d40:	41 5b                	pop    %r11
ffffffff81003d42:	5d                   	pop    %rbp
ffffffff81003d43:	48 cf                	iretq  

ffffffff81003d45 <isr_5>:
ffffffff81003d45:	55                   	push   %rbp
ffffffff81003d46:	48 89 e5             	mov    %rsp,%rbp
ffffffff81003d49:	41 53                	push   %r11
ffffffff81003d4b:	41 52                	push   %r10
ffffffff81003d4d:	41 51                	push   %r9
ffffffff81003d4f:	41 50                	push   %r8
ffffffff81003d51:	57                   	push   %rdi
ffffffff81003d52:	56                   	push   %rsi
ffffffff81003d53:	51                   	push   %rcx
ffffffff81003d54:	52                   	push   %rdx
ffffffff81003d55:	50                   	push   %rax
ffffffff81003d56:	fc                   	cld    
ffffffff81003d57:	bf 05 00 00 00       	mov    $0x5,%edi
ffffffff81003d5c:	be 00 00 00 00       	mov    $0x0,%esi
ffffffff81003d61:	e8 57 f8 ff ff       	callq  ffffffff810035bd <isr_dispatcher>
ffffffff81003d66:	58                   	pop    %rax
ffffffff81003d67:	5a                   	pop    %rdx
ffffffff81003d68:	59                   	pop    %rcx
ffffffff81003d69:	5e                   	pop    %rsi
ffffffff81003d6a:	5f                   	pop    %rdi
ffffffff81003d6b:	41 58                	pop    %r8
ffffffff81003d6d:	41 59                	pop    %r9
ffffffff81003d6f:	41 5a                	pop    %r10
ffffffff81003d71:	41 5b                	pop    %r11
ffffffff81003d73:	5d                   	pop    %rbp
ffffffff81003d74:	48 cf                	iretq  

ffffffff81003d76 <isr_6>:
ffffffff81003d76:	55                   	push   %rbp
ffffffff81003d77:	48 89 e5             	mov    %rsp,%rbp
ffffffff81003d7a:	41 53                	push   %r11
ffffffff81003d7c:	41 52                	push   %r10
ffffffff81003d7e:	41 51                	push   %r9
ffffffff81003d80:	41 50                	push   %r8
ffffffff81003d82:	57                   	push   %rdi
ffffffff81003d83:	56                   	push   %rsi
ffffffff81003d84:	51                   	push   %rcx
ffffffff81003d85:	52                   	push   %rdx
ffffffff81003d86:	50                   	push   %rax
ffffffff81003d87:	fc                   	cld    
ffffffff81003d88:	bf 06 00 00 00       	mov    $0x6,%edi
ffffffff81003d8d:	be 00 00 00 00       	mov    $0x0,%esi
ffffffff81003d92:	e8 26 f8 ff ff       	callq  ffffffff810035bd <isr_dispatcher>
ffffffff81003d97:	58                   	pop    %rax
ffffffff81003d98:	5a                   	pop    %rdx
ffffffff81003d99:	59                   	pop    %rcx
ffffffff81003d9a:	5e                   	pop    %rsi
ffffffff81003d9b:	5f                   	pop    %rdi
ffffffff81003d9c:	41 58                	pop    %r8
ffffffff81003d9e:	41 59                	pop    %r9
ffffffff81003da0:	41 5a                	pop    %r10
ffffffff81003da2:	41 5b                	pop    %r11
ffffffff81003da4:	5d                   	pop    %rbp
ffffffff81003da5:	48 cf                	iretq  

ffffffff81003da7 <isr_7>:
ffffffff81003da7:	55                   	push   %rbp
ffffffff81003da8:	48 89 e5             	mov    %rsp,%rbp
ffffffff81003dab:	41 53                	push   %r11
ffffffff81003dad:	41 52                	push   %r10
ffffffff81003daf:	41 51                	push   %r9
ffffffff81003db1:	41 50                	push   %r8
ffffffff81003db3:	57                   	push   %rdi
ffffffff81003db4:	56                   	push   %rsi
ffffffff81003db5:	51                   	push   %rcx
ffffffff81003db6:	52                   	push   %rdx
ffffffff81003db7:	50                   	push   %rax
ffffffff81003db8:	fc                   	cld    
ffffffff81003db9:	bf 07 00 00 00       	mov    $0x7,%edi
ffffffff81003dbe:	be 00 00 00 00       	mov    $0x0,%esi
ffffffff81003dc3:	e8 f5 f7 ff ff       	callq  ffffffff810035bd <isr_dispatcher>
ffffffff81003dc8:	58                   	pop    %rax
ffffffff81003dc9:	5a                   	pop    %rdx
ffffffff81003dca:	59                   	pop    %rcx
ffffffff81003dcb:	5e                   	pop    %rsi
ffffffff81003dcc:	5f                   	pop    %rdi
ffffffff81003dcd:	41 58                	pop    %r8
ffffffff81003dcf:	41 59                	pop    %r9
ffffffff81003dd1:	41 5a                	pop    %r10
ffffffff81003dd3:	41 5b                	pop    %r11
ffffffff81003dd5:	5d                   	pop    %rbp
ffffffff81003dd6:	48 cf                	iretq  

ffffffff81003dd8 <isr_9>:
ffffffff81003dd8:	55                   	push   %rbp
ffffffff81003dd9:	48 89 e5             	mov    %rsp,%rbp
ffffffff81003ddc:	41 53                	push   %r11
ffffffff81003dde:	41 52                	push   %r10
ffffffff81003de0:	41 51                	push   %r9
ffffffff81003de2:	41 50                	push   %r8
ffffffff81003de4:	57                   	push   %rdi
ffffffff81003de5:	56                   	push   %rsi
ffffffff81003de6:	51                   	push   %rcx
ffffffff81003de7:	52                   	push   %rdx
ffffffff81003de8:	50                   	push   %rax
ffffffff81003de9:	fc                   	cld    
ffffffff81003dea:	bf 09 00 00 00       	mov    $0x9,%edi
ffffffff81003def:	be 00 00 00 00       	mov    $0x0,%esi
ffffffff81003df4:	e8 c4 f7 ff ff       	callq  ffffffff810035bd <isr_dispatcher>
ffffffff81003df9:	58                   	pop    %rax
ffffffff81003dfa:	5a                   	pop    %rdx
ffffffff81003dfb:	59                   	pop    %rcx
ffffffff81003dfc:	5e                   	pop    %rsi
ffffffff81003dfd:	5f                   	pop    %rdi
ffffffff81003dfe:	41 58                	pop    %r8
ffffffff81003e00:	41 59                	pop    %r9
ffffffff81003e02:	41 5a                	pop    %r10
ffffffff81003e04:	41 5b                	pop    %r11
ffffffff81003e06:	5d                   	pop    %rbp
ffffffff81003e07:	48 cf                	iretq  

ffffffff81003e09 <isr_no_ec_sz_start>:
ffffffff81003e09:	55                   	push   %rbp
ffffffff81003e0a:	48 89 e5             	mov    %rsp,%rbp
ffffffff81003e0d:	41 53                	push   %r11
ffffffff81003e0f:	41 52                	push   %r10
ffffffff81003e11:	41 51                	push   %r9
ffffffff81003e13:	41 50                	push   %r8
ffffffff81003e15:	57                   	push   %rdi
ffffffff81003e16:	56                   	push   %rsi
ffffffff81003e17:	51                   	push   %rcx
ffffffff81003e18:	52                   	push   %rdx
ffffffff81003e19:	50                   	push   %rax
ffffffff81003e1a:	fc                   	cld    
ffffffff81003e1b:	bf 10 00 00 00       	mov    $0x10,%edi
ffffffff81003e20:	be 00 00 00 00       	mov    $0x0,%esi
ffffffff81003e25:	e8 93 f7 ff ff       	callq  ffffffff810035bd <isr_dispatcher>
ffffffff81003e2a:	58                   	pop    %rax
ffffffff81003e2b:	5a                   	pop    %rdx
ffffffff81003e2c:	59                   	pop    %rcx
ffffffff81003e2d:	5e                   	pop    %rsi
ffffffff81003e2e:	5f                   	pop    %rdi
ffffffff81003e2f:	41 58                	pop    %r8
ffffffff81003e31:	41 59                	pop    %r9
ffffffff81003e33:	41 5a                	pop    %r10
ffffffff81003e35:	41 5b                	pop    %r11
ffffffff81003e37:	5d                   	pop    %rbp
ffffffff81003e38:	48 cf                	iretq  

ffffffff81003e3a <isr_no_ec_sz_end>:
ffffffff81003e3a:	55                   	push   %rbp
ffffffff81003e3b:	48 89 e5             	mov    %rsp,%rbp
ffffffff81003e3e:	41 53                	push   %r11
ffffffff81003e40:	41 52                	push   %r10
ffffffff81003e42:	41 51                	push   %r9
ffffffff81003e44:	41 50                	push   %r8
ffffffff81003e46:	57                   	push   %rdi
ffffffff81003e47:	56                   	push   %rsi
ffffffff81003e48:	51                   	push   %rcx
ffffffff81003e49:	52                   	push   %rdx
ffffffff81003e4a:	50                   	push   %rax
ffffffff81003e4b:	fc                   	cld    
ffffffff81003e4c:	bf 12 00 00 00       	mov    $0x12,%edi
ffffffff81003e51:	be 00 00 00 00       	mov    $0x0,%esi
ffffffff81003e56:	e8 62 f7 ff ff       	callq  ffffffff810035bd <isr_dispatcher>
ffffffff81003e5b:	58                   	pop    %rax
ffffffff81003e5c:	5a                   	pop    %rdx
ffffffff81003e5d:	59                   	pop    %rcx
ffffffff81003e5e:	5e                   	pop    %rsi
ffffffff81003e5f:	5f                   	pop    %rdi
ffffffff81003e60:	41 58                	pop    %r8
ffffffff81003e62:	41 59                	pop    %r9
ffffffff81003e64:	41 5a                	pop    %r10
ffffffff81003e66:	41 5b                	pop    %r11
ffffffff81003e68:	5d                   	pop    %rbp
ffffffff81003e69:	48 cf                	iretq  

ffffffff81003e6b <isr_19>:
ffffffff81003e6b:	55                   	push   %rbp
ffffffff81003e6c:	48 89 e5             	mov    %rsp,%rbp
ffffffff81003e6f:	41 53                	push   %r11
ffffffff81003e71:	41 52                	push   %r10
ffffffff81003e73:	41 51                	push   %r9
ffffffff81003e75:	41 50                	push   %r8
ffffffff81003e77:	57                   	push   %rdi
ffffffff81003e78:	56                   	push   %rsi
ffffffff81003e79:	51                   	push   %rcx
ffffffff81003e7a:	52                   	push   %rdx
ffffffff81003e7b:	50                   	push   %rax
ffffffff81003e7c:	fc                   	cld    
ffffffff81003e7d:	bf 13 00 00 00       	mov    $0x13,%edi
ffffffff81003e82:	be 00 00 00 00       	mov    $0x0,%esi
ffffffff81003e87:	e8 31 f7 ff ff       	callq  ffffffff810035bd <isr_dispatcher>
ffffffff81003e8c:	58                   	pop    %rax
ffffffff81003e8d:	5a                   	pop    %rdx
ffffffff81003e8e:	59                   	pop    %rcx
ffffffff81003e8f:	5e                   	pop    %rsi
ffffffff81003e90:	5f                   	pop    %rdi
ffffffff81003e91:	41 58                	pop    %r8
ffffffff81003e93:	41 59                	pop    %r9
ffffffff81003e95:	41 5a                	pop    %r10
ffffffff81003e97:	41 5b                	pop    %r11
ffffffff81003e99:	5d                   	pop    %rbp
ffffffff81003e9a:	48 cf                	iretq  

ffffffff81003e9c <isr_20>:
ffffffff81003e9c:	55                   	push   %rbp
ffffffff81003e9d:	48 89 e5             	mov    %rsp,%rbp
ffffffff81003ea0:	41 53                	push   %r11
ffffffff81003ea2:	41 52                	push   %r10
ffffffff81003ea4:	41 51                	push   %r9
ffffffff81003ea6:	41 50                	push   %r8
ffffffff81003ea8:	57                   	push   %rdi
ffffffff81003ea9:	56                   	push   %rsi
ffffffff81003eaa:	51                   	push   %rcx
ffffffff81003eab:	52                   	push   %rdx
ffffffff81003eac:	50                   	push   %rax
ffffffff81003ead:	fc                   	cld    
ffffffff81003eae:	bf 14 00 00 00       	mov    $0x14,%edi
ffffffff81003eb3:	be 00 00 00 00       	mov    $0x0,%esi
ffffffff81003eb8:	e8 00 f7 ff ff       	callq  ffffffff810035bd <isr_dispatcher>
ffffffff81003ebd:	58                   	pop    %rax
ffffffff81003ebe:	5a                   	pop    %rdx
ffffffff81003ebf:	59                   	pop    %rcx
ffffffff81003ec0:	5e                   	pop    %rsi
ffffffff81003ec1:	5f                   	pop    %rdi
ffffffff81003ec2:	41 58                	pop    %r8
ffffffff81003ec4:	41 59                	pop    %r9
ffffffff81003ec6:	41 5a                	pop    %r10
ffffffff81003ec8:	41 5b                	pop    %r11
ffffffff81003eca:	5d                   	pop    %rbp
ffffffff81003ecb:	48 cf                	iretq  

ffffffff81003ecd <isr_32>:
ffffffff81003ecd:	55                   	push   %rbp
ffffffff81003ece:	48 89 e5             	mov    %rsp,%rbp
ffffffff81003ed1:	41 53                	push   %r11
ffffffff81003ed3:	41 52                	push   %r10
ffffffff81003ed5:	41 51                	push   %r9
ffffffff81003ed7:	41 50                	push   %r8
ffffffff81003ed9:	57                   	push   %rdi
ffffffff81003eda:	56                   	push   %rsi
ffffffff81003edb:	51                   	push   %rcx
ffffffff81003edc:	52                   	push   %rdx
ffffffff81003edd:	50                   	push   %rax
ffffffff81003ede:	fc                   	cld    
ffffffff81003edf:	bf 20 00 00 00       	mov    $0x20,%edi
ffffffff81003ee4:	be 00 00 00 00       	mov    $0x0,%esi
ffffffff81003ee9:	e8 cf f6 ff ff       	callq  ffffffff810035bd <isr_dispatcher>
ffffffff81003eee:	58                   	pop    %rax
ffffffff81003eef:	5a                   	pop    %rdx
ffffffff81003ef0:	59                   	pop    %rcx
ffffffff81003ef1:	5e                   	pop    %rsi
ffffffff81003ef2:	5f                   	pop    %rdi
ffffffff81003ef3:	41 58                	pop    %r8
ffffffff81003ef5:	41 59                	pop    %r9
ffffffff81003ef7:	41 5a                	pop    %r10
ffffffff81003ef9:	41 5b                	pop    %r11
ffffffff81003efb:	5d                   	pop    %rbp
ffffffff81003efc:	48 cf                	iretq  

ffffffff81003efe <isr_33>:
ffffffff81003efe:	55                   	push   %rbp
ffffffff81003eff:	48 89 e5             	mov    %rsp,%rbp
ffffffff81003f02:	41 53                	push   %r11
ffffffff81003f04:	41 52                	push   %r10
ffffffff81003f06:	41 51                	push   %r9
ffffffff81003f08:	41 50                	push   %r8
ffffffff81003f0a:	57                   	push   %rdi
ffffffff81003f0b:	56                   	push   %rsi
ffffffff81003f0c:	51                   	push   %rcx
ffffffff81003f0d:	52                   	push   %rdx
ffffffff81003f0e:	50                   	push   %rax
ffffffff81003f0f:	fc                   	cld    
ffffffff81003f10:	bf 21 00 00 00       	mov    $0x21,%edi
ffffffff81003f15:	be 00 00 00 00       	mov    $0x0,%esi
ffffffff81003f1a:	e8 9e f6 ff ff       	callq  ffffffff810035bd <isr_dispatcher>
ffffffff81003f1f:	58                   	pop    %rax
ffffffff81003f20:	5a                   	pop    %rdx
ffffffff81003f21:	59                   	pop    %rcx
ffffffff81003f22:	5e                   	pop    %rsi
ffffffff81003f23:	5f                   	pop    %rdi
ffffffff81003f24:	41 58                	pop    %r8
ffffffff81003f26:	41 59                	pop    %r9
ffffffff81003f28:	41 5a                	pop    %r10
ffffffff81003f2a:	41 5b                	pop    %r11
ffffffff81003f2c:	5d                   	pop    %rbp
ffffffff81003f2d:	48 cf                	iretq  

ffffffff81003f2f <isr_34>:
ffffffff81003f2f:	55                   	push   %rbp
ffffffff81003f30:	48 89 e5             	mov    %rsp,%rbp
ffffffff81003f33:	41 53                	push   %r11
ffffffff81003f35:	41 52                	push   %r10
ffffffff81003f37:	41 51                	push   %r9
ffffffff81003f39:	41 50                	push   %r8
ffffffff81003f3b:	57                   	push   %rdi
ffffffff81003f3c:	56                   	push   %rsi
ffffffff81003f3d:	51                   	push   %rcx
ffffffff81003f3e:	52                   	push   %rdx
ffffffff81003f3f:	50                   	push   %rax
ffffffff81003f40:	fc                   	cld    
ffffffff81003f41:	bf 22 00 00 00       	mov    $0x22,%edi
ffffffff81003f46:	be 00 00 00 00       	mov    $0x0,%esi
ffffffff81003f4b:	e8 6d f6 ff ff       	callq  ffffffff810035bd <isr_dispatcher>
ffffffff81003f50:	58                   	pop    %rax
ffffffff81003f51:	5a                   	pop    %rdx
ffffffff81003f52:	59                   	pop    %rcx
ffffffff81003f53:	5e                   	pop    %rsi
ffffffff81003f54:	5f                   	pop    %rdi
ffffffff81003f55:	41 58                	pop    %r8
ffffffff81003f57:	41 59                	pop    %r9
ffffffff81003f59:	41 5a                	pop    %r10
ffffffff81003f5b:	41 5b                	pop    %r11
ffffffff81003f5d:	5d                   	pop    %rbp
ffffffff81003f5e:	48 cf                	iretq  

ffffffff81003f60 <isr_35>:
ffffffff81003f60:	55                   	push   %rbp
ffffffff81003f61:	48 89 e5             	mov    %rsp,%rbp
ffffffff81003f64:	41 53                	push   %r11
ffffffff81003f66:	41 52                	push   %r10
ffffffff81003f68:	41 51                	push   %r9
ffffffff81003f6a:	41 50                	push   %r8
ffffffff81003f6c:	57                   	push   %rdi
ffffffff81003f6d:	56                   	push   %rsi
ffffffff81003f6e:	51                   	push   %rcx
ffffffff81003f6f:	52                   	push   %rdx
ffffffff81003f70:	50                   	push   %rax
ffffffff81003f71:	fc                   	cld    
ffffffff81003f72:	bf 23 00 00 00       	mov    $0x23,%edi
ffffffff81003f77:	be 00 00 00 00       	mov    $0x0,%esi
ffffffff81003f7c:	e8 3c f6 ff ff       	callq  ffffffff810035bd <isr_dispatcher>
ffffffff81003f81:	58                   	pop    %rax
ffffffff81003f82:	5a                   	pop    %rdx
ffffffff81003f83:	59                   	pop    %rcx
ffffffff81003f84:	5e                   	pop    %rsi
ffffffff81003f85:	5f                   	pop    %rdi
ffffffff81003f86:	41 58                	pop    %r8
ffffffff81003f88:	41 59                	pop    %r9
ffffffff81003f8a:	41 5a                	pop    %r10
ffffffff81003f8c:	41 5b                	pop    %r11
ffffffff81003f8e:	5d                   	pop    %rbp
ffffffff81003f8f:	48 cf                	iretq  

ffffffff81003f91 <isr_36>:
ffffffff81003f91:	55                   	push   %rbp
ffffffff81003f92:	48 89 e5             	mov    %rsp,%rbp
ffffffff81003f95:	41 53                	push   %r11
ffffffff81003f97:	41 52                	push   %r10
ffffffff81003f99:	41 51                	push   %r9
ffffffff81003f9b:	41 50                	push   %r8
ffffffff81003f9d:	57                   	push   %rdi
ffffffff81003f9e:	56                   	push   %rsi
ffffffff81003f9f:	51                   	push   %rcx
ffffffff81003fa0:	52                   	push   %rdx
ffffffff81003fa1:	50                   	push   %rax
ffffffff81003fa2:	fc                   	cld    
ffffffff81003fa3:	bf 24 00 00 00       	mov    $0x24,%edi
ffffffff81003fa8:	be 00 00 00 00       	mov    $0x0,%esi
ffffffff81003fad:	e8 0b f6 ff ff       	callq  ffffffff810035bd <isr_dispatcher>
ffffffff81003fb2:	58                   	pop    %rax
ffffffff81003fb3:	5a                   	pop    %rdx
ffffffff81003fb4:	59                   	pop    %rcx
ffffffff81003fb5:	5e                   	pop    %rsi
ffffffff81003fb6:	5f                   	pop    %rdi
ffffffff81003fb7:	41 58                	pop    %r8
ffffffff81003fb9:	41 59                	pop    %r9
ffffffff81003fbb:	41 5a                	pop    %r10
ffffffff81003fbd:	41 5b                	pop    %r11
ffffffff81003fbf:	5d                   	pop    %rbp
ffffffff81003fc0:	48 cf                	iretq  

ffffffff81003fc2 <isr_37>:
ffffffff81003fc2:	55                   	push   %rbp
ffffffff81003fc3:	48 89 e5             	mov    %rsp,%rbp
ffffffff81003fc6:	41 53                	push   %r11
ffffffff81003fc8:	41 52                	push   %r10
ffffffff81003fca:	41 51                	push   %r9
ffffffff81003fcc:	41 50                	push   %r8
ffffffff81003fce:	57                   	push   %rdi
ffffffff81003fcf:	56                   	push   %rsi
ffffffff81003fd0:	51                   	push   %rcx
ffffffff81003fd1:	52                   	push   %rdx
ffffffff81003fd2:	50                   	push   %rax
ffffffff81003fd3:	fc                   	cld    
ffffffff81003fd4:	bf 25 00 00 00       	mov    $0x25,%edi
ffffffff81003fd9:	be 00 00 00 00       	mov    $0x0,%esi
ffffffff81003fde:	e8 da f5 ff ff       	callq  ffffffff810035bd <isr_dispatcher>
ffffffff81003fe3:	58                   	pop    %rax
ffffffff81003fe4:	5a                   	pop    %rdx
ffffffff81003fe5:	59                   	pop    %rcx
ffffffff81003fe6:	5e                   	pop    %rsi
ffffffff81003fe7:	5f                   	pop    %rdi
ffffffff81003fe8:	41 58                	pop    %r8
ffffffff81003fea:	41 59                	pop    %r9
ffffffff81003fec:	41 5a                	pop    %r10
ffffffff81003fee:	41 5b                	pop    %r11
ffffffff81003ff0:	5d                   	pop    %rbp
ffffffff81003ff1:	48 cf                	iretq  

ffffffff81003ff3 <isr_38>:
ffffffff81003ff3:	55                   	push   %rbp
ffffffff81003ff4:	48 89 e5             	mov    %rsp,%rbp
ffffffff81003ff7:	41 53                	push   %r11
ffffffff81003ff9:	41 52                	push   %r10
ffffffff81003ffb:	41 51                	push   %r9
ffffffff81003ffd:	41 50                	push   %r8
ffffffff81003fff:	57                   	push   %rdi
ffffffff81004000:	56                   	push   %rsi
ffffffff81004001:	51                   	push   %rcx
ffffffff81004002:	52                   	push   %rdx
ffffffff81004003:	50                   	push   %rax
ffffffff81004004:	fc                   	cld    
ffffffff81004005:	bf 26 00 00 00       	mov    $0x26,%edi
ffffffff8100400a:	be 00 00 00 00       	mov    $0x0,%esi
ffffffff8100400f:	e8 a9 f5 ff ff       	callq  ffffffff810035bd <isr_dispatcher>
ffffffff81004014:	58                   	pop    %rax
ffffffff81004015:	5a                   	pop    %rdx
ffffffff81004016:	59                   	pop    %rcx
ffffffff81004017:	5e                   	pop    %rsi
ffffffff81004018:	5f                   	pop    %rdi
ffffffff81004019:	41 58                	pop    %r8
ffffffff8100401b:	41 59                	pop    %r9
ffffffff8100401d:	41 5a                	pop    %r10
ffffffff8100401f:	41 5b                	pop    %r11
ffffffff81004021:	5d                   	pop    %rbp
ffffffff81004022:	48 cf                	iretq  

ffffffff81004024 <isr_39>:
ffffffff81004024:	55                   	push   %rbp
ffffffff81004025:	48 89 e5             	mov    %rsp,%rbp
ffffffff81004028:	41 53                	push   %r11
ffffffff8100402a:	41 52                	push   %r10
ffffffff8100402c:	41 51                	push   %r9
ffffffff8100402e:	41 50                	push   %r8
ffffffff81004030:	57                   	push   %rdi
ffffffff81004031:	56                   	push   %rsi
ffffffff81004032:	51                   	push   %rcx
ffffffff81004033:	52                   	push   %rdx
ffffffff81004034:	50                   	push   %rax
ffffffff81004035:	fc                   	cld    
ffffffff81004036:	bf 27 00 00 00       	mov    $0x27,%edi
ffffffff8100403b:	be 00 00 00 00       	mov    $0x0,%esi
ffffffff81004040:	e8 78 f5 ff ff       	callq  ffffffff810035bd <isr_dispatcher>
ffffffff81004045:	58                   	pop    %rax
ffffffff81004046:	5a                   	pop    %rdx
ffffffff81004047:	59                   	pop    %rcx
ffffffff81004048:	5e                   	pop    %rsi
ffffffff81004049:	5f                   	pop    %rdi
ffffffff8100404a:	41 58                	pop    %r8
ffffffff8100404c:	41 59                	pop    %r9
ffffffff8100404e:	41 5a                	pop    %r10
ffffffff81004050:	41 5b                	pop    %r11
ffffffff81004052:	5d                   	pop    %rbp
ffffffff81004053:	48 cf                	iretq  

ffffffff81004055 <isr_40>:
ffffffff81004055:	55                   	push   %rbp
ffffffff81004056:	48 89 e5             	mov    %rsp,%rbp
ffffffff81004059:	41 53                	push   %r11
ffffffff8100405b:	41 52                	push   %r10
ffffffff8100405d:	41 51                	push   %r9
ffffffff8100405f:	41 50                	push   %r8
ffffffff81004061:	57                   	push   %rdi
ffffffff81004062:	56                   	push   %rsi
ffffffff81004063:	51                   	push   %rcx
ffffffff81004064:	52                   	push   %rdx
ffffffff81004065:	50                   	push   %rax
ffffffff81004066:	fc                   	cld    
ffffffff81004067:	bf 28 00 00 00       	mov    $0x28,%edi
ffffffff8100406c:	be 00 00 00 00       	mov    $0x0,%esi
ffffffff81004071:	e8 47 f5 ff ff       	callq  ffffffff810035bd <isr_dispatcher>
ffffffff81004076:	58                   	pop    %rax
ffffffff81004077:	5a                   	pop    %rdx
ffffffff81004078:	59                   	pop    %rcx
ffffffff81004079:	5e                   	pop    %rsi
ffffffff8100407a:	5f                   	pop    %rdi
ffffffff8100407b:	41 58                	pop    %r8
ffffffff8100407d:	41 59                	pop    %r9
ffffffff8100407f:	41 5a                	pop    %r10
ffffffff81004081:	41 5b                	pop    %r11
ffffffff81004083:	5d                   	pop    %rbp
ffffffff81004084:	48 cf                	iretq  

ffffffff81004086 <isr_41>:
ffffffff81004086:	55                   	push   %rbp
ffffffff81004087:	48 89 e5             	mov    %rsp,%rbp
ffffffff8100408a:	41 53                	push   %r11
ffffffff8100408c:	41 52                	push   %r10
ffffffff8100408e:	41 51                	push   %r9
ffffffff81004090:	41 50                	push   %r8
ffffffff81004092:	57                   	push   %rdi
ffffffff81004093:	56                   	push   %rsi
ffffffff81004094:	51                   	push   %rcx
ffffffff81004095:	52                   	push   %rdx
ffffffff81004096:	50                   	push   %rax
ffffffff81004097:	fc                   	cld    
ffffffff81004098:	bf 29 00 00 00       	mov    $0x29,%edi
ffffffff8100409d:	be 00 00 00 00       	mov    $0x0,%esi
ffffffff810040a2:	e8 16 f5 ff ff       	callq  ffffffff810035bd <isr_dispatcher>
ffffffff810040a7:	58                   	pop    %rax
ffffffff810040a8:	5a                   	pop    %rdx
ffffffff810040a9:	59                   	pop    %rcx
ffffffff810040aa:	5e                   	pop    %rsi
ffffffff810040ab:	5f                   	pop    %rdi
ffffffff810040ac:	41 58                	pop    %r8
ffffffff810040ae:	41 59                	pop    %r9
ffffffff810040b0:	41 5a                	pop    %r10
ffffffff810040b2:	41 5b                	pop    %r11
ffffffff810040b4:	5d                   	pop    %rbp
ffffffff810040b5:	48 cf                	iretq  

ffffffff810040b7 <isr_42>:
ffffffff810040b7:	55                   	push   %rbp
ffffffff810040b8:	48 89 e5             	mov    %rsp,%rbp
ffffffff810040bb:	41 53                	push   %r11
ffffffff810040bd:	41 52                	push   %r10
ffffffff810040bf:	41 51                	push   %r9
ffffffff810040c1:	41 50                	push   %r8
ffffffff810040c3:	57                   	push   %rdi
ffffffff810040c4:	56                   	push   %rsi
ffffffff810040c5:	51                   	push   %rcx
ffffffff810040c6:	52                   	push   %rdx
ffffffff810040c7:	50                   	push   %rax
ffffffff810040c8:	fc                   	cld    
ffffffff810040c9:	bf 2a 00 00 00       	mov    $0x2a,%edi
ffffffff810040ce:	be 00 00 00 00       	mov    $0x0,%esi
ffffffff810040d3:	e8 e5 f4 ff ff       	callq  ffffffff810035bd <isr_dispatcher>
ffffffff810040d8:	58                   	pop    %rax
ffffffff810040d9:	5a                   	pop    %rdx
ffffffff810040da:	59                   	pop    %rcx
ffffffff810040db:	5e                   	pop    %rsi
ffffffff810040dc:	5f                   	pop    %rdi
ffffffff810040dd:	41 58                	pop    %r8
ffffffff810040df:	41 59                	pop    %r9
ffffffff810040e1:	41 5a                	pop    %r10
ffffffff810040e3:	41 5b                	pop    %r11
ffffffff810040e5:	5d                   	pop    %rbp
ffffffff810040e6:	48 cf                	iretq  

ffffffff810040e8 <isr_43>:
ffffffff810040e8:	55                   	push   %rbp
ffffffff810040e9:	48 89 e5             	mov    %rsp,%rbp
ffffffff810040ec:	41 53                	push   %r11
ffffffff810040ee:	41 52                	push   %r10
ffffffff810040f0:	41 51                	push   %r9
ffffffff810040f2:	41 50                	push   %r8
ffffffff810040f4:	57                   	push   %rdi
ffffffff810040f5:	56                   	push   %rsi
ffffffff810040f6:	51                   	push   %rcx
ffffffff810040f7:	52                   	push   %rdx
ffffffff810040f8:	50                   	push   %rax
ffffffff810040f9:	fc                   	cld    
ffffffff810040fa:	bf 2b 00 00 00       	mov    $0x2b,%edi
ffffffff810040ff:	be 00 00 00 00       	mov    $0x0,%esi
ffffffff81004104:	e8 b4 f4 ff ff       	callq  ffffffff810035bd <isr_dispatcher>
ffffffff81004109:	58                   	pop    %rax
ffffffff8100410a:	5a                   	pop    %rdx
ffffffff8100410b:	59                   	pop    %rcx
ffffffff8100410c:	5e                   	pop    %rsi
ffffffff8100410d:	5f                   	pop    %rdi
ffffffff8100410e:	41 58                	pop    %r8
ffffffff81004110:	41 59                	pop    %r9
ffffffff81004112:	41 5a                	pop    %r10
ffffffff81004114:	41 5b                	pop    %r11
ffffffff81004116:	5d                   	pop    %rbp
ffffffff81004117:	48 cf                	iretq  

ffffffff81004119 <isr_44>:
ffffffff81004119:	55                   	push   %rbp
ffffffff8100411a:	48 89 e5             	mov    %rsp,%rbp
ffffffff8100411d:	41 53                	push   %r11
ffffffff8100411f:	41 52                	push   %r10
ffffffff81004121:	41 51                	push   %r9
ffffffff81004123:	41 50                	push   %r8
ffffffff81004125:	57                   	push   %rdi
ffffffff81004126:	56                   	push   %rsi
ffffffff81004127:	51                   	push   %rcx
ffffffff81004128:	52                   	push   %rdx
ffffffff81004129:	50                   	push   %rax
ffffffff8100412a:	fc                   	cld    
ffffffff8100412b:	bf 2c 00 00 00       	mov    $0x2c,%edi
ffffffff81004130:	be 00 00 00 00       	mov    $0x0,%esi
ffffffff81004135:	e8 83 f4 ff ff       	callq  ffffffff810035bd <isr_dispatcher>
ffffffff8100413a:	58                   	pop    %rax
ffffffff8100413b:	5a                   	pop    %rdx
ffffffff8100413c:	59                   	pop    %rcx
ffffffff8100413d:	5e                   	pop    %rsi
ffffffff8100413e:	5f                   	pop    %rdi
ffffffff8100413f:	41 58                	pop    %r8
ffffffff81004141:	41 59                	pop    %r9
ffffffff81004143:	41 5a                	pop    %r10
ffffffff81004145:	41 5b                	pop    %r11
ffffffff81004147:	5d                   	pop    %rbp
ffffffff81004148:	48 cf                	iretq  

ffffffff8100414a <isr_45>:
ffffffff8100414a:	55                   	push   %rbp
ffffffff8100414b:	48 89 e5             	mov    %rsp,%rbp
ffffffff8100414e:	41 53                	push   %r11
ffffffff81004150:	41 52                	push   %r10
ffffffff81004152:	41 51                	push   %r9
ffffffff81004154:	41 50                	push   %r8
ffffffff81004156:	57                   	push   %rdi
ffffffff81004157:	56                   	push   %rsi
ffffffff81004158:	51                   	push   %rcx
ffffffff81004159:	52                   	push   %rdx
ffffffff8100415a:	50                   	push   %rax
ffffffff8100415b:	fc                   	cld    
ffffffff8100415c:	bf 2d 00 00 00       	mov    $0x2d,%edi
ffffffff81004161:	be 00 00 00 00       	mov    $0x0,%esi
ffffffff81004166:	e8 52 f4 ff ff       	callq  ffffffff810035bd <isr_dispatcher>
ffffffff8100416b:	58                   	pop    %rax
ffffffff8100416c:	5a                   	pop    %rdx
ffffffff8100416d:	59                   	pop    %rcx
ffffffff8100416e:	5e                   	pop    %rsi
ffffffff8100416f:	5f                   	pop    %rdi
ffffffff81004170:	41 58                	pop    %r8
ffffffff81004172:	41 59                	pop    %r9
ffffffff81004174:	41 5a                	pop    %r10
ffffffff81004176:	41 5b                	pop    %r11
ffffffff81004178:	5d                   	pop    %rbp
ffffffff81004179:	48 cf                	iretq  

ffffffff8100417b <isr_46>:
ffffffff8100417b:	55                   	push   %rbp
ffffffff8100417c:	48 89 e5             	mov    %rsp,%rbp
ffffffff8100417f:	41 53                	push   %r11
ffffffff81004181:	41 52                	push   %r10
ffffffff81004183:	41 51                	push   %r9
ffffffff81004185:	41 50                	push   %r8
ffffffff81004187:	57                   	push   %rdi
ffffffff81004188:	56                   	push   %rsi
ffffffff81004189:	51                   	push   %rcx
ffffffff8100418a:	52                   	push   %rdx
ffffffff8100418b:	50                   	push   %rax
ffffffff8100418c:	fc                   	cld    
ffffffff8100418d:	bf 2e 00 00 00       	mov    $0x2e,%edi
ffffffff81004192:	be 00 00 00 00       	mov    $0x0,%esi
ffffffff81004197:	e8 21 f4 ff ff       	callq  ffffffff810035bd <isr_dispatcher>
ffffffff8100419c:	58                   	pop    %rax
ffffffff8100419d:	5a                   	pop    %rdx
ffffffff8100419e:	59                   	pop    %rcx
ffffffff8100419f:	5e                   	pop    %rsi
ffffffff810041a0:	5f                   	pop    %rdi
ffffffff810041a1:	41 58                	pop    %r8
ffffffff810041a3:	41 59                	pop    %r9
ffffffff810041a5:	41 5a                	pop    %r10
ffffffff810041a7:	41 5b                	pop    %r11
ffffffff810041a9:	5d                   	pop    %rbp
ffffffff810041aa:	48 cf                	iretq  

ffffffff810041ac <isr_47>:
ffffffff810041ac:	55                   	push   %rbp
ffffffff810041ad:	48 89 e5             	mov    %rsp,%rbp
ffffffff810041b0:	41 53                	push   %r11
ffffffff810041b2:	41 52                	push   %r10
ffffffff810041b4:	41 51                	push   %r9
ffffffff810041b6:	41 50                	push   %r8
ffffffff810041b8:	57                   	push   %rdi
ffffffff810041b9:	56                   	push   %rsi
ffffffff810041ba:	51                   	push   %rcx
ffffffff810041bb:	52                   	push   %rdx
ffffffff810041bc:	50                   	push   %rax
ffffffff810041bd:	fc                   	cld    
ffffffff810041be:	bf 2f 00 00 00       	mov    $0x2f,%edi
ffffffff810041c3:	be 00 00 00 00       	mov    $0x0,%esi
ffffffff810041c8:	e8 f0 f3 ff ff       	callq  ffffffff810035bd <isr_dispatcher>
ffffffff810041cd:	58                   	pop    %rax
ffffffff810041ce:	5a                   	pop    %rdx
ffffffff810041cf:	59                   	pop    %rcx
ffffffff810041d0:	5e                   	pop    %rsi
ffffffff810041d1:	5f                   	pop    %rdi
ffffffff810041d2:	41 58                	pop    %r8
ffffffff810041d4:	41 59                	pop    %r9
ffffffff810041d6:	41 5a                	pop    %r10
ffffffff810041d8:	41 5b                	pop    %r11
ffffffff810041da:	5d                   	pop    %rbp
ffffffff810041db:	48 cf                	iretq  

ffffffff810041dd <isr_48>:
ffffffff810041dd:	55                   	push   %rbp
ffffffff810041de:	48 89 e5             	mov    %rsp,%rbp
ffffffff810041e1:	41 53                	push   %r11
ffffffff810041e3:	41 52                	push   %r10
ffffffff810041e5:	41 51                	push   %r9
ffffffff810041e7:	41 50                	push   %r8
ffffffff810041e9:	57                   	push   %rdi
ffffffff810041ea:	56                   	push   %rsi
ffffffff810041eb:	51                   	push   %rcx
ffffffff810041ec:	52                   	push   %rdx
ffffffff810041ed:	50                   	push   %rax
ffffffff810041ee:	fc                   	cld    
ffffffff810041ef:	bf 30 00 00 00       	mov    $0x30,%edi
ffffffff810041f4:	be 00 00 00 00       	mov    $0x0,%esi
ffffffff810041f9:	e8 bf f3 ff ff       	callq  ffffffff810035bd <isr_dispatcher>
ffffffff810041fe:	58                   	pop    %rax
ffffffff810041ff:	5a                   	pop    %rdx
ffffffff81004200:	59                   	pop    %rcx
ffffffff81004201:	5e                   	pop    %rsi
ffffffff81004202:	5f                   	pop    %rdi
ffffffff81004203:	41 58                	pop    %r8
ffffffff81004205:	41 59                	pop    %r9
ffffffff81004207:	41 5a                	pop    %r10
ffffffff81004209:	41 5b                	pop    %r11
ffffffff8100420b:	5d                   	pop    %rbp
ffffffff8100420c:	48 cf                	iretq  

ffffffff8100420e <isr_49>:
ffffffff8100420e:	55                   	push   %rbp
ffffffff8100420f:	48 89 e5             	mov    %rsp,%rbp
ffffffff81004212:	41 53                	push   %r11
ffffffff81004214:	41 52                	push   %r10
ffffffff81004216:	41 51                	push   %r9
ffffffff81004218:	41 50                	push   %r8
ffffffff8100421a:	57                   	push   %rdi
ffffffff8100421b:	56                   	push   %rsi
ffffffff8100421c:	51                   	push   %rcx
ffffffff8100421d:	52                   	push   %rdx
ffffffff8100421e:	50                   	push   %rax
ffffffff8100421f:	fc                   	cld    
ffffffff81004220:	bf 31 00 00 00       	mov    $0x31,%edi
ffffffff81004225:	be 00 00 00 00       	mov    $0x0,%esi
ffffffff8100422a:	e8 8e f3 ff ff       	callq  ffffffff810035bd <isr_dispatcher>
ffffffff8100422f:	58                   	pop    %rax
ffffffff81004230:	5a                   	pop    %rdx
ffffffff81004231:	59                   	pop    %rcx
ffffffff81004232:	5e                   	pop    %rsi
ffffffff81004233:	5f                   	pop    %rdi
ffffffff81004234:	41 58                	pop    %r8
ffffffff81004236:	41 59                	pop    %r9
ffffffff81004238:	41 5a                	pop    %r10
ffffffff8100423a:	41 5b                	pop    %r11
ffffffff8100423c:	5d                   	pop    %rbp
ffffffff8100423d:	48 cf                	iretq  

ffffffff8100423f <isr_50>:
ffffffff8100423f:	55                   	push   %rbp
ffffffff81004240:	48 89 e5             	mov    %rsp,%rbp
ffffffff81004243:	41 53                	push   %r11
ffffffff81004245:	41 52                	push   %r10
ffffffff81004247:	41 51                	push   %r9
ffffffff81004249:	41 50                	push   %r8
ffffffff8100424b:	57                   	push   %rdi
ffffffff8100424c:	56                   	push   %rsi
ffffffff8100424d:	51                   	push   %rcx
ffffffff8100424e:	52                   	push   %rdx
ffffffff8100424f:	50                   	push   %rax
ffffffff81004250:	fc                   	cld    
ffffffff81004251:	bf 32 00 00 00       	mov    $0x32,%edi
ffffffff81004256:	be 00 00 00 00       	mov    $0x0,%esi
ffffffff8100425b:	e8 5d f3 ff ff       	callq  ffffffff810035bd <isr_dispatcher>
ffffffff81004260:	58                   	pop    %rax
ffffffff81004261:	5a                   	pop    %rdx
ffffffff81004262:	59                   	pop    %rcx
ffffffff81004263:	5e                   	pop    %rsi
ffffffff81004264:	5f                   	pop    %rdi
ffffffff81004265:	41 58                	pop    %r8
ffffffff81004267:	41 59                	pop    %r9
ffffffff81004269:	41 5a                	pop    %r10
ffffffff8100426b:	41 5b                	pop    %r11
ffffffff8100426d:	5d                   	pop    %rbp
ffffffff8100426e:	48 cf                	iretq  

ffffffff81004270 <isr_51>:
ffffffff81004270:	55                   	push   %rbp
ffffffff81004271:	48 89 e5             	mov    %rsp,%rbp
ffffffff81004274:	41 53                	push   %r11
ffffffff81004276:	41 52                	push   %r10
ffffffff81004278:	41 51                	push   %r9
ffffffff8100427a:	41 50                	push   %r8
ffffffff8100427c:	57                   	push   %rdi
ffffffff8100427d:	56                   	push   %rsi
ffffffff8100427e:	51                   	push   %rcx
ffffffff8100427f:	52                   	push   %rdx
ffffffff81004280:	50                   	push   %rax
ffffffff81004281:	fc                   	cld    
ffffffff81004282:	bf 33 00 00 00       	mov    $0x33,%edi
ffffffff81004287:	be 00 00 00 00       	mov    $0x0,%esi
ffffffff8100428c:	e8 2c f3 ff ff       	callq  ffffffff810035bd <isr_dispatcher>
ffffffff81004291:	58                   	pop    %rax
ffffffff81004292:	5a                   	pop    %rdx
ffffffff81004293:	59                   	pop    %rcx
ffffffff81004294:	5e                   	pop    %rsi
ffffffff81004295:	5f                   	pop    %rdi
ffffffff81004296:	41 58                	pop    %r8
ffffffff81004298:	41 59                	pop    %r9
ffffffff8100429a:	41 5a                	pop    %r10
ffffffff8100429c:	41 5b                	pop    %r11
ffffffff8100429e:	5d                   	pop    %rbp
ffffffff8100429f:	48 cf                	iretq  

ffffffff810042a1 <isr_52>:
ffffffff810042a1:	55                   	push   %rbp
ffffffff810042a2:	48 89 e5             	mov    %rsp,%rbp
ffffffff810042a5:	41 53                	push   %r11
ffffffff810042a7:	41 52                	push   %r10
ffffffff810042a9:	41 51                	push   %r9
ffffffff810042ab:	41 50                	push   %r8
ffffffff810042ad:	57                   	push   %rdi
ffffffff810042ae:	56                   	push   %rsi
ffffffff810042af:	51                   	push   %rcx
ffffffff810042b0:	52                   	push   %rdx
ffffffff810042b1:	50                   	push   %rax
ffffffff810042b2:	fc                   	cld    
ffffffff810042b3:	bf 34 00 00 00       	mov    $0x34,%edi
ffffffff810042b8:	be 00 00 00 00       	mov    $0x0,%esi
ffffffff810042bd:	e8 fb f2 ff ff       	callq  ffffffff810035bd <isr_dispatcher>
ffffffff810042c2:	58                   	pop    %rax
ffffffff810042c3:	5a                   	pop    %rdx
ffffffff810042c4:	59                   	pop    %rcx
ffffffff810042c5:	5e                   	pop    %rsi
ffffffff810042c6:	5f                   	pop    %rdi
ffffffff810042c7:	41 58                	pop    %r8
ffffffff810042c9:	41 59                	pop    %r9
ffffffff810042cb:	41 5a                	pop    %r10
ffffffff810042cd:	41 5b                	pop    %r11
ffffffff810042cf:	5d                   	pop    %rbp
ffffffff810042d0:	48 cf                	iretq  

ffffffff810042d2 <isr_53>:
ffffffff810042d2:	55                   	push   %rbp
ffffffff810042d3:	48 89 e5             	mov    %rsp,%rbp
ffffffff810042d6:	41 53                	push   %r11
ffffffff810042d8:	41 52                	push   %r10
ffffffff810042da:	41 51                	push   %r9
ffffffff810042dc:	41 50                	push   %r8
ffffffff810042de:	57                   	push   %rdi
ffffffff810042df:	56                   	push   %rsi
ffffffff810042e0:	51                   	push   %rcx
ffffffff810042e1:	52                   	push   %rdx
ffffffff810042e2:	50                   	push   %rax
ffffffff810042e3:	fc                   	cld    
ffffffff810042e4:	bf 35 00 00 00       	mov    $0x35,%edi
ffffffff810042e9:	be 00 00 00 00       	mov    $0x0,%esi
ffffffff810042ee:	e8 ca f2 ff ff       	callq  ffffffff810035bd <isr_dispatcher>
ffffffff810042f3:	58                   	pop    %rax
ffffffff810042f4:	5a                   	pop    %rdx
ffffffff810042f5:	59                   	pop    %rcx
ffffffff810042f6:	5e                   	pop    %rsi
ffffffff810042f7:	5f                   	pop    %rdi
ffffffff810042f8:	41 58                	pop    %r8
ffffffff810042fa:	41 59                	pop    %r9
ffffffff810042fc:	41 5a                	pop    %r10
ffffffff810042fe:	41 5b                	pop    %r11
ffffffff81004300:	5d                   	pop    %rbp
ffffffff81004301:	48 cf                	iretq  

ffffffff81004303 <isr_54>:
ffffffff81004303:	55                   	push   %rbp
ffffffff81004304:	48 89 e5             	mov    %rsp,%rbp
ffffffff81004307:	41 53                	push   %r11
ffffffff81004309:	41 52                	push   %r10
ffffffff8100430b:	41 51                	push   %r9
ffffffff8100430d:	41 50                	push   %r8
ffffffff8100430f:	57                   	push   %rdi
ffffffff81004310:	56                   	push   %rsi
ffffffff81004311:	51                   	push   %rcx
ffffffff81004312:	52                   	push   %rdx
ffffffff81004313:	50                   	push   %rax
ffffffff81004314:	fc                   	cld    
ffffffff81004315:	bf 36 00 00 00       	mov    $0x36,%edi
ffffffff8100431a:	be 00 00 00 00       	mov    $0x0,%esi
ffffffff8100431f:	e8 99 f2 ff ff       	callq  ffffffff810035bd <isr_dispatcher>
ffffffff81004324:	58                   	pop    %rax
ffffffff81004325:	5a                   	pop    %rdx
ffffffff81004326:	59                   	pop    %rcx
ffffffff81004327:	5e                   	pop    %rsi
ffffffff81004328:	5f                   	pop    %rdi
ffffffff81004329:	41 58                	pop    %r8
ffffffff8100432b:	41 59                	pop    %r9
ffffffff8100432d:	41 5a                	pop    %r10
ffffffff8100432f:	41 5b                	pop    %r11
ffffffff81004331:	5d                   	pop    %rbp
ffffffff81004332:	48 cf                	iretq  

ffffffff81004334 <isr_55>:
ffffffff81004334:	55                   	push   %rbp
ffffffff81004335:	48 89 e5             	mov    %rsp,%rbp
ffffffff81004338:	41 53                	push   %r11
ffffffff8100433a:	41 52                	push   %r10
ffffffff8100433c:	41 51                	push   %r9
ffffffff8100433e:	41 50                	push   %r8
ffffffff81004340:	57                   	push   %rdi
ffffffff81004341:	56                   	push   %rsi
ffffffff81004342:	51                   	push   %rcx
ffffffff81004343:	52                   	push   %rdx
ffffffff81004344:	50                   	push   %rax
ffffffff81004345:	fc                   	cld    
ffffffff81004346:	bf 37 00 00 00       	mov    $0x37,%edi
ffffffff8100434b:	be 00 00 00 00       	mov    $0x0,%esi
ffffffff81004350:	e8 68 f2 ff ff       	callq  ffffffff810035bd <isr_dispatcher>
ffffffff81004355:	58                   	pop    %rax
ffffffff81004356:	5a                   	pop    %rdx
ffffffff81004357:	59                   	pop    %rcx
ffffffff81004358:	5e                   	pop    %rsi
ffffffff81004359:	5f                   	pop    %rdi
ffffffff8100435a:	41 58                	pop    %r8
ffffffff8100435c:	41 59                	pop    %r9
ffffffff8100435e:	41 5a                	pop    %r10
ffffffff81004360:	41 5b                	pop    %r11
ffffffff81004362:	5d                   	pop    %rbp
ffffffff81004363:	48 cf                	iretq  

ffffffff81004365 <isr_56>:
ffffffff81004365:	55                   	push   %rbp
ffffffff81004366:	48 89 e5             	mov    %rsp,%rbp
ffffffff81004369:	41 53                	push   %r11
ffffffff8100436b:	41 52                	push   %r10
ffffffff8100436d:	41 51                	push   %r9
ffffffff8100436f:	41 50                	push   %r8
ffffffff81004371:	57                   	push   %rdi
ffffffff81004372:	56                   	push   %rsi
ffffffff81004373:	51                   	push   %rcx
ffffffff81004374:	52                   	push   %rdx
ffffffff81004375:	50                   	push   %rax
ffffffff81004376:	fc                   	cld    
ffffffff81004377:	bf 38 00 00 00       	mov    $0x38,%edi
ffffffff8100437c:	be 00 00 00 00       	mov    $0x0,%esi
ffffffff81004381:	e8 37 f2 ff ff       	callq  ffffffff810035bd <isr_dispatcher>
ffffffff81004386:	58                   	pop    %rax
ffffffff81004387:	5a                   	pop    %rdx
ffffffff81004388:	59                   	pop    %rcx
ffffffff81004389:	5e                   	pop    %rsi
ffffffff8100438a:	5f                   	pop    %rdi
ffffffff8100438b:	41 58                	pop    %r8
ffffffff8100438d:	41 59                	pop    %r9
ffffffff8100438f:	41 5a                	pop    %r10
ffffffff81004391:	41 5b                	pop    %r11
ffffffff81004393:	5d                   	pop    %rbp
ffffffff81004394:	48 cf                	iretq  

ffffffff81004396 <isr_57>:
ffffffff81004396:	55                   	push   %rbp
ffffffff81004397:	48 89 e5             	mov    %rsp,%rbp
ffffffff8100439a:	41 53                	push   %r11
ffffffff8100439c:	41 52                	push   %r10
ffffffff8100439e:	41 51                	push   %r9
ffffffff810043a0:	41 50                	push   %r8
ffffffff810043a2:	57                   	push   %rdi
ffffffff810043a3:	56                   	push   %rsi
ffffffff810043a4:	51                   	push   %rcx
ffffffff810043a5:	52                   	push   %rdx
ffffffff810043a6:	50                   	push   %rax
ffffffff810043a7:	fc                   	cld    
ffffffff810043a8:	bf 39 00 00 00       	mov    $0x39,%edi
ffffffff810043ad:	be 00 00 00 00       	mov    $0x0,%esi
ffffffff810043b2:	e8 06 f2 ff ff       	callq  ffffffff810035bd <isr_dispatcher>
ffffffff810043b7:	58                   	pop    %rax
ffffffff810043b8:	5a                   	pop    %rdx
ffffffff810043b9:	59                   	pop    %rcx
ffffffff810043ba:	5e                   	pop    %rsi
ffffffff810043bb:	5f                   	pop    %rdi
ffffffff810043bc:	41 58                	pop    %r8
ffffffff810043be:	41 59                	pop    %r9
ffffffff810043c0:	41 5a                	pop    %r10
ffffffff810043c2:	41 5b                	pop    %r11
ffffffff810043c4:	5d                   	pop    %rbp
ffffffff810043c5:	48 cf                	iretq  

ffffffff810043c7 <isr_58>:
ffffffff810043c7:	55                   	push   %rbp
ffffffff810043c8:	48 89 e5             	mov    %rsp,%rbp
ffffffff810043cb:	41 53                	push   %r11
ffffffff810043cd:	41 52                	push   %r10
ffffffff810043cf:	41 51                	push   %r9
ffffffff810043d1:	41 50                	push   %r8
ffffffff810043d3:	57                   	push   %rdi
ffffffff810043d4:	56                   	push   %rsi
ffffffff810043d5:	51                   	push   %rcx
ffffffff810043d6:	52                   	push   %rdx
ffffffff810043d7:	50                   	push   %rax
ffffffff810043d8:	fc                   	cld    
ffffffff810043d9:	bf 3a 00 00 00       	mov    $0x3a,%edi
ffffffff810043de:	be 00 00 00 00       	mov    $0x0,%esi
ffffffff810043e3:	e8 d5 f1 ff ff       	callq  ffffffff810035bd <isr_dispatcher>
ffffffff810043e8:	58                   	pop    %rax
ffffffff810043e9:	5a                   	pop    %rdx
ffffffff810043ea:	59                   	pop    %rcx
ffffffff810043eb:	5e                   	pop    %rsi
ffffffff810043ec:	5f                   	pop    %rdi
ffffffff810043ed:	41 58                	pop    %r8
ffffffff810043ef:	41 59                	pop    %r9
ffffffff810043f1:	41 5a                	pop    %r10
ffffffff810043f3:	41 5b                	pop    %r11
ffffffff810043f5:	5d                   	pop    %rbp
ffffffff810043f6:	48 cf                	iretq  

ffffffff810043f8 <isr_59>:
ffffffff810043f8:	55                   	push   %rbp
ffffffff810043f9:	48 89 e5             	mov    %rsp,%rbp
ffffffff810043fc:	41 53                	push   %r11
ffffffff810043fe:	41 52                	push   %r10
ffffffff81004400:	41 51                	push   %r9
ffffffff81004402:	41 50                	push   %r8
ffffffff81004404:	57                   	push   %rdi
ffffffff81004405:	56                   	push   %rsi
ffffffff81004406:	51                   	push   %rcx
ffffffff81004407:	52                   	push   %rdx
ffffffff81004408:	50                   	push   %rax
ffffffff81004409:	fc                   	cld    
ffffffff8100440a:	bf 3b 00 00 00       	mov    $0x3b,%edi
ffffffff8100440f:	be 00 00 00 00       	mov    $0x0,%esi
ffffffff81004414:	e8 a4 f1 ff ff       	callq  ffffffff810035bd <isr_dispatcher>
ffffffff81004419:	58                   	pop    %rax
ffffffff8100441a:	5a                   	pop    %rdx
ffffffff8100441b:	59                   	pop    %rcx
ffffffff8100441c:	5e                   	pop    %rsi
ffffffff8100441d:	5f                   	pop    %rdi
ffffffff8100441e:	41 58                	pop    %r8
ffffffff81004420:	41 59                	pop    %r9
ffffffff81004422:	41 5a                	pop    %r10
ffffffff81004424:	41 5b                	pop    %r11
ffffffff81004426:	5d                   	pop    %rbp
ffffffff81004427:	48 cf                	iretq  

ffffffff81004429 <isr_60>:
ffffffff81004429:	55                   	push   %rbp
ffffffff8100442a:	48 89 e5             	mov    %rsp,%rbp
ffffffff8100442d:	41 53                	push   %r11
ffffffff8100442f:	41 52                	push   %r10
ffffffff81004431:	41 51                	push   %r9
ffffffff81004433:	41 50                	push   %r8
ffffffff81004435:	57                   	push   %rdi
ffffffff81004436:	56                   	push   %rsi
ffffffff81004437:	51                   	push   %rcx
ffffffff81004438:	52                   	push   %rdx
ffffffff81004439:	50                   	push   %rax
ffffffff8100443a:	fc                   	cld    
ffffffff8100443b:	bf 3c 00 00 00       	mov    $0x3c,%edi
ffffffff81004440:	be 00 00 00 00       	mov    $0x0,%esi
ffffffff81004445:	e8 73 f1 ff ff       	callq  ffffffff810035bd <isr_dispatcher>
ffffffff8100444a:	58                   	pop    %rax
ffffffff8100444b:	5a                   	pop    %rdx
ffffffff8100444c:	59                   	pop    %rcx
ffffffff8100444d:	5e                   	pop    %rsi
ffffffff8100444e:	5f                   	pop    %rdi
ffffffff8100444f:	41 58                	pop    %r8
ffffffff81004451:	41 59                	pop    %r9
ffffffff81004453:	41 5a                	pop    %r10
ffffffff81004455:	41 5b                	pop    %r11
ffffffff81004457:	5d                   	pop    %rbp
ffffffff81004458:	48 cf                	iretq  

ffffffff8100445a <isr_61>:
ffffffff8100445a:	55                   	push   %rbp
ffffffff8100445b:	48 89 e5             	mov    %rsp,%rbp
ffffffff8100445e:	41 53                	push   %r11
ffffffff81004460:	41 52                	push   %r10
ffffffff81004462:	41 51                	push   %r9
ffffffff81004464:	41 50                	push   %r8
ffffffff81004466:	57                   	push   %rdi
ffffffff81004467:	56                   	push   %rsi
ffffffff81004468:	51                   	push   %rcx
ffffffff81004469:	52                   	push   %rdx
ffffffff8100446a:	50                   	push   %rax
ffffffff8100446b:	fc                   	cld    
ffffffff8100446c:	bf 3d 00 00 00       	mov    $0x3d,%edi
ffffffff81004471:	be 00 00 00 00       	mov    $0x0,%esi
ffffffff81004476:	e8 42 f1 ff ff       	callq  ffffffff810035bd <isr_dispatcher>
ffffffff8100447b:	58                   	pop    %rax
ffffffff8100447c:	5a                   	pop    %rdx
ffffffff8100447d:	59                   	pop    %rcx
ffffffff8100447e:	5e                   	pop    %rsi
ffffffff8100447f:	5f                   	pop    %rdi
ffffffff81004480:	41 58                	pop    %r8
ffffffff81004482:	41 59                	pop    %r9
ffffffff81004484:	41 5a                	pop    %r10
ffffffff81004486:	41 5b                	pop    %r11
ffffffff81004488:	5d                   	pop    %rbp
ffffffff81004489:	48 cf                	iretq  

ffffffff8100448b <isr_62>:
ffffffff8100448b:	55                   	push   %rbp
ffffffff8100448c:	48 89 e5             	mov    %rsp,%rbp
ffffffff8100448f:	41 53                	push   %r11
ffffffff81004491:	41 52                	push   %r10
ffffffff81004493:	41 51                	push   %r9
ffffffff81004495:	41 50                	push   %r8
ffffffff81004497:	57                   	push   %rdi
ffffffff81004498:	56                   	push   %rsi
ffffffff81004499:	51                   	push   %rcx
ffffffff8100449a:	52                   	push   %rdx
ffffffff8100449b:	50                   	push   %rax
ffffffff8100449c:	fc                   	cld    
ffffffff8100449d:	bf 3e 00 00 00       	mov    $0x3e,%edi
ffffffff810044a2:	be 00 00 00 00       	mov    $0x0,%esi
ffffffff810044a7:	e8 11 f1 ff ff       	callq  ffffffff810035bd <isr_dispatcher>
ffffffff810044ac:	58                   	pop    %rax
ffffffff810044ad:	5a                   	pop    %rdx
ffffffff810044ae:	59                   	pop    %rcx
ffffffff810044af:	5e                   	pop    %rsi
ffffffff810044b0:	5f                   	pop    %rdi
ffffffff810044b1:	41 58                	pop    %r8
ffffffff810044b3:	41 59                	pop    %r9
ffffffff810044b5:	41 5a                	pop    %r10
ffffffff810044b7:	41 5b                	pop    %r11
ffffffff810044b9:	5d                   	pop    %rbp
ffffffff810044ba:	48 cf                	iretq  

ffffffff810044bc <isr_63>:
ffffffff810044bc:	55                   	push   %rbp
ffffffff810044bd:	48 89 e5             	mov    %rsp,%rbp
ffffffff810044c0:	41 53                	push   %r11
ffffffff810044c2:	41 52                	push   %r10
ffffffff810044c4:	41 51                	push   %r9
ffffffff810044c6:	41 50                	push   %r8
ffffffff810044c8:	57                   	push   %rdi
ffffffff810044c9:	56                   	push   %rsi
ffffffff810044ca:	51                   	push   %rcx
ffffffff810044cb:	52                   	push   %rdx
ffffffff810044cc:	50                   	push   %rax
ffffffff810044cd:	fc                   	cld    
ffffffff810044ce:	bf 3f 00 00 00       	mov    $0x3f,%edi
ffffffff810044d3:	be 00 00 00 00       	mov    $0x0,%esi
ffffffff810044d8:	e8 e0 f0 ff ff       	callq  ffffffff810035bd <isr_dispatcher>
ffffffff810044dd:	58                   	pop    %rax
ffffffff810044de:	5a                   	pop    %rdx
ffffffff810044df:	59                   	pop    %rcx
ffffffff810044e0:	5e                   	pop    %rsi
ffffffff810044e1:	5f                   	pop    %rdi
ffffffff810044e2:	41 58                	pop    %r8
ffffffff810044e4:	41 59                	pop    %r9
ffffffff810044e6:	41 5a                	pop    %r10
ffffffff810044e8:	41 5b                	pop    %r11
ffffffff810044ea:	5d                   	pop    %rbp
ffffffff810044eb:	48 cf                	iretq  

ffffffff810044ed <isr_64>:
ffffffff810044ed:	55                   	push   %rbp
ffffffff810044ee:	48 89 e5             	mov    %rsp,%rbp
ffffffff810044f1:	41 53                	push   %r11
ffffffff810044f3:	41 52                	push   %r10
ffffffff810044f5:	41 51                	push   %r9
ffffffff810044f7:	41 50                	push   %r8
ffffffff810044f9:	57                   	push   %rdi
ffffffff810044fa:	56                   	push   %rsi
ffffffff810044fb:	51                   	push   %rcx
ffffffff810044fc:	52                   	push   %rdx
ffffffff810044fd:	50                   	push   %rax
ffffffff810044fe:	fc                   	cld    
ffffffff810044ff:	bf 40 00 00 00       	mov    $0x40,%edi
ffffffff81004504:	be 00 00 00 00       	mov    $0x0,%esi
ffffffff81004509:	e8 af f0 ff ff       	callq  ffffffff810035bd <isr_dispatcher>
ffffffff8100450e:	58                   	pop    %rax
ffffffff8100450f:	5a                   	pop    %rdx
ffffffff81004510:	59                   	pop    %rcx
ffffffff81004511:	5e                   	pop    %rsi
ffffffff81004512:	5f                   	pop    %rdi
ffffffff81004513:	41 58                	pop    %r8
ffffffff81004515:	41 59                	pop    %r9
ffffffff81004517:	41 5a                	pop    %r10
ffffffff81004519:	41 5b                	pop    %r11
ffffffff8100451b:	5d                   	pop    %rbp
ffffffff8100451c:	48 cf                	iretq  

ffffffff8100451e <isr_65>:
ffffffff8100451e:	55                   	push   %rbp
ffffffff8100451f:	48 89 e5             	mov    %rsp,%rbp
ffffffff81004522:	41 53                	push   %r11
ffffffff81004524:	41 52                	push   %r10
ffffffff81004526:	41 51                	push   %r9
ffffffff81004528:	41 50                	push   %r8
ffffffff8100452a:	57                   	push   %rdi
ffffffff8100452b:	56                   	push   %rsi
ffffffff8100452c:	51                   	push   %rcx
ffffffff8100452d:	52                   	push   %rdx
ffffffff8100452e:	50                   	push   %rax
ffffffff8100452f:	fc                   	cld    
ffffffff81004530:	bf 41 00 00 00       	mov    $0x41,%edi
ffffffff81004535:	be 00 00 00 00       	mov    $0x0,%esi
ffffffff8100453a:	e8 7e f0 ff ff       	callq  ffffffff810035bd <isr_dispatcher>
ffffffff8100453f:	58                   	pop    %rax
ffffffff81004540:	5a                   	pop    %rdx
ffffffff81004541:	59                   	pop    %rcx
ffffffff81004542:	5e                   	pop    %rsi
ffffffff81004543:	5f                   	pop    %rdi
ffffffff81004544:	41 58                	pop    %r8
ffffffff81004546:	41 59                	pop    %r9
ffffffff81004548:	41 5a                	pop    %r10
ffffffff8100454a:	41 5b                	pop    %r11
ffffffff8100454c:	5d                   	pop    %rbp
ffffffff8100454d:	48 cf                	iretq  

ffffffff8100454f <isr_66>:
ffffffff8100454f:	55                   	push   %rbp
ffffffff81004550:	48 89 e5             	mov    %rsp,%rbp
ffffffff81004553:	41 53                	push   %r11
ffffffff81004555:	41 52                	push   %r10
ffffffff81004557:	41 51                	push   %r9
ffffffff81004559:	41 50                	push   %r8
ffffffff8100455b:	57                   	push   %rdi
ffffffff8100455c:	56                   	push   %rsi
ffffffff8100455d:	51                   	push   %rcx
ffffffff8100455e:	52                   	push   %rdx
ffffffff8100455f:	50                   	push   %rax
ffffffff81004560:	fc                   	cld    
ffffffff81004561:	bf 42 00 00 00       	mov    $0x42,%edi
ffffffff81004566:	be 00 00 00 00       	mov    $0x0,%esi
ffffffff8100456b:	e8 4d f0 ff ff       	callq  ffffffff810035bd <isr_dispatcher>
ffffffff81004570:	58                   	pop    %rax
ffffffff81004571:	5a                   	pop    %rdx
ffffffff81004572:	59                   	pop    %rcx
ffffffff81004573:	5e                   	pop    %rsi
ffffffff81004574:	5f                   	pop    %rdi
ffffffff81004575:	41 58                	pop    %r8
ffffffff81004577:	41 59                	pop    %r9
ffffffff81004579:	41 5a                	pop    %r10
ffffffff8100457b:	41 5b                	pop    %r11
ffffffff8100457d:	5d                   	pop    %rbp
ffffffff8100457e:	48 cf                	iretq  

ffffffff81004580 <isr_67>:
ffffffff81004580:	55                   	push   %rbp
ffffffff81004581:	48 89 e5             	mov    %rsp,%rbp
ffffffff81004584:	41 53                	push   %r11
ffffffff81004586:	41 52                	push   %r10
ffffffff81004588:	41 51                	push   %r9
ffffffff8100458a:	41 50                	push   %r8
ffffffff8100458c:	57                   	push   %rdi
ffffffff8100458d:	56                   	push   %rsi
ffffffff8100458e:	51                   	push   %rcx
ffffffff8100458f:	52                   	push   %rdx
ffffffff81004590:	50                   	push   %rax
ffffffff81004591:	fc                   	cld    
ffffffff81004592:	bf 43 00 00 00       	mov    $0x43,%edi
ffffffff81004597:	be 00 00 00 00       	mov    $0x0,%esi
ffffffff8100459c:	e8 1c f0 ff ff       	callq  ffffffff810035bd <isr_dispatcher>
ffffffff810045a1:	58                   	pop    %rax
ffffffff810045a2:	5a                   	pop    %rdx
ffffffff810045a3:	59                   	pop    %rcx
ffffffff810045a4:	5e                   	pop    %rsi
ffffffff810045a5:	5f                   	pop    %rdi
ffffffff810045a6:	41 58                	pop    %r8
ffffffff810045a8:	41 59                	pop    %r9
ffffffff810045aa:	41 5a                	pop    %r10
ffffffff810045ac:	41 5b                	pop    %r11
ffffffff810045ae:	5d                   	pop    %rbp
ffffffff810045af:	48 cf                	iretq  

ffffffff810045b1 <isr_68>:
ffffffff810045b1:	55                   	push   %rbp
ffffffff810045b2:	48 89 e5             	mov    %rsp,%rbp
ffffffff810045b5:	41 53                	push   %r11
ffffffff810045b7:	41 52                	push   %r10
ffffffff810045b9:	41 51                	push   %r9
ffffffff810045bb:	41 50                	push   %r8
ffffffff810045bd:	57                   	push   %rdi
ffffffff810045be:	56                   	push   %rsi
ffffffff810045bf:	51                   	push   %rcx
ffffffff810045c0:	52                   	push   %rdx
ffffffff810045c1:	50                   	push   %rax
ffffffff810045c2:	fc                   	cld    
ffffffff810045c3:	bf 44 00 00 00       	mov    $0x44,%edi
ffffffff810045c8:	be 00 00 00 00       	mov    $0x0,%esi
ffffffff810045cd:	e8 eb ef ff ff       	callq  ffffffff810035bd <isr_dispatcher>
ffffffff810045d2:	58                   	pop    %rax
ffffffff810045d3:	5a                   	pop    %rdx
ffffffff810045d4:	59                   	pop    %rcx
ffffffff810045d5:	5e                   	pop    %rsi
ffffffff810045d6:	5f                   	pop    %rdi
ffffffff810045d7:	41 58                	pop    %r8
ffffffff810045d9:	41 59                	pop    %r9
ffffffff810045db:	41 5a                	pop    %r10
ffffffff810045dd:	41 5b                	pop    %r11
ffffffff810045df:	5d                   	pop    %rbp
ffffffff810045e0:	48 cf                	iretq  

ffffffff810045e2 <isr_69>:
ffffffff810045e2:	55                   	push   %rbp
ffffffff810045e3:	48 89 e5             	mov    %rsp,%rbp
ffffffff810045e6:	41 53                	push   %r11
ffffffff810045e8:	41 52                	push   %r10
ffffffff810045ea:	41 51                	push   %r9
ffffffff810045ec:	41 50                	push   %r8
ffffffff810045ee:	57                   	push   %rdi
ffffffff810045ef:	56                   	push   %rsi
ffffffff810045f0:	51                   	push   %rcx
ffffffff810045f1:	52                   	push   %rdx
ffffffff810045f2:	50                   	push   %rax
ffffffff810045f3:	fc                   	cld    
ffffffff810045f4:	bf 45 00 00 00       	mov    $0x45,%edi
ffffffff810045f9:	be 00 00 00 00       	mov    $0x0,%esi
ffffffff810045fe:	e8 ba ef ff ff       	callq  ffffffff810035bd <isr_dispatcher>
ffffffff81004603:	58                   	pop    %rax
ffffffff81004604:	5a                   	pop    %rdx
ffffffff81004605:	59                   	pop    %rcx
ffffffff81004606:	5e                   	pop    %rsi
ffffffff81004607:	5f                   	pop    %rdi
ffffffff81004608:	41 58                	pop    %r8
ffffffff8100460a:	41 59                	pop    %r9
ffffffff8100460c:	41 5a                	pop    %r10
ffffffff8100460e:	41 5b                	pop    %r11
ffffffff81004610:	5d                   	pop    %rbp
ffffffff81004611:	48 cf                	iretq  

ffffffff81004613 <isr_70>:
ffffffff81004613:	55                   	push   %rbp
ffffffff81004614:	48 89 e5             	mov    %rsp,%rbp
ffffffff81004617:	41 53                	push   %r11
ffffffff81004619:	41 52                	push   %r10
ffffffff8100461b:	41 51                	push   %r9
ffffffff8100461d:	41 50                	push   %r8
ffffffff8100461f:	57                   	push   %rdi
ffffffff81004620:	56                   	push   %rsi
ffffffff81004621:	51                   	push   %rcx
ffffffff81004622:	52                   	push   %rdx
ffffffff81004623:	50                   	push   %rax
ffffffff81004624:	fc                   	cld    
ffffffff81004625:	bf 46 00 00 00       	mov    $0x46,%edi
ffffffff8100462a:	be 00 00 00 00       	mov    $0x0,%esi
ffffffff8100462f:	e8 89 ef ff ff       	callq  ffffffff810035bd <isr_dispatcher>
ffffffff81004634:	58                   	pop    %rax
ffffffff81004635:	5a                   	pop    %rdx
ffffffff81004636:	59                   	pop    %rcx
ffffffff81004637:	5e                   	pop    %rsi
ffffffff81004638:	5f                   	pop    %rdi
ffffffff81004639:	41 58                	pop    %r8
ffffffff8100463b:	41 59                	pop    %r9
ffffffff8100463d:	41 5a                	pop    %r10
ffffffff8100463f:	41 5b                	pop    %r11
ffffffff81004641:	5d                   	pop    %rbp
ffffffff81004642:	48 cf                	iretq  

ffffffff81004644 <isr_71>:
ffffffff81004644:	55                   	push   %rbp
ffffffff81004645:	48 89 e5             	mov    %rsp,%rbp
ffffffff81004648:	41 53                	push   %r11
ffffffff8100464a:	41 52                	push   %r10
ffffffff8100464c:	41 51                	push   %r9
ffffffff8100464e:	41 50                	push   %r8
ffffffff81004650:	57                   	push   %rdi
ffffffff81004651:	56                   	push   %rsi
ffffffff81004652:	51                   	push   %rcx
ffffffff81004653:	52                   	push   %rdx
ffffffff81004654:	50                   	push   %rax
ffffffff81004655:	fc                   	cld    
ffffffff81004656:	bf 47 00 00 00       	mov    $0x47,%edi
ffffffff8100465b:	be 00 00 00 00       	mov    $0x0,%esi
ffffffff81004660:	e8 58 ef ff ff       	callq  ffffffff810035bd <isr_dispatcher>
ffffffff81004665:	58                   	pop    %rax
ffffffff81004666:	5a                   	pop    %rdx
ffffffff81004667:	59                   	pop    %rcx
ffffffff81004668:	5e                   	pop    %rsi
ffffffff81004669:	5f                   	pop    %rdi
ffffffff8100466a:	41 58                	pop    %r8
ffffffff8100466c:	41 59                	pop    %r9
ffffffff8100466e:	41 5a                	pop    %r10
ffffffff81004670:	41 5b                	pop    %r11
ffffffff81004672:	5d                   	pop    %rbp
ffffffff81004673:	48 cf                	iretq  

ffffffff81004675 <isr_72>:
ffffffff81004675:	55                   	push   %rbp
ffffffff81004676:	48 89 e5             	mov    %rsp,%rbp
ffffffff81004679:	41 53                	push   %r11
ffffffff8100467b:	41 52                	push   %r10
ffffffff8100467d:	41 51                	push   %r9
ffffffff8100467f:	41 50                	push   %r8
ffffffff81004681:	57                   	push   %rdi
ffffffff81004682:	56                   	push   %rsi
ffffffff81004683:	51                   	push   %rcx
ffffffff81004684:	52                   	push   %rdx
ffffffff81004685:	50                   	push   %rax
ffffffff81004686:	fc                   	cld    
ffffffff81004687:	bf 48 00 00 00       	mov    $0x48,%edi
ffffffff8100468c:	be 00 00 00 00       	mov    $0x0,%esi
ffffffff81004691:	e8 27 ef ff ff       	callq  ffffffff810035bd <isr_dispatcher>
ffffffff81004696:	58                   	pop    %rax
ffffffff81004697:	5a                   	pop    %rdx
ffffffff81004698:	59                   	pop    %rcx
ffffffff81004699:	5e                   	pop    %rsi
ffffffff8100469a:	5f                   	pop    %rdi
ffffffff8100469b:	41 58                	pop    %r8
ffffffff8100469d:	41 59                	pop    %r9
ffffffff8100469f:	41 5a                	pop    %r10
ffffffff810046a1:	41 5b                	pop    %r11
ffffffff810046a3:	5d                   	pop    %rbp
ffffffff810046a4:	48 cf                	iretq  

ffffffff810046a6 <isr_73>:
ffffffff810046a6:	55                   	push   %rbp
ffffffff810046a7:	48 89 e5             	mov    %rsp,%rbp
ffffffff810046aa:	41 53                	push   %r11
ffffffff810046ac:	41 52                	push   %r10
ffffffff810046ae:	41 51                	push   %r9
ffffffff810046b0:	41 50                	push   %r8
ffffffff810046b2:	57                   	push   %rdi
ffffffff810046b3:	56                   	push   %rsi
ffffffff810046b4:	51                   	push   %rcx
ffffffff810046b5:	52                   	push   %rdx
ffffffff810046b6:	50                   	push   %rax
ffffffff810046b7:	fc                   	cld    
ffffffff810046b8:	bf 49 00 00 00       	mov    $0x49,%edi
ffffffff810046bd:	be 00 00 00 00       	mov    $0x0,%esi
ffffffff810046c2:	e8 f6 ee ff ff       	callq  ffffffff810035bd <isr_dispatcher>
ffffffff810046c7:	58                   	pop    %rax
ffffffff810046c8:	5a                   	pop    %rdx
ffffffff810046c9:	59                   	pop    %rcx
ffffffff810046ca:	5e                   	pop    %rsi
ffffffff810046cb:	5f                   	pop    %rdi
ffffffff810046cc:	41 58                	pop    %r8
ffffffff810046ce:	41 59                	pop    %r9
ffffffff810046d0:	41 5a                	pop    %r10
ffffffff810046d2:	41 5b                	pop    %r11
ffffffff810046d4:	5d                   	pop    %rbp
ffffffff810046d5:	48 cf                	iretq  

ffffffff810046d7 <isr_74>:
ffffffff810046d7:	55                   	push   %rbp
ffffffff810046d8:	48 89 e5             	mov    %rsp,%rbp
ffffffff810046db:	41 53                	push   %r11
ffffffff810046dd:	41 52                	push   %r10
ffffffff810046df:	41 51                	push   %r9
ffffffff810046e1:	41 50                	push   %r8
ffffffff810046e3:	57                   	push   %rdi
ffffffff810046e4:	56                   	push   %rsi
ffffffff810046e5:	51                   	push   %rcx
ffffffff810046e6:	52                   	push   %rdx
ffffffff810046e7:	50                   	push   %rax
ffffffff810046e8:	fc                   	cld    
ffffffff810046e9:	bf 4a 00 00 00       	mov    $0x4a,%edi
ffffffff810046ee:	be 00 00 00 00       	mov    $0x0,%esi
ffffffff810046f3:	e8 c5 ee ff ff       	callq  ffffffff810035bd <isr_dispatcher>
ffffffff810046f8:	58                   	pop    %rax
ffffffff810046f9:	5a                   	pop    %rdx
ffffffff810046fa:	59                   	pop    %rcx
ffffffff810046fb:	5e                   	pop    %rsi
ffffffff810046fc:	5f                   	pop    %rdi
ffffffff810046fd:	41 58                	pop    %r8
ffffffff810046ff:	41 59                	pop    %r9
ffffffff81004701:	41 5a                	pop    %r10
ffffffff81004703:	41 5b                	pop    %r11
ffffffff81004705:	5d                   	pop    %rbp
ffffffff81004706:	48 cf                	iretq  

ffffffff81004708 <isr_75>:
ffffffff81004708:	55                   	push   %rbp
ffffffff81004709:	48 89 e5             	mov    %rsp,%rbp
ffffffff8100470c:	41 53                	push   %r11
ffffffff8100470e:	41 52                	push   %r10
ffffffff81004710:	41 51                	push   %r9
ffffffff81004712:	41 50                	push   %r8
ffffffff81004714:	57                   	push   %rdi
ffffffff81004715:	56                   	push   %rsi
ffffffff81004716:	51                   	push   %rcx
ffffffff81004717:	52                   	push   %rdx
ffffffff81004718:	50                   	push   %rax
ffffffff81004719:	fc                   	cld    
ffffffff8100471a:	bf 4b 00 00 00       	mov    $0x4b,%edi
ffffffff8100471f:	be 00 00 00 00       	mov    $0x0,%esi
ffffffff81004724:	e8 94 ee ff ff       	callq  ffffffff810035bd <isr_dispatcher>
ffffffff81004729:	58                   	pop    %rax
ffffffff8100472a:	5a                   	pop    %rdx
ffffffff8100472b:	59                   	pop    %rcx
ffffffff8100472c:	5e                   	pop    %rsi
ffffffff8100472d:	5f                   	pop    %rdi
ffffffff8100472e:	41 58                	pop    %r8
ffffffff81004730:	41 59                	pop    %r9
ffffffff81004732:	41 5a                	pop    %r10
ffffffff81004734:	41 5b                	pop    %r11
ffffffff81004736:	5d                   	pop    %rbp
ffffffff81004737:	48 cf                	iretq  

ffffffff81004739 <isr_76>:
ffffffff81004739:	55                   	push   %rbp
ffffffff8100473a:	48 89 e5             	mov    %rsp,%rbp
ffffffff8100473d:	41 53                	push   %r11
ffffffff8100473f:	41 52                	push   %r10
ffffffff81004741:	41 51                	push   %r9
ffffffff81004743:	41 50                	push   %r8
ffffffff81004745:	57                   	push   %rdi
ffffffff81004746:	56                   	push   %rsi
ffffffff81004747:	51                   	push   %rcx
ffffffff81004748:	52                   	push   %rdx
ffffffff81004749:	50                   	push   %rax
ffffffff8100474a:	fc                   	cld    
ffffffff8100474b:	bf 4c 00 00 00       	mov    $0x4c,%edi
ffffffff81004750:	be 00 00 00 00       	mov    $0x0,%esi
ffffffff81004755:	e8 63 ee ff ff       	callq  ffffffff810035bd <isr_dispatcher>
ffffffff8100475a:	58                   	pop    %rax
ffffffff8100475b:	5a                   	pop    %rdx
ffffffff8100475c:	59                   	pop    %rcx
ffffffff8100475d:	5e                   	pop    %rsi
ffffffff8100475e:	5f                   	pop    %rdi
ffffffff8100475f:	41 58                	pop    %r8
ffffffff81004761:	41 59                	pop    %r9
ffffffff81004763:	41 5a                	pop    %r10
ffffffff81004765:	41 5b                	pop    %r11
ffffffff81004767:	5d                   	pop    %rbp
ffffffff81004768:	48 cf                	iretq  

ffffffff8100476a <isr_77>:
ffffffff8100476a:	55                   	push   %rbp
ffffffff8100476b:	48 89 e5             	mov    %rsp,%rbp
ffffffff8100476e:	41 53                	push   %r11
ffffffff81004770:	41 52                	push   %r10
ffffffff81004772:	41 51                	push   %r9
ffffffff81004774:	41 50                	push   %r8
ffffffff81004776:	57                   	push   %rdi
ffffffff81004777:	56                   	push   %rsi
ffffffff81004778:	51                   	push   %rcx
ffffffff81004779:	52                   	push   %rdx
ffffffff8100477a:	50                   	push   %rax
ffffffff8100477b:	fc                   	cld    
ffffffff8100477c:	bf 4d 00 00 00       	mov    $0x4d,%edi
ffffffff81004781:	be 00 00 00 00       	mov    $0x0,%esi
ffffffff81004786:	e8 32 ee ff ff       	callq  ffffffff810035bd <isr_dispatcher>
ffffffff8100478b:	58                   	pop    %rax
ffffffff8100478c:	5a                   	pop    %rdx
ffffffff8100478d:	59                   	pop    %rcx
ffffffff8100478e:	5e                   	pop    %rsi
ffffffff8100478f:	5f                   	pop    %rdi
ffffffff81004790:	41 58                	pop    %r8
ffffffff81004792:	41 59                	pop    %r9
ffffffff81004794:	41 5a                	pop    %r10
ffffffff81004796:	41 5b                	pop    %r11
ffffffff81004798:	5d                   	pop    %rbp
ffffffff81004799:	48 cf                	iretq  

ffffffff8100479b <isr_78>:
ffffffff8100479b:	55                   	push   %rbp
ffffffff8100479c:	48 89 e5             	mov    %rsp,%rbp
ffffffff8100479f:	41 53                	push   %r11
ffffffff810047a1:	41 52                	push   %r10
ffffffff810047a3:	41 51                	push   %r9
ffffffff810047a5:	41 50                	push   %r8
ffffffff810047a7:	57                   	push   %rdi
ffffffff810047a8:	56                   	push   %rsi
ffffffff810047a9:	51                   	push   %rcx
ffffffff810047aa:	52                   	push   %rdx
ffffffff810047ab:	50                   	push   %rax
ffffffff810047ac:	fc                   	cld    
ffffffff810047ad:	bf 4e 00 00 00       	mov    $0x4e,%edi
ffffffff810047b2:	be 00 00 00 00       	mov    $0x0,%esi
ffffffff810047b7:	e8 01 ee ff ff       	callq  ffffffff810035bd <isr_dispatcher>
ffffffff810047bc:	58                   	pop    %rax
ffffffff810047bd:	5a                   	pop    %rdx
ffffffff810047be:	59                   	pop    %rcx
ffffffff810047bf:	5e                   	pop    %rsi
ffffffff810047c0:	5f                   	pop    %rdi
ffffffff810047c1:	41 58                	pop    %r8
ffffffff810047c3:	41 59                	pop    %r9
ffffffff810047c5:	41 5a                	pop    %r10
ffffffff810047c7:	41 5b                	pop    %r11
ffffffff810047c9:	5d                   	pop    %rbp
ffffffff810047ca:	48 cf                	iretq  

ffffffff810047cc <isr_79>:
ffffffff810047cc:	55                   	push   %rbp
ffffffff810047cd:	48 89 e5             	mov    %rsp,%rbp
ffffffff810047d0:	41 53                	push   %r11
ffffffff810047d2:	41 52                	push   %r10
ffffffff810047d4:	41 51                	push   %r9
ffffffff810047d6:	41 50                	push   %r8
ffffffff810047d8:	57                   	push   %rdi
ffffffff810047d9:	56                   	push   %rsi
ffffffff810047da:	51                   	push   %rcx
ffffffff810047db:	52                   	push   %rdx
ffffffff810047dc:	50                   	push   %rax
ffffffff810047dd:	fc                   	cld    
ffffffff810047de:	bf 4f 00 00 00       	mov    $0x4f,%edi
ffffffff810047e3:	be 00 00 00 00       	mov    $0x0,%esi
ffffffff810047e8:	e8 d0 ed ff ff       	callq  ffffffff810035bd <isr_dispatcher>
ffffffff810047ed:	58                   	pop    %rax
ffffffff810047ee:	5a                   	pop    %rdx
ffffffff810047ef:	59                   	pop    %rcx
ffffffff810047f0:	5e                   	pop    %rsi
ffffffff810047f1:	5f                   	pop    %rdi
ffffffff810047f2:	41 58                	pop    %r8
ffffffff810047f4:	41 59                	pop    %r9
ffffffff810047f6:	41 5a                	pop    %r10
ffffffff810047f8:	41 5b                	pop    %r11
ffffffff810047fa:	5d                   	pop    %rbp
ffffffff810047fb:	48 cf                	iretq  

ffffffff810047fd <isr_80>:
ffffffff810047fd:	55                   	push   %rbp
ffffffff810047fe:	48 89 e5             	mov    %rsp,%rbp
ffffffff81004801:	41 53                	push   %r11
ffffffff81004803:	41 52                	push   %r10
ffffffff81004805:	41 51                	push   %r9
ffffffff81004807:	41 50                	push   %r8
ffffffff81004809:	57                   	push   %rdi
ffffffff8100480a:	56                   	push   %rsi
ffffffff8100480b:	51                   	push   %rcx
ffffffff8100480c:	52                   	push   %rdx
ffffffff8100480d:	50                   	push   %rax
ffffffff8100480e:	fc                   	cld    
ffffffff8100480f:	bf 50 00 00 00       	mov    $0x50,%edi
ffffffff81004814:	be 00 00 00 00       	mov    $0x0,%esi
ffffffff81004819:	e8 9f ed ff ff       	callq  ffffffff810035bd <isr_dispatcher>
ffffffff8100481e:	58                   	pop    %rax
ffffffff8100481f:	5a                   	pop    %rdx
ffffffff81004820:	59                   	pop    %rcx
ffffffff81004821:	5e                   	pop    %rsi
ffffffff81004822:	5f                   	pop    %rdi
ffffffff81004823:	41 58                	pop    %r8
ffffffff81004825:	41 59                	pop    %r9
ffffffff81004827:	41 5a                	pop    %r10
ffffffff81004829:	41 5b                	pop    %r11
ffffffff8100482b:	5d                   	pop    %rbp
ffffffff8100482c:	48 cf                	iretq  

ffffffff8100482e <isr_81>:
ffffffff8100482e:	55                   	push   %rbp
ffffffff8100482f:	48 89 e5             	mov    %rsp,%rbp
ffffffff81004832:	41 53                	push   %r11
ffffffff81004834:	41 52                	push   %r10
ffffffff81004836:	41 51                	push   %r9
ffffffff81004838:	41 50                	push   %r8
ffffffff8100483a:	57                   	push   %rdi
ffffffff8100483b:	56                   	push   %rsi
ffffffff8100483c:	51                   	push   %rcx
ffffffff8100483d:	52                   	push   %rdx
ffffffff8100483e:	50                   	push   %rax
ffffffff8100483f:	fc                   	cld    
ffffffff81004840:	bf 51 00 00 00       	mov    $0x51,%edi
ffffffff81004845:	be 00 00 00 00       	mov    $0x0,%esi
ffffffff8100484a:	e8 6e ed ff ff       	callq  ffffffff810035bd <isr_dispatcher>
ffffffff8100484f:	58                   	pop    %rax
ffffffff81004850:	5a                   	pop    %rdx
ffffffff81004851:	59                   	pop    %rcx
ffffffff81004852:	5e                   	pop    %rsi
ffffffff81004853:	5f                   	pop    %rdi
ffffffff81004854:	41 58                	pop    %r8
ffffffff81004856:	41 59                	pop    %r9
ffffffff81004858:	41 5a                	pop    %r10
ffffffff8100485a:	41 5b                	pop    %r11
ffffffff8100485c:	5d                   	pop    %rbp
ffffffff8100485d:	48 cf                	iretq  

ffffffff8100485f <isr_82>:
ffffffff8100485f:	55                   	push   %rbp
ffffffff81004860:	48 89 e5             	mov    %rsp,%rbp
ffffffff81004863:	41 53                	push   %r11
ffffffff81004865:	41 52                	push   %r10
ffffffff81004867:	41 51                	push   %r9
ffffffff81004869:	41 50                	push   %r8
ffffffff8100486b:	57                   	push   %rdi
ffffffff8100486c:	56                   	push   %rsi
ffffffff8100486d:	51                   	push   %rcx
ffffffff8100486e:	52                   	push   %rdx
ffffffff8100486f:	50                   	push   %rax
ffffffff81004870:	fc                   	cld    
ffffffff81004871:	bf 52 00 00 00       	mov    $0x52,%edi
ffffffff81004876:	be 00 00 00 00       	mov    $0x0,%esi
ffffffff8100487b:	e8 3d ed ff ff       	callq  ffffffff810035bd <isr_dispatcher>
ffffffff81004880:	58                   	pop    %rax
ffffffff81004881:	5a                   	pop    %rdx
ffffffff81004882:	59                   	pop    %rcx
ffffffff81004883:	5e                   	pop    %rsi
ffffffff81004884:	5f                   	pop    %rdi
ffffffff81004885:	41 58                	pop    %r8
ffffffff81004887:	41 59                	pop    %r9
ffffffff81004889:	41 5a                	pop    %r10
ffffffff8100488b:	41 5b                	pop    %r11
ffffffff8100488d:	5d                   	pop    %rbp
ffffffff8100488e:	48 cf                	iretq  

ffffffff81004890 <isr_83>:
ffffffff81004890:	55                   	push   %rbp
ffffffff81004891:	48 89 e5             	mov    %rsp,%rbp
ffffffff81004894:	41 53                	push   %r11
ffffffff81004896:	41 52                	push   %r10
ffffffff81004898:	41 51                	push   %r9
ffffffff8100489a:	41 50                	push   %r8
ffffffff8100489c:	57                   	push   %rdi
ffffffff8100489d:	56                   	push   %rsi
ffffffff8100489e:	51                   	push   %rcx
ffffffff8100489f:	52                   	push   %rdx
ffffffff810048a0:	50                   	push   %rax
ffffffff810048a1:	fc                   	cld    
ffffffff810048a2:	bf 53 00 00 00       	mov    $0x53,%edi
ffffffff810048a7:	be 00 00 00 00       	mov    $0x0,%esi
ffffffff810048ac:	e8 0c ed ff ff       	callq  ffffffff810035bd <isr_dispatcher>
ffffffff810048b1:	58                   	pop    %rax
ffffffff810048b2:	5a                   	pop    %rdx
ffffffff810048b3:	59                   	pop    %rcx
ffffffff810048b4:	5e                   	pop    %rsi
ffffffff810048b5:	5f                   	pop    %rdi
ffffffff810048b6:	41 58                	pop    %r8
ffffffff810048b8:	41 59                	pop    %r9
ffffffff810048ba:	41 5a                	pop    %r10
ffffffff810048bc:	41 5b                	pop    %r11
ffffffff810048be:	5d                   	pop    %rbp
ffffffff810048bf:	48 cf                	iretq  

ffffffff810048c1 <isr_84>:
ffffffff810048c1:	55                   	push   %rbp
ffffffff810048c2:	48 89 e5             	mov    %rsp,%rbp
ffffffff810048c5:	41 53                	push   %r11
ffffffff810048c7:	41 52                	push   %r10
ffffffff810048c9:	41 51                	push   %r9
ffffffff810048cb:	41 50                	push   %r8
ffffffff810048cd:	57                   	push   %rdi
ffffffff810048ce:	56                   	push   %rsi
ffffffff810048cf:	51                   	push   %rcx
ffffffff810048d0:	52                   	push   %rdx
ffffffff810048d1:	50                   	push   %rax
ffffffff810048d2:	fc                   	cld    
ffffffff810048d3:	bf 54 00 00 00       	mov    $0x54,%edi
ffffffff810048d8:	be 00 00 00 00       	mov    $0x0,%esi
ffffffff810048dd:	e8 db ec ff ff       	callq  ffffffff810035bd <isr_dispatcher>
ffffffff810048e2:	58                   	pop    %rax
ffffffff810048e3:	5a                   	pop    %rdx
ffffffff810048e4:	59                   	pop    %rcx
ffffffff810048e5:	5e                   	pop    %rsi
ffffffff810048e6:	5f                   	pop    %rdi
ffffffff810048e7:	41 58                	pop    %r8
ffffffff810048e9:	41 59                	pop    %r9
ffffffff810048eb:	41 5a                	pop    %r10
ffffffff810048ed:	41 5b                	pop    %r11
ffffffff810048ef:	5d                   	pop    %rbp
ffffffff810048f0:	48 cf                	iretq  

ffffffff810048f2 <isr_85>:
ffffffff810048f2:	55                   	push   %rbp
ffffffff810048f3:	48 89 e5             	mov    %rsp,%rbp
ffffffff810048f6:	41 53                	push   %r11
ffffffff810048f8:	41 52                	push   %r10
ffffffff810048fa:	41 51                	push   %r9
ffffffff810048fc:	41 50                	push   %r8
ffffffff810048fe:	57                   	push   %rdi
ffffffff810048ff:	56                   	push   %rsi
ffffffff81004900:	51                   	push   %rcx
ffffffff81004901:	52                   	push   %rdx
ffffffff81004902:	50                   	push   %rax
ffffffff81004903:	fc                   	cld    
ffffffff81004904:	bf 55 00 00 00       	mov    $0x55,%edi
ffffffff81004909:	be 00 00 00 00       	mov    $0x0,%esi
ffffffff8100490e:	e8 aa ec ff ff       	callq  ffffffff810035bd <isr_dispatcher>
ffffffff81004913:	58                   	pop    %rax
ffffffff81004914:	5a                   	pop    %rdx
ffffffff81004915:	59                   	pop    %rcx
ffffffff81004916:	5e                   	pop    %rsi
ffffffff81004917:	5f                   	pop    %rdi
ffffffff81004918:	41 58                	pop    %r8
ffffffff8100491a:	41 59                	pop    %r9
ffffffff8100491c:	41 5a                	pop    %r10
ffffffff8100491e:	41 5b                	pop    %r11
ffffffff81004920:	5d                   	pop    %rbp
ffffffff81004921:	48 cf                	iretq  

ffffffff81004923 <isr_86>:
ffffffff81004923:	55                   	push   %rbp
ffffffff81004924:	48 89 e5             	mov    %rsp,%rbp
ffffffff81004927:	41 53                	push   %r11
ffffffff81004929:	41 52                	push   %r10
ffffffff8100492b:	41 51                	push   %r9
ffffffff8100492d:	41 50                	push   %r8
ffffffff8100492f:	57                   	push   %rdi
ffffffff81004930:	56                   	push   %rsi
ffffffff81004931:	51                   	push   %rcx
ffffffff81004932:	52                   	push   %rdx
ffffffff81004933:	50                   	push   %rax
ffffffff81004934:	fc                   	cld    
ffffffff81004935:	bf 56 00 00 00       	mov    $0x56,%edi
ffffffff8100493a:	be 00 00 00 00       	mov    $0x0,%esi
ffffffff8100493f:	e8 79 ec ff ff       	callq  ffffffff810035bd <isr_dispatcher>
ffffffff81004944:	58                   	pop    %rax
ffffffff81004945:	5a                   	pop    %rdx
ffffffff81004946:	59                   	pop    %rcx
ffffffff81004947:	5e                   	pop    %rsi
ffffffff81004948:	5f                   	pop    %rdi
ffffffff81004949:	41 58                	pop    %r8
ffffffff8100494b:	41 59                	pop    %r9
ffffffff8100494d:	41 5a                	pop    %r10
ffffffff8100494f:	41 5b                	pop    %r11
ffffffff81004951:	5d                   	pop    %rbp
ffffffff81004952:	48 cf                	iretq  

ffffffff81004954 <isr_87>:
ffffffff81004954:	55                   	push   %rbp
ffffffff81004955:	48 89 e5             	mov    %rsp,%rbp
ffffffff81004958:	41 53                	push   %r11
ffffffff8100495a:	41 52                	push   %r10
ffffffff8100495c:	41 51                	push   %r9
ffffffff8100495e:	41 50                	push   %r8
ffffffff81004960:	57                   	push   %rdi
ffffffff81004961:	56                   	push   %rsi
ffffffff81004962:	51                   	push   %rcx
ffffffff81004963:	52                   	push   %rdx
ffffffff81004964:	50                   	push   %rax
ffffffff81004965:	fc                   	cld    
ffffffff81004966:	bf 57 00 00 00       	mov    $0x57,%edi
ffffffff8100496b:	be 00 00 00 00       	mov    $0x0,%esi
ffffffff81004970:	e8 48 ec ff ff       	callq  ffffffff810035bd <isr_dispatcher>
ffffffff81004975:	58                   	pop    %rax
ffffffff81004976:	5a                   	pop    %rdx
ffffffff81004977:	59                   	pop    %rcx
ffffffff81004978:	5e                   	pop    %rsi
ffffffff81004979:	5f                   	pop    %rdi
ffffffff8100497a:	41 58                	pop    %r8
ffffffff8100497c:	41 59                	pop    %r9
ffffffff8100497e:	41 5a                	pop    %r10
ffffffff81004980:	41 5b                	pop    %r11
ffffffff81004982:	5d                   	pop    %rbp
ffffffff81004983:	48 cf                	iretq  

ffffffff81004985 <isr_88>:
ffffffff81004985:	55                   	push   %rbp
ffffffff81004986:	48 89 e5             	mov    %rsp,%rbp
ffffffff81004989:	41 53                	push   %r11
ffffffff8100498b:	41 52                	push   %r10
ffffffff8100498d:	41 51                	push   %r9
ffffffff8100498f:	41 50                	push   %r8
ffffffff81004991:	57                   	push   %rdi
ffffffff81004992:	56                   	push   %rsi
ffffffff81004993:	51                   	push   %rcx
ffffffff81004994:	52                   	push   %rdx
ffffffff81004995:	50                   	push   %rax
ffffffff81004996:	fc                   	cld    
ffffffff81004997:	bf 58 00 00 00       	mov    $0x58,%edi
ffffffff8100499c:	be 00 00 00 00       	mov    $0x0,%esi
ffffffff810049a1:	e8 17 ec ff ff       	callq  ffffffff810035bd <isr_dispatcher>
ffffffff810049a6:	58                   	pop    %rax
ffffffff810049a7:	5a                   	pop    %rdx
ffffffff810049a8:	59                   	pop    %rcx
ffffffff810049a9:	5e                   	pop    %rsi
ffffffff810049aa:	5f                   	pop    %rdi
ffffffff810049ab:	41 58                	pop    %r8
ffffffff810049ad:	41 59                	pop    %r9
ffffffff810049af:	41 5a                	pop    %r10
ffffffff810049b1:	41 5b                	pop    %r11
ffffffff810049b3:	5d                   	pop    %rbp
ffffffff810049b4:	48 cf                	iretq  

ffffffff810049b6 <isr_89>:
ffffffff810049b6:	55                   	push   %rbp
ffffffff810049b7:	48 89 e5             	mov    %rsp,%rbp
ffffffff810049ba:	41 53                	push   %r11
ffffffff810049bc:	41 52                	push   %r10
ffffffff810049be:	41 51                	push   %r9
ffffffff810049c0:	41 50                	push   %r8
ffffffff810049c2:	57                   	push   %rdi
ffffffff810049c3:	56                   	push   %rsi
ffffffff810049c4:	51                   	push   %rcx
ffffffff810049c5:	52                   	push   %rdx
ffffffff810049c6:	50                   	push   %rax
ffffffff810049c7:	fc                   	cld    
ffffffff810049c8:	bf 59 00 00 00       	mov    $0x59,%edi
ffffffff810049cd:	be 00 00 00 00       	mov    $0x0,%esi
ffffffff810049d2:	e8 e6 eb ff ff       	callq  ffffffff810035bd <isr_dispatcher>
ffffffff810049d7:	58                   	pop    %rax
ffffffff810049d8:	5a                   	pop    %rdx
ffffffff810049d9:	59                   	pop    %rcx
ffffffff810049da:	5e                   	pop    %rsi
ffffffff810049db:	5f                   	pop    %rdi
ffffffff810049dc:	41 58                	pop    %r8
ffffffff810049de:	41 59                	pop    %r9
ffffffff810049e0:	41 5a                	pop    %r10
ffffffff810049e2:	41 5b                	pop    %r11
ffffffff810049e4:	5d                   	pop    %rbp
ffffffff810049e5:	48 cf                	iretq  

ffffffff810049e7 <isr_90>:
ffffffff810049e7:	55                   	push   %rbp
ffffffff810049e8:	48 89 e5             	mov    %rsp,%rbp
ffffffff810049eb:	41 53                	push   %r11
ffffffff810049ed:	41 52                	push   %r10
ffffffff810049ef:	41 51                	push   %r9
ffffffff810049f1:	41 50                	push   %r8
ffffffff810049f3:	57                   	push   %rdi
ffffffff810049f4:	56                   	push   %rsi
ffffffff810049f5:	51                   	push   %rcx
ffffffff810049f6:	52                   	push   %rdx
ffffffff810049f7:	50                   	push   %rax
ffffffff810049f8:	fc                   	cld    
ffffffff810049f9:	bf 5a 00 00 00       	mov    $0x5a,%edi
ffffffff810049fe:	be 00 00 00 00       	mov    $0x0,%esi
ffffffff81004a03:	e8 b5 eb ff ff       	callq  ffffffff810035bd <isr_dispatcher>
ffffffff81004a08:	58                   	pop    %rax
ffffffff81004a09:	5a                   	pop    %rdx
ffffffff81004a0a:	59                   	pop    %rcx
ffffffff81004a0b:	5e                   	pop    %rsi
ffffffff81004a0c:	5f                   	pop    %rdi
ffffffff81004a0d:	41 58                	pop    %r8
ffffffff81004a0f:	41 59                	pop    %r9
ffffffff81004a11:	41 5a                	pop    %r10
ffffffff81004a13:	41 5b                	pop    %r11
ffffffff81004a15:	5d                   	pop    %rbp
ffffffff81004a16:	48 cf                	iretq  

ffffffff81004a18 <isr_91>:
ffffffff81004a18:	55                   	push   %rbp
ffffffff81004a19:	48 89 e5             	mov    %rsp,%rbp
ffffffff81004a1c:	41 53                	push   %r11
ffffffff81004a1e:	41 52                	push   %r10
ffffffff81004a20:	41 51                	push   %r9
ffffffff81004a22:	41 50                	push   %r8
ffffffff81004a24:	57                   	push   %rdi
ffffffff81004a25:	56                   	push   %rsi
ffffffff81004a26:	51                   	push   %rcx
ffffffff81004a27:	52                   	push   %rdx
ffffffff81004a28:	50                   	push   %rax
ffffffff81004a29:	fc                   	cld    
ffffffff81004a2a:	bf 5b 00 00 00       	mov    $0x5b,%edi
ffffffff81004a2f:	be 00 00 00 00       	mov    $0x0,%esi
ffffffff81004a34:	e8 84 eb ff ff       	callq  ffffffff810035bd <isr_dispatcher>
ffffffff81004a39:	58                   	pop    %rax
ffffffff81004a3a:	5a                   	pop    %rdx
ffffffff81004a3b:	59                   	pop    %rcx
ffffffff81004a3c:	5e                   	pop    %rsi
ffffffff81004a3d:	5f                   	pop    %rdi
ffffffff81004a3e:	41 58                	pop    %r8
ffffffff81004a40:	41 59                	pop    %r9
ffffffff81004a42:	41 5a                	pop    %r10
ffffffff81004a44:	41 5b                	pop    %r11
ffffffff81004a46:	5d                   	pop    %rbp
ffffffff81004a47:	48 cf                	iretq  

ffffffff81004a49 <isr_92>:
ffffffff81004a49:	55                   	push   %rbp
ffffffff81004a4a:	48 89 e5             	mov    %rsp,%rbp
ffffffff81004a4d:	41 53                	push   %r11
ffffffff81004a4f:	41 52                	push   %r10
ffffffff81004a51:	41 51                	push   %r9
ffffffff81004a53:	41 50                	push   %r8
ffffffff81004a55:	57                   	push   %rdi
ffffffff81004a56:	56                   	push   %rsi
ffffffff81004a57:	51                   	push   %rcx
ffffffff81004a58:	52                   	push   %rdx
ffffffff81004a59:	50                   	push   %rax
ffffffff81004a5a:	fc                   	cld    
ffffffff81004a5b:	bf 5c 00 00 00       	mov    $0x5c,%edi
ffffffff81004a60:	be 00 00 00 00       	mov    $0x0,%esi
ffffffff81004a65:	e8 53 eb ff ff       	callq  ffffffff810035bd <isr_dispatcher>
ffffffff81004a6a:	58                   	pop    %rax
ffffffff81004a6b:	5a                   	pop    %rdx
ffffffff81004a6c:	59                   	pop    %rcx
ffffffff81004a6d:	5e                   	pop    %rsi
ffffffff81004a6e:	5f                   	pop    %rdi
ffffffff81004a6f:	41 58                	pop    %r8
ffffffff81004a71:	41 59                	pop    %r9
ffffffff81004a73:	41 5a                	pop    %r10
ffffffff81004a75:	41 5b                	pop    %r11
ffffffff81004a77:	5d                   	pop    %rbp
ffffffff81004a78:	48 cf                	iretq  

ffffffff81004a7a <isr_93>:
ffffffff81004a7a:	55                   	push   %rbp
ffffffff81004a7b:	48 89 e5             	mov    %rsp,%rbp
ffffffff81004a7e:	41 53                	push   %r11
ffffffff81004a80:	41 52                	push   %r10
ffffffff81004a82:	41 51                	push   %r9
ffffffff81004a84:	41 50                	push   %r8
ffffffff81004a86:	57                   	push   %rdi
ffffffff81004a87:	56                   	push   %rsi
ffffffff81004a88:	51                   	push   %rcx
ffffffff81004a89:	52                   	push   %rdx
ffffffff81004a8a:	50                   	push   %rax
ffffffff81004a8b:	fc                   	cld    
ffffffff81004a8c:	bf 5d 00 00 00       	mov    $0x5d,%edi
ffffffff81004a91:	be 00 00 00 00       	mov    $0x0,%esi
ffffffff81004a96:	e8 22 eb ff ff       	callq  ffffffff810035bd <isr_dispatcher>
ffffffff81004a9b:	58                   	pop    %rax
ffffffff81004a9c:	5a                   	pop    %rdx
ffffffff81004a9d:	59                   	pop    %rcx
ffffffff81004a9e:	5e                   	pop    %rsi
ffffffff81004a9f:	5f                   	pop    %rdi
ffffffff81004aa0:	41 58                	pop    %r8
ffffffff81004aa2:	41 59                	pop    %r9
ffffffff81004aa4:	41 5a                	pop    %r10
ffffffff81004aa6:	41 5b                	pop    %r11
ffffffff81004aa8:	5d                   	pop    %rbp
ffffffff81004aa9:	48 cf                	iretq  

ffffffff81004aab <isr_94>:
ffffffff81004aab:	55                   	push   %rbp
ffffffff81004aac:	48 89 e5             	mov    %rsp,%rbp
ffffffff81004aaf:	41 53                	push   %r11
ffffffff81004ab1:	41 52                	push   %r10
ffffffff81004ab3:	41 51                	push   %r9
ffffffff81004ab5:	41 50                	push   %r8
ffffffff81004ab7:	57                   	push   %rdi
ffffffff81004ab8:	56                   	push   %rsi
ffffffff81004ab9:	51                   	push   %rcx
ffffffff81004aba:	52                   	push   %rdx
ffffffff81004abb:	50                   	push   %rax
ffffffff81004abc:	fc                   	cld    
ffffffff81004abd:	bf 5e 00 00 00       	mov    $0x5e,%edi
ffffffff81004ac2:	be 00 00 00 00       	mov    $0x0,%esi
ffffffff81004ac7:	e8 f1 ea ff ff       	callq  ffffffff810035bd <isr_dispatcher>
ffffffff81004acc:	58                   	pop    %rax
ffffffff81004acd:	5a                   	pop    %rdx
ffffffff81004ace:	59                   	pop    %rcx
ffffffff81004acf:	5e                   	pop    %rsi
ffffffff81004ad0:	5f                   	pop    %rdi
ffffffff81004ad1:	41 58                	pop    %r8
ffffffff81004ad3:	41 59                	pop    %r9
ffffffff81004ad5:	41 5a                	pop    %r10
ffffffff81004ad7:	41 5b                	pop    %r11
ffffffff81004ad9:	5d                   	pop    %rbp
ffffffff81004ada:	48 cf                	iretq  

ffffffff81004adc <isr_95>:
ffffffff81004adc:	55                   	push   %rbp
ffffffff81004add:	48 89 e5             	mov    %rsp,%rbp
ffffffff81004ae0:	41 53                	push   %r11
ffffffff81004ae2:	41 52                	push   %r10
ffffffff81004ae4:	41 51                	push   %r9
ffffffff81004ae6:	41 50                	push   %r8
ffffffff81004ae8:	57                   	push   %rdi
ffffffff81004ae9:	56                   	push   %rsi
ffffffff81004aea:	51                   	push   %rcx
ffffffff81004aeb:	52                   	push   %rdx
ffffffff81004aec:	50                   	push   %rax
ffffffff81004aed:	fc                   	cld    
ffffffff81004aee:	bf 5f 00 00 00       	mov    $0x5f,%edi
ffffffff81004af3:	be 00 00 00 00       	mov    $0x0,%esi
ffffffff81004af8:	e8 c0 ea ff ff       	callq  ffffffff810035bd <isr_dispatcher>
ffffffff81004afd:	58                   	pop    %rax
ffffffff81004afe:	5a                   	pop    %rdx
ffffffff81004aff:	59                   	pop    %rcx
ffffffff81004b00:	5e                   	pop    %rsi
ffffffff81004b01:	5f                   	pop    %rdi
ffffffff81004b02:	41 58                	pop    %r8
ffffffff81004b04:	41 59                	pop    %r9
ffffffff81004b06:	41 5a                	pop    %r10
ffffffff81004b08:	41 5b                	pop    %r11
ffffffff81004b0a:	5d                   	pop    %rbp
ffffffff81004b0b:	48 cf                	iretq  

ffffffff81004b0d <isr_96>:
ffffffff81004b0d:	55                   	push   %rbp
ffffffff81004b0e:	48 89 e5             	mov    %rsp,%rbp
ffffffff81004b11:	41 53                	push   %r11
ffffffff81004b13:	41 52                	push   %r10
ffffffff81004b15:	41 51                	push   %r9
ffffffff81004b17:	41 50                	push   %r8
ffffffff81004b19:	57                   	push   %rdi
ffffffff81004b1a:	56                   	push   %rsi
ffffffff81004b1b:	51                   	push   %rcx
ffffffff81004b1c:	52                   	push   %rdx
ffffffff81004b1d:	50                   	push   %rax
ffffffff81004b1e:	fc                   	cld    
ffffffff81004b1f:	bf 60 00 00 00       	mov    $0x60,%edi
ffffffff81004b24:	be 00 00 00 00       	mov    $0x0,%esi
ffffffff81004b29:	e8 8f ea ff ff       	callq  ffffffff810035bd <isr_dispatcher>
ffffffff81004b2e:	58                   	pop    %rax
ffffffff81004b2f:	5a                   	pop    %rdx
ffffffff81004b30:	59                   	pop    %rcx
ffffffff81004b31:	5e                   	pop    %rsi
ffffffff81004b32:	5f                   	pop    %rdi
ffffffff81004b33:	41 58                	pop    %r8
ffffffff81004b35:	41 59                	pop    %r9
ffffffff81004b37:	41 5a                	pop    %r10
ffffffff81004b39:	41 5b                	pop    %r11
ffffffff81004b3b:	5d                   	pop    %rbp
ffffffff81004b3c:	48 cf                	iretq  

ffffffff81004b3e <isr_97>:
ffffffff81004b3e:	55                   	push   %rbp
ffffffff81004b3f:	48 89 e5             	mov    %rsp,%rbp
ffffffff81004b42:	41 53                	push   %r11
ffffffff81004b44:	41 52                	push   %r10
ffffffff81004b46:	41 51                	push   %r9
ffffffff81004b48:	41 50                	push   %r8
ffffffff81004b4a:	57                   	push   %rdi
ffffffff81004b4b:	56                   	push   %rsi
ffffffff81004b4c:	51                   	push   %rcx
ffffffff81004b4d:	52                   	push   %rdx
ffffffff81004b4e:	50                   	push   %rax
ffffffff81004b4f:	fc                   	cld    
ffffffff81004b50:	bf 61 00 00 00       	mov    $0x61,%edi
ffffffff81004b55:	be 00 00 00 00       	mov    $0x0,%esi
ffffffff81004b5a:	e8 5e ea ff ff       	callq  ffffffff810035bd <isr_dispatcher>
ffffffff81004b5f:	58                   	pop    %rax
ffffffff81004b60:	5a                   	pop    %rdx
ffffffff81004b61:	59                   	pop    %rcx
ffffffff81004b62:	5e                   	pop    %rsi
ffffffff81004b63:	5f                   	pop    %rdi
ffffffff81004b64:	41 58                	pop    %r8
ffffffff81004b66:	41 59                	pop    %r9
ffffffff81004b68:	41 5a                	pop    %r10
ffffffff81004b6a:	41 5b                	pop    %r11
ffffffff81004b6c:	5d                   	pop    %rbp
ffffffff81004b6d:	48 cf                	iretq  

ffffffff81004b6f <isr_98>:
ffffffff81004b6f:	55                   	push   %rbp
ffffffff81004b70:	48 89 e5             	mov    %rsp,%rbp
ffffffff81004b73:	41 53                	push   %r11
ffffffff81004b75:	41 52                	push   %r10
ffffffff81004b77:	41 51                	push   %r9
ffffffff81004b79:	41 50                	push   %r8
ffffffff81004b7b:	57                   	push   %rdi
ffffffff81004b7c:	56                   	push   %rsi
ffffffff81004b7d:	51                   	push   %rcx
ffffffff81004b7e:	52                   	push   %rdx
ffffffff81004b7f:	50                   	push   %rax
ffffffff81004b80:	fc                   	cld    
ffffffff81004b81:	bf 62 00 00 00       	mov    $0x62,%edi
ffffffff81004b86:	be 00 00 00 00       	mov    $0x0,%esi
ffffffff81004b8b:	e8 2d ea ff ff       	callq  ffffffff810035bd <isr_dispatcher>
ffffffff81004b90:	58                   	pop    %rax
ffffffff81004b91:	5a                   	pop    %rdx
ffffffff81004b92:	59                   	pop    %rcx
ffffffff81004b93:	5e                   	pop    %rsi
ffffffff81004b94:	5f                   	pop    %rdi
ffffffff81004b95:	41 58                	pop    %r8
ffffffff81004b97:	41 59                	pop    %r9
ffffffff81004b99:	41 5a                	pop    %r10
ffffffff81004b9b:	41 5b                	pop    %r11
ffffffff81004b9d:	5d                   	pop    %rbp
ffffffff81004b9e:	48 cf                	iretq  

ffffffff81004ba0 <isr_99>:
ffffffff81004ba0:	55                   	push   %rbp
ffffffff81004ba1:	48 89 e5             	mov    %rsp,%rbp
ffffffff81004ba4:	41 53                	push   %r11
ffffffff81004ba6:	41 52                	push   %r10
ffffffff81004ba8:	41 51                	push   %r9
ffffffff81004baa:	41 50                	push   %r8
ffffffff81004bac:	57                   	push   %rdi
ffffffff81004bad:	56                   	push   %rsi
ffffffff81004bae:	51                   	push   %rcx
ffffffff81004baf:	52                   	push   %rdx
ffffffff81004bb0:	50                   	push   %rax
ffffffff81004bb1:	fc                   	cld    
ffffffff81004bb2:	bf 63 00 00 00       	mov    $0x63,%edi
ffffffff81004bb7:	be 00 00 00 00       	mov    $0x0,%esi
ffffffff81004bbc:	e8 fc e9 ff ff       	callq  ffffffff810035bd <isr_dispatcher>
ffffffff81004bc1:	58                   	pop    %rax
ffffffff81004bc2:	5a                   	pop    %rdx
ffffffff81004bc3:	59                   	pop    %rcx
ffffffff81004bc4:	5e                   	pop    %rsi
ffffffff81004bc5:	5f                   	pop    %rdi
ffffffff81004bc6:	41 58                	pop    %r8
ffffffff81004bc8:	41 59                	pop    %r9
ffffffff81004bca:	41 5a                	pop    %r10
ffffffff81004bcc:	41 5b                	pop    %r11
ffffffff81004bce:	5d                   	pop    %rbp
ffffffff81004bcf:	48 cf                	iretq  

ffffffff81004bd1 <isr_100>:
ffffffff81004bd1:	55                   	push   %rbp
ffffffff81004bd2:	48 89 e5             	mov    %rsp,%rbp
ffffffff81004bd5:	41 53                	push   %r11
ffffffff81004bd7:	41 52                	push   %r10
ffffffff81004bd9:	41 51                	push   %r9
ffffffff81004bdb:	41 50                	push   %r8
ffffffff81004bdd:	57                   	push   %rdi
ffffffff81004bde:	56                   	push   %rsi
ffffffff81004bdf:	51                   	push   %rcx
ffffffff81004be0:	52                   	push   %rdx
ffffffff81004be1:	50                   	push   %rax
ffffffff81004be2:	fc                   	cld    
ffffffff81004be3:	bf 64 00 00 00       	mov    $0x64,%edi
ffffffff81004be8:	be 00 00 00 00       	mov    $0x0,%esi
ffffffff81004bed:	e8 cb e9 ff ff       	callq  ffffffff810035bd <isr_dispatcher>
ffffffff81004bf2:	58                   	pop    %rax
ffffffff81004bf3:	5a                   	pop    %rdx
ffffffff81004bf4:	59                   	pop    %rcx
ffffffff81004bf5:	5e                   	pop    %rsi
ffffffff81004bf6:	5f                   	pop    %rdi
ffffffff81004bf7:	41 58                	pop    %r8
ffffffff81004bf9:	41 59                	pop    %r9
ffffffff81004bfb:	41 5a                	pop    %r10
ffffffff81004bfd:	41 5b                	pop    %r11
ffffffff81004bff:	5d                   	pop    %rbp
ffffffff81004c00:	48 cf                	iretq  

ffffffff81004c02 <isr_101>:
ffffffff81004c02:	55                   	push   %rbp
ffffffff81004c03:	48 89 e5             	mov    %rsp,%rbp
ffffffff81004c06:	41 53                	push   %r11
ffffffff81004c08:	41 52                	push   %r10
ffffffff81004c0a:	41 51                	push   %r9
ffffffff81004c0c:	41 50                	push   %r8
ffffffff81004c0e:	57                   	push   %rdi
ffffffff81004c0f:	56                   	push   %rsi
ffffffff81004c10:	51                   	push   %rcx
ffffffff81004c11:	52                   	push   %rdx
ffffffff81004c12:	50                   	push   %rax
ffffffff81004c13:	fc                   	cld    
ffffffff81004c14:	bf 65 00 00 00       	mov    $0x65,%edi
ffffffff81004c19:	be 00 00 00 00       	mov    $0x0,%esi
ffffffff81004c1e:	e8 9a e9 ff ff       	callq  ffffffff810035bd <isr_dispatcher>
ffffffff81004c23:	58                   	pop    %rax
ffffffff81004c24:	5a                   	pop    %rdx
ffffffff81004c25:	59                   	pop    %rcx
ffffffff81004c26:	5e                   	pop    %rsi
ffffffff81004c27:	5f                   	pop    %rdi
ffffffff81004c28:	41 58                	pop    %r8
ffffffff81004c2a:	41 59                	pop    %r9
ffffffff81004c2c:	41 5a                	pop    %r10
ffffffff81004c2e:	41 5b                	pop    %r11
ffffffff81004c30:	5d                   	pop    %rbp
ffffffff81004c31:	48 cf                	iretq  

ffffffff81004c33 <isr_102>:
ffffffff81004c33:	55                   	push   %rbp
ffffffff81004c34:	48 89 e5             	mov    %rsp,%rbp
ffffffff81004c37:	41 53                	push   %r11
ffffffff81004c39:	41 52                	push   %r10
ffffffff81004c3b:	41 51                	push   %r9
ffffffff81004c3d:	41 50                	push   %r8
ffffffff81004c3f:	57                   	push   %rdi
ffffffff81004c40:	56                   	push   %rsi
ffffffff81004c41:	51                   	push   %rcx
ffffffff81004c42:	52                   	push   %rdx
ffffffff81004c43:	50                   	push   %rax
ffffffff81004c44:	fc                   	cld    
ffffffff81004c45:	bf 66 00 00 00       	mov    $0x66,%edi
ffffffff81004c4a:	be 00 00 00 00       	mov    $0x0,%esi
ffffffff81004c4f:	e8 69 e9 ff ff       	callq  ffffffff810035bd <isr_dispatcher>
ffffffff81004c54:	58                   	pop    %rax
ffffffff81004c55:	5a                   	pop    %rdx
ffffffff81004c56:	59                   	pop    %rcx
ffffffff81004c57:	5e                   	pop    %rsi
ffffffff81004c58:	5f                   	pop    %rdi
ffffffff81004c59:	41 58                	pop    %r8
ffffffff81004c5b:	41 59                	pop    %r9
ffffffff81004c5d:	41 5a                	pop    %r10
ffffffff81004c5f:	41 5b                	pop    %r11
ffffffff81004c61:	5d                   	pop    %rbp
ffffffff81004c62:	48 cf                	iretq  

ffffffff81004c64 <isr_103>:
ffffffff81004c64:	55                   	push   %rbp
ffffffff81004c65:	48 89 e5             	mov    %rsp,%rbp
ffffffff81004c68:	41 53                	push   %r11
ffffffff81004c6a:	41 52                	push   %r10
ffffffff81004c6c:	41 51                	push   %r9
ffffffff81004c6e:	41 50                	push   %r8
ffffffff81004c70:	57                   	push   %rdi
ffffffff81004c71:	56                   	push   %rsi
ffffffff81004c72:	51                   	push   %rcx
ffffffff81004c73:	52                   	push   %rdx
ffffffff81004c74:	50                   	push   %rax
ffffffff81004c75:	fc                   	cld    
ffffffff81004c76:	bf 67 00 00 00       	mov    $0x67,%edi
ffffffff81004c7b:	be 00 00 00 00       	mov    $0x0,%esi
ffffffff81004c80:	e8 38 e9 ff ff       	callq  ffffffff810035bd <isr_dispatcher>
ffffffff81004c85:	58                   	pop    %rax
ffffffff81004c86:	5a                   	pop    %rdx
ffffffff81004c87:	59                   	pop    %rcx
ffffffff81004c88:	5e                   	pop    %rsi
ffffffff81004c89:	5f                   	pop    %rdi
ffffffff81004c8a:	41 58                	pop    %r8
ffffffff81004c8c:	41 59                	pop    %r9
ffffffff81004c8e:	41 5a                	pop    %r10
ffffffff81004c90:	41 5b                	pop    %r11
ffffffff81004c92:	5d                   	pop    %rbp
ffffffff81004c93:	48 cf                	iretq  

ffffffff81004c95 <isr_104>:
ffffffff81004c95:	55                   	push   %rbp
ffffffff81004c96:	48 89 e5             	mov    %rsp,%rbp
ffffffff81004c99:	41 53                	push   %r11
ffffffff81004c9b:	41 52                	push   %r10
ffffffff81004c9d:	41 51                	push   %r9
ffffffff81004c9f:	41 50                	push   %r8
ffffffff81004ca1:	57                   	push   %rdi
ffffffff81004ca2:	56                   	push   %rsi
ffffffff81004ca3:	51                   	push   %rcx
ffffffff81004ca4:	52                   	push   %rdx
ffffffff81004ca5:	50                   	push   %rax
ffffffff81004ca6:	fc                   	cld    
ffffffff81004ca7:	bf 68 00 00 00       	mov    $0x68,%edi
ffffffff81004cac:	be 00 00 00 00       	mov    $0x0,%esi
ffffffff81004cb1:	e8 07 e9 ff ff       	callq  ffffffff810035bd <isr_dispatcher>
ffffffff81004cb6:	58                   	pop    %rax
ffffffff81004cb7:	5a                   	pop    %rdx
ffffffff81004cb8:	59                   	pop    %rcx
ffffffff81004cb9:	5e                   	pop    %rsi
ffffffff81004cba:	5f                   	pop    %rdi
ffffffff81004cbb:	41 58                	pop    %r8
ffffffff81004cbd:	41 59                	pop    %r9
ffffffff81004cbf:	41 5a                	pop    %r10
ffffffff81004cc1:	41 5b                	pop    %r11
ffffffff81004cc3:	5d                   	pop    %rbp
ffffffff81004cc4:	48 cf                	iretq  

ffffffff81004cc6 <isr_105>:
ffffffff81004cc6:	55                   	push   %rbp
ffffffff81004cc7:	48 89 e5             	mov    %rsp,%rbp
ffffffff81004cca:	41 53                	push   %r11
ffffffff81004ccc:	41 52                	push   %r10
ffffffff81004cce:	41 51                	push   %r9
ffffffff81004cd0:	41 50                	push   %r8
ffffffff81004cd2:	57                   	push   %rdi
ffffffff81004cd3:	56                   	push   %rsi
ffffffff81004cd4:	51                   	push   %rcx
ffffffff81004cd5:	52                   	push   %rdx
ffffffff81004cd6:	50                   	push   %rax
ffffffff81004cd7:	fc                   	cld    
ffffffff81004cd8:	bf 69 00 00 00       	mov    $0x69,%edi
ffffffff81004cdd:	be 00 00 00 00       	mov    $0x0,%esi
ffffffff81004ce2:	e8 d6 e8 ff ff       	callq  ffffffff810035bd <isr_dispatcher>
ffffffff81004ce7:	58                   	pop    %rax
ffffffff81004ce8:	5a                   	pop    %rdx
ffffffff81004ce9:	59                   	pop    %rcx
ffffffff81004cea:	5e                   	pop    %rsi
ffffffff81004ceb:	5f                   	pop    %rdi
ffffffff81004cec:	41 58                	pop    %r8
ffffffff81004cee:	41 59                	pop    %r9
ffffffff81004cf0:	41 5a                	pop    %r10
ffffffff81004cf2:	41 5b                	pop    %r11
ffffffff81004cf4:	5d                   	pop    %rbp
ffffffff81004cf5:	48 cf                	iretq  

ffffffff81004cf7 <isr_106>:
ffffffff81004cf7:	55                   	push   %rbp
ffffffff81004cf8:	48 89 e5             	mov    %rsp,%rbp
ffffffff81004cfb:	41 53                	push   %r11
ffffffff81004cfd:	41 52                	push   %r10
ffffffff81004cff:	41 51                	push   %r9
ffffffff81004d01:	41 50                	push   %r8
ffffffff81004d03:	57                   	push   %rdi
ffffffff81004d04:	56                   	push   %rsi
ffffffff81004d05:	51                   	push   %rcx
ffffffff81004d06:	52                   	push   %rdx
ffffffff81004d07:	50                   	push   %rax
ffffffff81004d08:	fc                   	cld    
ffffffff81004d09:	bf 6a 00 00 00       	mov    $0x6a,%edi
ffffffff81004d0e:	be 00 00 00 00       	mov    $0x0,%esi
ffffffff81004d13:	e8 a5 e8 ff ff       	callq  ffffffff810035bd <isr_dispatcher>
ffffffff81004d18:	58                   	pop    %rax
ffffffff81004d19:	5a                   	pop    %rdx
ffffffff81004d1a:	59                   	pop    %rcx
ffffffff81004d1b:	5e                   	pop    %rsi
ffffffff81004d1c:	5f                   	pop    %rdi
ffffffff81004d1d:	41 58                	pop    %r8
ffffffff81004d1f:	41 59                	pop    %r9
ffffffff81004d21:	41 5a                	pop    %r10
ffffffff81004d23:	41 5b                	pop    %r11
ffffffff81004d25:	5d                   	pop    %rbp
ffffffff81004d26:	48 cf                	iretq  

ffffffff81004d28 <isr_107>:
ffffffff81004d28:	55                   	push   %rbp
ffffffff81004d29:	48 89 e5             	mov    %rsp,%rbp
ffffffff81004d2c:	41 53                	push   %r11
ffffffff81004d2e:	41 52                	push   %r10
ffffffff81004d30:	41 51                	push   %r9
ffffffff81004d32:	41 50                	push   %r8
ffffffff81004d34:	57                   	push   %rdi
ffffffff81004d35:	56                   	push   %rsi
ffffffff81004d36:	51                   	push   %rcx
ffffffff81004d37:	52                   	push   %rdx
ffffffff81004d38:	50                   	push   %rax
ffffffff81004d39:	fc                   	cld    
ffffffff81004d3a:	bf 6b 00 00 00       	mov    $0x6b,%edi
ffffffff81004d3f:	be 00 00 00 00       	mov    $0x0,%esi
ffffffff81004d44:	e8 74 e8 ff ff       	callq  ffffffff810035bd <isr_dispatcher>
ffffffff81004d49:	58                   	pop    %rax
ffffffff81004d4a:	5a                   	pop    %rdx
ffffffff81004d4b:	59                   	pop    %rcx
ffffffff81004d4c:	5e                   	pop    %rsi
ffffffff81004d4d:	5f                   	pop    %rdi
ffffffff81004d4e:	41 58                	pop    %r8
ffffffff81004d50:	41 59                	pop    %r9
ffffffff81004d52:	41 5a                	pop    %r10
ffffffff81004d54:	41 5b                	pop    %r11
ffffffff81004d56:	5d                   	pop    %rbp
ffffffff81004d57:	48 cf                	iretq  

ffffffff81004d59 <isr_108>:
ffffffff81004d59:	55                   	push   %rbp
ffffffff81004d5a:	48 89 e5             	mov    %rsp,%rbp
ffffffff81004d5d:	41 53                	push   %r11
ffffffff81004d5f:	41 52                	push   %r10
ffffffff81004d61:	41 51                	push   %r9
ffffffff81004d63:	41 50                	push   %r8
ffffffff81004d65:	57                   	push   %rdi
ffffffff81004d66:	56                   	push   %rsi
ffffffff81004d67:	51                   	push   %rcx
ffffffff81004d68:	52                   	push   %rdx
ffffffff81004d69:	50                   	push   %rax
ffffffff81004d6a:	fc                   	cld    
ffffffff81004d6b:	bf 6c 00 00 00       	mov    $0x6c,%edi
ffffffff81004d70:	be 00 00 00 00       	mov    $0x0,%esi
ffffffff81004d75:	e8 43 e8 ff ff       	callq  ffffffff810035bd <isr_dispatcher>
ffffffff81004d7a:	58                   	pop    %rax
ffffffff81004d7b:	5a                   	pop    %rdx
ffffffff81004d7c:	59                   	pop    %rcx
ffffffff81004d7d:	5e                   	pop    %rsi
ffffffff81004d7e:	5f                   	pop    %rdi
ffffffff81004d7f:	41 58                	pop    %r8
ffffffff81004d81:	41 59                	pop    %r9
ffffffff81004d83:	41 5a                	pop    %r10
ffffffff81004d85:	41 5b                	pop    %r11
ffffffff81004d87:	5d                   	pop    %rbp
ffffffff81004d88:	48 cf                	iretq  

ffffffff81004d8a <isr_109>:
ffffffff81004d8a:	55                   	push   %rbp
ffffffff81004d8b:	48 89 e5             	mov    %rsp,%rbp
ffffffff81004d8e:	41 53                	push   %r11
ffffffff81004d90:	41 52                	push   %r10
ffffffff81004d92:	41 51                	push   %r9
ffffffff81004d94:	41 50                	push   %r8
ffffffff81004d96:	57                   	push   %rdi
ffffffff81004d97:	56                   	push   %rsi
ffffffff81004d98:	51                   	push   %rcx
ffffffff81004d99:	52                   	push   %rdx
ffffffff81004d9a:	50                   	push   %rax
ffffffff81004d9b:	fc                   	cld    
ffffffff81004d9c:	bf 6d 00 00 00       	mov    $0x6d,%edi
ffffffff81004da1:	be 00 00 00 00       	mov    $0x0,%esi
ffffffff81004da6:	e8 12 e8 ff ff       	callq  ffffffff810035bd <isr_dispatcher>
ffffffff81004dab:	58                   	pop    %rax
ffffffff81004dac:	5a                   	pop    %rdx
ffffffff81004dad:	59                   	pop    %rcx
ffffffff81004dae:	5e                   	pop    %rsi
ffffffff81004daf:	5f                   	pop    %rdi
ffffffff81004db0:	41 58                	pop    %r8
ffffffff81004db2:	41 59                	pop    %r9
ffffffff81004db4:	41 5a                	pop    %r10
ffffffff81004db6:	41 5b                	pop    %r11
ffffffff81004db8:	5d                   	pop    %rbp
ffffffff81004db9:	48 cf                	iretq  

ffffffff81004dbb <isr_110>:
ffffffff81004dbb:	55                   	push   %rbp
ffffffff81004dbc:	48 89 e5             	mov    %rsp,%rbp
ffffffff81004dbf:	41 53                	push   %r11
ffffffff81004dc1:	41 52                	push   %r10
ffffffff81004dc3:	41 51                	push   %r9
ffffffff81004dc5:	41 50                	push   %r8
ffffffff81004dc7:	57                   	push   %rdi
ffffffff81004dc8:	56                   	push   %rsi
ffffffff81004dc9:	51                   	push   %rcx
ffffffff81004dca:	52                   	push   %rdx
ffffffff81004dcb:	50                   	push   %rax
ffffffff81004dcc:	fc                   	cld    
ffffffff81004dcd:	bf 6e 00 00 00       	mov    $0x6e,%edi
ffffffff81004dd2:	be 00 00 00 00       	mov    $0x0,%esi
ffffffff81004dd7:	e8 e1 e7 ff ff       	callq  ffffffff810035bd <isr_dispatcher>
ffffffff81004ddc:	58                   	pop    %rax
ffffffff81004ddd:	5a                   	pop    %rdx
ffffffff81004dde:	59                   	pop    %rcx
ffffffff81004ddf:	5e                   	pop    %rsi
ffffffff81004de0:	5f                   	pop    %rdi
ffffffff81004de1:	41 58                	pop    %r8
ffffffff81004de3:	41 59                	pop    %r9
ffffffff81004de5:	41 5a                	pop    %r10
ffffffff81004de7:	41 5b                	pop    %r11
ffffffff81004de9:	5d                   	pop    %rbp
ffffffff81004dea:	48 cf                	iretq  

ffffffff81004dec <isr_111>:
ffffffff81004dec:	55                   	push   %rbp
ffffffff81004ded:	48 89 e5             	mov    %rsp,%rbp
ffffffff81004df0:	41 53                	push   %r11
ffffffff81004df2:	41 52                	push   %r10
ffffffff81004df4:	41 51                	push   %r9
ffffffff81004df6:	41 50                	push   %r8
ffffffff81004df8:	57                   	push   %rdi
ffffffff81004df9:	56                   	push   %rsi
ffffffff81004dfa:	51                   	push   %rcx
ffffffff81004dfb:	52                   	push   %rdx
ffffffff81004dfc:	50                   	push   %rax
ffffffff81004dfd:	fc                   	cld    
ffffffff81004dfe:	bf 6f 00 00 00       	mov    $0x6f,%edi
ffffffff81004e03:	be 00 00 00 00       	mov    $0x0,%esi
ffffffff81004e08:	e8 b0 e7 ff ff       	callq  ffffffff810035bd <isr_dispatcher>
ffffffff81004e0d:	58                   	pop    %rax
ffffffff81004e0e:	5a                   	pop    %rdx
ffffffff81004e0f:	59                   	pop    %rcx
ffffffff81004e10:	5e                   	pop    %rsi
ffffffff81004e11:	5f                   	pop    %rdi
ffffffff81004e12:	41 58                	pop    %r8
ffffffff81004e14:	41 59                	pop    %r9
ffffffff81004e16:	41 5a                	pop    %r10
ffffffff81004e18:	41 5b                	pop    %r11
ffffffff81004e1a:	5d                   	pop    %rbp
ffffffff81004e1b:	48 cf                	iretq  

ffffffff81004e1d <isr_112>:
ffffffff81004e1d:	55                   	push   %rbp
ffffffff81004e1e:	48 89 e5             	mov    %rsp,%rbp
ffffffff81004e21:	41 53                	push   %r11
ffffffff81004e23:	41 52                	push   %r10
ffffffff81004e25:	41 51                	push   %r9
ffffffff81004e27:	41 50                	push   %r8
ffffffff81004e29:	57                   	push   %rdi
ffffffff81004e2a:	56                   	push   %rsi
ffffffff81004e2b:	51                   	push   %rcx
ffffffff81004e2c:	52                   	push   %rdx
ffffffff81004e2d:	50                   	push   %rax
ffffffff81004e2e:	fc                   	cld    
ffffffff81004e2f:	bf 70 00 00 00       	mov    $0x70,%edi
ffffffff81004e34:	be 00 00 00 00       	mov    $0x0,%esi
ffffffff81004e39:	e8 7f e7 ff ff       	callq  ffffffff810035bd <isr_dispatcher>
ffffffff81004e3e:	58                   	pop    %rax
ffffffff81004e3f:	5a                   	pop    %rdx
ffffffff81004e40:	59                   	pop    %rcx
ffffffff81004e41:	5e                   	pop    %rsi
ffffffff81004e42:	5f                   	pop    %rdi
ffffffff81004e43:	41 58                	pop    %r8
ffffffff81004e45:	41 59                	pop    %r9
ffffffff81004e47:	41 5a                	pop    %r10
ffffffff81004e49:	41 5b                	pop    %r11
ffffffff81004e4b:	5d                   	pop    %rbp
ffffffff81004e4c:	48 cf                	iretq  

ffffffff81004e4e <isr_113>:
ffffffff81004e4e:	55                   	push   %rbp
ffffffff81004e4f:	48 89 e5             	mov    %rsp,%rbp
ffffffff81004e52:	41 53                	push   %r11
ffffffff81004e54:	41 52                	push   %r10
ffffffff81004e56:	41 51                	push   %r9
ffffffff81004e58:	41 50                	push   %r8
ffffffff81004e5a:	57                   	push   %rdi
ffffffff81004e5b:	56                   	push   %rsi
ffffffff81004e5c:	51                   	push   %rcx
ffffffff81004e5d:	52                   	push   %rdx
ffffffff81004e5e:	50                   	push   %rax
ffffffff81004e5f:	fc                   	cld    
ffffffff81004e60:	bf 71 00 00 00       	mov    $0x71,%edi
ffffffff81004e65:	be 00 00 00 00       	mov    $0x0,%esi
ffffffff81004e6a:	e8 4e e7 ff ff       	callq  ffffffff810035bd <isr_dispatcher>
ffffffff81004e6f:	58                   	pop    %rax
ffffffff81004e70:	5a                   	pop    %rdx
ffffffff81004e71:	59                   	pop    %rcx
ffffffff81004e72:	5e                   	pop    %rsi
ffffffff81004e73:	5f                   	pop    %rdi
ffffffff81004e74:	41 58                	pop    %r8
ffffffff81004e76:	41 59                	pop    %r9
ffffffff81004e78:	41 5a                	pop    %r10
ffffffff81004e7a:	41 5b                	pop    %r11
ffffffff81004e7c:	5d                   	pop    %rbp
ffffffff81004e7d:	48 cf                	iretq  

ffffffff81004e7f <isr_114>:
ffffffff81004e7f:	55                   	push   %rbp
ffffffff81004e80:	48 89 e5             	mov    %rsp,%rbp
ffffffff81004e83:	41 53                	push   %r11
ffffffff81004e85:	41 52                	push   %r10
ffffffff81004e87:	41 51                	push   %r9
ffffffff81004e89:	41 50                	push   %r8
ffffffff81004e8b:	57                   	push   %rdi
ffffffff81004e8c:	56                   	push   %rsi
ffffffff81004e8d:	51                   	push   %rcx
ffffffff81004e8e:	52                   	push   %rdx
ffffffff81004e8f:	50                   	push   %rax
ffffffff81004e90:	fc                   	cld    
ffffffff81004e91:	bf 72 00 00 00       	mov    $0x72,%edi
ffffffff81004e96:	be 00 00 00 00       	mov    $0x0,%esi
ffffffff81004e9b:	e8 1d e7 ff ff       	callq  ffffffff810035bd <isr_dispatcher>
ffffffff81004ea0:	58                   	pop    %rax
ffffffff81004ea1:	5a                   	pop    %rdx
ffffffff81004ea2:	59                   	pop    %rcx
ffffffff81004ea3:	5e                   	pop    %rsi
ffffffff81004ea4:	5f                   	pop    %rdi
ffffffff81004ea5:	41 58                	pop    %r8
ffffffff81004ea7:	41 59                	pop    %r9
ffffffff81004ea9:	41 5a                	pop    %r10
ffffffff81004eab:	41 5b                	pop    %r11
ffffffff81004ead:	5d                   	pop    %rbp
ffffffff81004eae:	48 cf                	iretq  

ffffffff81004eb0 <isr_115>:
ffffffff81004eb0:	55                   	push   %rbp
ffffffff81004eb1:	48 89 e5             	mov    %rsp,%rbp
ffffffff81004eb4:	41 53                	push   %r11
ffffffff81004eb6:	41 52                	push   %r10
ffffffff81004eb8:	41 51                	push   %r9
ffffffff81004eba:	41 50                	push   %r8
ffffffff81004ebc:	57                   	push   %rdi
ffffffff81004ebd:	56                   	push   %rsi
ffffffff81004ebe:	51                   	push   %rcx
ffffffff81004ebf:	52                   	push   %rdx
ffffffff81004ec0:	50                   	push   %rax
ffffffff81004ec1:	fc                   	cld    
ffffffff81004ec2:	bf 73 00 00 00       	mov    $0x73,%edi
ffffffff81004ec7:	be 00 00 00 00       	mov    $0x0,%esi
ffffffff81004ecc:	e8 ec e6 ff ff       	callq  ffffffff810035bd <isr_dispatcher>
ffffffff81004ed1:	58                   	pop    %rax
ffffffff81004ed2:	5a                   	pop    %rdx
ffffffff81004ed3:	59                   	pop    %rcx
ffffffff81004ed4:	5e                   	pop    %rsi
ffffffff81004ed5:	5f                   	pop    %rdi
ffffffff81004ed6:	41 58                	pop    %r8
ffffffff81004ed8:	41 59                	pop    %r9
ffffffff81004eda:	41 5a                	pop    %r10
ffffffff81004edc:	41 5b                	pop    %r11
ffffffff81004ede:	5d                   	pop    %rbp
ffffffff81004edf:	48 cf                	iretq  

ffffffff81004ee1 <isr_116>:
ffffffff81004ee1:	55                   	push   %rbp
ffffffff81004ee2:	48 89 e5             	mov    %rsp,%rbp
ffffffff81004ee5:	41 53                	push   %r11
ffffffff81004ee7:	41 52                	push   %r10
ffffffff81004ee9:	41 51                	push   %r9
ffffffff81004eeb:	41 50                	push   %r8
ffffffff81004eed:	57                   	push   %rdi
ffffffff81004eee:	56                   	push   %rsi
ffffffff81004eef:	51                   	push   %rcx
ffffffff81004ef0:	52                   	push   %rdx
ffffffff81004ef1:	50                   	push   %rax
ffffffff81004ef2:	fc                   	cld    
ffffffff81004ef3:	bf 74 00 00 00       	mov    $0x74,%edi
ffffffff81004ef8:	be 00 00 00 00       	mov    $0x0,%esi
ffffffff81004efd:	e8 bb e6 ff ff       	callq  ffffffff810035bd <isr_dispatcher>
ffffffff81004f02:	58                   	pop    %rax
ffffffff81004f03:	5a                   	pop    %rdx
ffffffff81004f04:	59                   	pop    %rcx
ffffffff81004f05:	5e                   	pop    %rsi
ffffffff81004f06:	5f                   	pop    %rdi
ffffffff81004f07:	41 58                	pop    %r8
ffffffff81004f09:	41 59                	pop    %r9
ffffffff81004f0b:	41 5a                	pop    %r10
ffffffff81004f0d:	41 5b                	pop    %r11
ffffffff81004f0f:	5d                   	pop    %rbp
ffffffff81004f10:	48 cf                	iretq  

ffffffff81004f12 <isr_117>:
ffffffff81004f12:	55                   	push   %rbp
ffffffff81004f13:	48 89 e5             	mov    %rsp,%rbp
ffffffff81004f16:	41 53                	push   %r11
ffffffff81004f18:	41 52                	push   %r10
ffffffff81004f1a:	41 51                	push   %r9
ffffffff81004f1c:	41 50                	push   %r8
ffffffff81004f1e:	57                   	push   %rdi
ffffffff81004f1f:	56                   	push   %rsi
ffffffff81004f20:	51                   	push   %rcx
ffffffff81004f21:	52                   	push   %rdx
ffffffff81004f22:	50                   	push   %rax
ffffffff81004f23:	fc                   	cld    
ffffffff81004f24:	bf 75 00 00 00       	mov    $0x75,%edi
ffffffff81004f29:	be 00 00 00 00       	mov    $0x0,%esi
ffffffff81004f2e:	e8 8a e6 ff ff       	callq  ffffffff810035bd <isr_dispatcher>
ffffffff81004f33:	58                   	pop    %rax
ffffffff81004f34:	5a                   	pop    %rdx
ffffffff81004f35:	59                   	pop    %rcx
ffffffff81004f36:	5e                   	pop    %rsi
ffffffff81004f37:	5f                   	pop    %rdi
ffffffff81004f38:	41 58                	pop    %r8
ffffffff81004f3a:	41 59                	pop    %r9
ffffffff81004f3c:	41 5a                	pop    %r10
ffffffff81004f3e:	41 5b                	pop    %r11
ffffffff81004f40:	5d                   	pop    %rbp
ffffffff81004f41:	48 cf                	iretq  

ffffffff81004f43 <isr_118>:
ffffffff81004f43:	55                   	push   %rbp
ffffffff81004f44:	48 89 e5             	mov    %rsp,%rbp
ffffffff81004f47:	41 53                	push   %r11
ffffffff81004f49:	41 52                	push   %r10
ffffffff81004f4b:	41 51                	push   %r9
ffffffff81004f4d:	41 50                	push   %r8
ffffffff81004f4f:	57                   	push   %rdi
ffffffff81004f50:	56                   	push   %rsi
ffffffff81004f51:	51                   	push   %rcx
ffffffff81004f52:	52                   	push   %rdx
ffffffff81004f53:	50                   	push   %rax
ffffffff81004f54:	fc                   	cld    
ffffffff81004f55:	bf 76 00 00 00       	mov    $0x76,%edi
ffffffff81004f5a:	be 00 00 00 00       	mov    $0x0,%esi
ffffffff81004f5f:	e8 59 e6 ff ff       	callq  ffffffff810035bd <isr_dispatcher>
ffffffff81004f64:	58                   	pop    %rax
ffffffff81004f65:	5a                   	pop    %rdx
ffffffff81004f66:	59                   	pop    %rcx
ffffffff81004f67:	5e                   	pop    %rsi
ffffffff81004f68:	5f                   	pop    %rdi
ffffffff81004f69:	41 58                	pop    %r8
ffffffff81004f6b:	41 59                	pop    %r9
ffffffff81004f6d:	41 5a                	pop    %r10
ffffffff81004f6f:	41 5b                	pop    %r11
ffffffff81004f71:	5d                   	pop    %rbp
ffffffff81004f72:	48 cf                	iretq  

ffffffff81004f74 <isr_119>:
ffffffff81004f74:	55                   	push   %rbp
ffffffff81004f75:	48 89 e5             	mov    %rsp,%rbp
ffffffff81004f78:	41 53                	push   %r11
ffffffff81004f7a:	41 52                	push   %r10
ffffffff81004f7c:	41 51                	push   %r9
ffffffff81004f7e:	41 50                	push   %r8
ffffffff81004f80:	57                   	push   %rdi
ffffffff81004f81:	56                   	push   %rsi
ffffffff81004f82:	51                   	push   %rcx
ffffffff81004f83:	52                   	push   %rdx
ffffffff81004f84:	50                   	push   %rax
ffffffff81004f85:	fc                   	cld    
ffffffff81004f86:	bf 77 00 00 00       	mov    $0x77,%edi
ffffffff81004f8b:	be 00 00 00 00       	mov    $0x0,%esi
ffffffff81004f90:	e8 28 e6 ff ff       	callq  ffffffff810035bd <isr_dispatcher>
ffffffff81004f95:	58                   	pop    %rax
ffffffff81004f96:	5a                   	pop    %rdx
ffffffff81004f97:	59                   	pop    %rcx
ffffffff81004f98:	5e                   	pop    %rsi
ffffffff81004f99:	5f                   	pop    %rdi
ffffffff81004f9a:	41 58                	pop    %r8
ffffffff81004f9c:	41 59                	pop    %r9
ffffffff81004f9e:	41 5a                	pop    %r10
ffffffff81004fa0:	41 5b                	pop    %r11
ffffffff81004fa2:	5d                   	pop    %rbp
ffffffff81004fa3:	48 cf                	iretq  

ffffffff81004fa5 <isr_120>:
ffffffff81004fa5:	55                   	push   %rbp
ffffffff81004fa6:	48 89 e5             	mov    %rsp,%rbp
ffffffff81004fa9:	41 53                	push   %r11
ffffffff81004fab:	41 52                	push   %r10
ffffffff81004fad:	41 51                	push   %r9
ffffffff81004faf:	41 50                	push   %r8
ffffffff81004fb1:	57                   	push   %rdi
ffffffff81004fb2:	56                   	push   %rsi
ffffffff81004fb3:	51                   	push   %rcx
ffffffff81004fb4:	52                   	push   %rdx
ffffffff81004fb5:	50                   	push   %rax
ffffffff81004fb6:	fc                   	cld    
ffffffff81004fb7:	bf 78 00 00 00       	mov    $0x78,%edi
ffffffff81004fbc:	be 00 00 00 00       	mov    $0x0,%esi
ffffffff81004fc1:	e8 f7 e5 ff ff       	callq  ffffffff810035bd <isr_dispatcher>
ffffffff81004fc6:	58                   	pop    %rax
ffffffff81004fc7:	5a                   	pop    %rdx
ffffffff81004fc8:	59                   	pop    %rcx
ffffffff81004fc9:	5e                   	pop    %rsi
ffffffff81004fca:	5f                   	pop    %rdi
ffffffff81004fcb:	41 58                	pop    %r8
ffffffff81004fcd:	41 59                	pop    %r9
ffffffff81004fcf:	41 5a                	pop    %r10
ffffffff81004fd1:	41 5b                	pop    %r11
ffffffff81004fd3:	5d                   	pop    %rbp
ffffffff81004fd4:	48 cf                	iretq  

ffffffff81004fd6 <isr_121>:
ffffffff81004fd6:	55                   	push   %rbp
ffffffff81004fd7:	48 89 e5             	mov    %rsp,%rbp
ffffffff81004fda:	41 53                	push   %r11
ffffffff81004fdc:	41 52                	push   %r10
ffffffff81004fde:	41 51                	push   %r9
ffffffff81004fe0:	41 50                	push   %r8
ffffffff81004fe2:	57                   	push   %rdi
ffffffff81004fe3:	56                   	push   %rsi
ffffffff81004fe4:	51                   	push   %rcx
ffffffff81004fe5:	52                   	push   %rdx
ffffffff81004fe6:	50                   	push   %rax
ffffffff81004fe7:	fc                   	cld    
ffffffff81004fe8:	bf 79 00 00 00       	mov    $0x79,%edi
ffffffff81004fed:	be 00 00 00 00       	mov    $0x0,%esi
ffffffff81004ff2:	e8 c6 e5 ff ff       	callq  ffffffff810035bd <isr_dispatcher>
ffffffff81004ff7:	58                   	pop    %rax
ffffffff81004ff8:	5a                   	pop    %rdx
ffffffff81004ff9:	59                   	pop    %rcx
ffffffff81004ffa:	5e                   	pop    %rsi
ffffffff81004ffb:	5f                   	pop    %rdi
ffffffff81004ffc:	41 58                	pop    %r8
ffffffff81004ffe:	41 59                	pop    %r9
ffffffff81005000:	41 5a                	pop    %r10
ffffffff81005002:	41 5b                	pop    %r11
ffffffff81005004:	5d                   	pop    %rbp
ffffffff81005005:	48 cf                	iretq  

ffffffff81005007 <isr_122>:
ffffffff81005007:	55                   	push   %rbp
ffffffff81005008:	48 89 e5             	mov    %rsp,%rbp
ffffffff8100500b:	41 53                	push   %r11
ffffffff8100500d:	41 52                	push   %r10
ffffffff8100500f:	41 51                	push   %r9
ffffffff81005011:	41 50                	push   %r8
ffffffff81005013:	57                   	push   %rdi
ffffffff81005014:	56                   	push   %rsi
ffffffff81005015:	51                   	push   %rcx
ffffffff81005016:	52                   	push   %rdx
ffffffff81005017:	50                   	push   %rax
ffffffff81005018:	fc                   	cld    
ffffffff81005019:	bf 7a 00 00 00       	mov    $0x7a,%edi
ffffffff8100501e:	be 00 00 00 00       	mov    $0x0,%esi
ffffffff81005023:	e8 95 e5 ff ff       	callq  ffffffff810035bd <isr_dispatcher>
ffffffff81005028:	58                   	pop    %rax
ffffffff81005029:	5a                   	pop    %rdx
ffffffff8100502a:	59                   	pop    %rcx
ffffffff8100502b:	5e                   	pop    %rsi
ffffffff8100502c:	5f                   	pop    %rdi
ffffffff8100502d:	41 58                	pop    %r8
ffffffff8100502f:	41 59                	pop    %r9
ffffffff81005031:	41 5a                	pop    %r10
ffffffff81005033:	41 5b                	pop    %r11
ffffffff81005035:	5d                   	pop    %rbp
ffffffff81005036:	48 cf                	iretq  

ffffffff81005038 <isr_123>:
ffffffff81005038:	55                   	push   %rbp
ffffffff81005039:	48 89 e5             	mov    %rsp,%rbp
ffffffff8100503c:	41 53                	push   %r11
ffffffff8100503e:	41 52                	push   %r10
ffffffff81005040:	41 51                	push   %r9
ffffffff81005042:	41 50                	push   %r8
ffffffff81005044:	57                   	push   %rdi
ffffffff81005045:	56                   	push   %rsi
ffffffff81005046:	51                   	push   %rcx
ffffffff81005047:	52                   	push   %rdx
ffffffff81005048:	50                   	push   %rax
ffffffff81005049:	fc                   	cld    
ffffffff8100504a:	bf 7b 00 00 00       	mov    $0x7b,%edi
ffffffff8100504f:	be 00 00 00 00       	mov    $0x0,%esi
ffffffff81005054:	e8 64 e5 ff ff       	callq  ffffffff810035bd <isr_dispatcher>
ffffffff81005059:	58                   	pop    %rax
ffffffff8100505a:	5a                   	pop    %rdx
ffffffff8100505b:	59                   	pop    %rcx
ffffffff8100505c:	5e                   	pop    %rsi
ffffffff8100505d:	5f                   	pop    %rdi
ffffffff8100505e:	41 58                	pop    %r8
ffffffff81005060:	41 59                	pop    %r9
ffffffff81005062:	41 5a                	pop    %r10
ffffffff81005064:	41 5b                	pop    %r11
ffffffff81005066:	5d                   	pop    %rbp
ffffffff81005067:	48 cf                	iretq  

ffffffff81005069 <isr_124>:
ffffffff81005069:	55                   	push   %rbp
ffffffff8100506a:	48 89 e5             	mov    %rsp,%rbp
ffffffff8100506d:	41 53                	push   %r11
ffffffff8100506f:	41 52                	push   %r10
ffffffff81005071:	41 51                	push   %r9
ffffffff81005073:	41 50                	push   %r8
ffffffff81005075:	57                   	push   %rdi
ffffffff81005076:	56                   	push   %rsi
ffffffff81005077:	51                   	push   %rcx
ffffffff81005078:	52                   	push   %rdx
ffffffff81005079:	50                   	push   %rax
ffffffff8100507a:	fc                   	cld    
ffffffff8100507b:	bf 7c 00 00 00       	mov    $0x7c,%edi
ffffffff81005080:	be 00 00 00 00       	mov    $0x0,%esi
ffffffff81005085:	e8 33 e5 ff ff       	callq  ffffffff810035bd <isr_dispatcher>
ffffffff8100508a:	58                   	pop    %rax
ffffffff8100508b:	5a                   	pop    %rdx
ffffffff8100508c:	59                   	pop    %rcx
ffffffff8100508d:	5e                   	pop    %rsi
ffffffff8100508e:	5f                   	pop    %rdi
ffffffff8100508f:	41 58                	pop    %r8
ffffffff81005091:	41 59                	pop    %r9
ffffffff81005093:	41 5a                	pop    %r10
ffffffff81005095:	41 5b                	pop    %r11
ffffffff81005097:	5d                   	pop    %rbp
ffffffff81005098:	48 cf                	iretq  

ffffffff8100509a <isr_125>:
ffffffff8100509a:	55                   	push   %rbp
ffffffff8100509b:	48 89 e5             	mov    %rsp,%rbp
ffffffff8100509e:	41 53                	push   %r11
ffffffff810050a0:	41 52                	push   %r10
ffffffff810050a2:	41 51                	push   %r9
ffffffff810050a4:	41 50                	push   %r8
ffffffff810050a6:	57                   	push   %rdi
ffffffff810050a7:	56                   	push   %rsi
ffffffff810050a8:	51                   	push   %rcx
ffffffff810050a9:	52                   	push   %rdx
ffffffff810050aa:	50                   	push   %rax
ffffffff810050ab:	fc                   	cld    
ffffffff810050ac:	bf 7d 00 00 00       	mov    $0x7d,%edi
ffffffff810050b1:	be 00 00 00 00       	mov    $0x0,%esi
ffffffff810050b6:	e8 02 e5 ff ff       	callq  ffffffff810035bd <isr_dispatcher>
ffffffff810050bb:	58                   	pop    %rax
ffffffff810050bc:	5a                   	pop    %rdx
ffffffff810050bd:	59                   	pop    %rcx
ffffffff810050be:	5e                   	pop    %rsi
ffffffff810050bf:	5f                   	pop    %rdi
ffffffff810050c0:	41 58                	pop    %r8
ffffffff810050c2:	41 59                	pop    %r9
ffffffff810050c4:	41 5a                	pop    %r10
ffffffff810050c6:	41 5b                	pop    %r11
ffffffff810050c8:	5d                   	pop    %rbp
ffffffff810050c9:	48 cf                	iretq  

ffffffff810050cb <isr_126>:
ffffffff810050cb:	55                   	push   %rbp
ffffffff810050cc:	48 89 e5             	mov    %rsp,%rbp
ffffffff810050cf:	41 53                	push   %r11
ffffffff810050d1:	41 52                	push   %r10
ffffffff810050d3:	41 51                	push   %r9
ffffffff810050d5:	41 50                	push   %r8
ffffffff810050d7:	57                   	push   %rdi
ffffffff810050d8:	56                   	push   %rsi
ffffffff810050d9:	51                   	push   %rcx
ffffffff810050da:	52                   	push   %rdx
ffffffff810050db:	50                   	push   %rax
ffffffff810050dc:	fc                   	cld    
ffffffff810050dd:	bf 7e 00 00 00       	mov    $0x7e,%edi
ffffffff810050e2:	be 00 00 00 00       	mov    $0x0,%esi
ffffffff810050e7:	e8 d1 e4 ff ff       	callq  ffffffff810035bd <isr_dispatcher>
ffffffff810050ec:	58                   	pop    %rax
ffffffff810050ed:	5a                   	pop    %rdx
ffffffff810050ee:	59                   	pop    %rcx
ffffffff810050ef:	5e                   	pop    %rsi
ffffffff810050f0:	5f                   	pop    %rdi
ffffffff810050f1:	41 58                	pop    %r8
ffffffff810050f3:	41 59                	pop    %r9
ffffffff810050f5:	41 5a                	pop    %r10
ffffffff810050f7:	41 5b                	pop    %r11
ffffffff810050f9:	5d                   	pop    %rbp
ffffffff810050fa:	48 cf                	iretq  

ffffffff810050fc <isr_127>:
ffffffff810050fc:	55                   	push   %rbp
ffffffff810050fd:	48 89 e5             	mov    %rsp,%rbp
ffffffff81005100:	41 53                	push   %r11
ffffffff81005102:	41 52                	push   %r10
ffffffff81005104:	41 51                	push   %r9
ffffffff81005106:	41 50                	push   %r8
ffffffff81005108:	57                   	push   %rdi
ffffffff81005109:	56                   	push   %rsi
ffffffff8100510a:	51                   	push   %rcx
ffffffff8100510b:	52                   	push   %rdx
ffffffff8100510c:	50                   	push   %rax
ffffffff8100510d:	fc                   	cld    
ffffffff8100510e:	bf 7f 00 00 00       	mov    $0x7f,%edi
ffffffff81005113:	be 00 00 00 00       	mov    $0x0,%esi
ffffffff81005118:	e8 a0 e4 ff ff       	callq  ffffffff810035bd <isr_dispatcher>
ffffffff8100511d:	58                   	pop    %rax
ffffffff8100511e:	5a                   	pop    %rdx
ffffffff8100511f:	59                   	pop    %rcx
ffffffff81005120:	5e                   	pop    %rsi
ffffffff81005121:	5f                   	pop    %rdi
ffffffff81005122:	41 58                	pop    %r8
ffffffff81005124:	41 59                	pop    %r9
ffffffff81005126:	41 5a                	pop    %r10
ffffffff81005128:	41 5b                	pop    %r11
ffffffff8100512a:	5d                   	pop    %rbp
ffffffff8100512b:	48 cf                	iretq  

ffffffff8100512d <isr_128>:
ffffffff8100512d:	55                   	push   %rbp
ffffffff8100512e:	48 89 e5             	mov    %rsp,%rbp
ffffffff81005131:	41 53                	push   %r11
ffffffff81005133:	41 52                	push   %r10
ffffffff81005135:	41 51                	push   %r9
ffffffff81005137:	41 50                	push   %r8
ffffffff81005139:	57                   	push   %rdi
ffffffff8100513a:	56                   	push   %rsi
ffffffff8100513b:	51                   	push   %rcx
ffffffff8100513c:	52                   	push   %rdx
ffffffff8100513d:	50                   	push   %rax
ffffffff8100513e:	fc                   	cld    
ffffffff8100513f:	bf 80 00 00 00       	mov    $0x80,%edi
ffffffff81005144:	be 00 00 00 00       	mov    $0x0,%esi
ffffffff81005149:	e8 6f e4 ff ff       	callq  ffffffff810035bd <isr_dispatcher>
ffffffff8100514e:	58                   	pop    %rax
ffffffff8100514f:	5a                   	pop    %rdx
ffffffff81005150:	59                   	pop    %rcx
ffffffff81005151:	5e                   	pop    %rsi
ffffffff81005152:	5f                   	pop    %rdi
ffffffff81005153:	41 58                	pop    %r8
ffffffff81005155:	41 59                	pop    %r9
ffffffff81005157:	41 5a                	pop    %r10
ffffffff81005159:	41 5b                	pop    %r11
ffffffff8100515b:	5d                   	pop    %rbp
ffffffff8100515c:	48 cf                	iretq  

ffffffff8100515e <isr_129>:
ffffffff8100515e:	55                   	push   %rbp
ffffffff8100515f:	48 89 e5             	mov    %rsp,%rbp
ffffffff81005162:	41 53                	push   %r11
ffffffff81005164:	41 52                	push   %r10
ffffffff81005166:	41 51                	push   %r9
ffffffff81005168:	41 50                	push   %r8
ffffffff8100516a:	57                   	push   %rdi
ffffffff8100516b:	56                   	push   %rsi
ffffffff8100516c:	51                   	push   %rcx
ffffffff8100516d:	52                   	push   %rdx
ffffffff8100516e:	50                   	push   %rax
ffffffff8100516f:	fc                   	cld    
ffffffff81005170:	bf 81 00 00 00       	mov    $0x81,%edi
ffffffff81005175:	be 00 00 00 00       	mov    $0x0,%esi
ffffffff8100517a:	e8 3e e4 ff ff       	callq  ffffffff810035bd <isr_dispatcher>
ffffffff8100517f:	58                   	pop    %rax
ffffffff81005180:	5a                   	pop    %rdx
ffffffff81005181:	59                   	pop    %rcx
ffffffff81005182:	5e                   	pop    %rsi
ffffffff81005183:	5f                   	pop    %rdi
ffffffff81005184:	41 58                	pop    %r8
ffffffff81005186:	41 59                	pop    %r9
ffffffff81005188:	41 5a                	pop    %r10
ffffffff8100518a:	41 5b                	pop    %r11
ffffffff8100518c:	5d                   	pop    %rbp
ffffffff8100518d:	48 cf                	iretq  

ffffffff8100518f <isr_130>:
ffffffff8100518f:	55                   	push   %rbp
ffffffff81005190:	48 89 e5             	mov    %rsp,%rbp
ffffffff81005193:	41 53                	push   %r11
ffffffff81005195:	41 52                	push   %r10
ffffffff81005197:	41 51                	push   %r9
ffffffff81005199:	41 50                	push   %r8
ffffffff8100519b:	57                   	push   %rdi
ffffffff8100519c:	56                   	push   %rsi
ffffffff8100519d:	51                   	push   %rcx
ffffffff8100519e:	52                   	push   %rdx
ffffffff8100519f:	50                   	push   %rax
ffffffff810051a0:	fc                   	cld    
ffffffff810051a1:	bf 82 00 00 00       	mov    $0x82,%edi
ffffffff810051a6:	be 00 00 00 00       	mov    $0x0,%esi
ffffffff810051ab:	e8 0d e4 ff ff       	callq  ffffffff810035bd <isr_dispatcher>
ffffffff810051b0:	58                   	pop    %rax
ffffffff810051b1:	5a                   	pop    %rdx
ffffffff810051b2:	59                   	pop    %rcx
ffffffff810051b3:	5e                   	pop    %rsi
ffffffff810051b4:	5f                   	pop    %rdi
ffffffff810051b5:	41 58                	pop    %r8
ffffffff810051b7:	41 59                	pop    %r9
ffffffff810051b9:	41 5a                	pop    %r10
ffffffff810051bb:	41 5b                	pop    %r11
ffffffff810051bd:	5d                   	pop    %rbp
ffffffff810051be:	48 cf                	iretq  

ffffffff810051c0 <isr_131>:
ffffffff810051c0:	55                   	push   %rbp
ffffffff810051c1:	48 89 e5             	mov    %rsp,%rbp
ffffffff810051c4:	41 53                	push   %r11
ffffffff810051c6:	41 52                	push   %r10
ffffffff810051c8:	41 51                	push   %r9
ffffffff810051ca:	41 50                	push   %r8
ffffffff810051cc:	57                   	push   %rdi
ffffffff810051cd:	56                   	push   %rsi
ffffffff810051ce:	51                   	push   %rcx
ffffffff810051cf:	52                   	push   %rdx
ffffffff810051d0:	50                   	push   %rax
ffffffff810051d1:	fc                   	cld    
ffffffff810051d2:	bf 83 00 00 00       	mov    $0x83,%edi
ffffffff810051d7:	be 00 00 00 00       	mov    $0x0,%esi
ffffffff810051dc:	e8 dc e3 ff ff       	callq  ffffffff810035bd <isr_dispatcher>
ffffffff810051e1:	58                   	pop    %rax
ffffffff810051e2:	5a                   	pop    %rdx
ffffffff810051e3:	59                   	pop    %rcx
ffffffff810051e4:	5e                   	pop    %rsi
ffffffff810051e5:	5f                   	pop    %rdi
ffffffff810051e6:	41 58                	pop    %r8
ffffffff810051e8:	41 59                	pop    %r9
ffffffff810051ea:	41 5a                	pop    %r10
ffffffff810051ec:	41 5b                	pop    %r11
ffffffff810051ee:	5d                   	pop    %rbp
ffffffff810051ef:	48 cf                	iretq  

ffffffff810051f1 <isr_132>:
ffffffff810051f1:	55                   	push   %rbp
ffffffff810051f2:	48 89 e5             	mov    %rsp,%rbp
ffffffff810051f5:	41 53                	push   %r11
ffffffff810051f7:	41 52                	push   %r10
ffffffff810051f9:	41 51                	push   %r9
ffffffff810051fb:	41 50                	push   %r8
ffffffff810051fd:	57                   	push   %rdi
ffffffff810051fe:	56                   	push   %rsi
ffffffff810051ff:	51                   	push   %rcx
ffffffff81005200:	52                   	push   %rdx
ffffffff81005201:	50                   	push   %rax
ffffffff81005202:	fc                   	cld    
ffffffff81005203:	bf 84 00 00 00       	mov    $0x84,%edi
ffffffff81005208:	be 00 00 00 00       	mov    $0x0,%esi
ffffffff8100520d:	e8 ab e3 ff ff       	callq  ffffffff810035bd <isr_dispatcher>
ffffffff81005212:	58                   	pop    %rax
ffffffff81005213:	5a                   	pop    %rdx
ffffffff81005214:	59                   	pop    %rcx
ffffffff81005215:	5e                   	pop    %rsi
ffffffff81005216:	5f                   	pop    %rdi
ffffffff81005217:	41 58                	pop    %r8
ffffffff81005219:	41 59                	pop    %r9
ffffffff8100521b:	41 5a                	pop    %r10
ffffffff8100521d:	41 5b                	pop    %r11
ffffffff8100521f:	5d                   	pop    %rbp
ffffffff81005220:	48 cf                	iretq  

ffffffff81005222 <isr_133>:
ffffffff81005222:	55                   	push   %rbp
ffffffff81005223:	48 89 e5             	mov    %rsp,%rbp
ffffffff81005226:	41 53                	push   %r11
ffffffff81005228:	41 52                	push   %r10
ffffffff8100522a:	41 51                	push   %r9
ffffffff8100522c:	41 50                	push   %r8
ffffffff8100522e:	57                   	push   %rdi
ffffffff8100522f:	56                   	push   %rsi
ffffffff81005230:	51                   	push   %rcx
ffffffff81005231:	52                   	push   %rdx
ffffffff81005232:	50                   	push   %rax
ffffffff81005233:	fc                   	cld    
ffffffff81005234:	bf 85 00 00 00       	mov    $0x85,%edi
ffffffff81005239:	be 00 00 00 00       	mov    $0x0,%esi
ffffffff8100523e:	e8 7a e3 ff ff       	callq  ffffffff810035bd <isr_dispatcher>
ffffffff81005243:	58                   	pop    %rax
ffffffff81005244:	5a                   	pop    %rdx
ffffffff81005245:	59                   	pop    %rcx
ffffffff81005246:	5e                   	pop    %rsi
ffffffff81005247:	5f                   	pop    %rdi
ffffffff81005248:	41 58                	pop    %r8
ffffffff8100524a:	41 59                	pop    %r9
ffffffff8100524c:	41 5a                	pop    %r10
ffffffff8100524e:	41 5b                	pop    %r11
ffffffff81005250:	5d                   	pop    %rbp
ffffffff81005251:	48 cf                	iretq  

ffffffff81005253 <isr_134>:
ffffffff81005253:	55                   	push   %rbp
ffffffff81005254:	48 89 e5             	mov    %rsp,%rbp
ffffffff81005257:	41 53                	push   %r11
ffffffff81005259:	41 52                	push   %r10
ffffffff8100525b:	41 51                	push   %r9
ffffffff8100525d:	41 50                	push   %r8
ffffffff8100525f:	57                   	push   %rdi
ffffffff81005260:	56                   	push   %rsi
ffffffff81005261:	51                   	push   %rcx
ffffffff81005262:	52                   	push   %rdx
ffffffff81005263:	50                   	push   %rax
ffffffff81005264:	fc                   	cld    
ffffffff81005265:	bf 86 00 00 00       	mov    $0x86,%edi
ffffffff8100526a:	be 00 00 00 00       	mov    $0x0,%esi
ffffffff8100526f:	e8 49 e3 ff ff       	callq  ffffffff810035bd <isr_dispatcher>
ffffffff81005274:	58                   	pop    %rax
ffffffff81005275:	5a                   	pop    %rdx
ffffffff81005276:	59                   	pop    %rcx
ffffffff81005277:	5e                   	pop    %rsi
ffffffff81005278:	5f                   	pop    %rdi
ffffffff81005279:	41 58                	pop    %r8
ffffffff8100527b:	41 59                	pop    %r9
ffffffff8100527d:	41 5a                	pop    %r10
ffffffff8100527f:	41 5b                	pop    %r11
ffffffff81005281:	5d                   	pop    %rbp
ffffffff81005282:	48 cf                	iretq  

ffffffff81005284 <isr_135>:
ffffffff81005284:	55                   	push   %rbp
ffffffff81005285:	48 89 e5             	mov    %rsp,%rbp
ffffffff81005288:	41 53                	push   %r11
ffffffff8100528a:	41 52                	push   %r10
ffffffff8100528c:	41 51                	push   %r9
ffffffff8100528e:	41 50                	push   %r8
ffffffff81005290:	57                   	push   %rdi
ffffffff81005291:	56                   	push   %rsi
ffffffff81005292:	51                   	push   %rcx
ffffffff81005293:	52                   	push   %rdx
ffffffff81005294:	50                   	push   %rax
ffffffff81005295:	fc                   	cld    
ffffffff81005296:	bf 87 00 00 00       	mov    $0x87,%edi
ffffffff8100529b:	be 00 00 00 00       	mov    $0x0,%esi
ffffffff810052a0:	e8 18 e3 ff ff       	callq  ffffffff810035bd <isr_dispatcher>
ffffffff810052a5:	58                   	pop    %rax
ffffffff810052a6:	5a                   	pop    %rdx
ffffffff810052a7:	59                   	pop    %rcx
ffffffff810052a8:	5e                   	pop    %rsi
ffffffff810052a9:	5f                   	pop    %rdi
ffffffff810052aa:	41 58                	pop    %r8
ffffffff810052ac:	41 59                	pop    %r9
ffffffff810052ae:	41 5a                	pop    %r10
ffffffff810052b0:	41 5b                	pop    %r11
ffffffff810052b2:	5d                   	pop    %rbp
ffffffff810052b3:	48 cf                	iretq  

ffffffff810052b5 <isr_136>:
ffffffff810052b5:	55                   	push   %rbp
ffffffff810052b6:	48 89 e5             	mov    %rsp,%rbp
ffffffff810052b9:	41 53                	push   %r11
ffffffff810052bb:	41 52                	push   %r10
ffffffff810052bd:	41 51                	push   %r9
ffffffff810052bf:	41 50                	push   %r8
ffffffff810052c1:	57                   	push   %rdi
ffffffff810052c2:	56                   	push   %rsi
ffffffff810052c3:	51                   	push   %rcx
ffffffff810052c4:	52                   	push   %rdx
ffffffff810052c5:	50                   	push   %rax
ffffffff810052c6:	fc                   	cld    
ffffffff810052c7:	bf 88 00 00 00       	mov    $0x88,%edi
ffffffff810052cc:	be 00 00 00 00       	mov    $0x0,%esi
ffffffff810052d1:	e8 e7 e2 ff ff       	callq  ffffffff810035bd <isr_dispatcher>
ffffffff810052d6:	58                   	pop    %rax
ffffffff810052d7:	5a                   	pop    %rdx
ffffffff810052d8:	59                   	pop    %rcx
ffffffff810052d9:	5e                   	pop    %rsi
ffffffff810052da:	5f                   	pop    %rdi
ffffffff810052db:	41 58                	pop    %r8
ffffffff810052dd:	41 59                	pop    %r9
ffffffff810052df:	41 5a                	pop    %r10
ffffffff810052e1:	41 5b                	pop    %r11
ffffffff810052e3:	5d                   	pop    %rbp
ffffffff810052e4:	48 cf                	iretq  

ffffffff810052e6 <isr_137>:
ffffffff810052e6:	55                   	push   %rbp
ffffffff810052e7:	48 89 e5             	mov    %rsp,%rbp
ffffffff810052ea:	41 53                	push   %r11
ffffffff810052ec:	41 52                	push   %r10
ffffffff810052ee:	41 51                	push   %r9
ffffffff810052f0:	41 50                	push   %r8
ffffffff810052f2:	57                   	push   %rdi
ffffffff810052f3:	56                   	push   %rsi
ffffffff810052f4:	51                   	push   %rcx
ffffffff810052f5:	52                   	push   %rdx
ffffffff810052f6:	50                   	push   %rax
ffffffff810052f7:	fc                   	cld    
ffffffff810052f8:	bf 89 00 00 00       	mov    $0x89,%edi
ffffffff810052fd:	be 00 00 00 00       	mov    $0x0,%esi
ffffffff81005302:	e8 b6 e2 ff ff       	callq  ffffffff810035bd <isr_dispatcher>
ffffffff81005307:	58                   	pop    %rax
ffffffff81005308:	5a                   	pop    %rdx
ffffffff81005309:	59                   	pop    %rcx
ffffffff8100530a:	5e                   	pop    %rsi
ffffffff8100530b:	5f                   	pop    %rdi
ffffffff8100530c:	41 58                	pop    %r8
ffffffff8100530e:	41 59                	pop    %r9
ffffffff81005310:	41 5a                	pop    %r10
ffffffff81005312:	41 5b                	pop    %r11
ffffffff81005314:	5d                   	pop    %rbp
ffffffff81005315:	48 cf                	iretq  

ffffffff81005317 <isr_138>:
ffffffff81005317:	55                   	push   %rbp
ffffffff81005318:	48 89 e5             	mov    %rsp,%rbp
ffffffff8100531b:	41 53                	push   %r11
ffffffff8100531d:	41 52                	push   %r10
ffffffff8100531f:	41 51                	push   %r9
ffffffff81005321:	41 50                	push   %r8
ffffffff81005323:	57                   	push   %rdi
ffffffff81005324:	56                   	push   %rsi
ffffffff81005325:	51                   	push   %rcx
ffffffff81005326:	52                   	push   %rdx
ffffffff81005327:	50                   	push   %rax
ffffffff81005328:	fc                   	cld    
ffffffff81005329:	bf 8a 00 00 00       	mov    $0x8a,%edi
ffffffff8100532e:	be 00 00 00 00       	mov    $0x0,%esi
ffffffff81005333:	e8 85 e2 ff ff       	callq  ffffffff810035bd <isr_dispatcher>
ffffffff81005338:	58                   	pop    %rax
ffffffff81005339:	5a                   	pop    %rdx
ffffffff8100533a:	59                   	pop    %rcx
ffffffff8100533b:	5e                   	pop    %rsi
ffffffff8100533c:	5f                   	pop    %rdi
ffffffff8100533d:	41 58                	pop    %r8
ffffffff8100533f:	41 59                	pop    %r9
ffffffff81005341:	41 5a                	pop    %r10
ffffffff81005343:	41 5b                	pop    %r11
ffffffff81005345:	5d                   	pop    %rbp
ffffffff81005346:	48 cf                	iretq  

ffffffff81005348 <isr_139>:
ffffffff81005348:	55                   	push   %rbp
ffffffff81005349:	48 89 e5             	mov    %rsp,%rbp
ffffffff8100534c:	41 53                	push   %r11
ffffffff8100534e:	41 52                	push   %r10
ffffffff81005350:	41 51                	push   %r9
ffffffff81005352:	41 50                	push   %r8
ffffffff81005354:	57                   	push   %rdi
ffffffff81005355:	56                   	push   %rsi
ffffffff81005356:	51                   	push   %rcx
ffffffff81005357:	52                   	push   %rdx
ffffffff81005358:	50                   	push   %rax
ffffffff81005359:	fc                   	cld    
ffffffff8100535a:	bf 8b 00 00 00       	mov    $0x8b,%edi
ffffffff8100535f:	be 00 00 00 00       	mov    $0x0,%esi
ffffffff81005364:	e8 54 e2 ff ff       	callq  ffffffff810035bd <isr_dispatcher>
ffffffff81005369:	58                   	pop    %rax
ffffffff8100536a:	5a                   	pop    %rdx
ffffffff8100536b:	59                   	pop    %rcx
ffffffff8100536c:	5e                   	pop    %rsi
ffffffff8100536d:	5f                   	pop    %rdi
ffffffff8100536e:	41 58                	pop    %r8
ffffffff81005370:	41 59                	pop    %r9
ffffffff81005372:	41 5a                	pop    %r10
ffffffff81005374:	41 5b                	pop    %r11
ffffffff81005376:	5d                   	pop    %rbp
ffffffff81005377:	48 cf                	iretq  

ffffffff81005379 <isr_140>:
ffffffff81005379:	55                   	push   %rbp
ffffffff8100537a:	48 89 e5             	mov    %rsp,%rbp
ffffffff8100537d:	41 53                	push   %r11
ffffffff8100537f:	41 52                	push   %r10
ffffffff81005381:	41 51                	push   %r9
ffffffff81005383:	41 50                	push   %r8
ffffffff81005385:	57                   	push   %rdi
ffffffff81005386:	56                   	push   %rsi
ffffffff81005387:	51                   	push   %rcx
ffffffff81005388:	52                   	push   %rdx
ffffffff81005389:	50                   	push   %rax
ffffffff8100538a:	fc                   	cld    
ffffffff8100538b:	bf 8c 00 00 00       	mov    $0x8c,%edi
ffffffff81005390:	be 00 00 00 00       	mov    $0x0,%esi
ffffffff81005395:	e8 23 e2 ff ff       	callq  ffffffff810035bd <isr_dispatcher>
ffffffff8100539a:	58                   	pop    %rax
ffffffff8100539b:	5a                   	pop    %rdx
ffffffff8100539c:	59                   	pop    %rcx
ffffffff8100539d:	5e                   	pop    %rsi
ffffffff8100539e:	5f                   	pop    %rdi
ffffffff8100539f:	41 58                	pop    %r8
ffffffff810053a1:	41 59                	pop    %r9
ffffffff810053a3:	41 5a                	pop    %r10
ffffffff810053a5:	41 5b                	pop    %r11
ffffffff810053a7:	5d                   	pop    %rbp
ffffffff810053a8:	48 cf                	iretq  

ffffffff810053aa <isr_141>:
ffffffff810053aa:	55                   	push   %rbp
ffffffff810053ab:	48 89 e5             	mov    %rsp,%rbp
ffffffff810053ae:	41 53                	push   %r11
ffffffff810053b0:	41 52                	push   %r10
ffffffff810053b2:	41 51                	push   %r9
ffffffff810053b4:	41 50                	push   %r8
ffffffff810053b6:	57                   	push   %rdi
ffffffff810053b7:	56                   	push   %rsi
ffffffff810053b8:	51                   	push   %rcx
ffffffff810053b9:	52                   	push   %rdx
ffffffff810053ba:	50                   	push   %rax
ffffffff810053bb:	fc                   	cld    
ffffffff810053bc:	bf 8d 00 00 00       	mov    $0x8d,%edi
ffffffff810053c1:	be 00 00 00 00       	mov    $0x0,%esi
ffffffff810053c6:	e8 f2 e1 ff ff       	callq  ffffffff810035bd <isr_dispatcher>
ffffffff810053cb:	58                   	pop    %rax
ffffffff810053cc:	5a                   	pop    %rdx
ffffffff810053cd:	59                   	pop    %rcx
ffffffff810053ce:	5e                   	pop    %rsi
ffffffff810053cf:	5f                   	pop    %rdi
ffffffff810053d0:	41 58                	pop    %r8
ffffffff810053d2:	41 59                	pop    %r9
ffffffff810053d4:	41 5a                	pop    %r10
ffffffff810053d6:	41 5b                	pop    %r11
ffffffff810053d8:	5d                   	pop    %rbp
ffffffff810053d9:	48 cf                	iretq  

ffffffff810053db <isr_142>:
ffffffff810053db:	55                   	push   %rbp
ffffffff810053dc:	48 89 e5             	mov    %rsp,%rbp
ffffffff810053df:	41 53                	push   %r11
ffffffff810053e1:	41 52                	push   %r10
ffffffff810053e3:	41 51                	push   %r9
ffffffff810053e5:	41 50                	push   %r8
ffffffff810053e7:	57                   	push   %rdi
ffffffff810053e8:	56                   	push   %rsi
ffffffff810053e9:	51                   	push   %rcx
ffffffff810053ea:	52                   	push   %rdx
ffffffff810053eb:	50                   	push   %rax
ffffffff810053ec:	fc                   	cld    
ffffffff810053ed:	bf 8e 00 00 00       	mov    $0x8e,%edi
ffffffff810053f2:	be 00 00 00 00       	mov    $0x0,%esi
ffffffff810053f7:	e8 c1 e1 ff ff       	callq  ffffffff810035bd <isr_dispatcher>
ffffffff810053fc:	58                   	pop    %rax
ffffffff810053fd:	5a                   	pop    %rdx
ffffffff810053fe:	59                   	pop    %rcx
ffffffff810053ff:	5e                   	pop    %rsi
ffffffff81005400:	5f                   	pop    %rdi
ffffffff81005401:	41 58                	pop    %r8
ffffffff81005403:	41 59                	pop    %r9
ffffffff81005405:	41 5a                	pop    %r10
ffffffff81005407:	41 5b                	pop    %r11
ffffffff81005409:	5d                   	pop    %rbp
ffffffff8100540a:	48 cf                	iretq  

ffffffff8100540c <isr_143>:
ffffffff8100540c:	55                   	push   %rbp
ffffffff8100540d:	48 89 e5             	mov    %rsp,%rbp
ffffffff81005410:	41 53                	push   %r11
ffffffff81005412:	41 52                	push   %r10
ffffffff81005414:	41 51                	push   %r9
ffffffff81005416:	41 50                	push   %r8
ffffffff81005418:	57                   	push   %rdi
ffffffff81005419:	56                   	push   %rsi
ffffffff8100541a:	51                   	push   %rcx
ffffffff8100541b:	52                   	push   %rdx
ffffffff8100541c:	50                   	push   %rax
ffffffff8100541d:	fc                   	cld    
ffffffff8100541e:	bf 8f 00 00 00       	mov    $0x8f,%edi
ffffffff81005423:	be 00 00 00 00       	mov    $0x0,%esi
ffffffff81005428:	e8 90 e1 ff ff       	callq  ffffffff810035bd <isr_dispatcher>
ffffffff8100542d:	58                   	pop    %rax
ffffffff8100542e:	5a                   	pop    %rdx
ffffffff8100542f:	59                   	pop    %rcx
ffffffff81005430:	5e                   	pop    %rsi
ffffffff81005431:	5f                   	pop    %rdi
ffffffff81005432:	41 58                	pop    %r8
ffffffff81005434:	41 59                	pop    %r9
ffffffff81005436:	41 5a                	pop    %r10
ffffffff81005438:	41 5b                	pop    %r11
ffffffff8100543a:	5d                   	pop    %rbp
ffffffff8100543b:	48 cf                	iretq  

ffffffff8100543d <isr_144>:
ffffffff8100543d:	55                   	push   %rbp
ffffffff8100543e:	48 89 e5             	mov    %rsp,%rbp
ffffffff81005441:	41 53                	push   %r11
ffffffff81005443:	41 52                	push   %r10
ffffffff81005445:	41 51                	push   %r9
ffffffff81005447:	41 50                	push   %r8
ffffffff81005449:	57                   	push   %rdi
ffffffff8100544a:	56                   	push   %rsi
ffffffff8100544b:	51                   	push   %rcx
ffffffff8100544c:	52                   	push   %rdx
ffffffff8100544d:	50                   	push   %rax
ffffffff8100544e:	fc                   	cld    
ffffffff8100544f:	bf 90 00 00 00       	mov    $0x90,%edi
ffffffff81005454:	be 00 00 00 00       	mov    $0x0,%esi
ffffffff81005459:	e8 5f e1 ff ff       	callq  ffffffff810035bd <isr_dispatcher>
ffffffff8100545e:	58                   	pop    %rax
ffffffff8100545f:	5a                   	pop    %rdx
ffffffff81005460:	59                   	pop    %rcx
ffffffff81005461:	5e                   	pop    %rsi
ffffffff81005462:	5f                   	pop    %rdi
ffffffff81005463:	41 58                	pop    %r8
ffffffff81005465:	41 59                	pop    %r9
ffffffff81005467:	41 5a                	pop    %r10
ffffffff81005469:	41 5b                	pop    %r11
ffffffff8100546b:	5d                   	pop    %rbp
ffffffff8100546c:	48 cf                	iretq  

ffffffff8100546e <isr_145>:
ffffffff8100546e:	55                   	push   %rbp
ffffffff8100546f:	48 89 e5             	mov    %rsp,%rbp
ffffffff81005472:	41 53                	push   %r11
ffffffff81005474:	41 52                	push   %r10
ffffffff81005476:	41 51                	push   %r9
ffffffff81005478:	41 50                	push   %r8
ffffffff8100547a:	57                   	push   %rdi
ffffffff8100547b:	56                   	push   %rsi
ffffffff8100547c:	51                   	push   %rcx
ffffffff8100547d:	52                   	push   %rdx
ffffffff8100547e:	50                   	push   %rax
ffffffff8100547f:	fc                   	cld    
ffffffff81005480:	bf 91 00 00 00       	mov    $0x91,%edi
ffffffff81005485:	be 00 00 00 00       	mov    $0x0,%esi
ffffffff8100548a:	e8 2e e1 ff ff       	callq  ffffffff810035bd <isr_dispatcher>
ffffffff8100548f:	58                   	pop    %rax
ffffffff81005490:	5a                   	pop    %rdx
ffffffff81005491:	59                   	pop    %rcx
ffffffff81005492:	5e                   	pop    %rsi
ffffffff81005493:	5f                   	pop    %rdi
ffffffff81005494:	41 58                	pop    %r8
ffffffff81005496:	41 59                	pop    %r9
ffffffff81005498:	41 5a                	pop    %r10
ffffffff8100549a:	41 5b                	pop    %r11
ffffffff8100549c:	5d                   	pop    %rbp
ffffffff8100549d:	48 cf                	iretq  

ffffffff8100549f <isr_146>:
ffffffff8100549f:	55                   	push   %rbp
ffffffff810054a0:	48 89 e5             	mov    %rsp,%rbp
ffffffff810054a3:	41 53                	push   %r11
ffffffff810054a5:	41 52                	push   %r10
ffffffff810054a7:	41 51                	push   %r9
ffffffff810054a9:	41 50                	push   %r8
ffffffff810054ab:	57                   	push   %rdi
ffffffff810054ac:	56                   	push   %rsi
ffffffff810054ad:	51                   	push   %rcx
ffffffff810054ae:	52                   	push   %rdx
ffffffff810054af:	50                   	push   %rax
ffffffff810054b0:	fc                   	cld    
ffffffff810054b1:	bf 92 00 00 00       	mov    $0x92,%edi
ffffffff810054b6:	be 00 00 00 00       	mov    $0x0,%esi
ffffffff810054bb:	e8 fd e0 ff ff       	callq  ffffffff810035bd <isr_dispatcher>
ffffffff810054c0:	58                   	pop    %rax
ffffffff810054c1:	5a                   	pop    %rdx
ffffffff810054c2:	59                   	pop    %rcx
ffffffff810054c3:	5e                   	pop    %rsi
ffffffff810054c4:	5f                   	pop    %rdi
ffffffff810054c5:	41 58                	pop    %r8
ffffffff810054c7:	41 59                	pop    %r9
ffffffff810054c9:	41 5a                	pop    %r10
ffffffff810054cb:	41 5b                	pop    %r11
ffffffff810054cd:	5d                   	pop    %rbp
ffffffff810054ce:	48 cf                	iretq  

ffffffff810054d0 <isr_147>:
ffffffff810054d0:	55                   	push   %rbp
ffffffff810054d1:	48 89 e5             	mov    %rsp,%rbp
ffffffff810054d4:	41 53                	push   %r11
ffffffff810054d6:	41 52                	push   %r10
ffffffff810054d8:	41 51                	push   %r9
ffffffff810054da:	41 50                	push   %r8
ffffffff810054dc:	57                   	push   %rdi
ffffffff810054dd:	56                   	push   %rsi
ffffffff810054de:	51                   	push   %rcx
ffffffff810054df:	52                   	push   %rdx
ffffffff810054e0:	50                   	push   %rax
ffffffff810054e1:	fc                   	cld    
ffffffff810054e2:	bf 93 00 00 00       	mov    $0x93,%edi
ffffffff810054e7:	be 00 00 00 00       	mov    $0x0,%esi
ffffffff810054ec:	e8 cc e0 ff ff       	callq  ffffffff810035bd <isr_dispatcher>
ffffffff810054f1:	58                   	pop    %rax
ffffffff810054f2:	5a                   	pop    %rdx
ffffffff810054f3:	59                   	pop    %rcx
ffffffff810054f4:	5e                   	pop    %rsi
ffffffff810054f5:	5f                   	pop    %rdi
ffffffff810054f6:	41 58                	pop    %r8
ffffffff810054f8:	41 59                	pop    %r9
ffffffff810054fa:	41 5a                	pop    %r10
ffffffff810054fc:	41 5b                	pop    %r11
ffffffff810054fe:	5d                   	pop    %rbp
ffffffff810054ff:	48 cf                	iretq  

ffffffff81005501 <isr_148>:
ffffffff81005501:	55                   	push   %rbp
ffffffff81005502:	48 89 e5             	mov    %rsp,%rbp
ffffffff81005505:	41 53                	push   %r11
ffffffff81005507:	41 52                	push   %r10
ffffffff81005509:	41 51                	push   %r9
ffffffff8100550b:	41 50                	push   %r8
ffffffff8100550d:	57                   	push   %rdi
ffffffff8100550e:	56                   	push   %rsi
ffffffff8100550f:	51                   	push   %rcx
ffffffff81005510:	52                   	push   %rdx
ffffffff81005511:	50                   	push   %rax
ffffffff81005512:	fc                   	cld    
ffffffff81005513:	bf 94 00 00 00       	mov    $0x94,%edi
ffffffff81005518:	be 00 00 00 00       	mov    $0x0,%esi
ffffffff8100551d:	e8 9b e0 ff ff       	callq  ffffffff810035bd <isr_dispatcher>
ffffffff81005522:	58                   	pop    %rax
ffffffff81005523:	5a                   	pop    %rdx
ffffffff81005524:	59                   	pop    %rcx
ffffffff81005525:	5e                   	pop    %rsi
ffffffff81005526:	5f                   	pop    %rdi
ffffffff81005527:	41 58                	pop    %r8
ffffffff81005529:	41 59                	pop    %r9
ffffffff8100552b:	41 5a                	pop    %r10
ffffffff8100552d:	41 5b                	pop    %r11
ffffffff8100552f:	5d                   	pop    %rbp
ffffffff81005530:	48 cf                	iretq  

ffffffff81005532 <isr_149>:
ffffffff81005532:	55                   	push   %rbp
ffffffff81005533:	48 89 e5             	mov    %rsp,%rbp
ffffffff81005536:	41 53                	push   %r11
ffffffff81005538:	41 52                	push   %r10
ffffffff8100553a:	41 51                	push   %r9
ffffffff8100553c:	41 50                	push   %r8
ffffffff8100553e:	57                   	push   %rdi
ffffffff8100553f:	56                   	push   %rsi
ffffffff81005540:	51                   	push   %rcx
ffffffff81005541:	52                   	push   %rdx
ffffffff81005542:	50                   	push   %rax
ffffffff81005543:	fc                   	cld    
ffffffff81005544:	bf 95 00 00 00       	mov    $0x95,%edi
ffffffff81005549:	be 00 00 00 00       	mov    $0x0,%esi
ffffffff8100554e:	e8 6a e0 ff ff       	callq  ffffffff810035bd <isr_dispatcher>
ffffffff81005553:	58                   	pop    %rax
ffffffff81005554:	5a                   	pop    %rdx
ffffffff81005555:	59                   	pop    %rcx
ffffffff81005556:	5e                   	pop    %rsi
ffffffff81005557:	5f                   	pop    %rdi
ffffffff81005558:	41 58                	pop    %r8
ffffffff8100555a:	41 59                	pop    %r9
ffffffff8100555c:	41 5a                	pop    %r10
ffffffff8100555e:	41 5b                	pop    %r11
ffffffff81005560:	5d                   	pop    %rbp
ffffffff81005561:	48 cf                	iretq  

ffffffff81005563 <isr_150>:
ffffffff81005563:	55                   	push   %rbp
ffffffff81005564:	48 89 e5             	mov    %rsp,%rbp
ffffffff81005567:	41 53                	push   %r11
ffffffff81005569:	41 52                	push   %r10
ffffffff8100556b:	41 51                	push   %r9
ffffffff8100556d:	41 50                	push   %r8
ffffffff8100556f:	57                   	push   %rdi
ffffffff81005570:	56                   	push   %rsi
ffffffff81005571:	51                   	push   %rcx
ffffffff81005572:	52                   	push   %rdx
ffffffff81005573:	50                   	push   %rax
ffffffff81005574:	fc                   	cld    
ffffffff81005575:	bf 96 00 00 00       	mov    $0x96,%edi
ffffffff8100557a:	be 00 00 00 00       	mov    $0x0,%esi
ffffffff8100557f:	e8 39 e0 ff ff       	callq  ffffffff810035bd <isr_dispatcher>
ffffffff81005584:	58                   	pop    %rax
ffffffff81005585:	5a                   	pop    %rdx
ffffffff81005586:	59                   	pop    %rcx
ffffffff81005587:	5e                   	pop    %rsi
ffffffff81005588:	5f                   	pop    %rdi
ffffffff81005589:	41 58                	pop    %r8
ffffffff8100558b:	41 59                	pop    %r9
ffffffff8100558d:	41 5a                	pop    %r10
ffffffff8100558f:	41 5b                	pop    %r11
ffffffff81005591:	5d                   	pop    %rbp
ffffffff81005592:	48 cf                	iretq  

ffffffff81005594 <isr_151>:
ffffffff81005594:	55                   	push   %rbp
ffffffff81005595:	48 89 e5             	mov    %rsp,%rbp
ffffffff81005598:	41 53                	push   %r11
ffffffff8100559a:	41 52                	push   %r10
ffffffff8100559c:	41 51                	push   %r9
ffffffff8100559e:	41 50                	push   %r8
ffffffff810055a0:	57                   	push   %rdi
ffffffff810055a1:	56                   	push   %rsi
ffffffff810055a2:	51                   	push   %rcx
ffffffff810055a3:	52                   	push   %rdx
ffffffff810055a4:	50                   	push   %rax
ffffffff810055a5:	fc                   	cld    
ffffffff810055a6:	bf 97 00 00 00       	mov    $0x97,%edi
ffffffff810055ab:	be 00 00 00 00       	mov    $0x0,%esi
ffffffff810055b0:	e8 08 e0 ff ff       	callq  ffffffff810035bd <isr_dispatcher>
ffffffff810055b5:	58                   	pop    %rax
ffffffff810055b6:	5a                   	pop    %rdx
ffffffff810055b7:	59                   	pop    %rcx
ffffffff810055b8:	5e                   	pop    %rsi
ffffffff810055b9:	5f                   	pop    %rdi
ffffffff810055ba:	41 58                	pop    %r8
ffffffff810055bc:	41 59                	pop    %r9
ffffffff810055be:	41 5a                	pop    %r10
ffffffff810055c0:	41 5b                	pop    %r11
ffffffff810055c2:	5d                   	pop    %rbp
ffffffff810055c3:	48 cf                	iretq  

ffffffff810055c5 <isr_152>:
ffffffff810055c5:	55                   	push   %rbp
ffffffff810055c6:	48 89 e5             	mov    %rsp,%rbp
ffffffff810055c9:	41 53                	push   %r11
ffffffff810055cb:	41 52                	push   %r10
ffffffff810055cd:	41 51                	push   %r9
ffffffff810055cf:	41 50                	push   %r8
ffffffff810055d1:	57                   	push   %rdi
ffffffff810055d2:	56                   	push   %rsi
ffffffff810055d3:	51                   	push   %rcx
ffffffff810055d4:	52                   	push   %rdx
ffffffff810055d5:	50                   	push   %rax
ffffffff810055d6:	fc                   	cld    
ffffffff810055d7:	bf 98 00 00 00       	mov    $0x98,%edi
ffffffff810055dc:	be 00 00 00 00       	mov    $0x0,%esi
ffffffff810055e1:	e8 d7 df ff ff       	callq  ffffffff810035bd <isr_dispatcher>
ffffffff810055e6:	58                   	pop    %rax
ffffffff810055e7:	5a                   	pop    %rdx
ffffffff810055e8:	59                   	pop    %rcx
ffffffff810055e9:	5e                   	pop    %rsi
ffffffff810055ea:	5f                   	pop    %rdi
ffffffff810055eb:	41 58                	pop    %r8
ffffffff810055ed:	41 59                	pop    %r9
ffffffff810055ef:	41 5a                	pop    %r10
ffffffff810055f1:	41 5b                	pop    %r11
ffffffff810055f3:	5d                   	pop    %rbp
ffffffff810055f4:	48 cf                	iretq  

ffffffff810055f6 <isr_153>:
ffffffff810055f6:	55                   	push   %rbp
ffffffff810055f7:	48 89 e5             	mov    %rsp,%rbp
ffffffff810055fa:	41 53                	push   %r11
ffffffff810055fc:	41 52                	push   %r10
ffffffff810055fe:	41 51                	push   %r9
ffffffff81005600:	41 50                	push   %r8
ffffffff81005602:	57                   	push   %rdi
ffffffff81005603:	56                   	push   %rsi
ffffffff81005604:	51                   	push   %rcx
ffffffff81005605:	52                   	push   %rdx
ffffffff81005606:	50                   	push   %rax
ffffffff81005607:	fc                   	cld    
ffffffff81005608:	bf 99 00 00 00       	mov    $0x99,%edi
ffffffff8100560d:	be 00 00 00 00       	mov    $0x0,%esi
ffffffff81005612:	e8 a6 df ff ff       	callq  ffffffff810035bd <isr_dispatcher>
ffffffff81005617:	58                   	pop    %rax
ffffffff81005618:	5a                   	pop    %rdx
ffffffff81005619:	59                   	pop    %rcx
ffffffff8100561a:	5e                   	pop    %rsi
ffffffff8100561b:	5f                   	pop    %rdi
ffffffff8100561c:	41 58                	pop    %r8
ffffffff8100561e:	41 59                	pop    %r9
ffffffff81005620:	41 5a                	pop    %r10
ffffffff81005622:	41 5b                	pop    %r11
ffffffff81005624:	5d                   	pop    %rbp
ffffffff81005625:	48 cf                	iretq  

ffffffff81005627 <isr_154>:
ffffffff81005627:	55                   	push   %rbp
ffffffff81005628:	48 89 e5             	mov    %rsp,%rbp
ffffffff8100562b:	41 53                	push   %r11
ffffffff8100562d:	41 52                	push   %r10
ffffffff8100562f:	41 51                	push   %r9
ffffffff81005631:	41 50                	push   %r8
ffffffff81005633:	57                   	push   %rdi
ffffffff81005634:	56                   	push   %rsi
ffffffff81005635:	51                   	push   %rcx
ffffffff81005636:	52                   	push   %rdx
ffffffff81005637:	50                   	push   %rax
ffffffff81005638:	fc                   	cld    
ffffffff81005639:	bf 9a 00 00 00       	mov    $0x9a,%edi
ffffffff8100563e:	be 00 00 00 00       	mov    $0x0,%esi
ffffffff81005643:	e8 75 df ff ff       	callq  ffffffff810035bd <isr_dispatcher>
ffffffff81005648:	58                   	pop    %rax
ffffffff81005649:	5a                   	pop    %rdx
ffffffff8100564a:	59                   	pop    %rcx
ffffffff8100564b:	5e                   	pop    %rsi
ffffffff8100564c:	5f                   	pop    %rdi
ffffffff8100564d:	41 58                	pop    %r8
ffffffff8100564f:	41 59                	pop    %r9
ffffffff81005651:	41 5a                	pop    %r10
ffffffff81005653:	41 5b                	pop    %r11
ffffffff81005655:	5d                   	pop    %rbp
ffffffff81005656:	48 cf                	iretq  

ffffffff81005658 <isr_155>:
ffffffff81005658:	55                   	push   %rbp
ffffffff81005659:	48 89 e5             	mov    %rsp,%rbp
ffffffff8100565c:	41 53                	push   %r11
ffffffff8100565e:	41 52                	push   %r10
ffffffff81005660:	41 51                	push   %r9
ffffffff81005662:	41 50                	push   %r8
ffffffff81005664:	57                   	push   %rdi
ffffffff81005665:	56                   	push   %rsi
ffffffff81005666:	51                   	push   %rcx
ffffffff81005667:	52                   	push   %rdx
ffffffff81005668:	50                   	push   %rax
ffffffff81005669:	fc                   	cld    
ffffffff8100566a:	bf 9b 00 00 00       	mov    $0x9b,%edi
ffffffff8100566f:	be 00 00 00 00       	mov    $0x0,%esi
ffffffff81005674:	e8 44 df ff ff       	callq  ffffffff810035bd <isr_dispatcher>
ffffffff81005679:	58                   	pop    %rax
ffffffff8100567a:	5a                   	pop    %rdx
ffffffff8100567b:	59                   	pop    %rcx
ffffffff8100567c:	5e                   	pop    %rsi
ffffffff8100567d:	5f                   	pop    %rdi
ffffffff8100567e:	41 58                	pop    %r8
ffffffff81005680:	41 59                	pop    %r9
ffffffff81005682:	41 5a                	pop    %r10
ffffffff81005684:	41 5b                	pop    %r11
ffffffff81005686:	5d                   	pop    %rbp
ffffffff81005687:	48 cf                	iretq  

ffffffff81005689 <isr_156>:
ffffffff81005689:	55                   	push   %rbp
ffffffff8100568a:	48 89 e5             	mov    %rsp,%rbp
ffffffff8100568d:	41 53                	push   %r11
ffffffff8100568f:	41 52                	push   %r10
ffffffff81005691:	41 51                	push   %r9
ffffffff81005693:	41 50                	push   %r8
ffffffff81005695:	57                   	push   %rdi
ffffffff81005696:	56                   	push   %rsi
ffffffff81005697:	51                   	push   %rcx
ffffffff81005698:	52                   	push   %rdx
ffffffff81005699:	50                   	push   %rax
ffffffff8100569a:	fc                   	cld    
ffffffff8100569b:	bf 9c 00 00 00       	mov    $0x9c,%edi
ffffffff810056a0:	be 00 00 00 00       	mov    $0x0,%esi
ffffffff810056a5:	e8 13 df ff ff       	callq  ffffffff810035bd <isr_dispatcher>
ffffffff810056aa:	58                   	pop    %rax
ffffffff810056ab:	5a                   	pop    %rdx
ffffffff810056ac:	59                   	pop    %rcx
ffffffff810056ad:	5e                   	pop    %rsi
ffffffff810056ae:	5f                   	pop    %rdi
ffffffff810056af:	41 58                	pop    %r8
ffffffff810056b1:	41 59                	pop    %r9
ffffffff810056b3:	41 5a                	pop    %r10
ffffffff810056b5:	41 5b                	pop    %r11
ffffffff810056b7:	5d                   	pop    %rbp
ffffffff810056b8:	48 cf                	iretq  

ffffffff810056ba <isr_157>:
ffffffff810056ba:	55                   	push   %rbp
ffffffff810056bb:	48 89 e5             	mov    %rsp,%rbp
ffffffff810056be:	41 53                	push   %r11
ffffffff810056c0:	41 52                	push   %r10
ffffffff810056c2:	41 51                	push   %r9
ffffffff810056c4:	41 50                	push   %r8
ffffffff810056c6:	57                   	push   %rdi
ffffffff810056c7:	56                   	push   %rsi
ffffffff810056c8:	51                   	push   %rcx
ffffffff810056c9:	52                   	push   %rdx
ffffffff810056ca:	50                   	push   %rax
ffffffff810056cb:	fc                   	cld    
ffffffff810056cc:	bf 9d 00 00 00       	mov    $0x9d,%edi
ffffffff810056d1:	be 00 00 00 00       	mov    $0x0,%esi
ffffffff810056d6:	e8 e2 de ff ff       	callq  ffffffff810035bd <isr_dispatcher>
ffffffff810056db:	58                   	pop    %rax
ffffffff810056dc:	5a                   	pop    %rdx
ffffffff810056dd:	59                   	pop    %rcx
ffffffff810056de:	5e                   	pop    %rsi
ffffffff810056df:	5f                   	pop    %rdi
ffffffff810056e0:	41 58                	pop    %r8
ffffffff810056e2:	41 59                	pop    %r9
ffffffff810056e4:	41 5a                	pop    %r10
ffffffff810056e6:	41 5b                	pop    %r11
ffffffff810056e8:	5d                   	pop    %rbp
ffffffff810056e9:	48 cf                	iretq  

ffffffff810056eb <isr_158>:
ffffffff810056eb:	55                   	push   %rbp
ffffffff810056ec:	48 89 e5             	mov    %rsp,%rbp
ffffffff810056ef:	41 53                	push   %r11
ffffffff810056f1:	41 52                	push   %r10
ffffffff810056f3:	41 51                	push   %r9
ffffffff810056f5:	41 50                	push   %r8
ffffffff810056f7:	57                   	push   %rdi
ffffffff810056f8:	56                   	push   %rsi
ffffffff810056f9:	51                   	push   %rcx
ffffffff810056fa:	52                   	push   %rdx
ffffffff810056fb:	50                   	push   %rax
ffffffff810056fc:	fc                   	cld    
ffffffff810056fd:	bf 9e 00 00 00       	mov    $0x9e,%edi
ffffffff81005702:	be 00 00 00 00       	mov    $0x0,%esi
ffffffff81005707:	e8 b1 de ff ff       	callq  ffffffff810035bd <isr_dispatcher>
ffffffff8100570c:	58                   	pop    %rax
ffffffff8100570d:	5a                   	pop    %rdx
ffffffff8100570e:	59                   	pop    %rcx
ffffffff8100570f:	5e                   	pop    %rsi
ffffffff81005710:	5f                   	pop    %rdi
ffffffff81005711:	41 58                	pop    %r8
ffffffff81005713:	41 59                	pop    %r9
ffffffff81005715:	41 5a                	pop    %r10
ffffffff81005717:	41 5b                	pop    %r11
ffffffff81005719:	5d                   	pop    %rbp
ffffffff8100571a:	48 cf                	iretq  

ffffffff8100571c <isr_159>:
ffffffff8100571c:	55                   	push   %rbp
ffffffff8100571d:	48 89 e5             	mov    %rsp,%rbp
ffffffff81005720:	41 53                	push   %r11
ffffffff81005722:	41 52                	push   %r10
ffffffff81005724:	41 51                	push   %r9
ffffffff81005726:	41 50                	push   %r8
ffffffff81005728:	57                   	push   %rdi
ffffffff81005729:	56                   	push   %rsi
ffffffff8100572a:	51                   	push   %rcx
ffffffff8100572b:	52                   	push   %rdx
ffffffff8100572c:	50                   	push   %rax
ffffffff8100572d:	fc                   	cld    
ffffffff8100572e:	bf 9f 00 00 00       	mov    $0x9f,%edi
ffffffff81005733:	be 00 00 00 00       	mov    $0x0,%esi
ffffffff81005738:	e8 80 de ff ff       	callq  ffffffff810035bd <isr_dispatcher>
ffffffff8100573d:	58                   	pop    %rax
ffffffff8100573e:	5a                   	pop    %rdx
ffffffff8100573f:	59                   	pop    %rcx
ffffffff81005740:	5e                   	pop    %rsi
ffffffff81005741:	5f                   	pop    %rdi
ffffffff81005742:	41 58                	pop    %r8
ffffffff81005744:	41 59                	pop    %r9
ffffffff81005746:	41 5a                	pop    %r10
ffffffff81005748:	41 5b                	pop    %r11
ffffffff8100574a:	5d                   	pop    %rbp
ffffffff8100574b:	48 cf                	iretq  

ffffffff8100574d <isr_160>:
ffffffff8100574d:	55                   	push   %rbp
ffffffff8100574e:	48 89 e5             	mov    %rsp,%rbp
ffffffff81005751:	41 53                	push   %r11
ffffffff81005753:	41 52                	push   %r10
ffffffff81005755:	41 51                	push   %r9
ffffffff81005757:	41 50                	push   %r8
ffffffff81005759:	57                   	push   %rdi
ffffffff8100575a:	56                   	push   %rsi
ffffffff8100575b:	51                   	push   %rcx
ffffffff8100575c:	52                   	push   %rdx
ffffffff8100575d:	50                   	push   %rax
ffffffff8100575e:	fc                   	cld    
ffffffff8100575f:	bf a0 00 00 00       	mov    $0xa0,%edi
ffffffff81005764:	be 00 00 00 00       	mov    $0x0,%esi
ffffffff81005769:	e8 4f de ff ff       	callq  ffffffff810035bd <isr_dispatcher>
ffffffff8100576e:	58                   	pop    %rax
ffffffff8100576f:	5a                   	pop    %rdx
ffffffff81005770:	59                   	pop    %rcx
ffffffff81005771:	5e                   	pop    %rsi
ffffffff81005772:	5f                   	pop    %rdi
ffffffff81005773:	41 58                	pop    %r8
ffffffff81005775:	41 59                	pop    %r9
ffffffff81005777:	41 5a                	pop    %r10
ffffffff81005779:	41 5b                	pop    %r11
ffffffff8100577b:	5d                   	pop    %rbp
ffffffff8100577c:	48 cf                	iretq  

ffffffff8100577e <isr_161>:
ffffffff8100577e:	55                   	push   %rbp
ffffffff8100577f:	48 89 e5             	mov    %rsp,%rbp
ffffffff81005782:	41 53                	push   %r11
ffffffff81005784:	41 52                	push   %r10
ffffffff81005786:	41 51                	push   %r9
ffffffff81005788:	41 50                	push   %r8
ffffffff8100578a:	57                   	push   %rdi
ffffffff8100578b:	56                   	push   %rsi
ffffffff8100578c:	51                   	push   %rcx
ffffffff8100578d:	52                   	push   %rdx
ffffffff8100578e:	50                   	push   %rax
ffffffff8100578f:	fc                   	cld    
ffffffff81005790:	bf a1 00 00 00       	mov    $0xa1,%edi
ffffffff81005795:	be 00 00 00 00       	mov    $0x0,%esi
ffffffff8100579a:	e8 1e de ff ff       	callq  ffffffff810035bd <isr_dispatcher>
ffffffff8100579f:	58                   	pop    %rax
ffffffff810057a0:	5a                   	pop    %rdx
ffffffff810057a1:	59                   	pop    %rcx
ffffffff810057a2:	5e                   	pop    %rsi
ffffffff810057a3:	5f                   	pop    %rdi
ffffffff810057a4:	41 58                	pop    %r8
ffffffff810057a6:	41 59                	pop    %r9
ffffffff810057a8:	41 5a                	pop    %r10
ffffffff810057aa:	41 5b                	pop    %r11
ffffffff810057ac:	5d                   	pop    %rbp
ffffffff810057ad:	48 cf                	iretq  

ffffffff810057af <isr_162>:
ffffffff810057af:	55                   	push   %rbp
ffffffff810057b0:	48 89 e5             	mov    %rsp,%rbp
ffffffff810057b3:	41 53                	push   %r11
ffffffff810057b5:	41 52                	push   %r10
ffffffff810057b7:	41 51                	push   %r9
ffffffff810057b9:	41 50                	push   %r8
ffffffff810057bb:	57                   	push   %rdi
ffffffff810057bc:	56                   	push   %rsi
ffffffff810057bd:	51                   	push   %rcx
ffffffff810057be:	52                   	push   %rdx
ffffffff810057bf:	50                   	push   %rax
ffffffff810057c0:	fc                   	cld    
ffffffff810057c1:	bf a2 00 00 00       	mov    $0xa2,%edi
ffffffff810057c6:	be 00 00 00 00       	mov    $0x0,%esi
ffffffff810057cb:	e8 ed dd ff ff       	callq  ffffffff810035bd <isr_dispatcher>
ffffffff810057d0:	58                   	pop    %rax
ffffffff810057d1:	5a                   	pop    %rdx
ffffffff810057d2:	59                   	pop    %rcx
ffffffff810057d3:	5e                   	pop    %rsi
ffffffff810057d4:	5f                   	pop    %rdi
ffffffff810057d5:	41 58                	pop    %r8
ffffffff810057d7:	41 59                	pop    %r9
ffffffff810057d9:	41 5a                	pop    %r10
ffffffff810057db:	41 5b                	pop    %r11
ffffffff810057dd:	5d                   	pop    %rbp
ffffffff810057de:	48 cf                	iretq  

ffffffff810057e0 <isr_163>:
ffffffff810057e0:	55                   	push   %rbp
ffffffff810057e1:	48 89 e5             	mov    %rsp,%rbp
ffffffff810057e4:	41 53                	push   %r11
ffffffff810057e6:	41 52                	push   %r10
ffffffff810057e8:	41 51                	push   %r9
ffffffff810057ea:	41 50                	push   %r8
ffffffff810057ec:	57                   	push   %rdi
ffffffff810057ed:	56                   	push   %rsi
ffffffff810057ee:	51                   	push   %rcx
ffffffff810057ef:	52                   	push   %rdx
ffffffff810057f0:	50                   	push   %rax
ffffffff810057f1:	fc                   	cld    
ffffffff810057f2:	bf a3 00 00 00       	mov    $0xa3,%edi
ffffffff810057f7:	be 00 00 00 00       	mov    $0x0,%esi
ffffffff810057fc:	e8 bc dd ff ff       	callq  ffffffff810035bd <isr_dispatcher>
ffffffff81005801:	58                   	pop    %rax
ffffffff81005802:	5a                   	pop    %rdx
ffffffff81005803:	59                   	pop    %rcx
ffffffff81005804:	5e                   	pop    %rsi
ffffffff81005805:	5f                   	pop    %rdi
ffffffff81005806:	41 58                	pop    %r8
ffffffff81005808:	41 59                	pop    %r9
ffffffff8100580a:	41 5a                	pop    %r10
ffffffff8100580c:	41 5b                	pop    %r11
ffffffff8100580e:	5d                   	pop    %rbp
ffffffff8100580f:	48 cf                	iretq  

ffffffff81005811 <isr_164>:
ffffffff81005811:	55                   	push   %rbp
ffffffff81005812:	48 89 e5             	mov    %rsp,%rbp
ffffffff81005815:	41 53                	push   %r11
ffffffff81005817:	41 52                	push   %r10
ffffffff81005819:	41 51                	push   %r9
ffffffff8100581b:	41 50                	push   %r8
ffffffff8100581d:	57                   	push   %rdi
ffffffff8100581e:	56                   	push   %rsi
ffffffff8100581f:	51                   	push   %rcx
ffffffff81005820:	52                   	push   %rdx
ffffffff81005821:	50                   	push   %rax
ffffffff81005822:	fc                   	cld    
ffffffff81005823:	bf a4 00 00 00       	mov    $0xa4,%edi
ffffffff81005828:	be 00 00 00 00       	mov    $0x0,%esi
ffffffff8100582d:	e8 8b dd ff ff       	callq  ffffffff810035bd <isr_dispatcher>
ffffffff81005832:	58                   	pop    %rax
ffffffff81005833:	5a                   	pop    %rdx
ffffffff81005834:	59                   	pop    %rcx
ffffffff81005835:	5e                   	pop    %rsi
ffffffff81005836:	5f                   	pop    %rdi
ffffffff81005837:	41 58                	pop    %r8
ffffffff81005839:	41 59                	pop    %r9
ffffffff8100583b:	41 5a                	pop    %r10
ffffffff8100583d:	41 5b                	pop    %r11
ffffffff8100583f:	5d                   	pop    %rbp
ffffffff81005840:	48 cf                	iretq  

ffffffff81005842 <isr_165>:
ffffffff81005842:	55                   	push   %rbp
ffffffff81005843:	48 89 e5             	mov    %rsp,%rbp
ffffffff81005846:	41 53                	push   %r11
ffffffff81005848:	41 52                	push   %r10
ffffffff8100584a:	41 51                	push   %r9
ffffffff8100584c:	41 50                	push   %r8
ffffffff8100584e:	57                   	push   %rdi
ffffffff8100584f:	56                   	push   %rsi
ffffffff81005850:	51                   	push   %rcx
ffffffff81005851:	52                   	push   %rdx
ffffffff81005852:	50                   	push   %rax
ffffffff81005853:	fc                   	cld    
ffffffff81005854:	bf a5 00 00 00       	mov    $0xa5,%edi
ffffffff81005859:	be 00 00 00 00       	mov    $0x0,%esi
ffffffff8100585e:	e8 5a dd ff ff       	callq  ffffffff810035bd <isr_dispatcher>
ffffffff81005863:	58                   	pop    %rax
ffffffff81005864:	5a                   	pop    %rdx
ffffffff81005865:	59                   	pop    %rcx
ffffffff81005866:	5e                   	pop    %rsi
ffffffff81005867:	5f                   	pop    %rdi
ffffffff81005868:	41 58                	pop    %r8
ffffffff8100586a:	41 59                	pop    %r9
ffffffff8100586c:	41 5a                	pop    %r10
ffffffff8100586e:	41 5b                	pop    %r11
ffffffff81005870:	5d                   	pop    %rbp
ffffffff81005871:	48 cf                	iretq  

ffffffff81005873 <isr_166>:
ffffffff81005873:	55                   	push   %rbp
ffffffff81005874:	48 89 e5             	mov    %rsp,%rbp
ffffffff81005877:	41 53                	push   %r11
ffffffff81005879:	41 52                	push   %r10
ffffffff8100587b:	41 51                	push   %r9
ffffffff8100587d:	41 50                	push   %r8
ffffffff8100587f:	57                   	push   %rdi
ffffffff81005880:	56                   	push   %rsi
ffffffff81005881:	51                   	push   %rcx
ffffffff81005882:	52                   	push   %rdx
ffffffff81005883:	50                   	push   %rax
ffffffff81005884:	fc                   	cld    
ffffffff81005885:	bf a6 00 00 00       	mov    $0xa6,%edi
ffffffff8100588a:	be 00 00 00 00       	mov    $0x0,%esi
ffffffff8100588f:	e8 29 dd ff ff       	callq  ffffffff810035bd <isr_dispatcher>
ffffffff81005894:	58                   	pop    %rax
ffffffff81005895:	5a                   	pop    %rdx
ffffffff81005896:	59                   	pop    %rcx
ffffffff81005897:	5e                   	pop    %rsi
ffffffff81005898:	5f                   	pop    %rdi
ffffffff81005899:	41 58                	pop    %r8
ffffffff8100589b:	41 59                	pop    %r9
ffffffff8100589d:	41 5a                	pop    %r10
ffffffff8100589f:	41 5b                	pop    %r11
ffffffff810058a1:	5d                   	pop    %rbp
ffffffff810058a2:	48 cf                	iretq  

ffffffff810058a4 <isr_167>:
ffffffff810058a4:	55                   	push   %rbp
ffffffff810058a5:	48 89 e5             	mov    %rsp,%rbp
ffffffff810058a8:	41 53                	push   %r11
ffffffff810058aa:	41 52                	push   %r10
ffffffff810058ac:	41 51                	push   %r9
ffffffff810058ae:	41 50                	push   %r8
ffffffff810058b0:	57                   	push   %rdi
ffffffff810058b1:	56                   	push   %rsi
ffffffff810058b2:	51                   	push   %rcx
ffffffff810058b3:	52                   	push   %rdx
ffffffff810058b4:	50                   	push   %rax
ffffffff810058b5:	fc                   	cld    
ffffffff810058b6:	bf a7 00 00 00       	mov    $0xa7,%edi
ffffffff810058bb:	be 00 00 00 00       	mov    $0x0,%esi
ffffffff810058c0:	e8 f8 dc ff ff       	callq  ffffffff810035bd <isr_dispatcher>
ffffffff810058c5:	58                   	pop    %rax
ffffffff810058c6:	5a                   	pop    %rdx
ffffffff810058c7:	59                   	pop    %rcx
ffffffff810058c8:	5e                   	pop    %rsi
ffffffff810058c9:	5f                   	pop    %rdi
ffffffff810058ca:	41 58                	pop    %r8
ffffffff810058cc:	41 59                	pop    %r9
ffffffff810058ce:	41 5a                	pop    %r10
ffffffff810058d0:	41 5b                	pop    %r11
ffffffff810058d2:	5d                   	pop    %rbp
ffffffff810058d3:	48 cf                	iretq  

ffffffff810058d5 <isr_168>:
ffffffff810058d5:	55                   	push   %rbp
ffffffff810058d6:	48 89 e5             	mov    %rsp,%rbp
ffffffff810058d9:	41 53                	push   %r11
ffffffff810058db:	41 52                	push   %r10
ffffffff810058dd:	41 51                	push   %r9
ffffffff810058df:	41 50                	push   %r8
ffffffff810058e1:	57                   	push   %rdi
ffffffff810058e2:	56                   	push   %rsi
ffffffff810058e3:	51                   	push   %rcx
ffffffff810058e4:	52                   	push   %rdx
ffffffff810058e5:	50                   	push   %rax
ffffffff810058e6:	fc                   	cld    
ffffffff810058e7:	bf a8 00 00 00       	mov    $0xa8,%edi
ffffffff810058ec:	be 00 00 00 00       	mov    $0x0,%esi
ffffffff810058f1:	e8 c7 dc ff ff       	callq  ffffffff810035bd <isr_dispatcher>
ffffffff810058f6:	58                   	pop    %rax
ffffffff810058f7:	5a                   	pop    %rdx
ffffffff810058f8:	59                   	pop    %rcx
ffffffff810058f9:	5e                   	pop    %rsi
ffffffff810058fa:	5f                   	pop    %rdi
ffffffff810058fb:	41 58                	pop    %r8
ffffffff810058fd:	41 59                	pop    %r9
ffffffff810058ff:	41 5a                	pop    %r10
ffffffff81005901:	41 5b                	pop    %r11
ffffffff81005903:	5d                   	pop    %rbp
ffffffff81005904:	48 cf                	iretq  

ffffffff81005906 <isr_169>:
ffffffff81005906:	55                   	push   %rbp
ffffffff81005907:	48 89 e5             	mov    %rsp,%rbp
ffffffff8100590a:	41 53                	push   %r11
ffffffff8100590c:	41 52                	push   %r10
ffffffff8100590e:	41 51                	push   %r9
ffffffff81005910:	41 50                	push   %r8
ffffffff81005912:	57                   	push   %rdi
ffffffff81005913:	56                   	push   %rsi
ffffffff81005914:	51                   	push   %rcx
ffffffff81005915:	52                   	push   %rdx
ffffffff81005916:	50                   	push   %rax
ffffffff81005917:	fc                   	cld    
ffffffff81005918:	bf a9 00 00 00       	mov    $0xa9,%edi
ffffffff8100591d:	be 00 00 00 00       	mov    $0x0,%esi
ffffffff81005922:	e8 96 dc ff ff       	callq  ffffffff810035bd <isr_dispatcher>
ffffffff81005927:	58                   	pop    %rax
ffffffff81005928:	5a                   	pop    %rdx
ffffffff81005929:	59                   	pop    %rcx
ffffffff8100592a:	5e                   	pop    %rsi
ffffffff8100592b:	5f                   	pop    %rdi
ffffffff8100592c:	41 58                	pop    %r8
ffffffff8100592e:	41 59                	pop    %r9
ffffffff81005930:	41 5a                	pop    %r10
ffffffff81005932:	41 5b                	pop    %r11
ffffffff81005934:	5d                   	pop    %rbp
ffffffff81005935:	48 cf                	iretq  

ffffffff81005937 <isr_170>:
ffffffff81005937:	55                   	push   %rbp
ffffffff81005938:	48 89 e5             	mov    %rsp,%rbp
ffffffff8100593b:	41 53                	push   %r11
ffffffff8100593d:	41 52                	push   %r10
ffffffff8100593f:	41 51                	push   %r9
ffffffff81005941:	41 50                	push   %r8
ffffffff81005943:	57                   	push   %rdi
ffffffff81005944:	56                   	push   %rsi
ffffffff81005945:	51                   	push   %rcx
ffffffff81005946:	52                   	push   %rdx
ffffffff81005947:	50                   	push   %rax
ffffffff81005948:	fc                   	cld    
ffffffff81005949:	bf aa 00 00 00       	mov    $0xaa,%edi
ffffffff8100594e:	be 00 00 00 00       	mov    $0x0,%esi
ffffffff81005953:	e8 65 dc ff ff       	callq  ffffffff810035bd <isr_dispatcher>
ffffffff81005958:	58                   	pop    %rax
ffffffff81005959:	5a                   	pop    %rdx
ffffffff8100595a:	59                   	pop    %rcx
ffffffff8100595b:	5e                   	pop    %rsi
ffffffff8100595c:	5f                   	pop    %rdi
ffffffff8100595d:	41 58                	pop    %r8
ffffffff8100595f:	41 59                	pop    %r9
ffffffff81005961:	41 5a                	pop    %r10
ffffffff81005963:	41 5b                	pop    %r11
ffffffff81005965:	5d                   	pop    %rbp
ffffffff81005966:	48 cf                	iretq  

ffffffff81005968 <isr_171>:
ffffffff81005968:	55                   	push   %rbp
ffffffff81005969:	48 89 e5             	mov    %rsp,%rbp
ffffffff8100596c:	41 53                	push   %r11
ffffffff8100596e:	41 52                	push   %r10
ffffffff81005970:	41 51                	push   %r9
ffffffff81005972:	41 50                	push   %r8
ffffffff81005974:	57                   	push   %rdi
ffffffff81005975:	56                   	push   %rsi
ffffffff81005976:	51                   	push   %rcx
ffffffff81005977:	52                   	push   %rdx
ffffffff81005978:	50                   	push   %rax
ffffffff81005979:	fc                   	cld    
ffffffff8100597a:	bf ab 00 00 00       	mov    $0xab,%edi
ffffffff8100597f:	be 00 00 00 00       	mov    $0x0,%esi
ffffffff81005984:	e8 34 dc ff ff       	callq  ffffffff810035bd <isr_dispatcher>
ffffffff81005989:	58                   	pop    %rax
ffffffff8100598a:	5a                   	pop    %rdx
ffffffff8100598b:	59                   	pop    %rcx
ffffffff8100598c:	5e                   	pop    %rsi
ffffffff8100598d:	5f                   	pop    %rdi
ffffffff8100598e:	41 58                	pop    %r8
ffffffff81005990:	41 59                	pop    %r9
ffffffff81005992:	41 5a                	pop    %r10
ffffffff81005994:	41 5b                	pop    %r11
ffffffff81005996:	5d                   	pop    %rbp
ffffffff81005997:	48 cf                	iretq  

ffffffff81005999 <isr_172>:
ffffffff81005999:	55                   	push   %rbp
ffffffff8100599a:	48 89 e5             	mov    %rsp,%rbp
ffffffff8100599d:	41 53                	push   %r11
ffffffff8100599f:	41 52                	push   %r10
ffffffff810059a1:	41 51                	push   %r9
ffffffff810059a3:	41 50                	push   %r8
ffffffff810059a5:	57                   	push   %rdi
ffffffff810059a6:	56                   	push   %rsi
ffffffff810059a7:	51                   	push   %rcx
ffffffff810059a8:	52                   	push   %rdx
ffffffff810059a9:	50                   	push   %rax
ffffffff810059aa:	fc                   	cld    
ffffffff810059ab:	bf ac 00 00 00       	mov    $0xac,%edi
ffffffff810059b0:	be 00 00 00 00       	mov    $0x0,%esi
ffffffff810059b5:	e8 03 dc ff ff       	callq  ffffffff810035bd <isr_dispatcher>
ffffffff810059ba:	58                   	pop    %rax
ffffffff810059bb:	5a                   	pop    %rdx
ffffffff810059bc:	59                   	pop    %rcx
ffffffff810059bd:	5e                   	pop    %rsi
ffffffff810059be:	5f                   	pop    %rdi
ffffffff810059bf:	41 58                	pop    %r8
ffffffff810059c1:	41 59                	pop    %r9
ffffffff810059c3:	41 5a                	pop    %r10
ffffffff810059c5:	41 5b                	pop    %r11
ffffffff810059c7:	5d                   	pop    %rbp
ffffffff810059c8:	48 cf                	iretq  

ffffffff810059ca <isr_173>:
ffffffff810059ca:	55                   	push   %rbp
ffffffff810059cb:	48 89 e5             	mov    %rsp,%rbp
ffffffff810059ce:	41 53                	push   %r11
ffffffff810059d0:	41 52                	push   %r10
ffffffff810059d2:	41 51                	push   %r9
ffffffff810059d4:	41 50                	push   %r8
ffffffff810059d6:	57                   	push   %rdi
ffffffff810059d7:	56                   	push   %rsi
ffffffff810059d8:	51                   	push   %rcx
ffffffff810059d9:	52                   	push   %rdx
ffffffff810059da:	50                   	push   %rax
ffffffff810059db:	fc                   	cld    
ffffffff810059dc:	bf ad 00 00 00       	mov    $0xad,%edi
ffffffff810059e1:	be 00 00 00 00       	mov    $0x0,%esi
ffffffff810059e6:	e8 d2 db ff ff       	callq  ffffffff810035bd <isr_dispatcher>
ffffffff810059eb:	58                   	pop    %rax
ffffffff810059ec:	5a                   	pop    %rdx
ffffffff810059ed:	59                   	pop    %rcx
ffffffff810059ee:	5e                   	pop    %rsi
ffffffff810059ef:	5f                   	pop    %rdi
ffffffff810059f0:	41 58                	pop    %r8
ffffffff810059f2:	41 59                	pop    %r9
ffffffff810059f4:	41 5a                	pop    %r10
ffffffff810059f6:	41 5b                	pop    %r11
ffffffff810059f8:	5d                   	pop    %rbp
ffffffff810059f9:	48 cf                	iretq  

ffffffff810059fb <isr_174>:
ffffffff810059fb:	55                   	push   %rbp
ffffffff810059fc:	48 89 e5             	mov    %rsp,%rbp
ffffffff810059ff:	41 53                	push   %r11
ffffffff81005a01:	41 52                	push   %r10
ffffffff81005a03:	41 51                	push   %r9
ffffffff81005a05:	41 50                	push   %r8
ffffffff81005a07:	57                   	push   %rdi
ffffffff81005a08:	56                   	push   %rsi
ffffffff81005a09:	51                   	push   %rcx
ffffffff81005a0a:	52                   	push   %rdx
ffffffff81005a0b:	50                   	push   %rax
ffffffff81005a0c:	fc                   	cld    
ffffffff81005a0d:	bf ae 00 00 00       	mov    $0xae,%edi
ffffffff81005a12:	be 00 00 00 00       	mov    $0x0,%esi
ffffffff81005a17:	e8 a1 db ff ff       	callq  ffffffff810035bd <isr_dispatcher>
ffffffff81005a1c:	58                   	pop    %rax
ffffffff81005a1d:	5a                   	pop    %rdx
ffffffff81005a1e:	59                   	pop    %rcx
ffffffff81005a1f:	5e                   	pop    %rsi
ffffffff81005a20:	5f                   	pop    %rdi
ffffffff81005a21:	41 58                	pop    %r8
ffffffff81005a23:	41 59                	pop    %r9
ffffffff81005a25:	41 5a                	pop    %r10
ffffffff81005a27:	41 5b                	pop    %r11
ffffffff81005a29:	5d                   	pop    %rbp
ffffffff81005a2a:	48 cf                	iretq  

ffffffff81005a2c <isr_175>:
ffffffff81005a2c:	55                   	push   %rbp
ffffffff81005a2d:	48 89 e5             	mov    %rsp,%rbp
ffffffff81005a30:	41 53                	push   %r11
ffffffff81005a32:	41 52                	push   %r10
ffffffff81005a34:	41 51                	push   %r9
ffffffff81005a36:	41 50                	push   %r8
ffffffff81005a38:	57                   	push   %rdi
ffffffff81005a39:	56                   	push   %rsi
ffffffff81005a3a:	51                   	push   %rcx
ffffffff81005a3b:	52                   	push   %rdx
ffffffff81005a3c:	50                   	push   %rax
ffffffff81005a3d:	fc                   	cld    
ffffffff81005a3e:	bf af 00 00 00       	mov    $0xaf,%edi
ffffffff81005a43:	be 00 00 00 00       	mov    $0x0,%esi
ffffffff81005a48:	e8 70 db ff ff       	callq  ffffffff810035bd <isr_dispatcher>
ffffffff81005a4d:	58                   	pop    %rax
ffffffff81005a4e:	5a                   	pop    %rdx
ffffffff81005a4f:	59                   	pop    %rcx
ffffffff81005a50:	5e                   	pop    %rsi
ffffffff81005a51:	5f                   	pop    %rdi
ffffffff81005a52:	41 58                	pop    %r8
ffffffff81005a54:	41 59                	pop    %r9
ffffffff81005a56:	41 5a                	pop    %r10
ffffffff81005a58:	41 5b                	pop    %r11
ffffffff81005a5a:	5d                   	pop    %rbp
ffffffff81005a5b:	48 cf                	iretq  

ffffffff81005a5d <isr_176>:
ffffffff81005a5d:	55                   	push   %rbp
ffffffff81005a5e:	48 89 e5             	mov    %rsp,%rbp
ffffffff81005a61:	41 53                	push   %r11
ffffffff81005a63:	41 52                	push   %r10
ffffffff81005a65:	41 51                	push   %r9
ffffffff81005a67:	41 50                	push   %r8
ffffffff81005a69:	57                   	push   %rdi
ffffffff81005a6a:	56                   	push   %rsi
ffffffff81005a6b:	51                   	push   %rcx
ffffffff81005a6c:	52                   	push   %rdx
ffffffff81005a6d:	50                   	push   %rax
ffffffff81005a6e:	fc                   	cld    
ffffffff81005a6f:	bf b0 00 00 00       	mov    $0xb0,%edi
ffffffff81005a74:	be 00 00 00 00       	mov    $0x0,%esi
ffffffff81005a79:	e8 3f db ff ff       	callq  ffffffff810035bd <isr_dispatcher>
ffffffff81005a7e:	58                   	pop    %rax
ffffffff81005a7f:	5a                   	pop    %rdx
ffffffff81005a80:	59                   	pop    %rcx
ffffffff81005a81:	5e                   	pop    %rsi
ffffffff81005a82:	5f                   	pop    %rdi
ffffffff81005a83:	41 58                	pop    %r8
ffffffff81005a85:	41 59                	pop    %r9
ffffffff81005a87:	41 5a                	pop    %r10
ffffffff81005a89:	41 5b                	pop    %r11
ffffffff81005a8b:	5d                   	pop    %rbp
ffffffff81005a8c:	48 cf                	iretq  

ffffffff81005a8e <isr_177>:
ffffffff81005a8e:	55                   	push   %rbp
ffffffff81005a8f:	48 89 e5             	mov    %rsp,%rbp
ffffffff81005a92:	41 53                	push   %r11
ffffffff81005a94:	41 52                	push   %r10
ffffffff81005a96:	41 51                	push   %r9
ffffffff81005a98:	41 50                	push   %r8
ffffffff81005a9a:	57                   	push   %rdi
ffffffff81005a9b:	56                   	push   %rsi
ffffffff81005a9c:	51                   	push   %rcx
ffffffff81005a9d:	52                   	push   %rdx
ffffffff81005a9e:	50                   	push   %rax
ffffffff81005a9f:	fc                   	cld    
ffffffff81005aa0:	bf b1 00 00 00       	mov    $0xb1,%edi
ffffffff81005aa5:	be 00 00 00 00       	mov    $0x0,%esi
ffffffff81005aaa:	e8 0e db ff ff       	callq  ffffffff810035bd <isr_dispatcher>
ffffffff81005aaf:	58                   	pop    %rax
ffffffff81005ab0:	5a                   	pop    %rdx
ffffffff81005ab1:	59                   	pop    %rcx
ffffffff81005ab2:	5e                   	pop    %rsi
ffffffff81005ab3:	5f                   	pop    %rdi
ffffffff81005ab4:	41 58                	pop    %r8
ffffffff81005ab6:	41 59                	pop    %r9
ffffffff81005ab8:	41 5a                	pop    %r10
ffffffff81005aba:	41 5b                	pop    %r11
ffffffff81005abc:	5d                   	pop    %rbp
ffffffff81005abd:	48 cf                	iretq  

ffffffff81005abf <isr_178>:
ffffffff81005abf:	55                   	push   %rbp
ffffffff81005ac0:	48 89 e5             	mov    %rsp,%rbp
ffffffff81005ac3:	41 53                	push   %r11
ffffffff81005ac5:	41 52                	push   %r10
ffffffff81005ac7:	41 51                	push   %r9
ffffffff81005ac9:	41 50                	push   %r8
ffffffff81005acb:	57                   	push   %rdi
ffffffff81005acc:	56                   	push   %rsi
ffffffff81005acd:	51                   	push   %rcx
ffffffff81005ace:	52                   	push   %rdx
ffffffff81005acf:	50                   	push   %rax
ffffffff81005ad0:	fc                   	cld    
ffffffff81005ad1:	bf b2 00 00 00       	mov    $0xb2,%edi
ffffffff81005ad6:	be 00 00 00 00       	mov    $0x0,%esi
ffffffff81005adb:	e8 dd da ff ff       	callq  ffffffff810035bd <isr_dispatcher>
ffffffff81005ae0:	58                   	pop    %rax
ffffffff81005ae1:	5a                   	pop    %rdx
ffffffff81005ae2:	59                   	pop    %rcx
ffffffff81005ae3:	5e                   	pop    %rsi
ffffffff81005ae4:	5f                   	pop    %rdi
ffffffff81005ae5:	41 58                	pop    %r8
ffffffff81005ae7:	41 59                	pop    %r9
ffffffff81005ae9:	41 5a                	pop    %r10
ffffffff81005aeb:	41 5b                	pop    %r11
ffffffff81005aed:	5d                   	pop    %rbp
ffffffff81005aee:	48 cf                	iretq  

ffffffff81005af0 <isr_179>:
ffffffff81005af0:	55                   	push   %rbp
ffffffff81005af1:	48 89 e5             	mov    %rsp,%rbp
ffffffff81005af4:	41 53                	push   %r11
ffffffff81005af6:	41 52                	push   %r10
ffffffff81005af8:	41 51                	push   %r9
ffffffff81005afa:	41 50                	push   %r8
ffffffff81005afc:	57                   	push   %rdi
ffffffff81005afd:	56                   	push   %rsi
ffffffff81005afe:	51                   	push   %rcx
ffffffff81005aff:	52                   	push   %rdx
ffffffff81005b00:	50                   	push   %rax
ffffffff81005b01:	fc                   	cld    
ffffffff81005b02:	bf b3 00 00 00       	mov    $0xb3,%edi
ffffffff81005b07:	be 00 00 00 00       	mov    $0x0,%esi
ffffffff81005b0c:	e8 ac da ff ff       	callq  ffffffff810035bd <isr_dispatcher>
ffffffff81005b11:	58                   	pop    %rax
ffffffff81005b12:	5a                   	pop    %rdx
ffffffff81005b13:	59                   	pop    %rcx
ffffffff81005b14:	5e                   	pop    %rsi
ffffffff81005b15:	5f                   	pop    %rdi
ffffffff81005b16:	41 58                	pop    %r8
ffffffff81005b18:	41 59                	pop    %r9
ffffffff81005b1a:	41 5a                	pop    %r10
ffffffff81005b1c:	41 5b                	pop    %r11
ffffffff81005b1e:	5d                   	pop    %rbp
ffffffff81005b1f:	48 cf                	iretq  

ffffffff81005b21 <isr_180>:
ffffffff81005b21:	55                   	push   %rbp
ffffffff81005b22:	48 89 e5             	mov    %rsp,%rbp
ffffffff81005b25:	41 53                	push   %r11
ffffffff81005b27:	41 52                	push   %r10
ffffffff81005b29:	41 51                	push   %r9
ffffffff81005b2b:	41 50                	push   %r8
ffffffff81005b2d:	57                   	push   %rdi
ffffffff81005b2e:	56                   	push   %rsi
ffffffff81005b2f:	51                   	push   %rcx
ffffffff81005b30:	52                   	push   %rdx
ffffffff81005b31:	50                   	push   %rax
ffffffff81005b32:	fc                   	cld    
ffffffff81005b33:	bf b4 00 00 00       	mov    $0xb4,%edi
ffffffff81005b38:	be 00 00 00 00       	mov    $0x0,%esi
ffffffff81005b3d:	e8 7b da ff ff       	callq  ffffffff810035bd <isr_dispatcher>
ffffffff81005b42:	58                   	pop    %rax
ffffffff81005b43:	5a                   	pop    %rdx
ffffffff81005b44:	59                   	pop    %rcx
ffffffff81005b45:	5e                   	pop    %rsi
ffffffff81005b46:	5f                   	pop    %rdi
ffffffff81005b47:	41 58                	pop    %r8
ffffffff81005b49:	41 59                	pop    %r9
ffffffff81005b4b:	41 5a                	pop    %r10
ffffffff81005b4d:	41 5b                	pop    %r11
ffffffff81005b4f:	5d                   	pop    %rbp
ffffffff81005b50:	48 cf                	iretq  

ffffffff81005b52 <isr_181>:
ffffffff81005b52:	55                   	push   %rbp
ffffffff81005b53:	48 89 e5             	mov    %rsp,%rbp
ffffffff81005b56:	41 53                	push   %r11
ffffffff81005b58:	41 52                	push   %r10
ffffffff81005b5a:	41 51                	push   %r9
ffffffff81005b5c:	41 50                	push   %r8
ffffffff81005b5e:	57                   	push   %rdi
ffffffff81005b5f:	56                   	push   %rsi
ffffffff81005b60:	51                   	push   %rcx
ffffffff81005b61:	52                   	push   %rdx
ffffffff81005b62:	50                   	push   %rax
ffffffff81005b63:	fc                   	cld    
ffffffff81005b64:	bf b5 00 00 00       	mov    $0xb5,%edi
ffffffff81005b69:	be 00 00 00 00       	mov    $0x0,%esi
ffffffff81005b6e:	e8 4a da ff ff       	callq  ffffffff810035bd <isr_dispatcher>
ffffffff81005b73:	58                   	pop    %rax
ffffffff81005b74:	5a                   	pop    %rdx
ffffffff81005b75:	59                   	pop    %rcx
ffffffff81005b76:	5e                   	pop    %rsi
ffffffff81005b77:	5f                   	pop    %rdi
ffffffff81005b78:	41 58                	pop    %r8
ffffffff81005b7a:	41 59                	pop    %r9
ffffffff81005b7c:	41 5a                	pop    %r10
ffffffff81005b7e:	41 5b                	pop    %r11
ffffffff81005b80:	5d                   	pop    %rbp
ffffffff81005b81:	48 cf                	iretq  

ffffffff81005b83 <isr_182>:
ffffffff81005b83:	55                   	push   %rbp
ffffffff81005b84:	48 89 e5             	mov    %rsp,%rbp
ffffffff81005b87:	41 53                	push   %r11
ffffffff81005b89:	41 52                	push   %r10
ffffffff81005b8b:	41 51                	push   %r9
ffffffff81005b8d:	41 50                	push   %r8
ffffffff81005b8f:	57                   	push   %rdi
ffffffff81005b90:	56                   	push   %rsi
ffffffff81005b91:	51                   	push   %rcx
ffffffff81005b92:	52                   	push   %rdx
ffffffff81005b93:	50                   	push   %rax
ffffffff81005b94:	fc                   	cld    
ffffffff81005b95:	bf b6 00 00 00       	mov    $0xb6,%edi
ffffffff81005b9a:	be 00 00 00 00       	mov    $0x0,%esi
ffffffff81005b9f:	e8 19 da ff ff       	callq  ffffffff810035bd <isr_dispatcher>
ffffffff81005ba4:	58                   	pop    %rax
ffffffff81005ba5:	5a                   	pop    %rdx
ffffffff81005ba6:	59                   	pop    %rcx
ffffffff81005ba7:	5e                   	pop    %rsi
ffffffff81005ba8:	5f                   	pop    %rdi
ffffffff81005ba9:	41 58                	pop    %r8
ffffffff81005bab:	41 59                	pop    %r9
ffffffff81005bad:	41 5a                	pop    %r10
ffffffff81005baf:	41 5b                	pop    %r11
ffffffff81005bb1:	5d                   	pop    %rbp
ffffffff81005bb2:	48 cf                	iretq  

ffffffff81005bb4 <isr_183>:
ffffffff81005bb4:	55                   	push   %rbp
ffffffff81005bb5:	48 89 e5             	mov    %rsp,%rbp
ffffffff81005bb8:	41 53                	push   %r11
ffffffff81005bba:	41 52                	push   %r10
ffffffff81005bbc:	41 51                	push   %r9
ffffffff81005bbe:	41 50                	push   %r8
ffffffff81005bc0:	57                   	push   %rdi
ffffffff81005bc1:	56                   	push   %rsi
ffffffff81005bc2:	51                   	push   %rcx
ffffffff81005bc3:	52                   	push   %rdx
ffffffff81005bc4:	50                   	push   %rax
ffffffff81005bc5:	fc                   	cld    
ffffffff81005bc6:	bf b7 00 00 00       	mov    $0xb7,%edi
ffffffff81005bcb:	be 00 00 00 00       	mov    $0x0,%esi
ffffffff81005bd0:	e8 e8 d9 ff ff       	callq  ffffffff810035bd <isr_dispatcher>
ffffffff81005bd5:	58                   	pop    %rax
ffffffff81005bd6:	5a                   	pop    %rdx
ffffffff81005bd7:	59                   	pop    %rcx
ffffffff81005bd8:	5e                   	pop    %rsi
ffffffff81005bd9:	5f                   	pop    %rdi
ffffffff81005bda:	41 58                	pop    %r8
ffffffff81005bdc:	41 59                	pop    %r9
ffffffff81005bde:	41 5a                	pop    %r10
ffffffff81005be0:	41 5b                	pop    %r11
ffffffff81005be2:	5d                   	pop    %rbp
ffffffff81005be3:	48 cf                	iretq  

ffffffff81005be5 <isr_184>:
ffffffff81005be5:	55                   	push   %rbp
ffffffff81005be6:	48 89 e5             	mov    %rsp,%rbp
ffffffff81005be9:	41 53                	push   %r11
ffffffff81005beb:	41 52                	push   %r10
ffffffff81005bed:	41 51                	push   %r9
ffffffff81005bef:	41 50                	push   %r8
ffffffff81005bf1:	57                   	push   %rdi
ffffffff81005bf2:	56                   	push   %rsi
ffffffff81005bf3:	51                   	push   %rcx
ffffffff81005bf4:	52                   	push   %rdx
ffffffff81005bf5:	50                   	push   %rax
ffffffff81005bf6:	fc                   	cld    
ffffffff81005bf7:	bf b8 00 00 00       	mov    $0xb8,%edi
ffffffff81005bfc:	be 00 00 00 00       	mov    $0x0,%esi
ffffffff81005c01:	e8 b7 d9 ff ff       	callq  ffffffff810035bd <isr_dispatcher>
ffffffff81005c06:	58                   	pop    %rax
ffffffff81005c07:	5a                   	pop    %rdx
ffffffff81005c08:	59                   	pop    %rcx
ffffffff81005c09:	5e                   	pop    %rsi
ffffffff81005c0a:	5f                   	pop    %rdi
ffffffff81005c0b:	41 58                	pop    %r8
ffffffff81005c0d:	41 59                	pop    %r9
ffffffff81005c0f:	41 5a                	pop    %r10
ffffffff81005c11:	41 5b                	pop    %r11
ffffffff81005c13:	5d                   	pop    %rbp
ffffffff81005c14:	48 cf                	iretq  

ffffffff81005c16 <isr_185>:
ffffffff81005c16:	55                   	push   %rbp
ffffffff81005c17:	48 89 e5             	mov    %rsp,%rbp
ffffffff81005c1a:	41 53                	push   %r11
ffffffff81005c1c:	41 52                	push   %r10
ffffffff81005c1e:	41 51                	push   %r9
ffffffff81005c20:	41 50                	push   %r8
ffffffff81005c22:	57                   	push   %rdi
ffffffff81005c23:	56                   	push   %rsi
ffffffff81005c24:	51                   	push   %rcx
ffffffff81005c25:	52                   	push   %rdx
ffffffff81005c26:	50                   	push   %rax
ffffffff81005c27:	fc                   	cld    
ffffffff81005c28:	bf b9 00 00 00       	mov    $0xb9,%edi
ffffffff81005c2d:	be 00 00 00 00       	mov    $0x0,%esi
ffffffff81005c32:	e8 86 d9 ff ff       	callq  ffffffff810035bd <isr_dispatcher>
ffffffff81005c37:	58                   	pop    %rax
ffffffff81005c38:	5a                   	pop    %rdx
ffffffff81005c39:	59                   	pop    %rcx
ffffffff81005c3a:	5e                   	pop    %rsi
ffffffff81005c3b:	5f                   	pop    %rdi
ffffffff81005c3c:	41 58                	pop    %r8
ffffffff81005c3e:	41 59                	pop    %r9
ffffffff81005c40:	41 5a                	pop    %r10
ffffffff81005c42:	41 5b                	pop    %r11
ffffffff81005c44:	5d                   	pop    %rbp
ffffffff81005c45:	48 cf                	iretq  

ffffffff81005c47 <isr_186>:
ffffffff81005c47:	55                   	push   %rbp
ffffffff81005c48:	48 89 e5             	mov    %rsp,%rbp
ffffffff81005c4b:	41 53                	push   %r11
ffffffff81005c4d:	41 52                	push   %r10
ffffffff81005c4f:	41 51                	push   %r9
ffffffff81005c51:	41 50                	push   %r8
ffffffff81005c53:	57                   	push   %rdi
ffffffff81005c54:	56                   	push   %rsi
ffffffff81005c55:	51                   	push   %rcx
ffffffff81005c56:	52                   	push   %rdx
ffffffff81005c57:	50                   	push   %rax
ffffffff81005c58:	fc                   	cld    
ffffffff81005c59:	bf ba 00 00 00       	mov    $0xba,%edi
ffffffff81005c5e:	be 00 00 00 00       	mov    $0x0,%esi
ffffffff81005c63:	e8 55 d9 ff ff       	callq  ffffffff810035bd <isr_dispatcher>
ffffffff81005c68:	58                   	pop    %rax
ffffffff81005c69:	5a                   	pop    %rdx
ffffffff81005c6a:	59                   	pop    %rcx
ffffffff81005c6b:	5e                   	pop    %rsi
ffffffff81005c6c:	5f                   	pop    %rdi
ffffffff81005c6d:	41 58                	pop    %r8
ffffffff81005c6f:	41 59                	pop    %r9
ffffffff81005c71:	41 5a                	pop    %r10
ffffffff81005c73:	41 5b                	pop    %r11
ffffffff81005c75:	5d                   	pop    %rbp
ffffffff81005c76:	48 cf                	iretq  

ffffffff81005c78 <isr_187>:
ffffffff81005c78:	55                   	push   %rbp
ffffffff81005c79:	48 89 e5             	mov    %rsp,%rbp
ffffffff81005c7c:	41 53                	push   %r11
ffffffff81005c7e:	41 52                	push   %r10
ffffffff81005c80:	41 51                	push   %r9
ffffffff81005c82:	41 50                	push   %r8
ffffffff81005c84:	57                   	push   %rdi
ffffffff81005c85:	56                   	push   %rsi
ffffffff81005c86:	51                   	push   %rcx
ffffffff81005c87:	52                   	push   %rdx
ffffffff81005c88:	50                   	push   %rax
ffffffff81005c89:	fc                   	cld    
ffffffff81005c8a:	bf bb 00 00 00       	mov    $0xbb,%edi
ffffffff81005c8f:	be 00 00 00 00       	mov    $0x0,%esi
ffffffff81005c94:	e8 24 d9 ff ff       	callq  ffffffff810035bd <isr_dispatcher>
ffffffff81005c99:	58                   	pop    %rax
ffffffff81005c9a:	5a                   	pop    %rdx
ffffffff81005c9b:	59                   	pop    %rcx
ffffffff81005c9c:	5e                   	pop    %rsi
ffffffff81005c9d:	5f                   	pop    %rdi
ffffffff81005c9e:	41 58                	pop    %r8
ffffffff81005ca0:	41 59                	pop    %r9
ffffffff81005ca2:	41 5a                	pop    %r10
ffffffff81005ca4:	41 5b                	pop    %r11
ffffffff81005ca6:	5d                   	pop    %rbp
ffffffff81005ca7:	48 cf                	iretq  

ffffffff81005ca9 <isr_188>:
ffffffff81005ca9:	55                   	push   %rbp
ffffffff81005caa:	48 89 e5             	mov    %rsp,%rbp
ffffffff81005cad:	41 53                	push   %r11
ffffffff81005caf:	41 52                	push   %r10
ffffffff81005cb1:	41 51                	push   %r9
ffffffff81005cb3:	41 50                	push   %r8
ffffffff81005cb5:	57                   	push   %rdi
ffffffff81005cb6:	56                   	push   %rsi
ffffffff81005cb7:	51                   	push   %rcx
ffffffff81005cb8:	52                   	push   %rdx
ffffffff81005cb9:	50                   	push   %rax
ffffffff81005cba:	fc                   	cld    
ffffffff81005cbb:	bf bc 00 00 00       	mov    $0xbc,%edi
ffffffff81005cc0:	be 00 00 00 00       	mov    $0x0,%esi
ffffffff81005cc5:	e8 f3 d8 ff ff       	callq  ffffffff810035bd <isr_dispatcher>
ffffffff81005cca:	58                   	pop    %rax
ffffffff81005ccb:	5a                   	pop    %rdx
ffffffff81005ccc:	59                   	pop    %rcx
ffffffff81005ccd:	5e                   	pop    %rsi
ffffffff81005cce:	5f                   	pop    %rdi
ffffffff81005ccf:	41 58                	pop    %r8
ffffffff81005cd1:	41 59                	pop    %r9
ffffffff81005cd3:	41 5a                	pop    %r10
ffffffff81005cd5:	41 5b                	pop    %r11
ffffffff81005cd7:	5d                   	pop    %rbp
ffffffff81005cd8:	48 cf                	iretq  

ffffffff81005cda <isr_189>:
ffffffff81005cda:	55                   	push   %rbp
ffffffff81005cdb:	48 89 e5             	mov    %rsp,%rbp
ffffffff81005cde:	41 53                	push   %r11
ffffffff81005ce0:	41 52                	push   %r10
ffffffff81005ce2:	41 51                	push   %r9
ffffffff81005ce4:	41 50                	push   %r8
ffffffff81005ce6:	57                   	push   %rdi
ffffffff81005ce7:	56                   	push   %rsi
ffffffff81005ce8:	51                   	push   %rcx
ffffffff81005ce9:	52                   	push   %rdx
ffffffff81005cea:	50                   	push   %rax
ffffffff81005ceb:	fc                   	cld    
ffffffff81005cec:	bf bd 00 00 00       	mov    $0xbd,%edi
ffffffff81005cf1:	be 00 00 00 00       	mov    $0x0,%esi
ffffffff81005cf6:	e8 c2 d8 ff ff       	callq  ffffffff810035bd <isr_dispatcher>
ffffffff81005cfb:	58                   	pop    %rax
ffffffff81005cfc:	5a                   	pop    %rdx
ffffffff81005cfd:	59                   	pop    %rcx
ffffffff81005cfe:	5e                   	pop    %rsi
ffffffff81005cff:	5f                   	pop    %rdi
ffffffff81005d00:	41 58                	pop    %r8
ffffffff81005d02:	41 59                	pop    %r9
ffffffff81005d04:	41 5a                	pop    %r10
ffffffff81005d06:	41 5b                	pop    %r11
ffffffff81005d08:	5d                   	pop    %rbp
ffffffff81005d09:	48 cf                	iretq  

ffffffff81005d0b <isr_190>:
ffffffff81005d0b:	55                   	push   %rbp
ffffffff81005d0c:	48 89 e5             	mov    %rsp,%rbp
ffffffff81005d0f:	41 53                	push   %r11
ffffffff81005d11:	41 52                	push   %r10
ffffffff81005d13:	41 51                	push   %r9
ffffffff81005d15:	41 50                	push   %r8
ffffffff81005d17:	57                   	push   %rdi
ffffffff81005d18:	56                   	push   %rsi
ffffffff81005d19:	51                   	push   %rcx
ffffffff81005d1a:	52                   	push   %rdx
ffffffff81005d1b:	50                   	push   %rax
ffffffff81005d1c:	fc                   	cld    
ffffffff81005d1d:	bf be 00 00 00       	mov    $0xbe,%edi
ffffffff81005d22:	be 00 00 00 00       	mov    $0x0,%esi
ffffffff81005d27:	e8 91 d8 ff ff       	callq  ffffffff810035bd <isr_dispatcher>
ffffffff81005d2c:	58                   	pop    %rax
ffffffff81005d2d:	5a                   	pop    %rdx
ffffffff81005d2e:	59                   	pop    %rcx
ffffffff81005d2f:	5e                   	pop    %rsi
ffffffff81005d30:	5f                   	pop    %rdi
ffffffff81005d31:	41 58                	pop    %r8
ffffffff81005d33:	41 59                	pop    %r9
ffffffff81005d35:	41 5a                	pop    %r10
ffffffff81005d37:	41 5b                	pop    %r11
ffffffff81005d39:	5d                   	pop    %rbp
ffffffff81005d3a:	48 cf                	iretq  

ffffffff81005d3c <isr_191>:
ffffffff81005d3c:	55                   	push   %rbp
ffffffff81005d3d:	48 89 e5             	mov    %rsp,%rbp
ffffffff81005d40:	41 53                	push   %r11
ffffffff81005d42:	41 52                	push   %r10
ffffffff81005d44:	41 51                	push   %r9
ffffffff81005d46:	41 50                	push   %r8
ffffffff81005d48:	57                   	push   %rdi
ffffffff81005d49:	56                   	push   %rsi
ffffffff81005d4a:	51                   	push   %rcx
ffffffff81005d4b:	52                   	push   %rdx
ffffffff81005d4c:	50                   	push   %rax
ffffffff81005d4d:	fc                   	cld    
ffffffff81005d4e:	bf bf 00 00 00       	mov    $0xbf,%edi
ffffffff81005d53:	be 00 00 00 00       	mov    $0x0,%esi
ffffffff81005d58:	e8 60 d8 ff ff       	callq  ffffffff810035bd <isr_dispatcher>
ffffffff81005d5d:	58                   	pop    %rax
ffffffff81005d5e:	5a                   	pop    %rdx
ffffffff81005d5f:	59                   	pop    %rcx
ffffffff81005d60:	5e                   	pop    %rsi
ffffffff81005d61:	5f                   	pop    %rdi
ffffffff81005d62:	41 58                	pop    %r8
ffffffff81005d64:	41 59                	pop    %r9
ffffffff81005d66:	41 5a                	pop    %r10
ffffffff81005d68:	41 5b                	pop    %r11
ffffffff81005d6a:	5d                   	pop    %rbp
ffffffff81005d6b:	48 cf                	iretq  

ffffffff81005d6d <isr_192>:
ffffffff81005d6d:	55                   	push   %rbp
ffffffff81005d6e:	48 89 e5             	mov    %rsp,%rbp
ffffffff81005d71:	41 53                	push   %r11
ffffffff81005d73:	41 52                	push   %r10
ffffffff81005d75:	41 51                	push   %r9
ffffffff81005d77:	41 50                	push   %r8
ffffffff81005d79:	57                   	push   %rdi
ffffffff81005d7a:	56                   	push   %rsi
ffffffff81005d7b:	51                   	push   %rcx
ffffffff81005d7c:	52                   	push   %rdx
ffffffff81005d7d:	50                   	push   %rax
ffffffff81005d7e:	fc                   	cld    
ffffffff81005d7f:	bf c0 00 00 00       	mov    $0xc0,%edi
ffffffff81005d84:	be 00 00 00 00       	mov    $0x0,%esi
ffffffff81005d89:	e8 2f d8 ff ff       	callq  ffffffff810035bd <isr_dispatcher>
ffffffff81005d8e:	58                   	pop    %rax
ffffffff81005d8f:	5a                   	pop    %rdx
ffffffff81005d90:	59                   	pop    %rcx
ffffffff81005d91:	5e                   	pop    %rsi
ffffffff81005d92:	5f                   	pop    %rdi
ffffffff81005d93:	41 58                	pop    %r8
ffffffff81005d95:	41 59                	pop    %r9
ffffffff81005d97:	41 5a                	pop    %r10
ffffffff81005d99:	41 5b                	pop    %r11
ffffffff81005d9b:	5d                   	pop    %rbp
ffffffff81005d9c:	48 cf                	iretq  

ffffffff81005d9e <isr_193>:
ffffffff81005d9e:	55                   	push   %rbp
ffffffff81005d9f:	48 89 e5             	mov    %rsp,%rbp
ffffffff81005da2:	41 53                	push   %r11
ffffffff81005da4:	41 52                	push   %r10
ffffffff81005da6:	41 51                	push   %r9
ffffffff81005da8:	41 50                	push   %r8
ffffffff81005daa:	57                   	push   %rdi
ffffffff81005dab:	56                   	push   %rsi
ffffffff81005dac:	51                   	push   %rcx
ffffffff81005dad:	52                   	push   %rdx
ffffffff81005dae:	50                   	push   %rax
ffffffff81005daf:	fc                   	cld    
ffffffff81005db0:	bf c1 00 00 00       	mov    $0xc1,%edi
ffffffff81005db5:	be 00 00 00 00       	mov    $0x0,%esi
ffffffff81005dba:	e8 fe d7 ff ff       	callq  ffffffff810035bd <isr_dispatcher>
ffffffff81005dbf:	58                   	pop    %rax
ffffffff81005dc0:	5a                   	pop    %rdx
ffffffff81005dc1:	59                   	pop    %rcx
ffffffff81005dc2:	5e                   	pop    %rsi
ffffffff81005dc3:	5f                   	pop    %rdi
ffffffff81005dc4:	41 58                	pop    %r8
ffffffff81005dc6:	41 59                	pop    %r9
ffffffff81005dc8:	41 5a                	pop    %r10
ffffffff81005dca:	41 5b                	pop    %r11
ffffffff81005dcc:	5d                   	pop    %rbp
ffffffff81005dcd:	48 cf                	iretq  

ffffffff81005dcf <isr_194>:
ffffffff81005dcf:	55                   	push   %rbp
ffffffff81005dd0:	48 89 e5             	mov    %rsp,%rbp
ffffffff81005dd3:	41 53                	push   %r11
ffffffff81005dd5:	41 52                	push   %r10
ffffffff81005dd7:	41 51                	push   %r9
ffffffff81005dd9:	41 50                	push   %r8
ffffffff81005ddb:	57                   	push   %rdi
ffffffff81005ddc:	56                   	push   %rsi
ffffffff81005ddd:	51                   	push   %rcx
ffffffff81005dde:	52                   	push   %rdx
ffffffff81005ddf:	50                   	push   %rax
ffffffff81005de0:	fc                   	cld    
ffffffff81005de1:	bf c2 00 00 00       	mov    $0xc2,%edi
ffffffff81005de6:	be 00 00 00 00       	mov    $0x0,%esi
ffffffff81005deb:	e8 cd d7 ff ff       	callq  ffffffff810035bd <isr_dispatcher>
ffffffff81005df0:	58                   	pop    %rax
ffffffff81005df1:	5a                   	pop    %rdx
ffffffff81005df2:	59                   	pop    %rcx
ffffffff81005df3:	5e                   	pop    %rsi
ffffffff81005df4:	5f                   	pop    %rdi
ffffffff81005df5:	41 58                	pop    %r8
ffffffff81005df7:	41 59                	pop    %r9
ffffffff81005df9:	41 5a                	pop    %r10
ffffffff81005dfb:	41 5b                	pop    %r11
ffffffff81005dfd:	5d                   	pop    %rbp
ffffffff81005dfe:	48 cf                	iretq  

ffffffff81005e00 <isr_195>:
ffffffff81005e00:	55                   	push   %rbp
ffffffff81005e01:	48 89 e5             	mov    %rsp,%rbp
ffffffff81005e04:	41 53                	push   %r11
ffffffff81005e06:	41 52                	push   %r10
ffffffff81005e08:	41 51                	push   %r9
ffffffff81005e0a:	41 50                	push   %r8
ffffffff81005e0c:	57                   	push   %rdi
ffffffff81005e0d:	56                   	push   %rsi
ffffffff81005e0e:	51                   	push   %rcx
ffffffff81005e0f:	52                   	push   %rdx
ffffffff81005e10:	50                   	push   %rax
ffffffff81005e11:	fc                   	cld    
ffffffff81005e12:	bf c3 00 00 00       	mov    $0xc3,%edi
ffffffff81005e17:	be 00 00 00 00       	mov    $0x0,%esi
ffffffff81005e1c:	e8 9c d7 ff ff       	callq  ffffffff810035bd <isr_dispatcher>
ffffffff81005e21:	58                   	pop    %rax
ffffffff81005e22:	5a                   	pop    %rdx
ffffffff81005e23:	59                   	pop    %rcx
ffffffff81005e24:	5e                   	pop    %rsi
ffffffff81005e25:	5f                   	pop    %rdi
ffffffff81005e26:	41 58                	pop    %r8
ffffffff81005e28:	41 59                	pop    %r9
ffffffff81005e2a:	41 5a                	pop    %r10
ffffffff81005e2c:	41 5b                	pop    %r11
ffffffff81005e2e:	5d                   	pop    %rbp
ffffffff81005e2f:	48 cf                	iretq  

ffffffff81005e31 <isr_196>:
ffffffff81005e31:	55                   	push   %rbp
ffffffff81005e32:	48 89 e5             	mov    %rsp,%rbp
ffffffff81005e35:	41 53                	push   %r11
ffffffff81005e37:	41 52                	push   %r10
ffffffff81005e39:	41 51                	push   %r9
ffffffff81005e3b:	41 50                	push   %r8
ffffffff81005e3d:	57                   	push   %rdi
ffffffff81005e3e:	56                   	push   %rsi
ffffffff81005e3f:	51                   	push   %rcx
ffffffff81005e40:	52                   	push   %rdx
ffffffff81005e41:	50                   	push   %rax
ffffffff81005e42:	fc                   	cld    
ffffffff81005e43:	bf c4 00 00 00       	mov    $0xc4,%edi
ffffffff81005e48:	be 00 00 00 00       	mov    $0x0,%esi
ffffffff81005e4d:	e8 6b d7 ff ff       	callq  ffffffff810035bd <isr_dispatcher>
ffffffff81005e52:	58                   	pop    %rax
ffffffff81005e53:	5a                   	pop    %rdx
ffffffff81005e54:	59                   	pop    %rcx
ffffffff81005e55:	5e                   	pop    %rsi
ffffffff81005e56:	5f                   	pop    %rdi
ffffffff81005e57:	41 58                	pop    %r8
ffffffff81005e59:	41 59                	pop    %r9
ffffffff81005e5b:	41 5a                	pop    %r10
ffffffff81005e5d:	41 5b                	pop    %r11
ffffffff81005e5f:	5d                   	pop    %rbp
ffffffff81005e60:	48 cf                	iretq  

ffffffff81005e62 <isr_197>:
ffffffff81005e62:	55                   	push   %rbp
ffffffff81005e63:	48 89 e5             	mov    %rsp,%rbp
ffffffff81005e66:	41 53                	push   %r11
ffffffff81005e68:	41 52                	push   %r10
ffffffff81005e6a:	41 51                	push   %r9
ffffffff81005e6c:	41 50                	push   %r8
ffffffff81005e6e:	57                   	push   %rdi
ffffffff81005e6f:	56                   	push   %rsi
ffffffff81005e70:	51                   	push   %rcx
ffffffff81005e71:	52                   	push   %rdx
ffffffff81005e72:	50                   	push   %rax
ffffffff81005e73:	fc                   	cld    
ffffffff81005e74:	bf c5 00 00 00       	mov    $0xc5,%edi
ffffffff81005e79:	be 00 00 00 00       	mov    $0x0,%esi
ffffffff81005e7e:	e8 3a d7 ff ff       	callq  ffffffff810035bd <isr_dispatcher>
ffffffff81005e83:	58                   	pop    %rax
ffffffff81005e84:	5a                   	pop    %rdx
ffffffff81005e85:	59                   	pop    %rcx
ffffffff81005e86:	5e                   	pop    %rsi
ffffffff81005e87:	5f                   	pop    %rdi
ffffffff81005e88:	41 58                	pop    %r8
ffffffff81005e8a:	41 59                	pop    %r9
ffffffff81005e8c:	41 5a                	pop    %r10
ffffffff81005e8e:	41 5b                	pop    %r11
ffffffff81005e90:	5d                   	pop    %rbp
ffffffff81005e91:	48 cf                	iretq  

ffffffff81005e93 <isr_198>:
ffffffff81005e93:	55                   	push   %rbp
ffffffff81005e94:	48 89 e5             	mov    %rsp,%rbp
ffffffff81005e97:	41 53                	push   %r11
ffffffff81005e99:	41 52                	push   %r10
ffffffff81005e9b:	41 51                	push   %r9
ffffffff81005e9d:	41 50                	push   %r8
ffffffff81005e9f:	57                   	push   %rdi
ffffffff81005ea0:	56                   	push   %rsi
ffffffff81005ea1:	51                   	push   %rcx
ffffffff81005ea2:	52                   	push   %rdx
ffffffff81005ea3:	50                   	push   %rax
ffffffff81005ea4:	fc                   	cld    
ffffffff81005ea5:	bf c6 00 00 00       	mov    $0xc6,%edi
ffffffff81005eaa:	be 00 00 00 00       	mov    $0x0,%esi
ffffffff81005eaf:	e8 09 d7 ff ff       	callq  ffffffff810035bd <isr_dispatcher>
ffffffff81005eb4:	58                   	pop    %rax
ffffffff81005eb5:	5a                   	pop    %rdx
ffffffff81005eb6:	59                   	pop    %rcx
ffffffff81005eb7:	5e                   	pop    %rsi
ffffffff81005eb8:	5f                   	pop    %rdi
ffffffff81005eb9:	41 58                	pop    %r8
ffffffff81005ebb:	41 59                	pop    %r9
ffffffff81005ebd:	41 5a                	pop    %r10
ffffffff81005ebf:	41 5b                	pop    %r11
ffffffff81005ec1:	5d                   	pop    %rbp
ffffffff81005ec2:	48 cf                	iretq  

ffffffff81005ec4 <isr_199>:
ffffffff81005ec4:	55                   	push   %rbp
ffffffff81005ec5:	48 89 e5             	mov    %rsp,%rbp
ffffffff81005ec8:	41 53                	push   %r11
ffffffff81005eca:	41 52                	push   %r10
ffffffff81005ecc:	41 51                	push   %r9
ffffffff81005ece:	41 50                	push   %r8
ffffffff81005ed0:	57                   	push   %rdi
ffffffff81005ed1:	56                   	push   %rsi
ffffffff81005ed2:	51                   	push   %rcx
ffffffff81005ed3:	52                   	push   %rdx
ffffffff81005ed4:	50                   	push   %rax
ffffffff81005ed5:	fc                   	cld    
ffffffff81005ed6:	bf c7 00 00 00       	mov    $0xc7,%edi
ffffffff81005edb:	be 00 00 00 00       	mov    $0x0,%esi
ffffffff81005ee0:	e8 d8 d6 ff ff       	callq  ffffffff810035bd <isr_dispatcher>
ffffffff81005ee5:	58                   	pop    %rax
ffffffff81005ee6:	5a                   	pop    %rdx
ffffffff81005ee7:	59                   	pop    %rcx
ffffffff81005ee8:	5e                   	pop    %rsi
ffffffff81005ee9:	5f                   	pop    %rdi
ffffffff81005eea:	41 58                	pop    %r8
ffffffff81005eec:	41 59                	pop    %r9
ffffffff81005eee:	41 5a                	pop    %r10
ffffffff81005ef0:	41 5b                	pop    %r11
ffffffff81005ef2:	5d                   	pop    %rbp
ffffffff81005ef3:	48 cf                	iretq  

ffffffff81005ef5 <isr_200>:
ffffffff81005ef5:	55                   	push   %rbp
ffffffff81005ef6:	48 89 e5             	mov    %rsp,%rbp
ffffffff81005ef9:	41 53                	push   %r11
ffffffff81005efb:	41 52                	push   %r10
ffffffff81005efd:	41 51                	push   %r9
ffffffff81005eff:	41 50                	push   %r8
ffffffff81005f01:	57                   	push   %rdi
ffffffff81005f02:	56                   	push   %rsi
ffffffff81005f03:	51                   	push   %rcx
ffffffff81005f04:	52                   	push   %rdx
ffffffff81005f05:	50                   	push   %rax
ffffffff81005f06:	fc                   	cld    
ffffffff81005f07:	bf c8 00 00 00       	mov    $0xc8,%edi
ffffffff81005f0c:	be 00 00 00 00       	mov    $0x0,%esi
ffffffff81005f11:	e8 a7 d6 ff ff       	callq  ffffffff810035bd <isr_dispatcher>
ffffffff81005f16:	58                   	pop    %rax
ffffffff81005f17:	5a                   	pop    %rdx
ffffffff81005f18:	59                   	pop    %rcx
ffffffff81005f19:	5e                   	pop    %rsi
ffffffff81005f1a:	5f                   	pop    %rdi
ffffffff81005f1b:	41 58                	pop    %r8
ffffffff81005f1d:	41 59                	pop    %r9
ffffffff81005f1f:	41 5a                	pop    %r10
ffffffff81005f21:	41 5b                	pop    %r11
ffffffff81005f23:	5d                   	pop    %rbp
ffffffff81005f24:	48 cf                	iretq  

ffffffff81005f26 <isr_201>:
ffffffff81005f26:	55                   	push   %rbp
ffffffff81005f27:	48 89 e5             	mov    %rsp,%rbp
ffffffff81005f2a:	41 53                	push   %r11
ffffffff81005f2c:	41 52                	push   %r10
ffffffff81005f2e:	41 51                	push   %r9
ffffffff81005f30:	41 50                	push   %r8
ffffffff81005f32:	57                   	push   %rdi
ffffffff81005f33:	56                   	push   %rsi
ffffffff81005f34:	51                   	push   %rcx
ffffffff81005f35:	52                   	push   %rdx
ffffffff81005f36:	50                   	push   %rax
ffffffff81005f37:	fc                   	cld    
ffffffff81005f38:	bf c9 00 00 00       	mov    $0xc9,%edi
ffffffff81005f3d:	be 00 00 00 00       	mov    $0x0,%esi
ffffffff81005f42:	e8 76 d6 ff ff       	callq  ffffffff810035bd <isr_dispatcher>
ffffffff81005f47:	58                   	pop    %rax
ffffffff81005f48:	5a                   	pop    %rdx
ffffffff81005f49:	59                   	pop    %rcx
ffffffff81005f4a:	5e                   	pop    %rsi
ffffffff81005f4b:	5f                   	pop    %rdi
ffffffff81005f4c:	41 58                	pop    %r8
ffffffff81005f4e:	41 59                	pop    %r9
ffffffff81005f50:	41 5a                	pop    %r10
ffffffff81005f52:	41 5b                	pop    %r11
ffffffff81005f54:	5d                   	pop    %rbp
ffffffff81005f55:	48 cf                	iretq  

ffffffff81005f57 <isr_202>:
ffffffff81005f57:	55                   	push   %rbp
ffffffff81005f58:	48 89 e5             	mov    %rsp,%rbp
ffffffff81005f5b:	41 53                	push   %r11
ffffffff81005f5d:	41 52                	push   %r10
ffffffff81005f5f:	41 51                	push   %r9
ffffffff81005f61:	41 50                	push   %r8
ffffffff81005f63:	57                   	push   %rdi
ffffffff81005f64:	56                   	push   %rsi
ffffffff81005f65:	51                   	push   %rcx
ffffffff81005f66:	52                   	push   %rdx
ffffffff81005f67:	50                   	push   %rax
ffffffff81005f68:	fc                   	cld    
ffffffff81005f69:	bf ca 00 00 00       	mov    $0xca,%edi
ffffffff81005f6e:	be 00 00 00 00       	mov    $0x0,%esi
ffffffff81005f73:	e8 45 d6 ff ff       	callq  ffffffff810035bd <isr_dispatcher>
ffffffff81005f78:	58                   	pop    %rax
ffffffff81005f79:	5a                   	pop    %rdx
ffffffff81005f7a:	59                   	pop    %rcx
ffffffff81005f7b:	5e                   	pop    %rsi
ffffffff81005f7c:	5f                   	pop    %rdi
ffffffff81005f7d:	41 58                	pop    %r8
ffffffff81005f7f:	41 59                	pop    %r9
ffffffff81005f81:	41 5a                	pop    %r10
ffffffff81005f83:	41 5b                	pop    %r11
ffffffff81005f85:	5d                   	pop    %rbp
ffffffff81005f86:	48 cf                	iretq  

ffffffff81005f88 <isr_203>:
ffffffff81005f88:	55                   	push   %rbp
ffffffff81005f89:	48 89 e5             	mov    %rsp,%rbp
ffffffff81005f8c:	41 53                	push   %r11
ffffffff81005f8e:	41 52                	push   %r10
ffffffff81005f90:	41 51                	push   %r9
ffffffff81005f92:	41 50                	push   %r8
ffffffff81005f94:	57                   	push   %rdi
ffffffff81005f95:	56                   	push   %rsi
ffffffff81005f96:	51                   	push   %rcx
ffffffff81005f97:	52                   	push   %rdx
ffffffff81005f98:	50                   	push   %rax
ffffffff81005f99:	fc                   	cld    
ffffffff81005f9a:	bf cb 00 00 00       	mov    $0xcb,%edi
ffffffff81005f9f:	be 00 00 00 00       	mov    $0x0,%esi
ffffffff81005fa4:	e8 14 d6 ff ff       	callq  ffffffff810035bd <isr_dispatcher>
ffffffff81005fa9:	58                   	pop    %rax
ffffffff81005faa:	5a                   	pop    %rdx
ffffffff81005fab:	59                   	pop    %rcx
ffffffff81005fac:	5e                   	pop    %rsi
ffffffff81005fad:	5f                   	pop    %rdi
ffffffff81005fae:	41 58                	pop    %r8
ffffffff81005fb0:	41 59                	pop    %r9
ffffffff81005fb2:	41 5a                	pop    %r10
ffffffff81005fb4:	41 5b                	pop    %r11
ffffffff81005fb6:	5d                   	pop    %rbp
ffffffff81005fb7:	48 cf                	iretq  

ffffffff81005fb9 <isr_204>:
ffffffff81005fb9:	55                   	push   %rbp
ffffffff81005fba:	48 89 e5             	mov    %rsp,%rbp
ffffffff81005fbd:	41 53                	push   %r11
ffffffff81005fbf:	41 52                	push   %r10
ffffffff81005fc1:	41 51                	push   %r9
ffffffff81005fc3:	41 50                	push   %r8
ffffffff81005fc5:	57                   	push   %rdi
ffffffff81005fc6:	56                   	push   %rsi
ffffffff81005fc7:	51                   	push   %rcx
ffffffff81005fc8:	52                   	push   %rdx
ffffffff81005fc9:	50                   	push   %rax
ffffffff81005fca:	fc                   	cld    
ffffffff81005fcb:	bf cc 00 00 00       	mov    $0xcc,%edi
ffffffff81005fd0:	be 00 00 00 00       	mov    $0x0,%esi
ffffffff81005fd5:	e8 e3 d5 ff ff       	callq  ffffffff810035bd <isr_dispatcher>
ffffffff81005fda:	58                   	pop    %rax
ffffffff81005fdb:	5a                   	pop    %rdx
ffffffff81005fdc:	59                   	pop    %rcx
ffffffff81005fdd:	5e                   	pop    %rsi
ffffffff81005fde:	5f                   	pop    %rdi
ffffffff81005fdf:	41 58                	pop    %r8
ffffffff81005fe1:	41 59                	pop    %r9
ffffffff81005fe3:	41 5a                	pop    %r10
ffffffff81005fe5:	41 5b                	pop    %r11
ffffffff81005fe7:	5d                   	pop    %rbp
ffffffff81005fe8:	48 cf                	iretq  

ffffffff81005fea <isr_205>:
ffffffff81005fea:	55                   	push   %rbp
ffffffff81005feb:	48 89 e5             	mov    %rsp,%rbp
ffffffff81005fee:	41 53                	push   %r11
ffffffff81005ff0:	41 52                	push   %r10
ffffffff81005ff2:	41 51                	push   %r9
ffffffff81005ff4:	41 50                	push   %r8
ffffffff81005ff6:	57                   	push   %rdi
ffffffff81005ff7:	56                   	push   %rsi
ffffffff81005ff8:	51                   	push   %rcx
ffffffff81005ff9:	52                   	push   %rdx
ffffffff81005ffa:	50                   	push   %rax
ffffffff81005ffb:	fc                   	cld    
ffffffff81005ffc:	bf cd 00 00 00       	mov    $0xcd,%edi
ffffffff81006001:	be 00 00 00 00       	mov    $0x0,%esi
ffffffff81006006:	e8 b2 d5 ff ff       	callq  ffffffff810035bd <isr_dispatcher>
ffffffff8100600b:	58                   	pop    %rax
ffffffff8100600c:	5a                   	pop    %rdx
ffffffff8100600d:	59                   	pop    %rcx
ffffffff8100600e:	5e                   	pop    %rsi
ffffffff8100600f:	5f                   	pop    %rdi
ffffffff81006010:	41 58                	pop    %r8
ffffffff81006012:	41 59                	pop    %r9
ffffffff81006014:	41 5a                	pop    %r10
ffffffff81006016:	41 5b                	pop    %r11
ffffffff81006018:	5d                   	pop    %rbp
ffffffff81006019:	48 cf                	iretq  

ffffffff8100601b <isr_206>:
ffffffff8100601b:	55                   	push   %rbp
ffffffff8100601c:	48 89 e5             	mov    %rsp,%rbp
ffffffff8100601f:	41 53                	push   %r11
ffffffff81006021:	41 52                	push   %r10
ffffffff81006023:	41 51                	push   %r9
ffffffff81006025:	41 50                	push   %r8
ffffffff81006027:	57                   	push   %rdi
ffffffff81006028:	56                   	push   %rsi
ffffffff81006029:	51                   	push   %rcx
ffffffff8100602a:	52                   	push   %rdx
ffffffff8100602b:	50                   	push   %rax
ffffffff8100602c:	fc                   	cld    
ffffffff8100602d:	bf ce 00 00 00       	mov    $0xce,%edi
ffffffff81006032:	be 00 00 00 00       	mov    $0x0,%esi
ffffffff81006037:	e8 81 d5 ff ff       	callq  ffffffff810035bd <isr_dispatcher>
ffffffff8100603c:	58                   	pop    %rax
ffffffff8100603d:	5a                   	pop    %rdx
ffffffff8100603e:	59                   	pop    %rcx
ffffffff8100603f:	5e                   	pop    %rsi
ffffffff81006040:	5f                   	pop    %rdi
ffffffff81006041:	41 58                	pop    %r8
ffffffff81006043:	41 59                	pop    %r9
ffffffff81006045:	41 5a                	pop    %r10
ffffffff81006047:	41 5b                	pop    %r11
ffffffff81006049:	5d                   	pop    %rbp
ffffffff8100604a:	48 cf                	iretq  

ffffffff8100604c <isr_207>:
ffffffff8100604c:	55                   	push   %rbp
ffffffff8100604d:	48 89 e5             	mov    %rsp,%rbp
ffffffff81006050:	41 53                	push   %r11
ffffffff81006052:	41 52                	push   %r10
ffffffff81006054:	41 51                	push   %r9
ffffffff81006056:	41 50                	push   %r8
ffffffff81006058:	57                   	push   %rdi
ffffffff81006059:	56                   	push   %rsi
ffffffff8100605a:	51                   	push   %rcx
ffffffff8100605b:	52                   	push   %rdx
ffffffff8100605c:	50                   	push   %rax
ffffffff8100605d:	fc                   	cld    
ffffffff8100605e:	bf cf 00 00 00       	mov    $0xcf,%edi
ffffffff81006063:	be 00 00 00 00       	mov    $0x0,%esi
ffffffff81006068:	e8 50 d5 ff ff       	callq  ffffffff810035bd <isr_dispatcher>
ffffffff8100606d:	58                   	pop    %rax
ffffffff8100606e:	5a                   	pop    %rdx
ffffffff8100606f:	59                   	pop    %rcx
ffffffff81006070:	5e                   	pop    %rsi
ffffffff81006071:	5f                   	pop    %rdi
ffffffff81006072:	41 58                	pop    %r8
ffffffff81006074:	41 59                	pop    %r9
ffffffff81006076:	41 5a                	pop    %r10
ffffffff81006078:	41 5b                	pop    %r11
ffffffff8100607a:	5d                   	pop    %rbp
ffffffff8100607b:	48 cf                	iretq  

ffffffff8100607d <isr_208>:
ffffffff8100607d:	55                   	push   %rbp
ffffffff8100607e:	48 89 e5             	mov    %rsp,%rbp
ffffffff81006081:	41 53                	push   %r11
ffffffff81006083:	41 52                	push   %r10
ffffffff81006085:	41 51                	push   %r9
ffffffff81006087:	41 50                	push   %r8
ffffffff81006089:	57                   	push   %rdi
ffffffff8100608a:	56                   	push   %rsi
ffffffff8100608b:	51                   	push   %rcx
ffffffff8100608c:	52                   	push   %rdx
ffffffff8100608d:	50                   	push   %rax
ffffffff8100608e:	fc                   	cld    
ffffffff8100608f:	bf d0 00 00 00       	mov    $0xd0,%edi
ffffffff81006094:	be 00 00 00 00       	mov    $0x0,%esi
ffffffff81006099:	e8 1f d5 ff ff       	callq  ffffffff810035bd <isr_dispatcher>
ffffffff8100609e:	58                   	pop    %rax
ffffffff8100609f:	5a                   	pop    %rdx
ffffffff810060a0:	59                   	pop    %rcx
ffffffff810060a1:	5e                   	pop    %rsi
ffffffff810060a2:	5f                   	pop    %rdi
ffffffff810060a3:	41 58                	pop    %r8
ffffffff810060a5:	41 59                	pop    %r9
ffffffff810060a7:	41 5a                	pop    %r10
ffffffff810060a9:	41 5b                	pop    %r11
ffffffff810060ab:	5d                   	pop    %rbp
ffffffff810060ac:	48 cf                	iretq  

ffffffff810060ae <isr_209>:
ffffffff810060ae:	55                   	push   %rbp
ffffffff810060af:	48 89 e5             	mov    %rsp,%rbp
ffffffff810060b2:	41 53                	push   %r11
ffffffff810060b4:	41 52                	push   %r10
ffffffff810060b6:	41 51                	push   %r9
ffffffff810060b8:	41 50                	push   %r8
ffffffff810060ba:	57                   	push   %rdi
ffffffff810060bb:	56                   	push   %rsi
ffffffff810060bc:	51                   	push   %rcx
ffffffff810060bd:	52                   	push   %rdx
ffffffff810060be:	50                   	push   %rax
ffffffff810060bf:	fc                   	cld    
ffffffff810060c0:	bf d1 00 00 00       	mov    $0xd1,%edi
ffffffff810060c5:	be 00 00 00 00       	mov    $0x0,%esi
ffffffff810060ca:	e8 ee d4 ff ff       	callq  ffffffff810035bd <isr_dispatcher>
ffffffff810060cf:	58                   	pop    %rax
ffffffff810060d0:	5a                   	pop    %rdx
ffffffff810060d1:	59                   	pop    %rcx
ffffffff810060d2:	5e                   	pop    %rsi
ffffffff810060d3:	5f                   	pop    %rdi
ffffffff810060d4:	41 58                	pop    %r8
ffffffff810060d6:	41 59                	pop    %r9
ffffffff810060d8:	41 5a                	pop    %r10
ffffffff810060da:	41 5b                	pop    %r11
ffffffff810060dc:	5d                   	pop    %rbp
ffffffff810060dd:	48 cf                	iretq  

ffffffff810060df <isr_210>:
ffffffff810060df:	55                   	push   %rbp
ffffffff810060e0:	48 89 e5             	mov    %rsp,%rbp
ffffffff810060e3:	41 53                	push   %r11
ffffffff810060e5:	41 52                	push   %r10
ffffffff810060e7:	41 51                	push   %r9
ffffffff810060e9:	41 50                	push   %r8
ffffffff810060eb:	57                   	push   %rdi
ffffffff810060ec:	56                   	push   %rsi
ffffffff810060ed:	51                   	push   %rcx
ffffffff810060ee:	52                   	push   %rdx
ffffffff810060ef:	50                   	push   %rax
ffffffff810060f0:	fc                   	cld    
ffffffff810060f1:	bf d2 00 00 00       	mov    $0xd2,%edi
ffffffff810060f6:	be 00 00 00 00       	mov    $0x0,%esi
ffffffff810060fb:	e8 bd d4 ff ff       	callq  ffffffff810035bd <isr_dispatcher>
ffffffff81006100:	58                   	pop    %rax
ffffffff81006101:	5a                   	pop    %rdx
ffffffff81006102:	59                   	pop    %rcx
ffffffff81006103:	5e                   	pop    %rsi
ffffffff81006104:	5f                   	pop    %rdi
ffffffff81006105:	41 58                	pop    %r8
ffffffff81006107:	41 59                	pop    %r9
ffffffff81006109:	41 5a                	pop    %r10
ffffffff8100610b:	41 5b                	pop    %r11
ffffffff8100610d:	5d                   	pop    %rbp
ffffffff8100610e:	48 cf                	iretq  

ffffffff81006110 <isr_211>:
ffffffff81006110:	55                   	push   %rbp
ffffffff81006111:	48 89 e5             	mov    %rsp,%rbp
ffffffff81006114:	41 53                	push   %r11
ffffffff81006116:	41 52                	push   %r10
ffffffff81006118:	41 51                	push   %r9
ffffffff8100611a:	41 50                	push   %r8
ffffffff8100611c:	57                   	push   %rdi
ffffffff8100611d:	56                   	push   %rsi
ffffffff8100611e:	51                   	push   %rcx
ffffffff8100611f:	52                   	push   %rdx
ffffffff81006120:	50                   	push   %rax
ffffffff81006121:	fc                   	cld    
ffffffff81006122:	bf d3 00 00 00       	mov    $0xd3,%edi
ffffffff81006127:	be 00 00 00 00       	mov    $0x0,%esi
ffffffff8100612c:	e8 8c d4 ff ff       	callq  ffffffff810035bd <isr_dispatcher>
ffffffff81006131:	58                   	pop    %rax
ffffffff81006132:	5a                   	pop    %rdx
ffffffff81006133:	59                   	pop    %rcx
ffffffff81006134:	5e                   	pop    %rsi
ffffffff81006135:	5f                   	pop    %rdi
ffffffff81006136:	41 58                	pop    %r8
ffffffff81006138:	41 59                	pop    %r9
ffffffff8100613a:	41 5a                	pop    %r10
ffffffff8100613c:	41 5b                	pop    %r11
ffffffff8100613e:	5d                   	pop    %rbp
ffffffff8100613f:	48 cf                	iretq  

ffffffff81006141 <isr_212>:
ffffffff81006141:	55                   	push   %rbp
ffffffff81006142:	48 89 e5             	mov    %rsp,%rbp
ffffffff81006145:	41 53                	push   %r11
ffffffff81006147:	41 52                	push   %r10
ffffffff81006149:	41 51                	push   %r9
ffffffff8100614b:	41 50                	push   %r8
ffffffff8100614d:	57                   	push   %rdi
ffffffff8100614e:	56                   	push   %rsi
ffffffff8100614f:	51                   	push   %rcx
ffffffff81006150:	52                   	push   %rdx
ffffffff81006151:	50                   	push   %rax
ffffffff81006152:	fc                   	cld    
ffffffff81006153:	bf d4 00 00 00       	mov    $0xd4,%edi
ffffffff81006158:	be 00 00 00 00       	mov    $0x0,%esi
ffffffff8100615d:	e8 5b d4 ff ff       	callq  ffffffff810035bd <isr_dispatcher>
ffffffff81006162:	58                   	pop    %rax
ffffffff81006163:	5a                   	pop    %rdx
ffffffff81006164:	59                   	pop    %rcx
ffffffff81006165:	5e                   	pop    %rsi
ffffffff81006166:	5f                   	pop    %rdi
ffffffff81006167:	41 58                	pop    %r8
ffffffff81006169:	41 59                	pop    %r9
ffffffff8100616b:	41 5a                	pop    %r10
ffffffff8100616d:	41 5b                	pop    %r11
ffffffff8100616f:	5d                   	pop    %rbp
ffffffff81006170:	48 cf                	iretq  

ffffffff81006172 <isr_213>:
ffffffff81006172:	55                   	push   %rbp
ffffffff81006173:	48 89 e5             	mov    %rsp,%rbp
ffffffff81006176:	41 53                	push   %r11
ffffffff81006178:	41 52                	push   %r10
ffffffff8100617a:	41 51                	push   %r9
ffffffff8100617c:	41 50                	push   %r8
ffffffff8100617e:	57                   	push   %rdi
ffffffff8100617f:	56                   	push   %rsi
ffffffff81006180:	51                   	push   %rcx
ffffffff81006181:	52                   	push   %rdx
ffffffff81006182:	50                   	push   %rax
ffffffff81006183:	fc                   	cld    
ffffffff81006184:	bf d5 00 00 00       	mov    $0xd5,%edi
ffffffff81006189:	be 00 00 00 00       	mov    $0x0,%esi
ffffffff8100618e:	e8 2a d4 ff ff       	callq  ffffffff810035bd <isr_dispatcher>
ffffffff81006193:	58                   	pop    %rax
ffffffff81006194:	5a                   	pop    %rdx
ffffffff81006195:	59                   	pop    %rcx
ffffffff81006196:	5e                   	pop    %rsi
ffffffff81006197:	5f                   	pop    %rdi
ffffffff81006198:	41 58                	pop    %r8
ffffffff8100619a:	41 59                	pop    %r9
ffffffff8100619c:	41 5a                	pop    %r10
ffffffff8100619e:	41 5b                	pop    %r11
ffffffff810061a0:	5d                   	pop    %rbp
ffffffff810061a1:	48 cf                	iretq  

ffffffff810061a3 <isr_214>:
ffffffff810061a3:	55                   	push   %rbp
ffffffff810061a4:	48 89 e5             	mov    %rsp,%rbp
ffffffff810061a7:	41 53                	push   %r11
ffffffff810061a9:	41 52                	push   %r10
ffffffff810061ab:	41 51                	push   %r9
ffffffff810061ad:	41 50                	push   %r8
ffffffff810061af:	57                   	push   %rdi
ffffffff810061b0:	56                   	push   %rsi
ffffffff810061b1:	51                   	push   %rcx
ffffffff810061b2:	52                   	push   %rdx
ffffffff810061b3:	50                   	push   %rax
ffffffff810061b4:	fc                   	cld    
ffffffff810061b5:	bf d6 00 00 00       	mov    $0xd6,%edi
ffffffff810061ba:	be 00 00 00 00       	mov    $0x0,%esi
ffffffff810061bf:	e8 f9 d3 ff ff       	callq  ffffffff810035bd <isr_dispatcher>
ffffffff810061c4:	58                   	pop    %rax
ffffffff810061c5:	5a                   	pop    %rdx
ffffffff810061c6:	59                   	pop    %rcx
ffffffff810061c7:	5e                   	pop    %rsi
ffffffff810061c8:	5f                   	pop    %rdi
ffffffff810061c9:	41 58                	pop    %r8
ffffffff810061cb:	41 59                	pop    %r9
ffffffff810061cd:	41 5a                	pop    %r10
ffffffff810061cf:	41 5b                	pop    %r11
ffffffff810061d1:	5d                   	pop    %rbp
ffffffff810061d2:	48 cf                	iretq  

ffffffff810061d4 <isr_215>:
ffffffff810061d4:	55                   	push   %rbp
ffffffff810061d5:	48 89 e5             	mov    %rsp,%rbp
ffffffff810061d8:	41 53                	push   %r11
ffffffff810061da:	41 52                	push   %r10
ffffffff810061dc:	41 51                	push   %r9
ffffffff810061de:	41 50                	push   %r8
ffffffff810061e0:	57                   	push   %rdi
ffffffff810061e1:	56                   	push   %rsi
ffffffff810061e2:	51                   	push   %rcx
ffffffff810061e3:	52                   	push   %rdx
ffffffff810061e4:	50                   	push   %rax
ffffffff810061e5:	fc                   	cld    
ffffffff810061e6:	bf d7 00 00 00       	mov    $0xd7,%edi
ffffffff810061eb:	be 00 00 00 00       	mov    $0x0,%esi
ffffffff810061f0:	e8 c8 d3 ff ff       	callq  ffffffff810035bd <isr_dispatcher>
ffffffff810061f5:	58                   	pop    %rax
ffffffff810061f6:	5a                   	pop    %rdx
ffffffff810061f7:	59                   	pop    %rcx
ffffffff810061f8:	5e                   	pop    %rsi
ffffffff810061f9:	5f                   	pop    %rdi
ffffffff810061fa:	41 58                	pop    %r8
ffffffff810061fc:	41 59                	pop    %r9
ffffffff810061fe:	41 5a                	pop    %r10
ffffffff81006200:	41 5b                	pop    %r11
ffffffff81006202:	5d                   	pop    %rbp
ffffffff81006203:	48 cf                	iretq  

ffffffff81006205 <isr_216>:
ffffffff81006205:	55                   	push   %rbp
ffffffff81006206:	48 89 e5             	mov    %rsp,%rbp
ffffffff81006209:	41 53                	push   %r11
ffffffff8100620b:	41 52                	push   %r10
ffffffff8100620d:	41 51                	push   %r9
ffffffff8100620f:	41 50                	push   %r8
ffffffff81006211:	57                   	push   %rdi
ffffffff81006212:	56                   	push   %rsi
ffffffff81006213:	51                   	push   %rcx
ffffffff81006214:	52                   	push   %rdx
ffffffff81006215:	50                   	push   %rax
ffffffff81006216:	fc                   	cld    
ffffffff81006217:	bf d8 00 00 00       	mov    $0xd8,%edi
ffffffff8100621c:	be 00 00 00 00       	mov    $0x0,%esi
ffffffff81006221:	e8 97 d3 ff ff       	callq  ffffffff810035bd <isr_dispatcher>
ffffffff81006226:	58                   	pop    %rax
ffffffff81006227:	5a                   	pop    %rdx
ffffffff81006228:	59                   	pop    %rcx
ffffffff81006229:	5e                   	pop    %rsi
ffffffff8100622a:	5f                   	pop    %rdi
ffffffff8100622b:	41 58                	pop    %r8
ffffffff8100622d:	41 59                	pop    %r9
ffffffff8100622f:	41 5a                	pop    %r10
ffffffff81006231:	41 5b                	pop    %r11
ffffffff81006233:	5d                   	pop    %rbp
ffffffff81006234:	48 cf                	iretq  

ffffffff81006236 <isr_217>:
ffffffff81006236:	55                   	push   %rbp
ffffffff81006237:	48 89 e5             	mov    %rsp,%rbp
ffffffff8100623a:	41 53                	push   %r11
ffffffff8100623c:	41 52                	push   %r10
ffffffff8100623e:	41 51                	push   %r9
ffffffff81006240:	41 50                	push   %r8
ffffffff81006242:	57                   	push   %rdi
ffffffff81006243:	56                   	push   %rsi
ffffffff81006244:	51                   	push   %rcx
ffffffff81006245:	52                   	push   %rdx
ffffffff81006246:	50                   	push   %rax
ffffffff81006247:	fc                   	cld    
ffffffff81006248:	bf d9 00 00 00       	mov    $0xd9,%edi
ffffffff8100624d:	be 00 00 00 00       	mov    $0x0,%esi
ffffffff81006252:	e8 66 d3 ff ff       	callq  ffffffff810035bd <isr_dispatcher>
ffffffff81006257:	58                   	pop    %rax
ffffffff81006258:	5a                   	pop    %rdx
ffffffff81006259:	59                   	pop    %rcx
ffffffff8100625a:	5e                   	pop    %rsi
ffffffff8100625b:	5f                   	pop    %rdi
ffffffff8100625c:	41 58                	pop    %r8
ffffffff8100625e:	41 59                	pop    %r9
ffffffff81006260:	41 5a                	pop    %r10
ffffffff81006262:	41 5b                	pop    %r11
ffffffff81006264:	5d                   	pop    %rbp
ffffffff81006265:	48 cf                	iretq  

ffffffff81006267 <isr_218>:
ffffffff81006267:	55                   	push   %rbp
ffffffff81006268:	48 89 e5             	mov    %rsp,%rbp
ffffffff8100626b:	41 53                	push   %r11
ffffffff8100626d:	41 52                	push   %r10
ffffffff8100626f:	41 51                	push   %r9
ffffffff81006271:	41 50                	push   %r8
ffffffff81006273:	57                   	push   %rdi
ffffffff81006274:	56                   	push   %rsi
ffffffff81006275:	51                   	push   %rcx
ffffffff81006276:	52                   	push   %rdx
ffffffff81006277:	50                   	push   %rax
ffffffff81006278:	fc                   	cld    
ffffffff81006279:	bf da 00 00 00       	mov    $0xda,%edi
ffffffff8100627e:	be 00 00 00 00       	mov    $0x0,%esi
ffffffff81006283:	e8 35 d3 ff ff       	callq  ffffffff810035bd <isr_dispatcher>
ffffffff81006288:	58                   	pop    %rax
ffffffff81006289:	5a                   	pop    %rdx
ffffffff8100628a:	59                   	pop    %rcx
ffffffff8100628b:	5e                   	pop    %rsi
ffffffff8100628c:	5f                   	pop    %rdi
ffffffff8100628d:	41 58                	pop    %r8
ffffffff8100628f:	41 59                	pop    %r9
ffffffff81006291:	41 5a                	pop    %r10
ffffffff81006293:	41 5b                	pop    %r11
ffffffff81006295:	5d                   	pop    %rbp
ffffffff81006296:	48 cf                	iretq  

ffffffff81006298 <isr_219>:
ffffffff81006298:	55                   	push   %rbp
ffffffff81006299:	48 89 e5             	mov    %rsp,%rbp
ffffffff8100629c:	41 53                	push   %r11
ffffffff8100629e:	41 52                	push   %r10
ffffffff810062a0:	41 51                	push   %r9
ffffffff810062a2:	41 50                	push   %r8
ffffffff810062a4:	57                   	push   %rdi
ffffffff810062a5:	56                   	push   %rsi
ffffffff810062a6:	51                   	push   %rcx
ffffffff810062a7:	52                   	push   %rdx
ffffffff810062a8:	50                   	push   %rax
ffffffff810062a9:	fc                   	cld    
ffffffff810062aa:	bf db 00 00 00       	mov    $0xdb,%edi
ffffffff810062af:	be 00 00 00 00       	mov    $0x0,%esi
ffffffff810062b4:	e8 04 d3 ff ff       	callq  ffffffff810035bd <isr_dispatcher>
ffffffff810062b9:	58                   	pop    %rax
ffffffff810062ba:	5a                   	pop    %rdx
ffffffff810062bb:	59                   	pop    %rcx
ffffffff810062bc:	5e                   	pop    %rsi
ffffffff810062bd:	5f                   	pop    %rdi
ffffffff810062be:	41 58                	pop    %r8
ffffffff810062c0:	41 59                	pop    %r9
ffffffff810062c2:	41 5a                	pop    %r10
ffffffff810062c4:	41 5b                	pop    %r11
ffffffff810062c6:	5d                   	pop    %rbp
ffffffff810062c7:	48 cf                	iretq  

ffffffff810062c9 <isr_220>:
ffffffff810062c9:	55                   	push   %rbp
ffffffff810062ca:	48 89 e5             	mov    %rsp,%rbp
ffffffff810062cd:	41 53                	push   %r11
ffffffff810062cf:	41 52                	push   %r10
ffffffff810062d1:	41 51                	push   %r9
ffffffff810062d3:	41 50                	push   %r8
ffffffff810062d5:	57                   	push   %rdi
ffffffff810062d6:	56                   	push   %rsi
ffffffff810062d7:	51                   	push   %rcx
ffffffff810062d8:	52                   	push   %rdx
ffffffff810062d9:	50                   	push   %rax
ffffffff810062da:	fc                   	cld    
ffffffff810062db:	bf dc 00 00 00       	mov    $0xdc,%edi
ffffffff810062e0:	be 00 00 00 00       	mov    $0x0,%esi
ffffffff810062e5:	e8 d3 d2 ff ff       	callq  ffffffff810035bd <isr_dispatcher>
ffffffff810062ea:	58                   	pop    %rax
ffffffff810062eb:	5a                   	pop    %rdx
ffffffff810062ec:	59                   	pop    %rcx
ffffffff810062ed:	5e                   	pop    %rsi
ffffffff810062ee:	5f                   	pop    %rdi
ffffffff810062ef:	41 58                	pop    %r8
ffffffff810062f1:	41 59                	pop    %r9
ffffffff810062f3:	41 5a                	pop    %r10
ffffffff810062f5:	41 5b                	pop    %r11
ffffffff810062f7:	5d                   	pop    %rbp
ffffffff810062f8:	48 cf                	iretq  

ffffffff810062fa <isr_221>:
ffffffff810062fa:	55                   	push   %rbp
ffffffff810062fb:	48 89 e5             	mov    %rsp,%rbp
ffffffff810062fe:	41 53                	push   %r11
ffffffff81006300:	41 52                	push   %r10
ffffffff81006302:	41 51                	push   %r9
ffffffff81006304:	41 50                	push   %r8
ffffffff81006306:	57                   	push   %rdi
ffffffff81006307:	56                   	push   %rsi
ffffffff81006308:	51                   	push   %rcx
ffffffff81006309:	52                   	push   %rdx
ffffffff8100630a:	50                   	push   %rax
ffffffff8100630b:	fc                   	cld    
ffffffff8100630c:	bf dd 00 00 00       	mov    $0xdd,%edi
ffffffff81006311:	be 00 00 00 00       	mov    $0x0,%esi
ffffffff81006316:	e8 a2 d2 ff ff       	callq  ffffffff810035bd <isr_dispatcher>
ffffffff8100631b:	58                   	pop    %rax
ffffffff8100631c:	5a                   	pop    %rdx
ffffffff8100631d:	59                   	pop    %rcx
ffffffff8100631e:	5e                   	pop    %rsi
ffffffff8100631f:	5f                   	pop    %rdi
ffffffff81006320:	41 58                	pop    %r8
ffffffff81006322:	41 59                	pop    %r9
ffffffff81006324:	41 5a                	pop    %r10
ffffffff81006326:	41 5b                	pop    %r11
ffffffff81006328:	5d                   	pop    %rbp
ffffffff81006329:	48 cf                	iretq  

ffffffff8100632b <isr_222>:
ffffffff8100632b:	55                   	push   %rbp
ffffffff8100632c:	48 89 e5             	mov    %rsp,%rbp
ffffffff8100632f:	41 53                	push   %r11
ffffffff81006331:	41 52                	push   %r10
ffffffff81006333:	41 51                	push   %r9
ffffffff81006335:	41 50                	push   %r8
ffffffff81006337:	57                   	push   %rdi
ffffffff81006338:	56                   	push   %rsi
ffffffff81006339:	51                   	push   %rcx
ffffffff8100633a:	52                   	push   %rdx
ffffffff8100633b:	50                   	push   %rax
ffffffff8100633c:	fc                   	cld    
ffffffff8100633d:	bf de 00 00 00       	mov    $0xde,%edi
ffffffff81006342:	be 00 00 00 00       	mov    $0x0,%esi
ffffffff81006347:	e8 71 d2 ff ff       	callq  ffffffff810035bd <isr_dispatcher>
ffffffff8100634c:	58                   	pop    %rax
ffffffff8100634d:	5a                   	pop    %rdx
ffffffff8100634e:	59                   	pop    %rcx
ffffffff8100634f:	5e                   	pop    %rsi
ffffffff81006350:	5f                   	pop    %rdi
ffffffff81006351:	41 58                	pop    %r8
ffffffff81006353:	41 59                	pop    %r9
ffffffff81006355:	41 5a                	pop    %r10
ffffffff81006357:	41 5b                	pop    %r11
ffffffff81006359:	5d                   	pop    %rbp
ffffffff8100635a:	48 cf                	iretq  

ffffffff8100635c <isr_223>:
ffffffff8100635c:	55                   	push   %rbp
ffffffff8100635d:	48 89 e5             	mov    %rsp,%rbp
ffffffff81006360:	41 53                	push   %r11
ffffffff81006362:	41 52                	push   %r10
ffffffff81006364:	41 51                	push   %r9
ffffffff81006366:	41 50                	push   %r8
ffffffff81006368:	57                   	push   %rdi
ffffffff81006369:	56                   	push   %rsi
ffffffff8100636a:	51                   	push   %rcx
ffffffff8100636b:	52                   	push   %rdx
ffffffff8100636c:	50                   	push   %rax
ffffffff8100636d:	fc                   	cld    
ffffffff8100636e:	bf df 00 00 00       	mov    $0xdf,%edi
ffffffff81006373:	be 00 00 00 00       	mov    $0x0,%esi
ffffffff81006378:	e8 40 d2 ff ff       	callq  ffffffff810035bd <isr_dispatcher>
ffffffff8100637d:	58                   	pop    %rax
ffffffff8100637e:	5a                   	pop    %rdx
ffffffff8100637f:	59                   	pop    %rcx
ffffffff81006380:	5e                   	pop    %rsi
ffffffff81006381:	5f                   	pop    %rdi
ffffffff81006382:	41 58                	pop    %r8
ffffffff81006384:	41 59                	pop    %r9
ffffffff81006386:	41 5a                	pop    %r10
ffffffff81006388:	41 5b                	pop    %r11
ffffffff8100638a:	5d                   	pop    %rbp
ffffffff8100638b:	48 cf                	iretq  

ffffffff8100638d <isr_224>:
ffffffff8100638d:	55                   	push   %rbp
ffffffff8100638e:	48 89 e5             	mov    %rsp,%rbp
ffffffff81006391:	41 53                	push   %r11
ffffffff81006393:	41 52                	push   %r10
ffffffff81006395:	41 51                	push   %r9
ffffffff81006397:	41 50                	push   %r8
ffffffff81006399:	57                   	push   %rdi
ffffffff8100639a:	56                   	push   %rsi
ffffffff8100639b:	51                   	push   %rcx
ffffffff8100639c:	52                   	push   %rdx
ffffffff8100639d:	50                   	push   %rax
ffffffff8100639e:	fc                   	cld    
ffffffff8100639f:	bf e0 00 00 00       	mov    $0xe0,%edi
ffffffff810063a4:	be 00 00 00 00       	mov    $0x0,%esi
ffffffff810063a9:	e8 0f d2 ff ff       	callq  ffffffff810035bd <isr_dispatcher>
ffffffff810063ae:	58                   	pop    %rax
ffffffff810063af:	5a                   	pop    %rdx
ffffffff810063b0:	59                   	pop    %rcx
ffffffff810063b1:	5e                   	pop    %rsi
ffffffff810063b2:	5f                   	pop    %rdi
ffffffff810063b3:	41 58                	pop    %r8
ffffffff810063b5:	41 59                	pop    %r9
ffffffff810063b7:	41 5a                	pop    %r10
ffffffff810063b9:	41 5b                	pop    %r11
ffffffff810063bb:	5d                   	pop    %rbp
ffffffff810063bc:	48 cf                	iretq  

ffffffff810063be <isr_225>:
ffffffff810063be:	55                   	push   %rbp
ffffffff810063bf:	48 89 e5             	mov    %rsp,%rbp
ffffffff810063c2:	41 53                	push   %r11
ffffffff810063c4:	41 52                	push   %r10
ffffffff810063c6:	41 51                	push   %r9
ffffffff810063c8:	41 50                	push   %r8
ffffffff810063ca:	57                   	push   %rdi
ffffffff810063cb:	56                   	push   %rsi
ffffffff810063cc:	51                   	push   %rcx
ffffffff810063cd:	52                   	push   %rdx
ffffffff810063ce:	50                   	push   %rax
ffffffff810063cf:	fc                   	cld    
ffffffff810063d0:	bf e1 00 00 00       	mov    $0xe1,%edi
ffffffff810063d5:	be 00 00 00 00       	mov    $0x0,%esi
ffffffff810063da:	e8 de d1 ff ff       	callq  ffffffff810035bd <isr_dispatcher>
ffffffff810063df:	58                   	pop    %rax
ffffffff810063e0:	5a                   	pop    %rdx
ffffffff810063e1:	59                   	pop    %rcx
ffffffff810063e2:	5e                   	pop    %rsi
ffffffff810063e3:	5f                   	pop    %rdi
ffffffff810063e4:	41 58                	pop    %r8
ffffffff810063e6:	41 59                	pop    %r9
ffffffff810063e8:	41 5a                	pop    %r10
ffffffff810063ea:	41 5b                	pop    %r11
ffffffff810063ec:	5d                   	pop    %rbp
ffffffff810063ed:	48 cf                	iretq  

ffffffff810063ef <isr_226>:
ffffffff810063ef:	55                   	push   %rbp
ffffffff810063f0:	48 89 e5             	mov    %rsp,%rbp
ffffffff810063f3:	41 53                	push   %r11
ffffffff810063f5:	41 52                	push   %r10
ffffffff810063f7:	41 51                	push   %r9
ffffffff810063f9:	41 50                	push   %r8
ffffffff810063fb:	57                   	push   %rdi
ffffffff810063fc:	56                   	push   %rsi
ffffffff810063fd:	51                   	push   %rcx
ffffffff810063fe:	52                   	push   %rdx
ffffffff810063ff:	50                   	push   %rax
ffffffff81006400:	fc                   	cld    
ffffffff81006401:	bf e2 00 00 00       	mov    $0xe2,%edi
ffffffff81006406:	be 00 00 00 00       	mov    $0x0,%esi
ffffffff8100640b:	e8 ad d1 ff ff       	callq  ffffffff810035bd <isr_dispatcher>
ffffffff81006410:	58                   	pop    %rax
ffffffff81006411:	5a                   	pop    %rdx
ffffffff81006412:	59                   	pop    %rcx
ffffffff81006413:	5e                   	pop    %rsi
ffffffff81006414:	5f                   	pop    %rdi
ffffffff81006415:	41 58                	pop    %r8
ffffffff81006417:	41 59                	pop    %r9
ffffffff81006419:	41 5a                	pop    %r10
ffffffff8100641b:	41 5b                	pop    %r11
ffffffff8100641d:	5d                   	pop    %rbp
ffffffff8100641e:	48 cf                	iretq  

ffffffff81006420 <isr_227>:
ffffffff81006420:	55                   	push   %rbp
ffffffff81006421:	48 89 e5             	mov    %rsp,%rbp
ffffffff81006424:	41 53                	push   %r11
ffffffff81006426:	41 52                	push   %r10
ffffffff81006428:	41 51                	push   %r9
ffffffff8100642a:	41 50                	push   %r8
ffffffff8100642c:	57                   	push   %rdi
ffffffff8100642d:	56                   	push   %rsi
ffffffff8100642e:	51                   	push   %rcx
ffffffff8100642f:	52                   	push   %rdx
ffffffff81006430:	50                   	push   %rax
ffffffff81006431:	fc                   	cld    
ffffffff81006432:	bf e3 00 00 00       	mov    $0xe3,%edi
ffffffff81006437:	be 00 00 00 00       	mov    $0x0,%esi
ffffffff8100643c:	e8 7c d1 ff ff       	callq  ffffffff810035bd <isr_dispatcher>
ffffffff81006441:	58                   	pop    %rax
ffffffff81006442:	5a                   	pop    %rdx
ffffffff81006443:	59                   	pop    %rcx
ffffffff81006444:	5e                   	pop    %rsi
ffffffff81006445:	5f                   	pop    %rdi
ffffffff81006446:	41 58                	pop    %r8
ffffffff81006448:	41 59                	pop    %r9
ffffffff8100644a:	41 5a                	pop    %r10
ffffffff8100644c:	41 5b                	pop    %r11
ffffffff8100644e:	5d                   	pop    %rbp
ffffffff8100644f:	48 cf                	iretq  

ffffffff81006451 <isr_228>:
ffffffff81006451:	55                   	push   %rbp
ffffffff81006452:	48 89 e5             	mov    %rsp,%rbp
ffffffff81006455:	41 53                	push   %r11
ffffffff81006457:	41 52                	push   %r10
ffffffff81006459:	41 51                	push   %r9
ffffffff8100645b:	41 50                	push   %r8
ffffffff8100645d:	57                   	push   %rdi
ffffffff8100645e:	56                   	push   %rsi
ffffffff8100645f:	51                   	push   %rcx
ffffffff81006460:	52                   	push   %rdx
ffffffff81006461:	50                   	push   %rax
ffffffff81006462:	fc                   	cld    
ffffffff81006463:	bf e4 00 00 00       	mov    $0xe4,%edi
ffffffff81006468:	be 00 00 00 00       	mov    $0x0,%esi
ffffffff8100646d:	e8 4b d1 ff ff       	callq  ffffffff810035bd <isr_dispatcher>
ffffffff81006472:	58                   	pop    %rax
ffffffff81006473:	5a                   	pop    %rdx
ffffffff81006474:	59                   	pop    %rcx
ffffffff81006475:	5e                   	pop    %rsi
ffffffff81006476:	5f                   	pop    %rdi
ffffffff81006477:	41 58                	pop    %r8
ffffffff81006479:	41 59                	pop    %r9
ffffffff8100647b:	41 5a                	pop    %r10
ffffffff8100647d:	41 5b                	pop    %r11
ffffffff8100647f:	5d                   	pop    %rbp
ffffffff81006480:	48 cf                	iretq  

ffffffff81006482 <isr_229>:
ffffffff81006482:	55                   	push   %rbp
ffffffff81006483:	48 89 e5             	mov    %rsp,%rbp
ffffffff81006486:	41 53                	push   %r11
ffffffff81006488:	41 52                	push   %r10
ffffffff8100648a:	41 51                	push   %r9
ffffffff8100648c:	41 50                	push   %r8
ffffffff8100648e:	57                   	push   %rdi
ffffffff8100648f:	56                   	push   %rsi
ffffffff81006490:	51                   	push   %rcx
ffffffff81006491:	52                   	push   %rdx
ffffffff81006492:	50                   	push   %rax
ffffffff81006493:	fc                   	cld    
ffffffff81006494:	bf e5 00 00 00       	mov    $0xe5,%edi
ffffffff81006499:	be 00 00 00 00       	mov    $0x0,%esi
ffffffff8100649e:	e8 1a d1 ff ff       	callq  ffffffff810035bd <isr_dispatcher>
ffffffff810064a3:	58                   	pop    %rax
ffffffff810064a4:	5a                   	pop    %rdx
ffffffff810064a5:	59                   	pop    %rcx
ffffffff810064a6:	5e                   	pop    %rsi
ffffffff810064a7:	5f                   	pop    %rdi
ffffffff810064a8:	41 58                	pop    %r8
ffffffff810064aa:	41 59                	pop    %r9
ffffffff810064ac:	41 5a                	pop    %r10
ffffffff810064ae:	41 5b                	pop    %r11
ffffffff810064b0:	5d                   	pop    %rbp
ffffffff810064b1:	48 cf                	iretq  

ffffffff810064b3 <isr_230>:
ffffffff810064b3:	55                   	push   %rbp
ffffffff810064b4:	48 89 e5             	mov    %rsp,%rbp
ffffffff810064b7:	41 53                	push   %r11
ffffffff810064b9:	41 52                	push   %r10
ffffffff810064bb:	41 51                	push   %r9
ffffffff810064bd:	41 50                	push   %r8
ffffffff810064bf:	57                   	push   %rdi
ffffffff810064c0:	56                   	push   %rsi
ffffffff810064c1:	51                   	push   %rcx
ffffffff810064c2:	52                   	push   %rdx
ffffffff810064c3:	50                   	push   %rax
ffffffff810064c4:	fc                   	cld    
ffffffff810064c5:	bf e6 00 00 00       	mov    $0xe6,%edi
ffffffff810064ca:	be 00 00 00 00       	mov    $0x0,%esi
ffffffff810064cf:	e8 e9 d0 ff ff       	callq  ffffffff810035bd <isr_dispatcher>
ffffffff810064d4:	58                   	pop    %rax
ffffffff810064d5:	5a                   	pop    %rdx
ffffffff810064d6:	59                   	pop    %rcx
ffffffff810064d7:	5e                   	pop    %rsi
ffffffff810064d8:	5f                   	pop    %rdi
ffffffff810064d9:	41 58                	pop    %r8
ffffffff810064db:	41 59                	pop    %r9
ffffffff810064dd:	41 5a                	pop    %r10
ffffffff810064df:	41 5b                	pop    %r11
ffffffff810064e1:	5d                   	pop    %rbp
ffffffff810064e2:	48 cf                	iretq  

ffffffff810064e4 <isr_231>:
ffffffff810064e4:	55                   	push   %rbp
ffffffff810064e5:	48 89 e5             	mov    %rsp,%rbp
ffffffff810064e8:	41 53                	push   %r11
ffffffff810064ea:	41 52                	push   %r10
ffffffff810064ec:	41 51                	push   %r9
ffffffff810064ee:	41 50                	push   %r8
ffffffff810064f0:	57                   	push   %rdi
ffffffff810064f1:	56                   	push   %rsi
ffffffff810064f2:	51                   	push   %rcx
ffffffff810064f3:	52                   	push   %rdx
ffffffff810064f4:	50                   	push   %rax
ffffffff810064f5:	fc                   	cld    
ffffffff810064f6:	bf e7 00 00 00       	mov    $0xe7,%edi
ffffffff810064fb:	be 00 00 00 00       	mov    $0x0,%esi
ffffffff81006500:	e8 b8 d0 ff ff       	callq  ffffffff810035bd <isr_dispatcher>
ffffffff81006505:	58                   	pop    %rax
ffffffff81006506:	5a                   	pop    %rdx
ffffffff81006507:	59                   	pop    %rcx
ffffffff81006508:	5e                   	pop    %rsi
ffffffff81006509:	5f                   	pop    %rdi
ffffffff8100650a:	41 58                	pop    %r8
ffffffff8100650c:	41 59                	pop    %r9
ffffffff8100650e:	41 5a                	pop    %r10
ffffffff81006510:	41 5b                	pop    %r11
ffffffff81006512:	5d                   	pop    %rbp
ffffffff81006513:	48 cf                	iretq  

ffffffff81006515 <isr_232>:
ffffffff81006515:	55                   	push   %rbp
ffffffff81006516:	48 89 e5             	mov    %rsp,%rbp
ffffffff81006519:	41 53                	push   %r11
ffffffff8100651b:	41 52                	push   %r10
ffffffff8100651d:	41 51                	push   %r9
ffffffff8100651f:	41 50                	push   %r8
ffffffff81006521:	57                   	push   %rdi
ffffffff81006522:	56                   	push   %rsi
ffffffff81006523:	51                   	push   %rcx
ffffffff81006524:	52                   	push   %rdx
ffffffff81006525:	50                   	push   %rax
ffffffff81006526:	fc                   	cld    
ffffffff81006527:	bf e8 00 00 00       	mov    $0xe8,%edi
ffffffff8100652c:	be 00 00 00 00       	mov    $0x0,%esi
ffffffff81006531:	e8 87 d0 ff ff       	callq  ffffffff810035bd <isr_dispatcher>
ffffffff81006536:	58                   	pop    %rax
ffffffff81006537:	5a                   	pop    %rdx
ffffffff81006538:	59                   	pop    %rcx
ffffffff81006539:	5e                   	pop    %rsi
ffffffff8100653a:	5f                   	pop    %rdi
ffffffff8100653b:	41 58                	pop    %r8
ffffffff8100653d:	41 59                	pop    %r9
ffffffff8100653f:	41 5a                	pop    %r10
ffffffff81006541:	41 5b                	pop    %r11
ffffffff81006543:	5d                   	pop    %rbp
ffffffff81006544:	48 cf                	iretq  

ffffffff81006546 <isr_233>:
ffffffff81006546:	55                   	push   %rbp
ffffffff81006547:	48 89 e5             	mov    %rsp,%rbp
ffffffff8100654a:	41 53                	push   %r11
ffffffff8100654c:	41 52                	push   %r10
ffffffff8100654e:	41 51                	push   %r9
ffffffff81006550:	41 50                	push   %r8
ffffffff81006552:	57                   	push   %rdi
ffffffff81006553:	56                   	push   %rsi
ffffffff81006554:	51                   	push   %rcx
ffffffff81006555:	52                   	push   %rdx
ffffffff81006556:	50                   	push   %rax
ffffffff81006557:	fc                   	cld    
ffffffff81006558:	bf e9 00 00 00       	mov    $0xe9,%edi
ffffffff8100655d:	be 00 00 00 00       	mov    $0x0,%esi
ffffffff81006562:	e8 56 d0 ff ff       	callq  ffffffff810035bd <isr_dispatcher>
ffffffff81006567:	58                   	pop    %rax
ffffffff81006568:	5a                   	pop    %rdx
ffffffff81006569:	59                   	pop    %rcx
ffffffff8100656a:	5e                   	pop    %rsi
ffffffff8100656b:	5f                   	pop    %rdi
ffffffff8100656c:	41 58                	pop    %r8
ffffffff8100656e:	41 59                	pop    %r9
ffffffff81006570:	41 5a                	pop    %r10
ffffffff81006572:	41 5b                	pop    %r11
ffffffff81006574:	5d                   	pop    %rbp
ffffffff81006575:	48 cf                	iretq  

ffffffff81006577 <isr_234>:
ffffffff81006577:	55                   	push   %rbp
ffffffff81006578:	48 89 e5             	mov    %rsp,%rbp
ffffffff8100657b:	41 53                	push   %r11
ffffffff8100657d:	41 52                	push   %r10
ffffffff8100657f:	41 51                	push   %r9
ffffffff81006581:	41 50                	push   %r8
ffffffff81006583:	57                   	push   %rdi
ffffffff81006584:	56                   	push   %rsi
ffffffff81006585:	51                   	push   %rcx
ffffffff81006586:	52                   	push   %rdx
ffffffff81006587:	50                   	push   %rax
ffffffff81006588:	fc                   	cld    
ffffffff81006589:	bf ea 00 00 00       	mov    $0xea,%edi
ffffffff8100658e:	be 00 00 00 00       	mov    $0x0,%esi
ffffffff81006593:	e8 25 d0 ff ff       	callq  ffffffff810035bd <isr_dispatcher>
ffffffff81006598:	58                   	pop    %rax
ffffffff81006599:	5a                   	pop    %rdx
ffffffff8100659a:	59                   	pop    %rcx
ffffffff8100659b:	5e                   	pop    %rsi
ffffffff8100659c:	5f                   	pop    %rdi
ffffffff8100659d:	41 58                	pop    %r8
ffffffff8100659f:	41 59                	pop    %r9
ffffffff810065a1:	41 5a                	pop    %r10
ffffffff810065a3:	41 5b                	pop    %r11
ffffffff810065a5:	5d                   	pop    %rbp
ffffffff810065a6:	48 cf                	iretq  

ffffffff810065a8 <isr_235>:
ffffffff810065a8:	55                   	push   %rbp
ffffffff810065a9:	48 89 e5             	mov    %rsp,%rbp
ffffffff810065ac:	41 53                	push   %r11
ffffffff810065ae:	41 52                	push   %r10
ffffffff810065b0:	41 51                	push   %r9
ffffffff810065b2:	41 50                	push   %r8
ffffffff810065b4:	57                   	push   %rdi
ffffffff810065b5:	56                   	push   %rsi
ffffffff810065b6:	51                   	push   %rcx
ffffffff810065b7:	52                   	push   %rdx
ffffffff810065b8:	50                   	push   %rax
ffffffff810065b9:	fc                   	cld    
ffffffff810065ba:	bf eb 00 00 00       	mov    $0xeb,%edi
ffffffff810065bf:	be 00 00 00 00       	mov    $0x0,%esi
ffffffff810065c4:	e8 f4 cf ff ff       	callq  ffffffff810035bd <isr_dispatcher>
ffffffff810065c9:	58                   	pop    %rax
ffffffff810065ca:	5a                   	pop    %rdx
ffffffff810065cb:	59                   	pop    %rcx
ffffffff810065cc:	5e                   	pop    %rsi
ffffffff810065cd:	5f                   	pop    %rdi
ffffffff810065ce:	41 58                	pop    %r8
ffffffff810065d0:	41 59                	pop    %r9
ffffffff810065d2:	41 5a                	pop    %r10
ffffffff810065d4:	41 5b                	pop    %r11
ffffffff810065d6:	5d                   	pop    %rbp
ffffffff810065d7:	48 cf                	iretq  

ffffffff810065d9 <isr_236>:
ffffffff810065d9:	55                   	push   %rbp
ffffffff810065da:	48 89 e5             	mov    %rsp,%rbp
ffffffff810065dd:	41 53                	push   %r11
ffffffff810065df:	41 52                	push   %r10
ffffffff810065e1:	41 51                	push   %r9
ffffffff810065e3:	41 50                	push   %r8
ffffffff810065e5:	57                   	push   %rdi
ffffffff810065e6:	56                   	push   %rsi
ffffffff810065e7:	51                   	push   %rcx
ffffffff810065e8:	52                   	push   %rdx
ffffffff810065e9:	50                   	push   %rax
ffffffff810065ea:	fc                   	cld    
ffffffff810065eb:	bf ec 00 00 00       	mov    $0xec,%edi
ffffffff810065f0:	be 00 00 00 00       	mov    $0x0,%esi
ffffffff810065f5:	e8 c3 cf ff ff       	callq  ffffffff810035bd <isr_dispatcher>
ffffffff810065fa:	58                   	pop    %rax
ffffffff810065fb:	5a                   	pop    %rdx
ffffffff810065fc:	59                   	pop    %rcx
ffffffff810065fd:	5e                   	pop    %rsi
ffffffff810065fe:	5f                   	pop    %rdi
ffffffff810065ff:	41 58                	pop    %r8
ffffffff81006601:	41 59                	pop    %r9
ffffffff81006603:	41 5a                	pop    %r10
ffffffff81006605:	41 5b                	pop    %r11
ffffffff81006607:	5d                   	pop    %rbp
ffffffff81006608:	48 cf                	iretq  

ffffffff8100660a <isr_237>:
ffffffff8100660a:	55                   	push   %rbp
ffffffff8100660b:	48 89 e5             	mov    %rsp,%rbp
ffffffff8100660e:	41 53                	push   %r11
ffffffff81006610:	41 52                	push   %r10
ffffffff81006612:	41 51                	push   %r9
ffffffff81006614:	41 50                	push   %r8
ffffffff81006616:	57                   	push   %rdi
ffffffff81006617:	56                   	push   %rsi
ffffffff81006618:	51                   	push   %rcx
ffffffff81006619:	52                   	push   %rdx
ffffffff8100661a:	50                   	push   %rax
ffffffff8100661b:	fc                   	cld    
ffffffff8100661c:	bf ed 00 00 00       	mov    $0xed,%edi
ffffffff81006621:	be 00 00 00 00       	mov    $0x0,%esi
ffffffff81006626:	e8 92 cf ff ff       	callq  ffffffff810035bd <isr_dispatcher>
ffffffff8100662b:	58                   	pop    %rax
ffffffff8100662c:	5a                   	pop    %rdx
ffffffff8100662d:	59                   	pop    %rcx
ffffffff8100662e:	5e                   	pop    %rsi
ffffffff8100662f:	5f                   	pop    %rdi
ffffffff81006630:	41 58                	pop    %r8
ffffffff81006632:	41 59                	pop    %r9
ffffffff81006634:	41 5a                	pop    %r10
ffffffff81006636:	41 5b                	pop    %r11
ffffffff81006638:	5d                   	pop    %rbp
ffffffff81006639:	48 cf                	iretq  

ffffffff8100663b <isr_238>:
ffffffff8100663b:	55                   	push   %rbp
ffffffff8100663c:	48 89 e5             	mov    %rsp,%rbp
ffffffff8100663f:	41 53                	push   %r11
ffffffff81006641:	41 52                	push   %r10
ffffffff81006643:	41 51                	push   %r9
ffffffff81006645:	41 50                	push   %r8
ffffffff81006647:	57                   	push   %rdi
ffffffff81006648:	56                   	push   %rsi
ffffffff81006649:	51                   	push   %rcx
ffffffff8100664a:	52                   	push   %rdx
ffffffff8100664b:	50                   	push   %rax
ffffffff8100664c:	fc                   	cld    
ffffffff8100664d:	bf ee 00 00 00       	mov    $0xee,%edi
ffffffff81006652:	be 00 00 00 00       	mov    $0x0,%esi
ffffffff81006657:	e8 61 cf ff ff       	callq  ffffffff810035bd <isr_dispatcher>
ffffffff8100665c:	58                   	pop    %rax
ffffffff8100665d:	5a                   	pop    %rdx
ffffffff8100665e:	59                   	pop    %rcx
ffffffff8100665f:	5e                   	pop    %rsi
ffffffff81006660:	5f                   	pop    %rdi
ffffffff81006661:	41 58                	pop    %r8
ffffffff81006663:	41 59                	pop    %r9
ffffffff81006665:	41 5a                	pop    %r10
ffffffff81006667:	41 5b                	pop    %r11
ffffffff81006669:	5d                   	pop    %rbp
ffffffff8100666a:	48 cf                	iretq  

ffffffff8100666c <isr_239>:
ffffffff8100666c:	55                   	push   %rbp
ffffffff8100666d:	48 89 e5             	mov    %rsp,%rbp
ffffffff81006670:	41 53                	push   %r11
ffffffff81006672:	41 52                	push   %r10
ffffffff81006674:	41 51                	push   %r9
ffffffff81006676:	41 50                	push   %r8
ffffffff81006678:	57                   	push   %rdi
ffffffff81006679:	56                   	push   %rsi
ffffffff8100667a:	51                   	push   %rcx
ffffffff8100667b:	52                   	push   %rdx
ffffffff8100667c:	50                   	push   %rax
ffffffff8100667d:	fc                   	cld    
ffffffff8100667e:	bf ef 00 00 00       	mov    $0xef,%edi
ffffffff81006683:	be 00 00 00 00       	mov    $0x0,%esi
ffffffff81006688:	e8 30 cf ff ff       	callq  ffffffff810035bd <isr_dispatcher>
ffffffff8100668d:	58                   	pop    %rax
ffffffff8100668e:	5a                   	pop    %rdx
ffffffff8100668f:	59                   	pop    %rcx
ffffffff81006690:	5e                   	pop    %rsi
ffffffff81006691:	5f                   	pop    %rdi
ffffffff81006692:	41 58                	pop    %r8
ffffffff81006694:	41 59                	pop    %r9
ffffffff81006696:	41 5a                	pop    %r10
ffffffff81006698:	41 5b                	pop    %r11
ffffffff8100669a:	5d                   	pop    %rbp
ffffffff8100669b:	48 cf                	iretq  

ffffffff8100669d <isr_240>:
ffffffff8100669d:	55                   	push   %rbp
ffffffff8100669e:	48 89 e5             	mov    %rsp,%rbp
ffffffff810066a1:	41 53                	push   %r11
ffffffff810066a3:	41 52                	push   %r10
ffffffff810066a5:	41 51                	push   %r9
ffffffff810066a7:	41 50                	push   %r8
ffffffff810066a9:	57                   	push   %rdi
ffffffff810066aa:	56                   	push   %rsi
ffffffff810066ab:	51                   	push   %rcx
ffffffff810066ac:	52                   	push   %rdx
ffffffff810066ad:	50                   	push   %rax
ffffffff810066ae:	fc                   	cld    
ffffffff810066af:	bf f0 00 00 00       	mov    $0xf0,%edi
ffffffff810066b4:	be 00 00 00 00       	mov    $0x0,%esi
ffffffff810066b9:	e8 ff ce ff ff       	callq  ffffffff810035bd <isr_dispatcher>
ffffffff810066be:	58                   	pop    %rax
ffffffff810066bf:	5a                   	pop    %rdx
ffffffff810066c0:	59                   	pop    %rcx
ffffffff810066c1:	5e                   	pop    %rsi
ffffffff810066c2:	5f                   	pop    %rdi
ffffffff810066c3:	41 58                	pop    %r8
ffffffff810066c5:	41 59                	pop    %r9
ffffffff810066c7:	41 5a                	pop    %r10
ffffffff810066c9:	41 5b                	pop    %r11
ffffffff810066cb:	5d                   	pop    %rbp
ffffffff810066cc:	48 cf                	iretq  

ffffffff810066ce <isr_241>:
ffffffff810066ce:	55                   	push   %rbp
ffffffff810066cf:	48 89 e5             	mov    %rsp,%rbp
ffffffff810066d2:	41 53                	push   %r11
ffffffff810066d4:	41 52                	push   %r10
ffffffff810066d6:	41 51                	push   %r9
ffffffff810066d8:	41 50                	push   %r8
ffffffff810066da:	57                   	push   %rdi
ffffffff810066db:	56                   	push   %rsi
ffffffff810066dc:	51                   	push   %rcx
ffffffff810066dd:	52                   	push   %rdx
ffffffff810066de:	50                   	push   %rax
ffffffff810066df:	fc                   	cld    
ffffffff810066e0:	bf f1 00 00 00       	mov    $0xf1,%edi
ffffffff810066e5:	be 00 00 00 00       	mov    $0x0,%esi
ffffffff810066ea:	e8 ce ce ff ff       	callq  ffffffff810035bd <isr_dispatcher>
ffffffff810066ef:	58                   	pop    %rax
ffffffff810066f0:	5a                   	pop    %rdx
ffffffff810066f1:	59                   	pop    %rcx
ffffffff810066f2:	5e                   	pop    %rsi
ffffffff810066f3:	5f                   	pop    %rdi
ffffffff810066f4:	41 58                	pop    %r8
ffffffff810066f6:	41 59                	pop    %r9
ffffffff810066f8:	41 5a                	pop    %r10
ffffffff810066fa:	41 5b                	pop    %r11
ffffffff810066fc:	5d                   	pop    %rbp
ffffffff810066fd:	48 cf                	iretq  

ffffffff810066ff <isr_242>:
ffffffff810066ff:	55                   	push   %rbp
ffffffff81006700:	48 89 e5             	mov    %rsp,%rbp
ffffffff81006703:	41 53                	push   %r11
ffffffff81006705:	41 52                	push   %r10
ffffffff81006707:	41 51                	push   %r9
ffffffff81006709:	41 50                	push   %r8
ffffffff8100670b:	57                   	push   %rdi
ffffffff8100670c:	56                   	push   %rsi
ffffffff8100670d:	51                   	push   %rcx
ffffffff8100670e:	52                   	push   %rdx
ffffffff8100670f:	50                   	push   %rax
ffffffff81006710:	fc                   	cld    
ffffffff81006711:	bf f2 00 00 00       	mov    $0xf2,%edi
ffffffff81006716:	be 00 00 00 00       	mov    $0x0,%esi
ffffffff8100671b:	e8 9d ce ff ff       	callq  ffffffff810035bd <isr_dispatcher>
ffffffff81006720:	58                   	pop    %rax
ffffffff81006721:	5a                   	pop    %rdx
ffffffff81006722:	59                   	pop    %rcx
ffffffff81006723:	5e                   	pop    %rsi
ffffffff81006724:	5f                   	pop    %rdi
ffffffff81006725:	41 58                	pop    %r8
ffffffff81006727:	41 59                	pop    %r9
ffffffff81006729:	41 5a                	pop    %r10
ffffffff8100672b:	41 5b                	pop    %r11
ffffffff8100672d:	5d                   	pop    %rbp
ffffffff8100672e:	48 cf                	iretq  

ffffffff81006730 <isr_243>:
ffffffff81006730:	55                   	push   %rbp
ffffffff81006731:	48 89 e5             	mov    %rsp,%rbp
ffffffff81006734:	41 53                	push   %r11
ffffffff81006736:	41 52                	push   %r10
ffffffff81006738:	41 51                	push   %r9
ffffffff8100673a:	41 50                	push   %r8
ffffffff8100673c:	57                   	push   %rdi
ffffffff8100673d:	56                   	push   %rsi
ffffffff8100673e:	51                   	push   %rcx
ffffffff8100673f:	52                   	push   %rdx
ffffffff81006740:	50                   	push   %rax
ffffffff81006741:	fc                   	cld    
ffffffff81006742:	bf f3 00 00 00       	mov    $0xf3,%edi
ffffffff81006747:	be 00 00 00 00       	mov    $0x0,%esi
ffffffff8100674c:	e8 6c ce ff ff       	callq  ffffffff810035bd <isr_dispatcher>
ffffffff81006751:	58                   	pop    %rax
ffffffff81006752:	5a                   	pop    %rdx
ffffffff81006753:	59                   	pop    %rcx
ffffffff81006754:	5e                   	pop    %rsi
ffffffff81006755:	5f                   	pop    %rdi
ffffffff81006756:	41 58                	pop    %r8
ffffffff81006758:	41 59                	pop    %r9
ffffffff8100675a:	41 5a                	pop    %r10
ffffffff8100675c:	41 5b                	pop    %r11
ffffffff8100675e:	5d                   	pop    %rbp
ffffffff8100675f:	48 cf                	iretq  

ffffffff81006761 <isr_244>:
ffffffff81006761:	55                   	push   %rbp
ffffffff81006762:	48 89 e5             	mov    %rsp,%rbp
ffffffff81006765:	41 53                	push   %r11
ffffffff81006767:	41 52                	push   %r10
ffffffff81006769:	41 51                	push   %r9
ffffffff8100676b:	41 50                	push   %r8
ffffffff8100676d:	57                   	push   %rdi
ffffffff8100676e:	56                   	push   %rsi
ffffffff8100676f:	51                   	push   %rcx
ffffffff81006770:	52                   	push   %rdx
ffffffff81006771:	50                   	push   %rax
ffffffff81006772:	fc                   	cld    
ffffffff81006773:	bf f4 00 00 00       	mov    $0xf4,%edi
ffffffff81006778:	be 00 00 00 00       	mov    $0x0,%esi
ffffffff8100677d:	e8 3b ce ff ff       	callq  ffffffff810035bd <isr_dispatcher>
ffffffff81006782:	58                   	pop    %rax
ffffffff81006783:	5a                   	pop    %rdx
ffffffff81006784:	59                   	pop    %rcx
ffffffff81006785:	5e                   	pop    %rsi
ffffffff81006786:	5f                   	pop    %rdi
ffffffff81006787:	41 58                	pop    %r8
ffffffff81006789:	41 59                	pop    %r9
ffffffff8100678b:	41 5a                	pop    %r10
ffffffff8100678d:	41 5b                	pop    %r11
ffffffff8100678f:	5d                   	pop    %rbp
ffffffff81006790:	48 cf                	iretq  

ffffffff81006792 <isr_245>:
ffffffff81006792:	55                   	push   %rbp
ffffffff81006793:	48 89 e5             	mov    %rsp,%rbp
ffffffff81006796:	41 53                	push   %r11
ffffffff81006798:	41 52                	push   %r10
ffffffff8100679a:	41 51                	push   %r9
ffffffff8100679c:	41 50                	push   %r8
ffffffff8100679e:	57                   	push   %rdi
ffffffff8100679f:	56                   	push   %rsi
ffffffff810067a0:	51                   	push   %rcx
ffffffff810067a1:	52                   	push   %rdx
ffffffff810067a2:	50                   	push   %rax
ffffffff810067a3:	fc                   	cld    
ffffffff810067a4:	bf f5 00 00 00       	mov    $0xf5,%edi
ffffffff810067a9:	be 00 00 00 00       	mov    $0x0,%esi
ffffffff810067ae:	e8 0a ce ff ff       	callq  ffffffff810035bd <isr_dispatcher>
ffffffff810067b3:	58                   	pop    %rax
ffffffff810067b4:	5a                   	pop    %rdx
ffffffff810067b5:	59                   	pop    %rcx
ffffffff810067b6:	5e                   	pop    %rsi
ffffffff810067b7:	5f                   	pop    %rdi
ffffffff810067b8:	41 58                	pop    %r8
ffffffff810067ba:	41 59                	pop    %r9
ffffffff810067bc:	41 5a                	pop    %r10
ffffffff810067be:	41 5b                	pop    %r11
ffffffff810067c0:	5d                   	pop    %rbp
ffffffff810067c1:	48 cf                	iretq  

ffffffff810067c3 <isr_246>:
ffffffff810067c3:	55                   	push   %rbp
ffffffff810067c4:	48 89 e5             	mov    %rsp,%rbp
ffffffff810067c7:	41 53                	push   %r11
ffffffff810067c9:	41 52                	push   %r10
ffffffff810067cb:	41 51                	push   %r9
ffffffff810067cd:	41 50                	push   %r8
ffffffff810067cf:	57                   	push   %rdi
ffffffff810067d0:	56                   	push   %rsi
ffffffff810067d1:	51                   	push   %rcx
ffffffff810067d2:	52                   	push   %rdx
ffffffff810067d3:	50                   	push   %rax
ffffffff810067d4:	fc                   	cld    
ffffffff810067d5:	bf f6 00 00 00       	mov    $0xf6,%edi
ffffffff810067da:	be 00 00 00 00       	mov    $0x0,%esi
ffffffff810067df:	e8 d9 cd ff ff       	callq  ffffffff810035bd <isr_dispatcher>
ffffffff810067e4:	58                   	pop    %rax
ffffffff810067e5:	5a                   	pop    %rdx
ffffffff810067e6:	59                   	pop    %rcx
ffffffff810067e7:	5e                   	pop    %rsi
ffffffff810067e8:	5f                   	pop    %rdi
ffffffff810067e9:	41 58                	pop    %r8
ffffffff810067eb:	41 59                	pop    %r9
ffffffff810067ed:	41 5a                	pop    %r10
ffffffff810067ef:	41 5b                	pop    %r11
ffffffff810067f1:	5d                   	pop    %rbp
ffffffff810067f2:	48 cf                	iretq  

ffffffff810067f4 <isr_247>:
ffffffff810067f4:	55                   	push   %rbp
ffffffff810067f5:	48 89 e5             	mov    %rsp,%rbp
ffffffff810067f8:	41 53                	push   %r11
ffffffff810067fa:	41 52                	push   %r10
ffffffff810067fc:	41 51                	push   %r9
ffffffff810067fe:	41 50                	push   %r8
ffffffff81006800:	57                   	push   %rdi
ffffffff81006801:	56                   	push   %rsi
ffffffff81006802:	51                   	push   %rcx
ffffffff81006803:	52                   	push   %rdx
ffffffff81006804:	50                   	push   %rax
ffffffff81006805:	fc                   	cld    
ffffffff81006806:	bf f7 00 00 00       	mov    $0xf7,%edi
ffffffff8100680b:	be 00 00 00 00       	mov    $0x0,%esi
ffffffff81006810:	e8 a8 cd ff ff       	callq  ffffffff810035bd <isr_dispatcher>
ffffffff81006815:	58                   	pop    %rax
ffffffff81006816:	5a                   	pop    %rdx
ffffffff81006817:	59                   	pop    %rcx
ffffffff81006818:	5e                   	pop    %rsi
ffffffff81006819:	5f                   	pop    %rdi
ffffffff8100681a:	41 58                	pop    %r8
ffffffff8100681c:	41 59                	pop    %r9
ffffffff8100681e:	41 5a                	pop    %r10
ffffffff81006820:	41 5b                	pop    %r11
ffffffff81006822:	5d                   	pop    %rbp
ffffffff81006823:	48 cf                	iretq  

ffffffff81006825 <isr_248>:
ffffffff81006825:	55                   	push   %rbp
ffffffff81006826:	48 89 e5             	mov    %rsp,%rbp
ffffffff81006829:	41 53                	push   %r11
ffffffff8100682b:	41 52                	push   %r10
ffffffff8100682d:	41 51                	push   %r9
ffffffff8100682f:	41 50                	push   %r8
ffffffff81006831:	57                   	push   %rdi
ffffffff81006832:	56                   	push   %rsi
ffffffff81006833:	51                   	push   %rcx
ffffffff81006834:	52                   	push   %rdx
ffffffff81006835:	50                   	push   %rax
ffffffff81006836:	fc                   	cld    
ffffffff81006837:	bf f8 00 00 00       	mov    $0xf8,%edi
ffffffff8100683c:	be 00 00 00 00       	mov    $0x0,%esi
ffffffff81006841:	e8 77 cd ff ff       	callq  ffffffff810035bd <isr_dispatcher>
ffffffff81006846:	58                   	pop    %rax
ffffffff81006847:	5a                   	pop    %rdx
ffffffff81006848:	59                   	pop    %rcx
ffffffff81006849:	5e                   	pop    %rsi
ffffffff8100684a:	5f                   	pop    %rdi
ffffffff8100684b:	41 58                	pop    %r8
ffffffff8100684d:	41 59                	pop    %r9
ffffffff8100684f:	41 5a                	pop    %r10
ffffffff81006851:	41 5b                	pop    %r11
ffffffff81006853:	5d                   	pop    %rbp
ffffffff81006854:	48 cf                	iretq  

ffffffff81006856 <isr_249>:
ffffffff81006856:	55                   	push   %rbp
ffffffff81006857:	48 89 e5             	mov    %rsp,%rbp
ffffffff8100685a:	41 53                	push   %r11
ffffffff8100685c:	41 52                	push   %r10
ffffffff8100685e:	41 51                	push   %r9
ffffffff81006860:	41 50                	push   %r8
ffffffff81006862:	57                   	push   %rdi
ffffffff81006863:	56                   	push   %rsi
ffffffff81006864:	51                   	push   %rcx
ffffffff81006865:	52                   	push   %rdx
ffffffff81006866:	50                   	push   %rax
ffffffff81006867:	fc                   	cld    
ffffffff81006868:	bf f9 00 00 00       	mov    $0xf9,%edi
ffffffff8100686d:	be 00 00 00 00       	mov    $0x0,%esi
ffffffff81006872:	e8 46 cd ff ff       	callq  ffffffff810035bd <isr_dispatcher>
ffffffff81006877:	58                   	pop    %rax
ffffffff81006878:	5a                   	pop    %rdx
ffffffff81006879:	59                   	pop    %rcx
ffffffff8100687a:	5e                   	pop    %rsi
ffffffff8100687b:	5f                   	pop    %rdi
ffffffff8100687c:	41 58                	pop    %r8
ffffffff8100687e:	41 59                	pop    %r9
ffffffff81006880:	41 5a                	pop    %r10
ffffffff81006882:	41 5b                	pop    %r11
ffffffff81006884:	5d                   	pop    %rbp
ffffffff81006885:	48 cf                	iretq  

ffffffff81006887 <isr_250>:
ffffffff81006887:	55                   	push   %rbp
ffffffff81006888:	48 89 e5             	mov    %rsp,%rbp
ffffffff8100688b:	41 53                	push   %r11
ffffffff8100688d:	41 52                	push   %r10
ffffffff8100688f:	41 51                	push   %r9
ffffffff81006891:	41 50                	push   %r8
ffffffff81006893:	57                   	push   %rdi
ffffffff81006894:	56                   	push   %rsi
ffffffff81006895:	51                   	push   %rcx
ffffffff81006896:	52                   	push   %rdx
ffffffff81006897:	50                   	push   %rax
ffffffff81006898:	fc                   	cld    
ffffffff81006899:	bf fa 00 00 00       	mov    $0xfa,%edi
ffffffff8100689e:	be 00 00 00 00       	mov    $0x0,%esi
ffffffff810068a3:	e8 15 cd ff ff       	callq  ffffffff810035bd <isr_dispatcher>
ffffffff810068a8:	58                   	pop    %rax
ffffffff810068a9:	5a                   	pop    %rdx
ffffffff810068aa:	59                   	pop    %rcx
ffffffff810068ab:	5e                   	pop    %rsi
ffffffff810068ac:	5f                   	pop    %rdi
ffffffff810068ad:	41 58                	pop    %r8
ffffffff810068af:	41 59                	pop    %r9
ffffffff810068b1:	41 5a                	pop    %r10
ffffffff810068b3:	41 5b                	pop    %r11
ffffffff810068b5:	5d                   	pop    %rbp
ffffffff810068b6:	48 cf                	iretq  

ffffffff810068b8 <isr_251>:
ffffffff810068b8:	55                   	push   %rbp
ffffffff810068b9:	48 89 e5             	mov    %rsp,%rbp
ffffffff810068bc:	41 53                	push   %r11
ffffffff810068be:	41 52                	push   %r10
ffffffff810068c0:	41 51                	push   %r9
ffffffff810068c2:	41 50                	push   %r8
ffffffff810068c4:	57                   	push   %rdi
ffffffff810068c5:	56                   	push   %rsi
ffffffff810068c6:	51                   	push   %rcx
ffffffff810068c7:	52                   	push   %rdx
ffffffff810068c8:	50                   	push   %rax
ffffffff810068c9:	fc                   	cld    
ffffffff810068ca:	bf fb 00 00 00       	mov    $0xfb,%edi
ffffffff810068cf:	be 00 00 00 00       	mov    $0x0,%esi
ffffffff810068d4:	e8 e4 cc ff ff       	callq  ffffffff810035bd <isr_dispatcher>
ffffffff810068d9:	58                   	pop    %rax
ffffffff810068da:	5a                   	pop    %rdx
ffffffff810068db:	59                   	pop    %rcx
ffffffff810068dc:	5e                   	pop    %rsi
ffffffff810068dd:	5f                   	pop    %rdi
ffffffff810068de:	41 58                	pop    %r8
ffffffff810068e0:	41 59                	pop    %r9
ffffffff810068e2:	41 5a                	pop    %r10
ffffffff810068e4:	41 5b                	pop    %r11
ffffffff810068e6:	5d                   	pop    %rbp
ffffffff810068e7:	48 cf                	iretq  

ffffffff810068e9 <isr_252>:
ffffffff810068e9:	55                   	push   %rbp
ffffffff810068ea:	48 89 e5             	mov    %rsp,%rbp
ffffffff810068ed:	41 53                	push   %r11
ffffffff810068ef:	41 52                	push   %r10
ffffffff810068f1:	41 51                	push   %r9
ffffffff810068f3:	41 50                	push   %r8
ffffffff810068f5:	57                   	push   %rdi
ffffffff810068f6:	56                   	push   %rsi
ffffffff810068f7:	51                   	push   %rcx
ffffffff810068f8:	52                   	push   %rdx
ffffffff810068f9:	50                   	push   %rax
ffffffff810068fa:	fc                   	cld    
ffffffff810068fb:	bf fc 00 00 00       	mov    $0xfc,%edi
ffffffff81006900:	be 00 00 00 00       	mov    $0x0,%esi
ffffffff81006905:	e8 b3 cc ff ff       	callq  ffffffff810035bd <isr_dispatcher>
ffffffff8100690a:	58                   	pop    %rax
ffffffff8100690b:	5a                   	pop    %rdx
ffffffff8100690c:	59                   	pop    %rcx
ffffffff8100690d:	5e                   	pop    %rsi
ffffffff8100690e:	5f                   	pop    %rdi
ffffffff8100690f:	41 58                	pop    %r8
ffffffff81006911:	41 59                	pop    %r9
ffffffff81006913:	41 5a                	pop    %r10
ffffffff81006915:	41 5b                	pop    %r11
ffffffff81006917:	5d                   	pop    %rbp
ffffffff81006918:	48 cf                	iretq  

ffffffff8100691a <isr_253>:
ffffffff8100691a:	55                   	push   %rbp
ffffffff8100691b:	48 89 e5             	mov    %rsp,%rbp
ffffffff8100691e:	41 53                	push   %r11
ffffffff81006920:	41 52                	push   %r10
ffffffff81006922:	41 51                	push   %r9
ffffffff81006924:	41 50                	push   %r8
ffffffff81006926:	57                   	push   %rdi
ffffffff81006927:	56                   	push   %rsi
ffffffff81006928:	51                   	push   %rcx
ffffffff81006929:	52                   	push   %rdx
ffffffff8100692a:	50                   	push   %rax
ffffffff8100692b:	fc                   	cld    
ffffffff8100692c:	bf fd 00 00 00       	mov    $0xfd,%edi
ffffffff81006931:	be 00 00 00 00       	mov    $0x0,%esi
ffffffff81006936:	e8 82 cc ff ff       	callq  ffffffff810035bd <isr_dispatcher>
ffffffff8100693b:	58                   	pop    %rax
ffffffff8100693c:	5a                   	pop    %rdx
ffffffff8100693d:	59                   	pop    %rcx
ffffffff8100693e:	5e                   	pop    %rsi
ffffffff8100693f:	5f                   	pop    %rdi
ffffffff81006940:	41 58                	pop    %r8
ffffffff81006942:	41 59                	pop    %r9
ffffffff81006944:	41 5a                	pop    %r10
ffffffff81006946:	41 5b                	pop    %r11
ffffffff81006948:	5d                   	pop    %rbp
ffffffff81006949:	48 cf                	iretq  

ffffffff8100694b <isr_254>:
ffffffff8100694b:	55                   	push   %rbp
ffffffff8100694c:	48 89 e5             	mov    %rsp,%rbp
ffffffff8100694f:	41 53                	push   %r11
ffffffff81006951:	41 52                	push   %r10
ffffffff81006953:	41 51                	push   %r9
ffffffff81006955:	41 50                	push   %r8
ffffffff81006957:	57                   	push   %rdi
ffffffff81006958:	56                   	push   %rsi
ffffffff81006959:	51                   	push   %rcx
ffffffff8100695a:	52                   	push   %rdx
ffffffff8100695b:	50                   	push   %rax
ffffffff8100695c:	fc                   	cld    
ffffffff8100695d:	bf fe 00 00 00       	mov    $0xfe,%edi
ffffffff81006962:	be 00 00 00 00       	mov    $0x0,%esi
ffffffff81006967:	e8 51 cc ff ff       	callq  ffffffff810035bd <isr_dispatcher>
ffffffff8100696c:	58                   	pop    %rax
ffffffff8100696d:	5a                   	pop    %rdx
ffffffff8100696e:	59                   	pop    %rcx
ffffffff8100696f:	5e                   	pop    %rsi
ffffffff81006970:	5f                   	pop    %rdi
ffffffff81006971:	41 58                	pop    %r8
ffffffff81006973:	41 59                	pop    %r9
ffffffff81006975:	41 5a                	pop    %r10
ffffffff81006977:	41 5b                	pop    %r11
ffffffff81006979:	5d                   	pop    %rbp
ffffffff8100697a:	48 cf                	iretq  

ffffffff8100697c <isr_255>:
ffffffff8100697c:	55                   	push   %rbp
ffffffff8100697d:	48 89 e5             	mov    %rsp,%rbp
ffffffff81006980:	41 53                	push   %r11
ffffffff81006982:	41 52                	push   %r10
ffffffff81006984:	41 51                	push   %r9
ffffffff81006986:	41 50                	push   %r8
ffffffff81006988:	57                   	push   %rdi
ffffffff81006989:	56                   	push   %rsi
ffffffff8100698a:	51                   	push   %rcx
ffffffff8100698b:	52                   	push   %rdx
ffffffff8100698c:	50                   	push   %rax
ffffffff8100698d:	fc                   	cld    
ffffffff8100698e:	bf ff 00 00 00       	mov    $0xff,%edi
ffffffff81006993:	be 00 00 00 00       	mov    $0x0,%esi
ffffffff81006998:	e8 20 cc ff ff       	callq  ffffffff810035bd <isr_dispatcher>
ffffffff8100699d:	58                   	pop    %rax
ffffffff8100699e:	5a                   	pop    %rdx
ffffffff8100699f:	59                   	pop    %rcx
ffffffff810069a0:	5e                   	pop    %rsi
ffffffff810069a1:	5f                   	pop    %rdi
ffffffff810069a2:	41 58                	pop    %r8
ffffffff810069a4:	41 59                	pop    %r9
ffffffff810069a6:	41 5a                	pop    %r10
ffffffff810069a8:	41 5b                	pop    %r11
ffffffff810069aa:	5d                   	pop    %rbp
ffffffff810069ab:	48 cf                	iretq  

ffffffff810069ad <isr_ec_begin>:
ffffffff810069ad:	55                   	push   %rbp
ffffffff810069ae:	48 89 e5             	mov    %rsp,%rbp
ffffffff810069b1:	41 53                	push   %r11
ffffffff810069b3:	41 52                	push   %r10
ffffffff810069b5:	41 51                	push   %r9
ffffffff810069b7:	41 50                	push   %r8
ffffffff810069b9:	57                   	push   %rdi
ffffffff810069ba:	56                   	push   %rsi
ffffffff810069bb:	51                   	push   %rcx
ffffffff810069bc:	52                   	push   %rdx
ffffffff810069bd:	50                   	push   %rax
ffffffff810069be:	fc                   	cld    
ffffffff810069bf:	bf 08 00 00 00       	mov    $0x8,%edi
ffffffff810069c4:	48 8b 75 08          	mov    0x8(%rbp),%rsi
ffffffff810069c8:	48 8b 55 10          	mov    0x10(%rbp),%rdx
ffffffff810069cc:	e8 ec cb ff ff       	callq  ffffffff810035bd <isr_dispatcher>
ffffffff810069d1:	58                   	pop    %rax
ffffffff810069d2:	5a                   	pop    %rdx
ffffffff810069d3:	59                   	pop    %rcx
ffffffff810069d4:	5e                   	pop    %rsi
ffffffff810069d5:	5f                   	pop    %rdi
ffffffff810069d6:	41 58                	pop    %r8
ffffffff810069d8:	41 59                	pop    %r9
ffffffff810069da:	41 5a                	pop    %r10
ffffffff810069dc:	41 5b                	pop    %r11
ffffffff810069de:	5d                   	pop    %rbp
ffffffff810069df:	48 83 c4 08          	add    $0x8,%rsp
ffffffff810069e3:	48 cf                	iretq  

ffffffff810069e5 <isr_10>:
ffffffff810069e5:	55                   	push   %rbp
ffffffff810069e6:	48 89 e5             	mov    %rsp,%rbp
ffffffff810069e9:	41 53                	push   %r11
ffffffff810069eb:	41 52                	push   %r10
ffffffff810069ed:	41 51                	push   %r9
ffffffff810069ef:	41 50                	push   %r8
ffffffff810069f1:	57                   	push   %rdi
ffffffff810069f2:	56                   	push   %rsi
ffffffff810069f3:	51                   	push   %rcx
ffffffff810069f4:	52                   	push   %rdx
ffffffff810069f5:	50                   	push   %rax
ffffffff810069f6:	fc                   	cld    
ffffffff810069f7:	bf 0a 00 00 00       	mov    $0xa,%edi
ffffffff810069fc:	48 8b 75 08          	mov    0x8(%rbp),%rsi
ffffffff81006a00:	48 8b 55 10          	mov    0x10(%rbp),%rdx
ffffffff81006a04:	e8 b4 cb ff ff       	callq  ffffffff810035bd <isr_dispatcher>
ffffffff81006a09:	58                   	pop    %rax
ffffffff81006a0a:	5a                   	pop    %rdx
ffffffff81006a0b:	59                   	pop    %rcx
ffffffff81006a0c:	5e                   	pop    %rsi
ffffffff81006a0d:	5f                   	pop    %rdi
ffffffff81006a0e:	41 58                	pop    %r8
ffffffff81006a10:	41 59                	pop    %r9
ffffffff81006a12:	41 5a                	pop    %r10
ffffffff81006a14:	41 5b                	pop    %r11
ffffffff81006a16:	5d                   	pop    %rbp
ffffffff81006a17:	48 83 c4 08          	add    $0x8,%rsp
ffffffff81006a1b:	48 cf                	iretq  

ffffffff81006a1d <isr_11>:
ffffffff81006a1d:	55                   	push   %rbp
ffffffff81006a1e:	48 89 e5             	mov    %rsp,%rbp
ffffffff81006a21:	41 53                	push   %r11
ffffffff81006a23:	41 52                	push   %r10
ffffffff81006a25:	41 51                	push   %r9
ffffffff81006a27:	41 50                	push   %r8
ffffffff81006a29:	57                   	push   %rdi
ffffffff81006a2a:	56                   	push   %rsi
ffffffff81006a2b:	51                   	push   %rcx
ffffffff81006a2c:	52                   	push   %rdx
ffffffff81006a2d:	50                   	push   %rax
ffffffff81006a2e:	fc                   	cld    
ffffffff81006a2f:	bf 0b 00 00 00       	mov    $0xb,%edi
ffffffff81006a34:	48 8b 75 08          	mov    0x8(%rbp),%rsi
ffffffff81006a38:	48 8b 55 10          	mov    0x10(%rbp),%rdx
ffffffff81006a3c:	e8 7c cb ff ff       	callq  ffffffff810035bd <isr_dispatcher>
ffffffff81006a41:	58                   	pop    %rax
ffffffff81006a42:	5a                   	pop    %rdx
ffffffff81006a43:	59                   	pop    %rcx
ffffffff81006a44:	5e                   	pop    %rsi
ffffffff81006a45:	5f                   	pop    %rdi
ffffffff81006a46:	41 58                	pop    %r8
ffffffff81006a48:	41 59                	pop    %r9
ffffffff81006a4a:	41 5a                	pop    %r10
ffffffff81006a4c:	41 5b                	pop    %r11
ffffffff81006a4e:	5d                   	pop    %rbp
ffffffff81006a4f:	48 83 c4 08          	add    $0x8,%rsp
ffffffff81006a53:	48 cf                	iretq  

ffffffff81006a55 <isr_12>:
ffffffff81006a55:	55                   	push   %rbp
ffffffff81006a56:	48 89 e5             	mov    %rsp,%rbp
ffffffff81006a59:	41 53                	push   %r11
ffffffff81006a5b:	41 52                	push   %r10
ffffffff81006a5d:	41 51                	push   %r9
ffffffff81006a5f:	41 50                	push   %r8
ffffffff81006a61:	57                   	push   %rdi
ffffffff81006a62:	56                   	push   %rsi
ffffffff81006a63:	51                   	push   %rcx
ffffffff81006a64:	52                   	push   %rdx
ffffffff81006a65:	50                   	push   %rax
ffffffff81006a66:	fc                   	cld    
ffffffff81006a67:	bf 0c 00 00 00       	mov    $0xc,%edi
ffffffff81006a6c:	48 8b 75 08          	mov    0x8(%rbp),%rsi
ffffffff81006a70:	48 8b 55 10          	mov    0x10(%rbp),%rdx
ffffffff81006a74:	e8 44 cb ff ff       	callq  ffffffff810035bd <isr_dispatcher>
ffffffff81006a79:	58                   	pop    %rax
ffffffff81006a7a:	5a                   	pop    %rdx
ffffffff81006a7b:	59                   	pop    %rcx
ffffffff81006a7c:	5e                   	pop    %rsi
ffffffff81006a7d:	5f                   	pop    %rdi
ffffffff81006a7e:	41 58                	pop    %r8
ffffffff81006a80:	41 59                	pop    %r9
ffffffff81006a82:	41 5a                	pop    %r10
ffffffff81006a84:	41 5b                	pop    %r11
ffffffff81006a86:	5d                   	pop    %rbp
ffffffff81006a87:	48 83 c4 08          	add    $0x8,%rsp
ffffffff81006a8b:	48 cf                	iretq  

ffffffff81006a8d <isr_13>:
ffffffff81006a8d:	55                   	push   %rbp
ffffffff81006a8e:	48 89 e5             	mov    %rsp,%rbp
ffffffff81006a91:	41 53                	push   %r11
ffffffff81006a93:	41 52                	push   %r10
ffffffff81006a95:	41 51                	push   %r9
ffffffff81006a97:	41 50                	push   %r8
ffffffff81006a99:	57                   	push   %rdi
ffffffff81006a9a:	56                   	push   %rsi
ffffffff81006a9b:	51                   	push   %rcx
ffffffff81006a9c:	52                   	push   %rdx
ffffffff81006a9d:	50                   	push   %rax
ffffffff81006a9e:	fc                   	cld    
ffffffff81006a9f:	bf 0d 00 00 00       	mov    $0xd,%edi
ffffffff81006aa4:	48 8b 75 08          	mov    0x8(%rbp),%rsi
ffffffff81006aa8:	48 8b 55 10          	mov    0x10(%rbp),%rdx
ffffffff81006aac:	e8 0c cb ff ff       	callq  ffffffff810035bd <isr_dispatcher>
ffffffff81006ab1:	58                   	pop    %rax
ffffffff81006ab2:	5a                   	pop    %rdx
ffffffff81006ab3:	59                   	pop    %rcx
ffffffff81006ab4:	5e                   	pop    %rsi
ffffffff81006ab5:	5f                   	pop    %rdi
ffffffff81006ab6:	41 58                	pop    %r8
ffffffff81006ab8:	41 59                	pop    %r9
ffffffff81006aba:	41 5a                	pop    %r10
ffffffff81006abc:	41 5b                	pop    %r11
ffffffff81006abe:	5d                   	pop    %rbp
ffffffff81006abf:	48 83 c4 08          	add    $0x8,%rsp
ffffffff81006ac3:	48 cf                	iretq  

ffffffff81006ac5 <isr_14>:
ffffffff81006ac5:	55                   	push   %rbp
ffffffff81006ac6:	48 89 e5             	mov    %rsp,%rbp
ffffffff81006ac9:	41 53                	push   %r11
ffffffff81006acb:	41 52                	push   %r10
ffffffff81006acd:	41 51                	push   %r9
ffffffff81006acf:	41 50                	push   %r8
ffffffff81006ad1:	57                   	push   %rdi
ffffffff81006ad2:	56                   	push   %rsi
ffffffff81006ad3:	51                   	push   %rcx
ffffffff81006ad4:	52                   	push   %rdx
ffffffff81006ad5:	50                   	push   %rax
ffffffff81006ad6:	fc                   	cld    
ffffffff81006ad7:	bf 0e 00 00 00       	mov    $0xe,%edi
ffffffff81006adc:	48 8b 75 08          	mov    0x8(%rbp),%rsi
ffffffff81006ae0:	48 8b 55 10          	mov    0x10(%rbp),%rdx
ffffffff81006ae4:	e8 d4 ca ff ff       	callq  ffffffff810035bd <isr_dispatcher>
ffffffff81006ae9:	58                   	pop    %rax
ffffffff81006aea:	5a                   	pop    %rdx
ffffffff81006aeb:	59                   	pop    %rcx
ffffffff81006aec:	5e                   	pop    %rsi
ffffffff81006aed:	5f                   	pop    %rdi
ffffffff81006aee:	41 58                	pop    %r8
ffffffff81006af0:	41 59                	pop    %r9
ffffffff81006af2:	41 5a                	pop    %r10
ffffffff81006af4:	41 5b                	pop    %r11
ffffffff81006af6:	5d                   	pop    %rbp
ffffffff81006af7:	48 83 c4 08          	add    $0x8,%rsp
ffffffff81006afb:	48 cf                	iretq  

ffffffff81006afd <isr_ec_sz_start>:
ffffffff81006afd:	55                   	push   %rbp
ffffffff81006afe:	48 89 e5             	mov    %rsp,%rbp
ffffffff81006b01:	41 53                	push   %r11
ffffffff81006b03:	41 52                	push   %r10
ffffffff81006b05:	41 51                	push   %r9
ffffffff81006b07:	41 50                	push   %r8
ffffffff81006b09:	57                   	push   %rdi
ffffffff81006b0a:	56                   	push   %rsi
ffffffff81006b0b:	51                   	push   %rcx
ffffffff81006b0c:	52                   	push   %rdx
ffffffff81006b0d:	50                   	push   %rax
ffffffff81006b0e:	fc                   	cld    
ffffffff81006b0f:	bf 11 00 00 00       	mov    $0x11,%edi
ffffffff81006b14:	48 8b 75 08          	mov    0x8(%rbp),%rsi
ffffffff81006b18:	48 8b 55 10          	mov    0x10(%rbp),%rdx
ffffffff81006b1c:	e8 9c ca ff ff       	callq  ffffffff810035bd <isr_dispatcher>
ffffffff81006b21:	58                   	pop    %rax
ffffffff81006b22:	5a                   	pop    %rdx
ffffffff81006b23:	59                   	pop    %rcx
ffffffff81006b24:	5e                   	pop    %rsi
ffffffff81006b25:	5f                   	pop    %rdi
ffffffff81006b26:	41 58                	pop    %r8
ffffffff81006b28:	41 59                	pop    %r9
ffffffff81006b2a:	41 5a                	pop    %r10
ffffffff81006b2c:	41 5b                	pop    %r11
ffffffff81006b2e:	5d                   	pop    %rbp
ffffffff81006b2f:	48 83 c4 08          	add    $0x8,%rsp
ffffffff81006b33:	48 cf                	iretq  

ffffffff81006b35 <_cli>:
ffffffff81006b35:	fa                   	cli    
ffffffff81006b36:	c3                   	retq   

ffffffff81006b37 <_sti>:
ffffffff81006b37:	fb                   	sti    
ffffffff81006b38:	c3                   	retq   

ffffffff81006b39 <_geti>:
ffffffff81006b39:	9c                   	pushfq 
ffffffff81006b3a:	58                   	pop    %rax
ffffffff81006b3b:	48 25 00 02 00 00    	and    $0x200,%rax
ffffffff81006b41:	c3                   	retq   

ffffffff81006b42 <_lidt>:
ffffffff81006b42:	0f 01 1f             	lidt   (%rdi)
ffffffff81006b45:	c3                   	retq   

ffffffff81006b46 <_lgdt>:
ffffffff81006b46:	0f 01 17             	lgdt   (%rdi)
ffffffff81006b49:	c3                   	retq   

ffffffff81006b4a <_ltr>:
ffffffff81006b4a:	0f 00 df             	ltr    %di
ffffffff81006b4d:	c3                   	retq   
ffffffff81006b4e:	66 90                	xchg   %ax,%ax

ffffffff81006b50 <kernel_higher_half>:
ffffffff81006b50:	0f 01 14 25 00 20 00 	lgdt   0x1002000
ffffffff81006b57:	01 
ffffffff81006b58:	b8 10 00 00 00       	mov    $0x10,%eax
ffffffff81006b5d:	8e d8                	mov    %eax,%ds
ffffffff81006b5f:	8e d0                	mov    %eax,%ss
ffffffff81006b61:	8e c0                	mov    %eax,%es
ffffffff81006b63:	8e e0                	mov    %eax,%fs
ffffffff81006b65:	8e e8                	mov    %eax,%gs
ffffffff81006b67:	48 bd 80 10 01 81 ff 	movabs $0xffffffff81011080,%rbp
ffffffff81006b6e:	ff ff ff 
ffffffff81006b71:	48 bc 80 10 02 81 ff 	movabs $0xffffffff81021080,%rsp
ffffffff81006b78:	ff ff ff 
ffffffff81006b7b:	0f 01 3c 25 00 00 00 	invlpg 0x0
ffffffff81006b82:	00 
ffffffff81006b83:	e8 03 00 00 00       	callq  ffffffff81006b8b <kmain>

ffffffff81006b88 <halt>:
ffffffff81006b88:	f4                   	hlt    
ffffffff81006b89:	eb fd                	jmp    ffffffff81006b88 <halt>

ffffffff81006b8b <kmain>:
ffffffff81006b8b:	55                   	push   %rbp
ffffffff81006b8c:	48 89 e5             	mov    %rsp,%rbp
ffffffff81006b8f:	48 83 ec 30          	sub    $0x30,%rsp
ffffffff81006b93:	48 c7 c7 80 e0 00 81 	mov    $0xffffffff8100e080,%rdi
ffffffff81006b9a:	b8 00 00 00 00       	mov    $0x0,%eax
ffffffff81006b9f:	e8 31 05 00 00       	callq  ffffffff810070d5 <kprintf>
ffffffff81006ba4:	e8 fb 1d 00 00       	callq  ffffffff810089a4 <init_serial>
ffffffff81006ba9:	e8 8b 24 00 00       	callq  ffffffff81009039 <physmm_early_init>
ffffffff81006bae:	e8 78 45 00 00       	callq  ffffffff8100b12b <pagemgr_init>
ffffffff81006bb3:	85 c0                	test   %eax,%eax
ffffffff81006bb5:	0f 85 68 01 00 00    	jne    ffffffff81006d23 <kmain+0x198>
ffffffff81006bbb:	e8 b1 09 00 00       	callq  ffffffff81007571 <vmmgr_init>
ffffffff81006bc0:	85 c0                	test   %eax,%eax
ffffffff81006bc2:	0f 85 5e 01 00 00    	jne    ffffffff81006d26 <kmain+0x19b>
ffffffff81006bc8:	e8 e5 29 00 00       	callq  ffffffff810095b2 <physmm_init>
ffffffff81006bcd:	85 c0                	test   %eax,%eax
ffffffff81006bcf:	0f 85 54 01 00 00    	jne    ffffffff81006d29 <kmain+0x19e>
ffffffff81006bd5:	b8 00 00 00 00       	mov    $0x0,%eax
ffffffff81006bda:	e8 61 ce ff ff       	callq  ffffffff81003a40 <gdt_init>
ffffffff81006bdf:	85 c0                	test   %eax,%eax
ffffffff81006be1:	0f 85 45 01 00 00    	jne    ffffffff81006d2c <kmain+0x1a1>
ffffffff81006be7:	e8 63 60 00 00       	callq  ffffffff8100cc4f <pagemgr_get>
ffffffff81006bec:	48 89 45 f0          	mov    %rax,-0x10(%rbp)
ffffffff81006bf0:	48 c7 c7 90 e0 00 81 	mov    $0xffffffff8100e090,%rdi
ffffffff81006bf7:	b8 00 00 00 00       	mov    $0x0,%eax
ffffffff81006bfc:	e8 d4 04 00 00       	callq  ffffffff810070d5 <kprintf>
ffffffff81006c01:	e8 8f 38 00 00       	callq  ffffffff8100a495 <physmm_dump_bitmaps>
ffffffff81006c06:	ba 00 00 00 00       	mov    $0x0,%edx
ffffffff81006c0b:	48 be 00 00 00 00 01 	movabs $0x100000000,%rsi
ffffffff81006c12:	00 00 00 
ffffffff81006c15:	bf 00 00 00 00       	mov    $0x0,%edi
ffffffff81006c1a:	e8 2a 18 00 00       	callq  ffffffff81008449 <vmmgr_alloc>
ffffffff81006c1f:	48 89 45 e8          	mov    %rax,-0x18(%rbp)
ffffffff81006c23:	48 83 7d e8 00       	cmpq   $0x0,-0x18(%rbp)
ffffffff81006c28:	75 13                	jne    ffffffff81006c3d <kmain+0xb2>
ffffffff81006c2a:	48 c7 c7 c1 e0 00 81 	mov    $0xffffffff8100e0c1,%rdi
ffffffff81006c31:	b8 00 00 00 00       	mov    $0x0,%eax
ffffffff81006c36:	e8 9a 04 00 00       	callq  ffffffff810070d5 <kprintf>
ffffffff81006c3b:	eb fe                	jmp    ffffffff81006c3b <kmain+0xb0>
ffffffff81006c3d:	48 8b 45 e8          	mov    -0x18(%rbp),%rax
ffffffff81006c41:	48 be 00 00 00 00 01 	movabs $0x100000000,%rsi
ffffffff81006c48:	00 00 00 
ffffffff81006c4b:	48 89 c7             	mov    %rax,%rdi
ffffffff81006c4e:	e8 39 1b 00 00       	callq  ffffffff8100878c <vmmgr_free>
ffffffff81006c53:	48 c7 c7 d0 e0 00 81 	mov    $0xffffffff8100e0d0,%rdi
ffffffff81006c5a:	b8 00 00 00 00       	mov    $0x0,%eax
ffffffff81006c5f:	e8 71 04 00 00       	callq  ffffffff810070d5 <kprintf>
ffffffff81006c64:	e8 2c 38 00 00       	callq  ffffffff8100a495 <physmm_dump_bitmaps>
ffffffff81006c69:	48 c7 45 f8 00 00 10 	movq   $0x100000,-0x8(%rbp)
ffffffff81006c70:	00 
ffffffff81006c71:	eb 71                	jmp    ffffffff81006ce4 <kmain+0x159>
ffffffff81006c73:	48 c7 45 e0 00 00 00 	movq   $0x0,-0x20(%rbp)
ffffffff81006c7a:	00 
ffffffff81006c7b:	48 8b 45 f8          	mov    -0x8(%rbp),%rax
ffffffff81006c7f:	48 89 c7             	mov    %rax,%rdi
ffffffff81006c82:	e8 3a 65 00 00       	callq  ffffffff8100d1c1 <kmalloc>
ffffffff81006c87:	48 89 45 d8          	mov    %rax,-0x28(%rbp)
ffffffff81006c8b:	48 83 7d d8 00       	cmpq   $0x0,-0x28(%rbp)
ffffffff81006c90:	75 1a                	jne    ffffffff81006cac <kmain+0x121>
ffffffff81006c92:	48 8b 45 d8          	mov    -0x28(%rbp),%rax
ffffffff81006c96:	48 89 c6             	mov    %rax,%rsi
ffffffff81006c99:	48 c7 c7 00 e1 00 81 	mov    $0xffffffff8100e100,%rdi
ffffffff81006ca0:	b8 00 00 00 00       	mov    $0x0,%eax
ffffffff81006ca5:	e8 2b 04 00 00       	callq  ffffffff810070d5 <kprintf>
ffffffff81006caa:	eb 4c                	jmp    ffffffff81006cf8 <kmain+0x16d>
ffffffff81006cac:	48 8b 55 f8          	mov    -0x8(%rbp),%rdx
ffffffff81006cb0:	48 8b 45 d8          	mov    -0x28(%rbp),%rax
ffffffff81006cb4:	48 89 c6             	mov    %rax,%rsi
ffffffff81006cb7:	48 c7 c7 0a e1 00 81 	mov    $0xffffffff8100e10a,%rdi
ffffffff81006cbe:	b8 00 00 00 00       	mov    $0x0,%eax
ffffffff81006cc3:	e8 0d 04 00 00       	callq  ffffffff810070d5 <kprintf>
ffffffff81006cc8:	48 8b 45 d8          	mov    -0x28(%rbp),%rax
ffffffff81006ccc:	48 89 c7             	mov    %rax,%rdi
ffffffff81006ccf:	e8 a7 6c 00 00       	callq  ffffffff8100d97b <kfree>
ffffffff81006cd4:	48 8b 45 d8          	mov    -0x28(%rbp),%rax
ffffffff81006cd8:	48 89 45 e0          	mov    %rax,-0x20(%rbp)
ffffffff81006cdc:	48 81 45 f8 00 00 10 	addq   $0x100000,-0x8(%rbp)
ffffffff81006ce3:	00 
ffffffff81006ce4:	48 b8 00 00 00 00 01 	movabs $0x100000000,%rax
ffffffff81006ceb:	00 00 00 
ffffffff81006cee:	48 39 45 f8          	cmp    %rax,-0x8(%rbp)
ffffffff81006cf2:	0f 86 7b ff ff ff    	jbe    ffffffff81006c73 <kmain+0xe8>
ffffffff81006cf8:	48 c7 c7 20 e1 00 81 	mov    $0xffffffff8100e120,%rdi
ffffffff81006cff:	b8 00 00 00 00       	mov    $0x0,%eax
ffffffff81006d04:	e8 cc 03 00 00       	callq  ffffffff810070d5 <kprintf>
ffffffff81006d09:	48 8b 45 f8          	mov    -0x8(%rbp),%rax
ffffffff81006d0d:	48 89 c6             	mov    %rax,%rsi
ffffffff81006d10:	48 c7 c7 4f e1 00 81 	mov    $0xffffffff8100e14f,%rdi
ffffffff81006d17:	b8 00 00 00 00       	mov    $0x0,%eax
ffffffff81006d1c:	e8 b4 03 00 00       	callq  ffffffff810070d5 <kprintf>
ffffffff81006d21:	eb fe                	jmp    ffffffff81006d21 <kmain+0x196>
ffffffff81006d23:	90                   	nop
ffffffff81006d24:	eb 07                	jmp    ffffffff81006d2d <kmain+0x1a2>
ffffffff81006d26:	90                   	nop
ffffffff81006d27:	eb 04                	jmp    ffffffff81006d2d <kmain+0x1a2>
ffffffff81006d29:	90                   	nop
ffffffff81006d2a:	eb 01                	jmp    ffffffff81006d2d <kmain+0x1a2>
ffffffff81006d2c:	90                   	nop
ffffffff81006d2d:	c9                   	leaveq 
ffffffff81006d2e:	c3                   	retq   

ffffffff81006d2f <vga_init>:
ffffffff81006d2f:	55                   	push   %rbp
ffffffff81006d30:	48 89 e5             	mov    %rsp,%rbp
ffffffff81006d33:	b9 01 00 00 00       	mov    $0x1,%ecx
ffffffff81006d38:	ba a0 0f 00 00       	mov    $0xfa0,%edx
ffffffff81006d3d:	be 00 00 00 00       	mov    $0x0,%esi
ffffffff81006d42:	bf 00 80 0b 00       	mov    $0xb8000,%edi
ffffffff81006d47:	e8 fd 13 00 00       	callq  ffffffff81008149 <vmmgr_map>
ffffffff81006d4c:	48 89 05 2d a3 01 00 	mov    %rax,0x1a32d(%rip)        # ffffffff81021080 <vga>
ffffffff81006d53:	c6 05 2f a3 01 00 00 	movb   $0x0,0x1a32f(%rip)        # ffffffff81021089 <vga+0x9>
ffffffff81006d5a:	c6 05 27 a3 01 00 00 	movb   $0x0,0x1a327(%rip)        # ffffffff81021088 <vga+0x8>
ffffffff81006d61:	90                   	nop
ffffffff81006d62:	5d                   	pop    %rbp
ffffffff81006d63:	c3                   	retq   

ffffffff81006d64 <vga_scroll>:
ffffffff81006d64:	55                   	push   %rbp
ffffffff81006d65:	48 89 e5             	mov    %rsp,%rbp
ffffffff81006d68:	48 83 ec 20          	sub    $0x20,%rsp
ffffffff81006d6c:	48 8b 05 0d a3 01 00 	mov    0x1a30d(%rip),%rax        # ffffffff81021080 <vga>
ffffffff81006d73:	48 89 45 f8          	mov    %rax,-0x8(%rbp)
ffffffff81006d77:	48 8b 45 f8          	mov    -0x8(%rbp),%rax
ffffffff81006d7b:	48 05 40 1f 00 00    	add    $0x1f40,%rax
ffffffff81006d81:	48 89 45 f0          	mov    %rax,-0x10(%rbp)
ffffffff81006d85:	66 c7 45 ee 00 00    	movw   $0x0,-0x12(%rbp)
ffffffff81006d8b:	eb 49                	jmp    ffffffff81006dd6 <vga_scroll+0x72>
ffffffff81006d8d:	48 8b 4d f0          	mov    -0x10(%rbp),%rcx
ffffffff81006d91:	48 8b 45 f8          	mov    -0x8(%rbp),%rax
ffffffff81006d95:	ba a0 00 00 00       	mov    $0xa0,%edx
ffffffff81006d9a:	48 89 ce             	mov    %rcx,%rsi
ffffffff81006d9d:	48 89 c7             	mov    %rax,%rdi
ffffffff81006da0:	e8 57 3a 00 00       	callq  ffffffff8100a7fc <memcpy>
ffffffff81006da5:	48 8b 45 f0          	mov    -0x10(%rbp),%rax
ffffffff81006da9:	ba a0 00 00 00       	mov    $0xa0,%edx
ffffffff81006dae:	be 00 00 00 00       	mov    $0x0,%esi
ffffffff81006db3:	48 89 c7             	mov    %rax,%rdi
ffffffff81006db6:	e8 ff 39 00 00       	callq  ffffffff8100a7ba <memset>
ffffffff81006dbb:	48 8b 45 f0          	mov    -0x10(%rbp),%rax
ffffffff81006dbf:	48 89 45 f8          	mov    %rax,-0x8(%rbp)
ffffffff81006dc3:	48 81 45 f0 a0 00 00 	addq   $0xa0,-0x10(%rbp)
ffffffff81006dca:	00 
ffffffff81006dcb:	0f b7 45 ee          	movzwl -0x12(%rbp),%eax
ffffffff81006dcf:	83 e8 01             	sub    $0x1,%eax
ffffffff81006dd2:	66 89 45 ee          	mov    %ax,-0x12(%rbp)
ffffffff81006dd6:	66 83 7d ee 18       	cmpw   $0x18,-0x12(%rbp)
ffffffff81006ddb:	76 b0                	jbe    ffffffff81006d8d <vga_scroll+0x29>
ffffffff81006ddd:	0f b6 05 a4 a2 01 00 	movzbl 0x1a2a4(%rip),%eax        # ffffffff81021088 <vga+0x8>
ffffffff81006de4:	ba 19 00 00 00       	mov    $0x19,%edx
ffffffff81006de9:	3c 19                	cmp    $0x19,%al
ffffffff81006deb:	0f 42 c2             	cmovb  %edx,%eax
ffffffff81006dee:	83 e8 19             	sub    $0x19,%eax
ffffffff81006df1:	88 05 91 a2 01 00    	mov    %al,0x1a291(%rip)        # ffffffff81021088 <vga+0x8>
ffffffff81006df7:	c6 05 8b a2 01 00 00 	movb   $0x0,0x1a28b(%rip)        # ffffffff81021089 <vga+0x9>
ffffffff81006dfe:	90                   	nop
ffffffff81006dff:	c9                   	leaveq 
ffffffff81006e00:	c3                   	retq   

ffffffff81006e01 <vga_print>:
ffffffff81006e01:	55                   	push   %rbp
ffffffff81006e02:	48 89 e5             	mov    %rsp,%rbp
ffffffff81006e05:	48 83 ec 40          	sub    $0x40,%rsp
ffffffff81006e09:	48 89 7d d8          	mov    %rdi,-0x28(%rbp)
ffffffff81006e0d:	89 f0                	mov    %esi,%eax
ffffffff81006e0f:	48 89 55 c8          	mov    %rdx,-0x38(%rbp)
ffffffff81006e13:	88 45 d4             	mov    %al,-0x2c(%rbp)
ffffffff81006e16:	0f b6 45 d4          	movzbl -0x2c(%rbp),%eax
ffffffff81006e1a:	c1 e0 08             	shl    $0x8,%eax
ffffffff81006e1d:	66 89 45 fe          	mov    %ax,-0x2(%rbp)
ffffffff81006e21:	c6 45 ef 00          	movb   $0x0,-0x11(%rbp)
ffffffff81006e25:	80 7d d4 00          	cmpb   $0x0,-0x2c(%rbp)
ffffffff81006e29:	75 04                	jne    ffffffff81006e2f <vga_print+0x2e>
ffffffff81006e2b:	c6 45 d4 07          	movb   $0x7,-0x2c(%rbp)
ffffffff81006e2f:	48 c7 45 f0 00 00 00 	movq   $0x0,-0x10(%rbp)
ffffffff81006e36:	00 
ffffffff81006e37:	e9 c7 00 00 00       	jmpq   ffffffff81006f03 <vga_print+0x102>
ffffffff81006e3c:	48 8b 55 d8          	mov    -0x28(%rbp),%rdx
ffffffff81006e40:	48 8b 45 f0          	mov    -0x10(%rbp),%rax
ffffffff81006e44:	48 01 d0             	add    %rdx,%rax
ffffffff81006e47:	0f b6 00             	movzbl (%rax),%eax
ffffffff81006e4a:	88 45 ef             	mov    %al,-0x11(%rbp)
ffffffff81006e4d:	80 7d ef 0a          	cmpb   $0xa,-0x11(%rbp)
ffffffff81006e51:	75 1c                	jne    ffffffff81006e6f <vga_print+0x6e>
ffffffff81006e53:	0f b6 05 2e a2 01 00 	movzbl 0x1a22e(%rip),%eax        # ffffffff81021088 <vga+0x8>
ffffffff81006e5a:	83 c0 01             	add    $0x1,%eax
ffffffff81006e5d:	88 05 25 a2 01 00    	mov    %al,0x1a225(%rip)        # ffffffff81021088 <vga+0x8>
ffffffff81006e63:	c6 05 1f a2 01 00 00 	movb   $0x0,0x1a21f(%rip)        # ffffffff81021089 <vga+0x9>
ffffffff81006e6a:	e9 8f 00 00 00       	jmpq   ffffffff81006efe <vga_print+0xfd>
ffffffff81006e6f:	0f b6 05 13 a2 01 00 	movzbl 0x1a213(%rip),%eax        # ffffffff81021089 <vga+0x9>
ffffffff81006e76:	3c 4f                	cmp    $0x4f,%al
ffffffff81006e78:	76 17                	jbe    ffffffff81006e91 <vga_print+0x90>
ffffffff81006e7a:	0f b6 05 07 a2 01 00 	movzbl 0x1a207(%rip),%eax        # ffffffff81021088 <vga+0x8>
ffffffff81006e81:	83 c0 01             	add    $0x1,%eax
ffffffff81006e84:	88 05 fe a1 01 00    	mov    %al,0x1a1fe(%rip)        # ffffffff81021088 <vga+0x8>
ffffffff81006e8a:	c6 05 f8 a1 01 00 00 	movb   $0x0,0x1a1f8(%rip)        # ffffffff81021089 <vga+0x9>
ffffffff81006e91:	0f b6 05 f0 a1 01 00 	movzbl 0x1a1f0(%rip),%eax        # ffffffff81021088 <vga+0x8>
ffffffff81006e98:	3c 18                	cmp    $0x18,%al
ffffffff81006e9a:	76 0a                	jbe    ffffffff81006ea6 <vga_print+0xa5>
ffffffff81006e9c:	b8 00 00 00 00       	mov    $0x0,%eax
ffffffff81006ea1:	e8 be fe ff ff       	callq  ffffffff81006d64 <vga_scroll>
ffffffff81006ea6:	0f b6 05 db a1 01 00 	movzbl 0x1a1db(%rip),%eax        # ffffffff81021088 <vga+0x8>
ffffffff81006ead:	0f b6 d0             	movzbl %al,%edx
ffffffff81006eb0:	89 d0                	mov    %edx,%eax
ffffffff81006eb2:	c1 e0 02             	shl    $0x2,%eax
ffffffff81006eb5:	01 d0                	add    %edx,%eax
ffffffff81006eb7:	c1 e0 04             	shl    $0x4,%eax
ffffffff81006eba:	89 c2                	mov    %eax,%edx
ffffffff81006ebc:	0f b6 05 c6 a1 01 00 	movzbl 0x1a1c6(%rip),%eax        # ffffffff81021089 <vga+0x9>
ffffffff81006ec3:	0f b6 c0             	movzbl %al,%eax
ffffffff81006ec6:	01 d0                	add    %edx,%eax
ffffffff81006ec8:	66 89 45 ec          	mov    %ax,-0x14(%rbp)
ffffffff81006ecc:	66 81 65 fe 00 ff    	andw   $0xff00,-0x2(%rbp)
ffffffff81006ed2:	0f b6 45 ef          	movzbl -0x11(%rbp),%eax
ffffffff81006ed6:	48 8b 15 a3 a1 01 00 	mov    0x1a1a3(%rip),%rdx        # ffffffff81021080 <vga>
ffffffff81006edd:	0f b7 4d ec          	movzwl -0x14(%rbp),%ecx
ffffffff81006ee1:	48 01 c9             	add    %rcx,%rcx
ffffffff81006ee4:	48 01 ca             	add    %rcx,%rdx
ffffffff81006ee7:	66 0b 45 fe          	or     -0x2(%rbp),%ax
ffffffff81006eeb:	66 89 02             	mov    %ax,(%rdx)
ffffffff81006eee:	0f b6 05 94 a1 01 00 	movzbl 0x1a194(%rip),%eax        # ffffffff81021089 <vga+0x9>
ffffffff81006ef5:	83 c0 01             	add    $0x1,%eax
ffffffff81006ef8:	88 05 8b a1 01 00    	mov    %al,0x1a18b(%rip)        # ffffffff81021089 <vga+0x9>
ffffffff81006efe:	48 83 45 f0 01       	addq   $0x1,-0x10(%rbp)
ffffffff81006f03:	48 8b 45 f0          	mov    -0x10(%rbp),%rax
ffffffff81006f07:	48 3b 45 c8          	cmp    -0x38(%rbp),%rax
ffffffff81006f0b:	73 16                	jae    ffffffff81006f23 <vga_print+0x122>
ffffffff81006f0d:	48 8b 55 d8          	mov    -0x28(%rbp),%rdx
ffffffff81006f11:	48 8b 45 f0          	mov    -0x10(%rbp),%rax
ffffffff81006f15:	48 01 d0             	add    %rdx,%rax
ffffffff81006f18:	0f b6 00             	movzbl (%rax),%eax
ffffffff81006f1b:	84 c0                	test   %al,%al
ffffffff81006f1d:	0f 85 19 ff ff ff    	jne    ffffffff81006e3c <vga_print+0x3b>
ffffffff81006f23:	90                   	nop
ffffffff81006f24:	c9                   	leaveq 
ffffffff81006f25:	c3                   	retq   

ffffffff81006f26 <vga_print_ch>:
ffffffff81006f26:	55                   	push   %rbp
ffffffff81006f27:	48 89 e5             	mov    %rsp,%rbp
ffffffff81006f2a:	48 83 ec 20          	sub    $0x20,%rsp
ffffffff81006f2e:	89 f8                	mov    %edi,%eax
ffffffff81006f30:	88 45 ec             	mov    %al,-0x14(%rbp)
ffffffff81006f33:	66 c7 45 fe 00 07    	movw   $0x700,-0x2(%rbp)
ffffffff81006f39:	80 7d ec 0a          	cmpb   $0xa,-0x14(%rbp)
ffffffff81006f3d:	75 21                	jne    ffffffff81006f60 <vga_print_ch+0x3a>
ffffffff81006f3f:	0f b6 05 42 a1 01 00 	movzbl 0x1a142(%rip),%eax        # ffffffff81021088 <vga+0x8>
ffffffff81006f46:	83 c0 01             	add    $0x1,%eax
ffffffff81006f49:	88 05 39 a1 01 00    	mov    %al,0x1a139(%rip)        # ffffffff81021088 <vga+0x8>
ffffffff81006f4f:	c6 05 33 a1 01 00 00 	movb   $0x0,0x1a133(%rip)        # ffffffff81021089 <vga+0x9>
ffffffff81006f56:	b8 00 00 00 00       	mov    $0x0,%eax
ffffffff81006f5b:	e9 8f 00 00 00       	jmpq   ffffffff81006fef <vga_print_ch+0xc9>
ffffffff81006f60:	0f b6 05 22 a1 01 00 	movzbl 0x1a122(%rip),%eax        # ffffffff81021089 <vga+0x9>
ffffffff81006f67:	3c 4f                	cmp    $0x4f,%al
ffffffff81006f69:	76 17                	jbe    ffffffff81006f82 <vga_print_ch+0x5c>
ffffffff81006f6b:	0f b6 05 16 a1 01 00 	movzbl 0x1a116(%rip),%eax        # ffffffff81021088 <vga+0x8>
ffffffff81006f72:	83 c0 01             	add    $0x1,%eax
ffffffff81006f75:	88 05 0d a1 01 00    	mov    %al,0x1a10d(%rip)        # ffffffff81021088 <vga+0x8>
ffffffff81006f7b:	c6 05 07 a1 01 00 00 	movb   $0x0,0x1a107(%rip)        # ffffffff81021089 <vga+0x9>
ffffffff81006f82:	0f b6 05 ff a0 01 00 	movzbl 0x1a0ff(%rip),%eax        # ffffffff81021088 <vga+0x8>
ffffffff81006f89:	3c 18                	cmp    $0x18,%al
ffffffff81006f8b:	76 0a                	jbe    ffffffff81006f97 <vga_print_ch+0x71>
ffffffff81006f8d:	b8 00 00 00 00       	mov    $0x0,%eax
ffffffff81006f92:	e8 cd fd ff ff       	callq  ffffffff81006d64 <vga_scroll>
ffffffff81006f97:	0f b6 05 ea a0 01 00 	movzbl 0x1a0ea(%rip),%eax        # ffffffff81021088 <vga+0x8>
ffffffff81006f9e:	0f b6 d0             	movzbl %al,%edx
ffffffff81006fa1:	89 d0                	mov    %edx,%eax
ffffffff81006fa3:	c1 e0 02             	shl    $0x2,%eax
ffffffff81006fa6:	01 d0                	add    %edx,%eax
ffffffff81006fa8:	c1 e0 04             	shl    $0x4,%eax
ffffffff81006fab:	89 c2                	mov    %eax,%edx
ffffffff81006fad:	0f b6 05 d5 a0 01 00 	movzbl 0x1a0d5(%rip),%eax        # ffffffff81021089 <vga+0x9>
ffffffff81006fb4:	0f b6 c0             	movzbl %al,%eax
ffffffff81006fb7:	01 d0                	add    %edx,%eax
ffffffff81006fb9:	66 89 45 fc          	mov    %ax,-0x4(%rbp)
ffffffff81006fbd:	66 81 65 fe 00 ff    	andw   $0xff00,-0x2(%rbp)
ffffffff81006fc3:	0f b6 45 ec          	movzbl -0x14(%rbp),%eax
ffffffff81006fc7:	48 8b 15 b2 a0 01 00 	mov    0x1a0b2(%rip),%rdx        # ffffffff81021080 <vga>
ffffffff81006fce:	0f b7 4d fc          	movzwl -0x4(%rbp),%ecx
ffffffff81006fd2:	48 01 c9             	add    %rcx,%rcx
ffffffff81006fd5:	48 01 ca             	add    %rcx,%rdx
ffffffff81006fd8:	66 0b 45 fe          	or     -0x2(%rbp),%ax
ffffffff81006fdc:	66 89 02             	mov    %ax,(%rdx)
ffffffff81006fdf:	0f b6 05 a3 a0 01 00 	movzbl 0x1a0a3(%rip),%eax        # ffffffff81021089 <vga+0x9>
ffffffff81006fe6:	83 c0 01             	add    $0x1,%eax
ffffffff81006fe9:	88 05 9a a0 01 00    	mov    %al,0x1a09a(%rip)        # ffffffff81021089 <vga+0x9>
ffffffff81006fef:	c9                   	leaveq 
ffffffff81006ff0:	c3                   	retq   

ffffffff81006ff1 <itoa>:
ffffffff81006ff1:	55                   	push   %rbp
ffffffff81006ff2:	48 89 e5             	mov    %rsp,%rbp
ffffffff81006ff5:	48 83 ec 38          	sub    $0x38,%rsp
ffffffff81006ff9:	48 89 7d d8          	mov    %rdi,-0x28(%rbp)
ffffffff81006ffd:	48 89 75 d0          	mov    %rsi,-0x30(%rbp)
ffffffff81007001:	89 55 cc             	mov    %edx,-0x34(%rbp)
ffffffff81007004:	83 7d cc 01          	cmpl   $0x1,-0x34(%rbp)
ffffffff81007008:	7e 06                	jle    ffffffff81007010 <itoa+0x1f>
ffffffff8100700a:	83 7d cc 24          	cmpl   $0x24,-0x34(%rbp)
ffffffff8100700e:	7e 10                	jle    ffffffff81007020 <itoa+0x2f>
ffffffff81007010:	48 8b 45 d0          	mov    -0x30(%rbp),%rax
ffffffff81007014:	c6 00 00             	movb   $0x0,(%rax)
ffffffff81007017:	48 8b 45 d0          	mov    -0x30(%rbp),%rax
ffffffff8100701b:	e9 b3 00 00 00       	jmpq   ffffffff810070d3 <itoa+0xe2>
ffffffff81007020:	48 8b 45 d0          	mov    -0x30(%rbp),%rax
ffffffff81007024:	48 89 45 f8          	mov    %rax,-0x8(%rbp)
ffffffff81007028:	48 8b 45 f8          	mov    -0x8(%rbp),%rax
ffffffff8100702c:	48 89 45 e8          	mov    %rax,-0x18(%rbp)
ffffffff81007030:	48 8b 45 f8          	mov    -0x8(%rbp),%rax
ffffffff81007034:	48 89 45 f0          	mov    %rax,-0x10(%rbp)
ffffffff81007038:	8b 45 cc             	mov    -0x34(%rbp),%eax
ffffffff8100703b:	48 63 c8             	movslq %eax,%rcx
ffffffff8100703e:	48 8b 45 d8          	mov    -0x28(%rbp),%rax
ffffffff81007042:	ba 00 00 00 00       	mov    $0x0,%edx
ffffffff81007047:	48 f7 f1             	div    %rcx
ffffffff8100704a:	48 89 d0             	mov    %rdx,%rax
ffffffff8100704d:	48 8d 48 23          	lea    0x23(%rax),%rcx
ffffffff81007051:	48 8b 45 f8          	mov    -0x8(%rbp),%rax
ffffffff81007055:	48 8d 50 01          	lea    0x1(%rax),%rdx
ffffffff81007059:	48 89 55 f8          	mov    %rdx,-0x8(%rbp)
ffffffff8100705d:	0f b6 91 60 e1 00 81 	movzbl -0x7eff1ea0(%rcx),%edx
ffffffff81007064:	88 10                	mov    %dl,(%rax)
ffffffff81007066:	8b 45 cc             	mov    -0x34(%rbp),%eax
ffffffff81007069:	48 63 f0             	movslq %eax,%rsi
ffffffff8100706c:	48 8b 45 d8          	mov    -0x28(%rbp),%rax
ffffffff81007070:	ba 00 00 00 00       	mov    $0x0,%edx
ffffffff81007075:	48 f7 f6             	div    %rsi
ffffffff81007078:	48 89 45 d8          	mov    %rax,-0x28(%rbp)
ffffffff8100707c:	48 83 7d d8 00       	cmpq   $0x0,-0x28(%rbp)
ffffffff81007081:	75 b5                	jne    ffffffff81007038 <itoa+0x47>
ffffffff81007083:	48 8b 45 f8          	mov    -0x8(%rbp),%rax
ffffffff81007087:	48 8d 50 ff          	lea    -0x1(%rax),%rdx
ffffffff8100708b:	48 89 55 f8          	mov    %rdx,-0x8(%rbp)
ffffffff8100708f:	c6 00 00             	movb   $0x0,(%rax)
ffffffff81007092:	eb 31                	jmp    ffffffff810070c5 <itoa+0xd4>
ffffffff81007094:	48 8b 45 f0          	mov    -0x10(%rbp),%rax
ffffffff81007098:	0f b6 00             	movzbl (%rax),%eax
ffffffff8100709b:	88 45 e7             	mov    %al,-0x19(%rbp)
ffffffff8100709e:	48 8b 45 f0          	mov    -0x10(%rbp),%rax
ffffffff810070a2:	48 8d 50 01          	lea    0x1(%rax),%rdx
ffffffff810070a6:	48 89 55 f0          	mov    %rdx,-0x10(%rbp)
ffffffff810070aa:	48 8b 55 f8          	mov    -0x8(%rbp),%rdx
ffffffff810070ae:	0f b6 12             	movzbl (%rdx),%edx
ffffffff810070b1:	88 10                	mov    %dl,(%rax)
ffffffff810070b3:	48 8b 45 f8          	mov    -0x8(%rbp),%rax
ffffffff810070b7:	48 8d 50 ff          	lea    -0x1(%rax),%rdx
ffffffff810070bb:	48 89 55 f8          	mov    %rdx,-0x8(%rbp)
ffffffff810070bf:	0f b6 55 e7          	movzbl -0x19(%rbp),%edx
ffffffff810070c3:	88 10                	mov    %dl,(%rax)
ffffffff810070c5:	48 8b 45 f0          	mov    -0x10(%rbp),%rax
ffffffff810070c9:	48 3b 45 f8          	cmp    -0x8(%rbp),%rax
ffffffff810070cd:	72 c5                	jb     ffffffff81007094 <itoa+0xa3>
ffffffff810070cf:	48 8b 45 e8          	mov    -0x18(%rbp),%rax
ffffffff810070d3:	c9                   	leaveq 
ffffffff810070d4:	c3                   	retq   

ffffffff810070d5 <kprintf>:
ffffffff810070d5:	55                   	push   %rbp
ffffffff810070d6:	48 89 e5             	mov    %rsp,%rbp
ffffffff810070d9:	48 81 ec c0 00 00 00 	sub    $0xc0,%rsp
ffffffff810070e0:	48 89 bd 48 ff ff ff 	mov    %rdi,-0xb8(%rbp)
ffffffff810070e7:	48 89 75 d8          	mov    %rsi,-0x28(%rbp)
ffffffff810070eb:	48 89 55 e0          	mov    %rdx,-0x20(%rbp)
ffffffff810070ef:	48 89 4d e8          	mov    %rcx,-0x18(%rbp)
ffffffff810070f3:	4c 89 45 f0          	mov    %r8,-0x10(%rbp)
ffffffff810070f7:	4c 89 4d f8          	mov    %r9,-0x8(%rbp)
ffffffff810070fb:	c7 45 98 08 00 00 00 	movl   $0x8,-0x68(%rbp)
ffffffff81007102:	48 8d 45 10          	lea    0x10(%rbp),%rax
ffffffff81007106:	48 89 45 a0          	mov    %rax,-0x60(%rbp)
ffffffff8100710a:	48 8d 45 d0          	lea    -0x30(%rbp),%rax
ffffffff8100710e:	48 89 45 a8          	mov    %rax,-0x58(%rbp)
ffffffff81007112:	48 c7 45 c0 00 00 00 	movq   $0x0,-0x40(%rbp)
ffffffff81007119:	00 
ffffffff8100711a:	c6 45 bf 00          	movb   $0x0,-0x41(%rbp)
ffffffff8100711e:	48 c7 45 b0 00 00 00 	movq   $0x0,-0x50(%rbp)
ffffffff81007125:	00 
ffffffff81007126:	e9 01 02 00 00       	jmpq   ffffffff8100732c <kprintf+0x257>
ffffffff8100712b:	48 8b 85 48 ff ff ff 	mov    -0xb8(%rbp),%rax
ffffffff81007132:	0f b6 00             	movzbl (%rax),%eax
ffffffff81007135:	3c 25                	cmp    $0x25,%al
ffffffff81007137:	0f 85 ce 01 00 00    	jne    ffffffff8100730b <kprintf+0x236>
ffffffff8100713d:	48 8b 85 48 ff ff ff 	mov    -0xb8(%rbp),%rax
ffffffff81007144:	48 83 c0 01          	add    $0x1,%rax
ffffffff81007148:	0f b6 00             	movzbl (%rax),%eax
ffffffff8100714b:	0f be c0             	movsbl %al,%eax
ffffffff8100714e:	83 f8 78             	cmp    $0x78,%eax
ffffffff81007151:	0f 84 ea 00 00 00    	je     ffffffff81007241 <kprintf+0x16c>
ffffffff81007157:	83 f8 78             	cmp    $0x78,%eax
ffffffff8100715a:	0f 8f 83 01 00 00    	jg     ffffffff810072e3 <kprintf+0x20e>
ffffffff81007160:	83 f8 73             	cmp    $0x73,%eax
ffffffff81007163:	74 20                	je     ffffffff81007185 <kprintf+0xb0>
ffffffff81007165:	83 f8 73             	cmp    $0x73,%eax
ffffffff81007168:	0f 8f 75 01 00 00    	jg     ffffffff810072e3 <kprintf+0x20e>
ffffffff8100716e:	83 f8 63             	cmp    $0x63,%eax
ffffffff81007171:	0f 84 85 00 00 00    	je     ffffffff810071fc <kprintf+0x127>
ffffffff81007177:	83 f8 64             	cmp    $0x64,%eax
ffffffff8100717a:	0f 84 c1 00 00 00    	je     ffffffff81007241 <kprintf+0x16c>
ffffffff81007180:	e9 5e 01 00 00       	jmpq   ffffffff810072e3 <kprintf+0x20e>
ffffffff81007185:	8b 45 98             	mov    -0x68(%rbp),%eax
ffffffff81007188:	83 f8 2f             	cmp    $0x2f,%eax
ffffffff8100718b:	77 17                	ja     ffffffff810071a4 <kprintf+0xcf>
ffffffff8100718d:	48 8b 45 a8          	mov    -0x58(%rbp),%rax
ffffffff81007191:	8b 55 98             	mov    -0x68(%rbp),%edx
ffffffff81007194:	89 d2                	mov    %edx,%edx
ffffffff81007196:	48 01 d0             	add    %rdx,%rax
ffffffff81007199:	8b 55 98             	mov    -0x68(%rbp),%edx
ffffffff8100719c:	83 c2 08             	add    $0x8,%edx
ffffffff8100719f:	89 55 98             	mov    %edx,-0x68(%rbp)
ffffffff810071a2:	eb 0c                	jmp    ffffffff810071b0 <kprintf+0xdb>
ffffffff810071a4:	48 8b 45 a0          	mov    -0x60(%rbp),%rax
ffffffff810071a8:	48 8d 50 08          	lea    0x8(%rax),%rdx
ffffffff810071ac:	48 89 55 a0          	mov    %rdx,-0x60(%rbp)
ffffffff810071b0:	48 8b 00             	mov    (%rax),%rax
ffffffff810071b3:	48 89 45 c0          	mov    %rax,-0x40(%rbp)
ffffffff810071b7:	c7 45 cc 00 00 00 00 	movl   $0x0,-0x34(%rbp)
ffffffff810071be:	eb 23                	jmp    ffffffff810071e3 <kprintf+0x10e>
ffffffff810071c0:	8b 45 cc             	mov    -0x34(%rbp),%eax
ffffffff810071c3:	48 63 d0             	movslq %eax,%rdx
ffffffff810071c6:	48 8b 45 c0          	mov    -0x40(%rbp),%rax
ffffffff810071ca:	48 01 d0             	add    %rdx,%rax
ffffffff810071cd:	0f b6 00             	movzbl (%rax),%eax
ffffffff810071d0:	0f be c0             	movsbl %al,%eax
ffffffff810071d3:	89 c7                	mov    %eax,%edi
ffffffff810071d5:	b8 00 00 00 00       	mov    $0x0,%eax
ffffffff810071da:	e8 4b 18 00 00       	callq  ffffffff81008a2a <write_serial>
ffffffff810071df:	83 45 cc 01          	addl   $0x1,-0x34(%rbp)
ffffffff810071e3:	8b 45 cc             	mov    -0x34(%rbp),%eax
ffffffff810071e6:	48 63 d0             	movslq %eax,%rdx
ffffffff810071e9:	48 8b 45 c0          	mov    -0x40(%rbp),%rax
ffffffff810071ed:	48 01 d0             	add    %rdx,%rax
ffffffff810071f0:	0f b6 00             	movzbl (%rax),%eax
ffffffff810071f3:	84 c0                	test   %al,%al
ffffffff810071f5:	75 c9                	jne    ffffffff810071c0 <kprintf+0xeb>
ffffffff810071f7:	e9 05 01 00 00       	jmpq   ffffffff81007301 <kprintf+0x22c>
ffffffff810071fc:	8b 45 98             	mov    -0x68(%rbp),%eax
ffffffff810071ff:	83 f8 2f             	cmp    $0x2f,%eax
ffffffff81007202:	77 17                	ja     ffffffff8100721b <kprintf+0x146>
ffffffff81007204:	48 8b 45 a8          	mov    -0x58(%rbp),%rax
ffffffff81007208:	8b 55 98             	mov    -0x68(%rbp),%edx
ffffffff8100720b:	89 d2                	mov    %edx,%edx
ffffffff8100720d:	48 01 d0             	add    %rdx,%rax
ffffffff81007210:	8b 55 98             	mov    -0x68(%rbp),%edx
ffffffff81007213:	83 c2 08             	add    $0x8,%edx
ffffffff81007216:	89 55 98             	mov    %edx,-0x68(%rbp)
ffffffff81007219:	eb 0c                	jmp    ffffffff81007227 <kprintf+0x152>
ffffffff8100721b:	48 8b 45 a0          	mov    -0x60(%rbp),%rax
ffffffff8100721f:	48 8d 50 08          	lea    0x8(%rax),%rdx
ffffffff81007223:	48 89 55 a0          	mov    %rdx,-0x60(%rbp)
ffffffff81007227:	8b 00                	mov    (%rax),%eax
ffffffff81007229:	88 45 bf             	mov    %al,-0x41(%rbp)
ffffffff8100722c:	0f be 45 bf          	movsbl -0x41(%rbp),%eax
ffffffff81007230:	89 c7                	mov    %eax,%edi
ffffffff81007232:	b8 00 00 00 00       	mov    $0x0,%eax
ffffffff81007237:	e8 ee 17 00 00       	callq  ffffffff81008a2a <write_serial>
ffffffff8100723c:	e9 c0 00 00 00       	jmpq   ffffffff81007301 <kprintf+0x22c>
ffffffff81007241:	8b 45 98             	mov    -0x68(%rbp),%eax
ffffffff81007244:	83 f8 2f             	cmp    $0x2f,%eax
ffffffff81007247:	77 17                	ja     ffffffff81007260 <kprintf+0x18b>
ffffffff81007249:	48 8b 45 a8          	mov    -0x58(%rbp),%rax
ffffffff8100724d:	8b 55 98             	mov    -0x68(%rbp),%edx
ffffffff81007250:	89 d2                	mov    %edx,%edx
ffffffff81007252:	48 01 d0             	add    %rdx,%rax
ffffffff81007255:	8b 55 98             	mov    -0x68(%rbp),%edx
ffffffff81007258:	83 c2 08             	add    $0x8,%edx
ffffffff8100725b:	89 55 98             	mov    %edx,-0x68(%rbp)
ffffffff8100725e:	eb 0c                	jmp    ffffffff8100726c <kprintf+0x197>
ffffffff81007260:	48 8b 45 a0          	mov    -0x60(%rbp),%rax
ffffffff81007264:	48 8d 50 08          	lea    0x8(%rax),%rdx
ffffffff81007268:	48 89 55 a0          	mov    %rdx,-0x60(%rbp)
ffffffff8100726c:	48 8b 00             	mov    (%rax),%rax
ffffffff8100726f:	48 89 45 b0          	mov    %rax,-0x50(%rbp)
ffffffff81007273:	48 8b 85 48 ff ff ff 	mov    -0xb8(%rbp),%rax
ffffffff8100727a:	48 83 c0 01          	add    $0x1,%rax
ffffffff8100727e:	0f b6 00             	movzbl (%rax),%eax
ffffffff81007281:	3c 64                	cmp    $0x64,%al
ffffffff81007283:	75 07                	jne    ffffffff8100728c <kprintf+0x1b7>
ffffffff81007285:	ba 0a 00 00 00       	mov    $0xa,%edx
ffffffff8100728a:	eb 05                	jmp    ffffffff81007291 <kprintf+0x1bc>
ffffffff8100728c:	ba 10 00 00 00       	mov    $0x10,%edx
ffffffff81007291:	48 8d 8d 58 ff ff ff 	lea    -0xa8(%rbp),%rcx
ffffffff81007298:	48 8b 45 b0          	mov    -0x50(%rbp),%rax
ffffffff8100729c:	48 89 ce             	mov    %rcx,%rsi
ffffffff8100729f:	48 89 c7             	mov    %rax,%rdi
ffffffff810072a2:	e8 4a fd ff ff       	callq  ffffffff81006ff1 <itoa>
ffffffff810072a7:	c7 45 c8 00 00 00 00 	movl   $0x0,-0x38(%rbp)
ffffffff810072ae:	eb 20                	jmp    ffffffff810072d0 <kprintf+0x1fb>
ffffffff810072b0:	8b 45 c8             	mov    -0x38(%rbp),%eax
ffffffff810072b3:	48 98                	cltq   
ffffffff810072b5:	0f b6 84 05 58 ff ff 	movzbl -0xa8(%rbp,%rax,1),%eax
ffffffff810072bc:	ff 
ffffffff810072bd:	0f be c0             	movsbl %al,%eax
ffffffff810072c0:	89 c7                	mov    %eax,%edi
ffffffff810072c2:	b8 00 00 00 00       	mov    $0x0,%eax
ffffffff810072c7:	e8 5e 17 00 00       	callq  ffffffff81008a2a <write_serial>
ffffffff810072cc:	83 45 c8 01          	addl   $0x1,-0x38(%rbp)
ffffffff810072d0:	8b 45 c8             	mov    -0x38(%rbp),%eax
ffffffff810072d3:	48 98                	cltq   
ffffffff810072d5:	0f b6 84 05 58 ff ff 	movzbl -0xa8(%rbp,%rax,1),%eax
ffffffff810072dc:	ff 
ffffffff810072dd:	84 c0                	test   %al,%al
ffffffff810072df:	75 cf                	jne    ffffffff810072b0 <kprintf+0x1db>
ffffffff810072e1:	eb 1e                	jmp    ffffffff81007301 <kprintf+0x22c>
ffffffff810072e3:	48 8b 85 48 ff ff ff 	mov    -0xb8(%rbp),%rax
ffffffff810072ea:	48 83 c0 01          	add    $0x1,%rax
ffffffff810072ee:	0f b6 00             	movzbl (%rax),%eax
ffffffff810072f1:	0f be c0             	movsbl %al,%eax
ffffffff810072f4:	89 c7                	mov    %eax,%edi
ffffffff810072f6:	b8 00 00 00 00       	mov    $0x0,%eax
ffffffff810072fb:	e8 2a 17 00 00       	callq  ffffffff81008a2a <write_serial>
ffffffff81007300:	90                   	nop
ffffffff81007301:	48 83 85 48 ff ff ff 	addq   $0x1,-0xb8(%rbp)
ffffffff81007308:	01 
ffffffff81007309:	eb 19                	jmp    ffffffff81007324 <kprintf+0x24f>
ffffffff8100730b:	48 8b 85 48 ff ff ff 	mov    -0xb8(%rbp),%rax
ffffffff81007312:	0f b6 00             	movzbl (%rax),%eax
ffffffff81007315:	0f be c0             	movsbl %al,%eax
ffffffff81007318:	89 c7                	mov    %eax,%edi
ffffffff8100731a:	b8 00 00 00 00       	mov    $0x0,%eax
ffffffff8100731f:	e8 06 17 00 00       	callq  ffffffff81008a2a <write_serial>
ffffffff81007324:	48 83 85 48 ff ff ff 	addq   $0x1,-0xb8(%rbp)
ffffffff8100732b:	01 
ffffffff8100732c:	48 8b 85 48 ff ff ff 	mov    -0xb8(%rbp),%rax
ffffffff81007333:	0f b6 00             	movzbl (%rax),%eax
ffffffff81007336:	84 c0                	test   %al,%al
ffffffff81007338:	0f 85 ed fd ff ff    	jne    ffffffff8100712b <kprintf+0x56>
ffffffff8100733e:	90                   	nop
ffffffff8100733f:	c9                   	leaveq 
ffffffff81007340:	c3                   	retq   

ffffffff81007341 <vmmgr_list_entries>:
ffffffff81007341:	55                   	push   %rbp
ffffffff81007342:	48 89 e5             	mov    %rsp,%rbp
ffffffff81007345:	48 83 ec 30          	sub    $0x30,%rsp
ffffffff81007349:	48 c7 45 f8 00 00 00 	movq   $0x0,-0x8(%rbp)
ffffffff81007350:	00 
ffffffff81007351:	48 c7 45 e8 00 00 00 	movq   $0x0,-0x18(%rbp)
ffffffff81007358:	00 
ffffffff81007359:	48 c7 45 e0 00 00 00 	movq   $0x0,-0x20(%rbp)
ffffffff81007360:	00 
ffffffff81007361:	48 c7 45 d8 00 00 00 	movq   $0x0,-0x28(%rbp)
ffffffff81007368:	00 
ffffffff81007369:	48 c7 c7 a0 10 02 81 	mov    $0xffffffff810210a0,%rdi
ffffffff81007370:	e8 e9 5b 00 00       	callq  ffffffff8100cf5e <linked_list_first>
ffffffff81007375:	48 89 45 f8          	mov    %rax,-0x8(%rbp)
ffffffff81007379:	48 c7 c7 a8 e1 00 81 	mov    $0xffffffff8100e1a8,%rdi
ffffffff81007380:	b8 00 00 00 00       	mov    $0x0,%eax
ffffffff81007385:	e8 4b fd ff ff       	callq  ffffffff810070d5 <kprintf>
ffffffff8100738a:	e9 bc 00 00 00       	jmpq   ffffffff8100744b <vmmgr_list_entries+0x10a>
ffffffff8100738f:	48 8b 45 f8          	mov    -0x8(%rbp),%rax
ffffffff81007393:	48 83 c0 10          	add    $0x10,%rax
ffffffff81007397:	48 89 45 e0          	mov    %rax,-0x20(%rbp)
ffffffff8100739b:	48 8b 45 f8          	mov    -0x8(%rbp),%rax
ffffffff8100739f:	48 89 c7             	mov    %rax,%rdi
ffffffff810073a2:	e8 cd 5b 00 00       	callq  ffffffff8100cf74 <linked_list_next>
ffffffff810073a7:	48 89 45 e8          	mov    %rax,-0x18(%rbp)
ffffffff810073ab:	66 c7 45 f6 00 00    	movw   $0x0,-0xa(%rbp)
ffffffff810073b1:	eb 7f                	jmp    ffffffff81007432 <vmmgr_list_entries+0xf1>
ffffffff810073b3:	0f b7 45 f6          	movzwl -0xa(%rbp),%eax
ffffffff810073b7:	48 c1 e0 04          	shl    $0x4,%rax
ffffffff810073bb:	48 89 c2             	mov    %rax,%rdx
ffffffff810073be:	48 8b 45 e0          	mov    -0x20(%rbp),%rax
ffffffff810073c2:	48 01 d0             	add    %rdx,%rax
ffffffff810073c5:	48 8b 00             	mov    (%rax),%rax
ffffffff810073c8:	48 85 c0             	test   %rax,%rax
ffffffff810073cb:	74 5a                	je     ffffffff81007427 <vmmgr_list_entries+0xe6>
ffffffff810073cd:	0f b7 45 f6          	movzwl -0xa(%rbp),%eax
ffffffff810073d1:	48 c1 e0 04          	shl    $0x4,%rax
ffffffff810073d5:	48 89 c2             	mov    %rax,%rdx
ffffffff810073d8:	48 8b 45 e0          	mov    -0x20(%rbp),%rax
ffffffff810073dc:	48 01 d0             	add    %rdx,%rax
ffffffff810073df:	48 8b 40 08          	mov    0x8(%rax),%rax
ffffffff810073e3:	48 85 c0             	test   %rax,%rax
ffffffff810073e6:	74 3f                	je     ffffffff81007427 <vmmgr_list_entries+0xe6>
ffffffff810073e8:	0f b7 45 f6          	movzwl -0xa(%rbp),%eax
ffffffff810073ec:	48 c1 e0 04          	shl    $0x4,%rax
ffffffff810073f0:	48 89 c2             	mov    %rax,%rdx
ffffffff810073f3:	48 8b 45 e0          	mov    -0x20(%rbp),%rax
ffffffff810073f7:	48 01 d0             	add    %rdx,%rax
ffffffff810073fa:	48 8b 50 08          	mov    0x8(%rax),%rdx
ffffffff810073fe:	0f b7 45 f6          	movzwl -0xa(%rbp),%eax
ffffffff81007402:	48 c1 e0 04          	shl    $0x4,%rax
ffffffff81007406:	48 89 c1             	mov    %rax,%rcx
ffffffff81007409:	48 8b 45 e0          	mov    -0x20(%rbp),%rax
ffffffff8100740d:	48 01 c8             	add    %rcx,%rax
ffffffff81007410:	48 8b 00             	mov    (%rax),%rax
ffffffff81007413:	48 89 c6             	mov    %rax,%rsi
ffffffff81007416:	48 c7 c7 c5 e1 00 81 	mov    $0xffffffff8100e1c5,%rdi
ffffffff8100741d:	b8 00 00 00 00       	mov    $0x0,%eax
ffffffff81007422:	e8 ae fc ff ff       	callq  ffffffff810070d5 <kprintf>
ffffffff81007427:	0f b7 45 f6          	movzwl -0xa(%rbp),%eax
ffffffff8100742b:	83 c0 01             	add    $0x1,%eax
ffffffff8100742e:	66 89 45 f6          	mov    %ax,-0xa(%rbp)
ffffffff81007432:	0f b7 05 97 9c 01 00 	movzwl 0x19c97(%rip),%eax        # ffffffff810210d0 <vmem_mgr+0x30>
ffffffff81007439:	66 39 45 f6          	cmp    %ax,-0xa(%rbp)
ffffffff8100743d:	0f 82 70 ff ff ff    	jb     ffffffff810073b3 <vmmgr_list_entries+0x72>
ffffffff81007443:	48 8b 45 e8          	mov    -0x18(%rbp),%rax
ffffffff81007447:	48 89 45 f8          	mov    %rax,-0x8(%rbp)
ffffffff8100744b:	48 83 7d f8 00       	cmpq   $0x0,-0x8(%rbp)
ffffffff81007450:	0f 85 39 ff ff ff    	jne    ffffffff8100738f <vmmgr_list_entries+0x4e>
ffffffff81007456:	48 c7 c7 b8 10 02 81 	mov    $0xffffffff810210b8,%rdi
ffffffff8100745d:	e8 fc 5a 00 00       	callq  ffffffff8100cf5e <linked_list_first>
ffffffff81007462:	48 89 45 f8          	mov    %rax,-0x8(%rbp)
ffffffff81007466:	48 c7 c7 e0 e1 00 81 	mov    $0xffffffff8100e1e0,%rdi
ffffffff8100746d:	b8 00 00 00 00       	mov    $0x0,%eax
ffffffff81007472:	e8 5e fc ff ff       	callq  ffffffff810070d5 <kprintf>
ffffffff81007477:	e9 e6 00 00 00       	jmpq   ffffffff81007562 <vmmgr_list_entries+0x221>
ffffffff8100747c:	48 8b 45 f8          	mov    -0x8(%rbp),%rax
ffffffff81007480:	48 89 c7             	mov    %rax,%rdi
ffffffff81007483:	e8 ec 5a 00 00       	callq  ffffffff8100cf74 <linked_list_next>
ffffffff81007488:	48 89 45 e8          	mov    %rax,-0x18(%rbp)
ffffffff8100748c:	48 8b 45 f8          	mov    -0x8(%rbp),%rax
ffffffff81007490:	48 83 c0 10          	add    $0x10,%rax
ffffffff81007494:	48 89 45 d8          	mov    %rax,-0x28(%rbp)
ffffffff81007498:	66 c7 45 f4 00 00    	movw   $0x0,-0xc(%rbp)
ffffffff8100749e:	e9 a6 00 00 00       	jmpq   ffffffff81007549 <vmmgr_list_entries+0x208>
ffffffff810074a3:	0f b7 55 f4          	movzwl -0xc(%rbp),%edx
ffffffff810074a7:	48 89 d0             	mov    %rdx,%rax
ffffffff810074aa:	48 01 c0             	add    %rax,%rax
ffffffff810074ad:	48 01 d0             	add    %rdx,%rax
ffffffff810074b0:	48 c1 e0 03          	shl    $0x3,%rax
ffffffff810074b4:	48 89 c2             	mov    %rax,%rdx
ffffffff810074b7:	48 8b 45 d8          	mov    -0x28(%rbp),%rax
ffffffff810074bb:	48 01 d0             	add    %rdx,%rax
ffffffff810074be:	48 8b 00             	mov    (%rax),%rax
ffffffff810074c1:	48 85 c0             	test   %rax,%rax
ffffffff810074c4:	74 78                	je     ffffffff8100753e <vmmgr_list_entries+0x1fd>
ffffffff810074c6:	0f b7 55 f4          	movzwl -0xc(%rbp),%edx
ffffffff810074ca:	48 89 d0             	mov    %rdx,%rax
ffffffff810074cd:	48 01 c0             	add    %rax,%rax
ffffffff810074d0:	48 01 d0             	add    %rdx,%rax
ffffffff810074d3:	48 c1 e0 03          	shl    $0x3,%rax
ffffffff810074d7:	48 89 c2             	mov    %rax,%rdx
ffffffff810074da:	48 8b 45 d8          	mov    -0x28(%rbp),%rax
ffffffff810074de:	48 01 d0             	add    %rdx,%rax
ffffffff810074e1:	48 8b 40 08          	mov    0x8(%rax),%rax
ffffffff810074e5:	48 85 c0             	test   %rax,%rax
ffffffff810074e8:	74 54                	je     ffffffff8100753e <vmmgr_list_entries+0x1fd>
ffffffff810074ea:	0f b7 55 f4          	movzwl -0xc(%rbp),%edx
ffffffff810074ee:	48 89 d0             	mov    %rdx,%rax
ffffffff810074f1:	48 01 c0             	add    %rax,%rax
ffffffff810074f4:	48 01 d0             	add    %rdx,%rax
ffffffff810074f7:	48 c1 e0 03          	shl    $0x3,%rax
ffffffff810074fb:	48 89 c2             	mov    %rax,%rdx
ffffffff810074fe:	48 8b 45 d8          	mov    -0x28(%rbp),%rax
ffffffff81007502:	48 01 d0             	add    %rdx,%rax
ffffffff81007505:	48 8b 48 08          	mov    0x8(%rax),%rcx
ffffffff81007509:	0f b7 55 f4          	movzwl -0xc(%rbp),%edx
ffffffff8100750d:	48 89 d0             	mov    %rdx,%rax
ffffffff81007510:	48 01 c0             	add    %rax,%rax
ffffffff81007513:	48 01 d0             	add    %rdx,%rax
ffffffff81007516:	48 c1 e0 03          	shl    $0x3,%rax
ffffffff8100751a:	48 89 c2             	mov    %rax,%rdx
ffffffff8100751d:	48 8b 45 d8          	mov    -0x28(%rbp),%rax
ffffffff81007521:	48 01 d0             	add    %rdx,%rax
ffffffff81007524:	48 8b 00             	mov    (%rax),%rax
ffffffff81007527:	48 89 ca             	mov    %rcx,%rdx
ffffffff8100752a:	48 89 c6             	mov    %rax,%rsi
ffffffff8100752d:	48 c7 c7 c5 e1 00 81 	mov    $0xffffffff8100e1c5,%rdi
ffffffff81007534:	b8 00 00 00 00       	mov    $0x0,%eax
ffffffff81007539:	e8 97 fb ff ff       	callq  ffffffff810070d5 <kprintf>
ffffffff8100753e:	0f b7 45 f4          	movzwl -0xc(%rbp),%eax
ffffffff81007542:	83 c0 01             	add    $0x1,%eax
ffffffff81007545:	66 89 45 f4          	mov    %ax,-0xc(%rbp)
ffffffff81007549:	0f b7 05 82 9b 01 00 	movzwl 0x19b82(%rip),%eax        # ffffffff810210d2 <vmem_mgr+0x32>
ffffffff81007550:	66 39 45 f4          	cmp    %ax,-0xc(%rbp)
ffffffff81007554:	0f 82 49 ff ff ff    	jb     ffffffff810074a3 <vmmgr_list_entries+0x162>
ffffffff8100755a:	48 8b 45 e8          	mov    -0x18(%rbp),%rax
ffffffff8100755e:	48 89 45 f8          	mov    %rax,-0x8(%rbp)
ffffffff81007562:	48 83 7d f8 00       	cmpq   $0x0,-0x8(%rbp)
ffffffff81007567:	0f 85 0f ff ff ff    	jne    ffffffff8100747c <vmmgr_list_entries+0x13b>
ffffffff8100756d:	90                   	nop
ffffffff8100756e:	90                   	nop
ffffffff8100756f:	c9                   	leaveq 
ffffffff81007570:	c3                   	retq   

ffffffff81007571 <vmmgr_init>:
ffffffff81007571:	55                   	push   %rbp
ffffffff81007572:	48 89 e5             	mov    %rsp,%rbp
ffffffff81007575:	48 83 ec 20          	sub    $0x20,%rsp
ffffffff81007579:	48 c7 45 f8 00 00 00 	movq   $0x0,-0x8(%rbp)
ffffffff81007580:	00 
ffffffff81007581:	48 c7 45 f0 00 00 00 	movq   $0x0,-0x10(%rbp)
ffffffff81007588:	00 
ffffffff81007589:	48 c7 45 e8 00 00 00 	movq   $0x0,-0x18(%rbp)
ffffffff81007590:	00 
ffffffff81007591:	48 c7 45 e0 00 00 00 	movq   $0x0,-0x20(%rbp)
ffffffff81007598:	00 
ffffffff81007599:	48 c7 c7 08 e2 00 81 	mov    $0xffffffff8100e208,%rdi
ffffffff810075a0:	b8 00 00 00 00       	mov    $0x0,%eax
ffffffff810075a5:	e8 2b fb ff ff       	callq  ffffffff810070d5 <kprintf>
ffffffff810075aa:	ba 40 00 00 00       	mov    $0x40,%edx
ffffffff810075af:	be 00 00 00 00       	mov    $0x0,%esi
ffffffff810075b4:	48 c7 c7 a0 10 02 81 	mov    $0xffffffff810210a0,%rdi
ffffffff810075bb:	e8 fa 31 00 00       	callq  ffffffff8100a7ba <memset>
ffffffff810075c0:	48 b8 00 00 00 00 00 	movabs $0xffff800000000000,%rax
ffffffff810075c7:	80 ff ff 
ffffffff810075ca:	48 89 05 07 9b 01 00 	mov    %rax,0x19b07(%rip)        # ffffffff810210d8 <vmem_mgr+0x38>
ffffffff810075d1:	48 c7 c7 a0 10 02 81 	mov    $0xffffffff810210a0,%rdi
ffffffff810075d8:	e8 5b 57 00 00       	callq  ffffffff8100cd38 <linked_list_init>
ffffffff810075dd:	48 c7 c7 b8 10 02 81 	mov    $0xffffffff810210b8,%rdi
ffffffff810075e4:	e8 4f 57 00 00       	callq  ffffffff8100cd38 <linked_list_init>
ffffffff810075e9:	e8 61 56 00 00       	callq  ffffffff8100cc4f <pagemgr_get>
ffffffff810075ee:	48 89 05 eb 9a 01 00 	mov    %rax,0x19aeb(%rip)        # ffffffff810210e0 <pagemgr>
ffffffff810075f5:	48 8b 05 e4 9a 01 00 	mov    0x19ae4(%rip),%rax        # ffffffff810210e0 <pagemgr>
ffffffff810075fc:	48 8b 08             	mov    (%rax),%rcx
ffffffff810075ff:	48 8b 05 d2 9a 01 00 	mov    0x19ad2(%rip),%rax        # ffffffff810210d8 <vmem_mgr+0x38>
ffffffff81007606:	ba 01 00 00 00       	mov    $0x1,%edx
ffffffff8100760b:	be 00 10 00 00       	mov    $0x1000,%esi
ffffffff81007610:	48 89 c7             	mov    %rax,%rdi
ffffffff81007613:	ff d1                	callq  *%rcx
ffffffff81007615:	48 89 45 e8          	mov    %rax,-0x18(%rbp)
ffffffff81007619:	48 8b 05 c0 9a 01 00 	mov    0x19ac0(%rip),%rax        # ffffffff810210e0 <pagemgr>
ffffffff81007620:	48 8b 00             	mov    (%rax),%rax
ffffffff81007623:	48 8b 15 ae 9a 01 00 	mov    0x19aae(%rip),%rdx        # ffffffff810210d8 <vmem_mgr+0x38>
ffffffff8100762a:	48 8d 8a 00 10 00 00 	lea    0x1000(%rdx),%rcx
ffffffff81007631:	ba 01 00 00 00       	mov    $0x1,%edx
ffffffff81007636:	be 00 10 00 00       	mov    $0x1000,%esi
ffffffff8100763b:	48 89 cf             	mov    %rcx,%rdi
ffffffff8100763e:	ff d0                	callq  *%rax
ffffffff81007640:	48 89 45 e0          	mov    %rax,-0x20(%rbp)
ffffffff81007644:	48 83 7d e8 00       	cmpq   $0x0,-0x18(%rbp)
ffffffff81007649:	74 07                	je     ffffffff81007652 <vmmgr_init+0xe1>
ffffffff8100764b:	48 83 7d e0 00       	cmpq   $0x0,-0x20(%rbp)
ffffffff81007650:	75 0a                	jne    ffffffff8100765c <vmmgr_init+0xeb>
ffffffff81007652:	b8 ff ff ff ff       	mov    $0xffffffff,%eax
ffffffff81007657:	e9 54 01 00 00       	jmpq   ffffffff810077b0 <vmmgr_init+0x23f>
ffffffff8100765c:	48 8b 45 e8          	mov    -0x18(%rbp),%rax
ffffffff81007660:	48 89 c6             	mov    %rax,%rsi
ffffffff81007663:	48 c7 c7 2d e2 00 81 	mov    $0xffffffff8100e22d,%rdi
ffffffff8100766a:	b8 00 00 00 00       	mov    $0x0,%eax
ffffffff8100766f:	e8 61 fa ff ff       	callq  ffffffff810070d5 <kprintf>
ffffffff81007674:	48 8b 45 e0          	mov    -0x20(%rbp),%rax
ffffffff81007678:	48 89 c6             	mov    %rax,%rsi
ffffffff8100767b:	48 c7 c7 3f e2 00 81 	mov    $0xffffffff8100e23f,%rdi
ffffffff81007682:	b8 00 00 00 00       	mov    $0x0,%eax
ffffffff81007687:	e8 49 fa ff ff       	callq  ffffffff810070d5 <kprintf>
ffffffff8100768c:	48 8b 45 e8          	mov    -0x18(%rbp),%rax
ffffffff81007690:	ba 04 00 00 00       	mov    $0x4,%edx
ffffffff81007695:	be 00 00 00 00       	mov    $0x0,%esi
ffffffff8100769a:	48 89 c7             	mov    %rax,%rdi
ffffffff8100769d:	e8 18 31 00 00       	callq  ffffffff8100a7ba <memset>
ffffffff810076a2:	48 8b 45 e0          	mov    -0x20(%rbp),%rax
ffffffff810076a6:	ba 04 00 00 00       	mov    $0x4,%edx
ffffffff810076ab:	be 00 00 00 00       	mov    $0x0,%esi
ffffffff810076b0:	48 89 c7             	mov    %rax,%rdi
ffffffff810076b3:	e8 02 31 00 00       	callq  ffffffff8100a7ba <memset>
ffffffff810076b8:	48 8b 45 e8          	mov    -0x18(%rbp),%rax
ffffffff810076bc:	48 89 45 f8          	mov    %rax,-0x8(%rbp)
ffffffff810076c0:	48 8b 45 f8          	mov    -0x8(%rbp),%rax
ffffffff810076c4:	48 89 c6             	mov    %rax,%rsi
ffffffff810076c7:	48 c7 c7 b8 10 02 81 	mov    $0xffffffff810210b8,%rdi
ffffffff810076ce:	e8 a9 56 00 00       	callq  ffffffff8100cd7c <linked_list_add_head>
ffffffff810076d3:	48 8b 45 e0          	mov    -0x20(%rbp),%rax
ffffffff810076d7:	48 89 45 f8          	mov    %rax,-0x8(%rbp)
ffffffff810076db:	48 8b 45 f8          	mov    -0x8(%rbp),%rax
ffffffff810076df:	48 89 c6             	mov    %rax,%rsi
ffffffff810076e2:	48 c7 c7 a0 10 02 81 	mov    $0xffffffff810210a0,%rdi
ffffffff810076e9:	e8 8e 56 00 00       	callq  ffffffff8100cd7c <linked_list_add_head>
ffffffff810076ee:	66 c7 05 d9 99 01 00 	movw   $0xff,0x199d9(%rip)        # ffffffff810210d0 <vmem_mgr+0x30>
ffffffff810076f5:	ff 00 
ffffffff810076f7:	66 c7 05 d2 99 01 00 	movw   $0xaa,0x199d2(%rip)        # ffffffff810210d2 <vmem_mgr+0x32>
ffffffff810076fe:	aa 00 
ffffffff81007700:	48 8b 45 e0          	mov    -0x20(%rbp),%rax
ffffffff81007704:	48 83 c0 10          	add    $0x10,%rax
ffffffff81007708:	48 89 45 f0          	mov    %rax,-0x10(%rbp)
ffffffff8100770c:	48 8b 15 c5 99 01 00 	mov    0x199c5(%rip),%rdx        # ffffffff810210d8 <vmem_mgr+0x38>
ffffffff81007713:	48 8b 45 f0          	mov    -0x10(%rbp),%rax
ffffffff81007717:	48 89 10             	mov    %rdx,(%rax)
ffffffff8100771a:	48 8b 45 f0          	mov    -0x10(%rbp),%rax
ffffffff8100771e:	48 8b 00             	mov    (%rax),%rax
ffffffff81007721:	48 f7 d8             	neg    %rax
ffffffff81007724:	48 89 c2             	mov    %rax,%rdx
ffffffff81007727:	48 8b 45 f0          	mov    -0x10(%rbp),%rax
ffffffff8100772b:	48 89 50 08          	mov    %rdx,0x8(%rax)
ffffffff8100772f:	48 c7 c2 00 20 02 81 	mov    $0xffffffff81022000,%rdx
ffffffff81007736:	48 c7 c0 00 00 00 80 	mov    $0xffffffff80000000,%rax
ffffffff8100773d:	48 89 d1             	mov    %rdx,%rcx
ffffffff81007740:	48 29 c1             	sub    %rax,%rcx
ffffffff81007743:	48 c7 c2 00 00 00 80 	mov    $0xffffffff80000000,%rdx
ffffffff8100774a:	48 c7 c0 00 30 00 01 	mov    $0x1003000,%rax
ffffffff81007751:	48 01 d0             	add    %rdx,%rax
ffffffff81007754:	ba 02 00 00 00       	mov    $0x2,%edx
ffffffff81007759:	48 89 ce             	mov    %rcx,%rsi
ffffffff8100775c:	48 89 c7             	mov    %rax,%rdi
ffffffff8100775f:	e8 69 08 00 00       	callq  ffffffff81007fcd <vmmgr_reserve>
ffffffff81007764:	ba 08 00 00 00       	mov    $0x8,%edx
ffffffff81007769:	be 00 00 20 00       	mov    $0x200000,%esi
ffffffff8100776e:	48 c7 c7 00 00 e0 ff 	mov    $0xffffffffffe00000,%rdi
ffffffff81007775:	e8 53 08 00 00       	callq  ffffffff81007fcd <vmmgr_reserve>
ffffffff8100777a:	48 8b 45 e0          	mov    -0x20(%rbp),%rax
ffffffff8100777e:	ba 10 00 00 00       	mov    $0x10,%edx
ffffffff81007783:	be 00 10 00 00       	mov    $0x1000,%esi
ffffffff81007788:	48 89 c7             	mov    %rax,%rdi
ffffffff8100778b:	e8 3d 08 00 00       	callq  ffffffff81007fcd <vmmgr_reserve>
ffffffff81007790:	48 8b 45 e8          	mov    -0x18(%rbp),%rax
ffffffff81007794:	ba 10 00 00 00       	mov    $0x10,%edx
ffffffff81007799:	be 00 10 00 00       	mov    $0x1000,%esi
ffffffff8100779e:	48 89 c7             	mov    %rax,%rdi
ffffffff810077a1:	e8 27 08 00 00       	callq  ffffffff81007fcd <vmmgr_reserve>
ffffffff810077a6:	b8 00 00 00 00       	mov    $0x0,%eax
ffffffff810077ab:	e8 91 fb ff ff       	callq  ffffffff81007341 <vmmgr_list_entries>
ffffffff810077b0:	c9                   	leaveq 
ffffffff810077b1:	c3                   	retq   

ffffffff810077b2 <vmm_is_in_range>:
ffffffff810077b2:	55                   	push   %rbp
ffffffff810077b3:	48 89 e5             	mov    %rsp,%rbp
ffffffff810077b6:	48 83 ec 30          	sub    $0x30,%rsp
ffffffff810077ba:	48 89 7d e8          	mov    %rdi,-0x18(%rbp)
ffffffff810077be:	48 89 75 e0          	mov    %rsi,-0x20(%rbp)
ffffffff810077c2:	48 89 55 d8          	mov    %rdx,-0x28(%rbp)
ffffffff810077c6:	48 89 4d d0          	mov    %rcx,-0x30(%rbp)
ffffffff810077ca:	48 c7 45 f8 00 00 00 	movq   $0x0,-0x8(%rbp)
ffffffff810077d1:	00 
ffffffff810077d2:	48 8b 45 d8          	mov    -0x28(%rbp),%rax
ffffffff810077d6:	48 3b 45 e8          	cmp    -0x18(%rbp),%rax
ffffffff810077da:	73 07                	jae    ffffffff810077e3 <vmm_is_in_range+0x31>
ffffffff810077dc:	b8 00 00 00 00       	mov    $0x0,%eax
ffffffff810077e1:	eb 36                	jmp    ffffffff81007819 <vmm_is_in_range+0x67>
ffffffff810077e3:	48 8b 45 e8          	mov    -0x18(%rbp),%rax
ffffffff810077e7:	48 2b 45 d8          	sub    -0x28(%rbp),%rax
ffffffff810077eb:	48 89 c2             	mov    %rax,%rdx
ffffffff810077ee:	48 8b 45 e0          	mov    -0x20(%rbp),%rax
ffffffff810077f2:	48 01 d0             	add    %rdx,%rax
ffffffff810077f5:	48 89 45 f8          	mov    %rax,-0x8(%rbp)
ffffffff810077f9:	48 8b 45 f8          	mov    -0x8(%rbp),%rax
ffffffff810077fd:	48 3b 45 d0          	cmp    -0x30(%rbp),%rax
ffffffff81007801:	72 11                	jb     ffffffff81007814 <vmm_is_in_range+0x62>
ffffffff81007803:	48 8b 45 e0          	mov    -0x20(%rbp),%rax
ffffffff81007807:	48 3b 45 f8          	cmp    -0x8(%rbp),%rax
ffffffff8100780b:	72 07                	jb     ffffffff81007814 <vmm_is_in_range+0x62>
ffffffff8100780d:	b8 01 00 00 00       	mov    $0x1,%eax
ffffffff81007812:	eb 05                	jmp    ffffffff81007819 <vmm_is_in_range+0x67>
ffffffff81007814:	b8 00 00 00 00       	mov    $0x0,%eax
ffffffff81007819:	c9                   	leaveq 
ffffffff8100781a:	c3                   	retq   

ffffffff8100781b <vmm_touches_range>:
ffffffff8100781b:	55                   	push   %rbp
ffffffff8100781c:	48 89 e5             	mov    %rsp,%rbp
ffffffff8100781f:	48 83 ec 30          	sub    $0x30,%rsp
ffffffff81007823:	48 89 7d e8          	mov    %rdi,-0x18(%rbp)
ffffffff81007827:	48 89 75 e0          	mov    %rsi,-0x20(%rbp)
ffffffff8100782b:	48 89 55 d8          	mov    %rdx,-0x28(%rbp)
ffffffff8100782f:	48 89 4d d0          	mov    %rcx,-0x30(%rbp)
ffffffff81007833:	48 c7 45 f8 00 00 00 	movq   $0x0,-0x8(%rbp)
ffffffff8100783a:	00 
ffffffff8100783b:	48 8b 45 d8          	mov    -0x28(%rbp),%rax
ffffffff8100783f:	48 3b 45 e8          	cmp    -0x18(%rbp),%rax
ffffffff81007843:	73 24                	jae    ffffffff81007869 <vmm_touches_range+0x4e>
ffffffff81007845:	48 8b 45 e8          	mov    -0x18(%rbp),%rax
ffffffff81007849:	48 2b 45 d8          	sub    -0x28(%rbp),%rax
ffffffff8100784d:	48 89 45 f8          	mov    %rax,-0x8(%rbp)
ffffffff81007851:	48 8b 45 f8          	mov    -0x8(%rbp),%rax
ffffffff81007855:	48 3b 45 d0          	cmp    -0x30(%rbp),%rax
ffffffff81007859:	72 07                	jb     ffffffff81007862 <vmm_touches_range+0x47>
ffffffff8100785b:	b8 00 00 00 00       	mov    $0x0,%eax
ffffffff81007860:	eb 3d                	jmp    ffffffff8100789f <vmm_touches_range+0x84>
ffffffff81007862:	b8 01 00 00 00       	mov    $0x1,%eax
ffffffff81007867:	eb 36                	jmp    ffffffff8100789f <vmm_touches_range+0x84>
ffffffff81007869:	48 8b 45 e8          	mov    -0x18(%rbp),%rax
ffffffff8100786d:	48 2b 45 d8          	sub    -0x28(%rbp),%rax
ffffffff81007871:	48 89 c2             	mov    %rax,%rdx
ffffffff81007874:	48 8b 45 e0          	mov    -0x20(%rbp),%rax
ffffffff81007878:	48 01 d0             	add    %rdx,%rax
ffffffff8100787b:	48 89 45 f8          	mov    %rax,-0x8(%rbp)
ffffffff8100787f:	48 8b 45 f8          	mov    -0x8(%rbp),%rax
ffffffff81007883:	48 3b 45 d0          	cmp    -0x30(%rbp),%rax
ffffffff81007887:	72 11                	jb     ffffffff8100789a <vmm_touches_range+0x7f>
ffffffff81007889:	48 8b 45 e0          	mov    -0x20(%rbp),%rax
ffffffff8100788d:	48 3b 45 f8          	cmp    -0x8(%rbp),%rax
ffffffff81007891:	72 07                	jb     ffffffff8100789a <vmm_touches_range+0x7f>
ffffffff81007893:	b8 01 00 00 00       	mov    $0x1,%eax
ffffffff81007898:	eb 05                	jmp    ffffffff8100789f <vmm_touches_range+0x84>
ffffffff8100789a:	b8 00 00 00 00       	mov    $0x0,%eax
ffffffff8100789f:	c9                   	leaveq 
ffffffff810078a0:	c3                   	retq   

ffffffff810078a1 <vmmgr_is_reserved>:
ffffffff810078a1:	55                   	push   %rbp
ffffffff810078a2:	48 89 e5             	mov    %rsp,%rbp
ffffffff810078a5:	48 83 ec 30          	sub    $0x30,%rsp
ffffffff810078a9:	48 89 7d d8          	mov    %rdi,-0x28(%rbp)
ffffffff810078ad:	48 89 75 d0          	mov    %rsi,-0x30(%rbp)
ffffffff810078b1:	48 c7 45 f8 00 00 00 	movq   $0x0,-0x8(%rbp)
ffffffff810078b8:	00 
ffffffff810078b9:	48 c7 45 e8 00 00 00 	movq   $0x0,-0x18(%rbp)
ffffffff810078c0:	00 
ffffffff810078c1:	48 c7 45 e0 00 00 00 	movq   $0x0,-0x20(%rbp)
ffffffff810078c8:	00 
ffffffff810078c9:	48 c7 c7 b8 10 02 81 	mov    $0xffffffff810210b8,%rdi
ffffffff810078d0:	e8 89 56 00 00       	callq  ffffffff8100cf5e <linked_list_first>
ffffffff810078d5:	48 89 45 f8          	mov    %rax,-0x8(%rbp)
ffffffff810078d9:	e9 82 00 00 00       	jmpq   ffffffff81007960 <vmmgr_is_reserved+0xbf>
ffffffff810078de:	48 8b 45 f8          	mov    -0x8(%rbp),%rax
ffffffff810078e2:	48 89 c7             	mov    %rax,%rdi
ffffffff810078e5:	e8 8a 56 00 00       	callq  ffffffff8100cf74 <linked_list_next>
ffffffff810078ea:	48 89 45 e8          	mov    %rax,-0x18(%rbp)
ffffffff810078ee:	66 c7 45 f6 00 00    	movw   $0x0,-0xa(%rbp)
ffffffff810078f4:	eb 55                	jmp    ffffffff8100794b <vmmgr_is_reserved+0xaa>
ffffffff810078f6:	0f b7 55 f6          	movzwl -0xa(%rbp),%edx
ffffffff810078fa:	48 89 d0             	mov    %rdx,%rax
ffffffff810078fd:	48 01 c0             	add    %rax,%rax
ffffffff81007900:	48 01 d0             	add    %rdx,%rax
ffffffff81007903:	48 c1 e0 03          	shl    $0x3,%rax
ffffffff81007907:	48 8d 50 10          	lea    0x10(%rax),%rdx
ffffffff8100790b:	48 8b 45 f8          	mov    -0x8(%rbp),%rax
ffffffff8100790f:	48 01 d0             	add    %rdx,%rax
ffffffff81007912:	48 89 45 e0          	mov    %rax,-0x20(%rbp)
ffffffff81007916:	48 8b 45 e0          	mov    -0x20(%rbp),%rax
ffffffff8100791a:	48 8b 70 08          	mov    0x8(%rax),%rsi
ffffffff8100791e:	48 8b 45 e0          	mov    -0x20(%rbp),%rax
ffffffff81007922:	48 8b 00             	mov    (%rax),%rax
ffffffff81007925:	48 8b 4d d0          	mov    -0x30(%rbp),%rcx
ffffffff81007929:	48 8b 55 d8          	mov    -0x28(%rbp),%rdx
ffffffff8100792d:	48 89 c7             	mov    %rax,%rdi
ffffffff81007930:	e8 e6 fe ff ff       	callq  ffffffff8100781b <vmm_touches_range>
ffffffff81007935:	85 c0                	test   %eax,%eax
ffffffff81007937:	74 07                	je     ffffffff81007940 <vmmgr_is_reserved+0x9f>
ffffffff81007939:	b8 01 00 00 00       	mov    $0x1,%eax
ffffffff8100793e:	eb 30                	jmp    ffffffff81007970 <vmmgr_is_reserved+0xcf>
ffffffff81007940:	0f b7 45 f6          	movzwl -0xa(%rbp),%eax
ffffffff81007944:	83 c0 01             	add    $0x1,%eax
ffffffff81007947:	66 89 45 f6          	mov    %ax,-0xa(%rbp)
ffffffff8100794b:	0f b7 05 80 97 01 00 	movzwl 0x19780(%rip),%eax        # ffffffff810210d2 <vmem_mgr+0x32>
ffffffff81007952:	66 39 45 f6          	cmp    %ax,-0xa(%rbp)
ffffffff81007956:	72 9e                	jb     ffffffff810078f6 <vmmgr_is_reserved+0x55>
ffffffff81007958:	48 8b 45 e8          	mov    -0x18(%rbp),%rax
ffffffff8100795c:	48 89 45 f8          	mov    %rax,-0x8(%rbp)
ffffffff81007960:	48 83 7d f8 00       	cmpq   $0x0,-0x8(%rbp)
ffffffff81007965:	0f 85 73 ff ff ff    	jne    ffffffff810078de <vmmgr_is_reserved+0x3d>
ffffffff8100796b:	b8 00 00 00 00       	mov    $0x0,%eax
ffffffff81007970:	c9                   	leaveq 
ffffffff81007971:	c3                   	retq   

ffffffff81007972 <vmmgr_is_free>:
ffffffff81007972:	55                   	push   %rbp
ffffffff81007973:	48 89 e5             	mov    %rsp,%rbp
ffffffff81007976:	48 83 ec 40          	sub    $0x40,%rsp
ffffffff8100797a:	48 89 7d c8          	mov    %rdi,-0x38(%rbp)
ffffffff8100797e:	48 89 75 c0          	mov    %rsi,-0x40(%rbp)
ffffffff81007982:	48 c7 45 f8 00 00 00 	movq   $0x0,-0x8(%rbp)
ffffffff81007989:	00 
ffffffff8100798a:	48 c7 45 e8 00 00 00 	movq   $0x0,-0x18(%rbp)
ffffffff81007991:	00 
ffffffff81007992:	48 c7 45 e0 00 00 00 	movq   $0x0,-0x20(%rbp)
ffffffff81007999:	00 
ffffffff8100799a:	48 c7 45 d8 00 00 00 	movq   $0x0,-0x28(%rbp)
ffffffff810079a1:	00 
ffffffff810079a2:	48 c7 c7 a0 10 02 81 	mov    $0xffffffff810210a0,%rdi
ffffffff810079a9:	e8 b0 55 00 00       	callq  ffffffff8100cf5e <linked_list_first>
ffffffff810079ae:	48 89 45 f8          	mov    %rax,-0x8(%rbp)
ffffffff810079b2:	eb 7c                	jmp    ffffffff81007a30 <vmmgr_is_free+0xbe>
ffffffff810079b4:	48 8b 45 f8          	mov    -0x8(%rbp),%rax
ffffffff810079b8:	48 89 c7             	mov    %rax,%rdi
ffffffff810079bb:	e8 b4 55 00 00       	callq  ffffffff8100cf74 <linked_list_next>
ffffffff810079c0:	48 89 45 e8          	mov    %rax,-0x18(%rbp)
ffffffff810079c4:	66 c7 45 f6 00 00    	movw   $0x0,-0xa(%rbp)
ffffffff810079ca:	eb 4f                	jmp    ffffffff81007a1b <vmmgr_is_free+0xa9>
ffffffff810079cc:	0f b7 45 f6          	movzwl -0xa(%rbp),%eax
ffffffff810079d0:	48 83 c0 01          	add    $0x1,%rax
ffffffff810079d4:	48 c1 e0 04          	shl    $0x4,%rax
ffffffff810079d8:	48 89 c2             	mov    %rax,%rdx
ffffffff810079db:	48 8b 45 f8          	mov    -0x8(%rbp),%rax
ffffffff810079df:	48 01 d0             	add    %rdx,%rax
ffffffff810079e2:	48 89 45 e0          	mov    %rax,-0x20(%rbp)
ffffffff810079e6:	48 8b 45 e0          	mov    -0x20(%rbp),%rax
ffffffff810079ea:	48 8b 70 08          	mov    0x8(%rax),%rsi
ffffffff810079ee:	48 8b 45 e0          	mov    -0x20(%rbp),%rax
ffffffff810079f2:	48 8b 00             	mov    (%rax),%rax
ffffffff810079f5:	48 8b 4d c0          	mov    -0x40(%rbp),%rcx
ffffffff810079f9:	48 8b 55 c8          	mov    -0x38(%rbp),%rdx
ffffffff810079fd:	48 89 c7             	mov    %rax,%rdi
ffffffff81007a00:	e8 16 fe ff ff       	callq  ffffffff8100781b <vmm_touches_range>
ffffffff81007a05:	85 c0                	test   %eax,%eax
ffffffff81007a07:	74 07                	je     ffffffff81007a10 <vmmgr_is_free+0x9e>
ffffffff81007a09:	b8 01 00 00 00       	mov    $0x1,%eax
ffffffff81007a0e:	eb 30                	jmp    ffffffff81007a40 <vmmgr_is_free+0xce>
ffffffff81007a10:	0f b7 45 f6          	movzwl -0xa(%rbp),%eax
ffffffff81007a14:	83 c0 01             	add    $0x1,%eax
ffffffff81007a17:	66 89 45 f6          	mov    %ax,-0xa(%rbp)
ffffffff81007a1b:	0f b7 05 ae 96 01 00 	movzwl 0x196ae(%rip),%eax        # ffffffff810210d0 <vmem_mgr+0x30>
ffffffff81007a22:	66 39 45 f6          	cmp    %ax,-0xa(%rbp)
ffffffff81007a26:	72 a4                	jb     ffffffff810079cc <vmmgr_is_free+0x5a>
ffffffff81007a28:	48 8b 45 e8          	mov    -0x18(%rbp),%rax
ffffffff81007a2c:	48 89 45 f8          	mov    %rax,-0x8(%rbp)
ffffffff81007a30:	48 83 7d f8 00       	cmpq   $0x0,-0x8(%rbp)
ffffffff81007a35:	0f 85 79 ff ff ff    	jne    ffffffff810079b4 <vmmgr_is_free+0x42>
ffffffff81007a3b:	b8 00 00 00 00       	mov    $0x0,%eax
ffffffff81007a40:	c9                   	leaveq 
ffffffff81007a41:	c3                   	retq   

ffffffff81007a42 <vmmgr_add_reserved>:
ffffffff81007a42:	55                   	push   %rbp
ffffffff81007a43:	48 89 e5             	mov    %rsp,%rbp
ffffffff81007a46:	48 83 ec 40          	sub    $0x40,%rsp
ffffffff81007a4a:	48 89 7d c8          	mov    %rdi,-0x38(%rbp)
ffffffff81007a4e:	48 c7 45 f8 00 00 00 	movq   $0x0,-0x8(%rbp)
ffffffff81007a55:	00 
ffffffff81007a56:	48 c7 45 e0 00 00 00 	movq   $0x0,-0x20(%rbp)
ffffffff81007a5d:	00 
ffffffff81007a5e:	48 c7 45 d8 00 00 00 	movq   $0x0,-0x28(%rbp)
ffffffff81007a65:	00 
ffffffff81007a66:	48 c7 45 f0 00 00 00 	movq   $0x0,-0x10(%rbp)
ffffffff81007a6d:	00 
ffffffff81007a6e:	c6 45 ef 00          	movb   $0x0,-0x11(%rbp)
ffffffff81007a72:	48 c7 c7 b8 10 02 81 	mov    $0xffffffff810210b8,%rdi
ffffffff81007a79:	e8 e0 54 00 00       	callq  ffffffff8100cf5e <linked_list_first>
ffffffff81007a7e:	48 89 45 f8          	mov    %rax,-0x8(%rbp)
ffffffff81007a82:	e9 ee 00 00 00       	jmpq   ffffffff81007b75 <vmmgr_add_reserved+0x133>
ffffffff81007a87:	48 8b 45 f8          	mov    -0x8(%rbp),%rax
ffffffff81007a8b:	48 89 c7             	mov    %rax,%rdi
ffffffff81007a8e:	e8 e1 54 00 00       	callq  ffffffff8100cf74 <linked_list_next>
ffffffff81007a93:	48 89 45 e0          	mov    %rax,-0x20(%rbp)
ffffffff81007a97:	48 8b 45 f8          	mov    -0x8(%rbp),%rax
ffffffff81007a9b:	48 83 c0 10          	add    $0x10,%rax
ffffffff81007a9f:	48 89 45 d8          	mov    %rax,-0x28(%rbp)
ffffffff81007aa3:	66 c7 45 ec 00 00    	movw   $0x0,-0x14(%rbp)
ffffffff81007aa9:	e9 a8 00 00 00       	jmpq   ffffffff81007b56 <vmmgr_add_reserved+0x114>
ffffffff81007aae:	48 83 7d f0 00       	cmpq   $0x0,-0x10(%rbp)
ffffffff81007ab3:	75 6c                	jne    ffffffff81007b21 <vmmgr_add_reserved+0xdf>
ffffffff81007ab5:	0f b7 55 ec          	movzwl -0x14(%rbp),%edx
ffffffff81007ab9:	48 89 d0             	mov    %rdx,%rax
ffffffff81007abc:	48 01 c0             	add    %rax,%rax
ffffffff81007abf:	48 01 d0             	add    %rdx,%rax
ffffffff81007ac2:	48 c1 e0 03          	shl    $0x3,%rax
ffffffff81007ac6:	48 89 c2             	mov    %rax,%rdx
ffffffff81007ac9:	48 8b 45 d8          	mov    -0x28(%rbp),%rax
ffffffff81007acd:	48 01 d0             	add    %rdx,%rax
ffffffff81007ad0:	48 8b 00             	mov    (%rax),%rax
ffffffff81007ad3:	48 85 c0             	test   %rax,%rax
ffffffff81007ad6:	75 73                	jne    ffffffff81007b4b <vmmgr_add_reserved+0x109>
ffffffff81007ad8:	0f b7 55 ec          	movzwl -0x14(%rbp),%edx
ffffffff81007adc:	48 89 d0             	mov    %rdx,%rax
ffffffff81007adf:	48 01 c0             	add    %rax,%rax
ffffffff81007ae2:	48 01 d0             	add    %rdx,%rax
ffffffff81007ae5:	48 c1 e0 03          	shl    $0x3,%rax
ffffffff81007ae9:	48 89 c2             	mov    %rax,%rdx
ffffffff81007aec:	48 8b 45 d8          	mov    -0x28(%rbp),%rax
ffffffff81007af0:	48 01 d0             	add    %rdx,%rax
ffffffff81007af3:	48 8b 40 08          	mov    0x8(%rax),%rax
ffffffff81007af7:	48 85 c0             	test   %rax,%rax
ffffffff81007afa:	75 4f                	jne    ffffffff81007b4b <vmmgr_add_reserved+0x109>
ffffffff81007afc:	0f b7 55 ec          	movzwl -0x14(%rbp),%edx
ffffffff81007b00:	48 89 d0             	mov    %rdx,%rax
ffffffff81007b03:	48 01 c0             	add    %rax,%rax
ffffffff81007b06:	48 01 d0             	add    %rdx,%rax
ffffffff81007b09:	48 c1 e0 03          	shl    $0x3,%rax
ffffffff81007b0d:	48 89 c2             	mov    %rax,%rdx
ffffffff81007b10:	48 8b 45 d8          	mov    -0x28(%rbp),%rax
ffffffff81007b14:	48 01 d0             	add    %rdx,%rax
ffffffff81007b17:	48 89 45 f0          	mov    %rax,-0x10(%rbp)
ffffffff81007b1b:	c6 45 ef 01          	movb   $0x1,-0x11(%rbp)
ffffffff81007b1f:	eb 46                	jmp    ffffffff81007b67 <vmmgr_add_reserved+0x125>
ffffffff81007b21:	48 8b 4d f0          	mov    -0x10(%rbp),%rcx
ffffffff81007b25:	48 8b 45 c8          	mov    -0x38(%rbp),%rax
ffffffff81007b29:	ba 18 00 00 00       	mov    $0x18,%edx
ffffffff81007b2e:	48 89 ce             	mov    %rcx,%rsi
ffffffff81007b31:	48 89 c7             	mov    %rax,%rdi
ffffffff81007b34:	e8 11 2d 00 00       	callq  ffffffff8100a84a <memcmp>
ffffffff81007b39:	85 c0                	test   %eax,%eax
ffffffff81007b3b:	75 0e                	jne    ffffffff81007b4b <vmmgr_add_reserved+0x109>
ffffffff81007b3d:	48 c7 45 f0 00 00 00 	movq   $0x0,-0x10(%rbp)
ffffffff81007b44:	00 
ffffffff81007b45:	c6 45 ef 01          	movb   $0x1,-0x11(%rbp)
ffffffff81007b49:	eb 1c                	jmp    ffffffff81007b67 <vmmgr_add_reserved+0x125>
ffffffff81007b4b:	0f b7 45 ec          	movzwl -0x14(%rbp),%eax
ffffffff81007b4f:	83 c0 01             	add    $0x1,%eax
ffffffff81007b52:	66 89 45 ec          	mov    %ax,-0x14(%rbp)
ffffffff81007b56:	0f b7 05 75 95 01 00 	movzwl 0x19575(%rip),%eax        # ffffffff810210d2 <vmem_mgr+0x32>
ffffffff81007b5d:	66 39 45 ec          	cmp    %ax,-0x14(%rbp)
ffffffff81007b61:	0f 82 47 ff ff ff    	jb     ffffffff81007aae <vmmgr_add_reserved+0x6c>
ffffffff81007b67:	80 7d ef 00          	cmpb   $0x0,-0x11(%rbp)
ffffffff81007b6b:	75 15                	jne    ffffffff81007b82 <vmmgr_add_reserved+0x140>
ffffffff81007b6d:	48 8b 45 e0          	mov    -0x20(%rbp),%rax
ffffffff81007b71:	48 89 45 f8          	mov    %rax,-0x8(%rbp)
ffffffff81007b75:	48 83 7d f8 00       	cmpq   $0x0,-0x8(%rbp)
ffffffff81007b7a:	0f 85 07 ff ff ff    	jne    ffffffff81007a87 <vmmgr_add_reserved+0x45>
ffffffff81007b80:	eb 01                	jmp    ffffffff81007b83 <vmmgr_add_reserved+0x141>
ffffffff81007b82:	90                   	nop
ffffffff81007b83:	48 83 7d f0 00       	cmpq   $0x0,-0x10(%rbp)
ffffffff81007b88:	74 25                	je     ffffffff81007baf <vmmgr_add_reserved+0x16d>
ffffffff81007b8a:	48 8b 45 f0          	mov    -0x10(%rbp),%rax
ffffffff81007b8e:	48 8b 55 c8          	mov    -0x38(%rbp),%rdx
ffffffff81007b92:	48 8b 0a             	mov    (%rdx),%rcx
ffffffff81007b95:	48 89 08             	mov    %rcx,(%rax)
ffffffff81007b98:	48 8b 4a 08          	mov    0x8(%rdx),%rcx
ffffffff81007b9c:	48 89 48 08          	mov    %rcx,0x8(%rax)
ffffffff81007ba0:	48 8b 52 10          	mov    0x10(%rdx),%rdx
ffffffff81007ba4:	48 89 50 10          	mov    %rdx,0x10(%rax)
ffffffff81007ba8:	b8 00 00 00 00       	mov    $0x0,%eax
ffffffff81007bad:	eb 05                	jmp    ffffffff81007bb4 <vmmgr_add_reserved+0x172>
ffffffff81007baf:	b8 ff ff ff ff       	mov    $0xffffffff,%eax
ffffffff81007bb4:	c9                   	leaveq 
ffffffff81007bb5:	c3                   	retq   

ffffffff81007bb6 <vmmgr_merge_free_block>:
ffffffff81007bb6:	55                   	push   %rbp
ffffffff81007bb7:	48 89 e5             	mov    %rsp,%rbp
ffffffff81007bba:	48 83 ec 30          	sub    $0x30,%rsp
ffffffff81007bbe:	48 89 7d d8          	mov    %rdi,-0x28(%rbp)
ffffffff81007bc2:	48 c7 45 f8 00 00 00 	movq   $0x0,-0x8(%rbp)
ffffffff81007bc9:	00 
ffffffff81007bca:	48 c7 45 e8 00 00 00 	movq   $0x0,-0x18(%rbp)
ffffffff81007bd1:	00 
ffffffff81007bd2:	48 c7 45 e0 00 00 00 	movq   $0x0,-0x20(%rbp)
ffffffff81007bd9:	00 
ffffffff81007bda:	c7 45 f4 00 00 00 00 	movl   $0x0,-0xc(%rbp)
ffffffff81007be1:	48 c7 c7 a0 10 02 81 	mov    $0xffffffff810210a0,%rdi
ffffffff81007be8:	e8 71 53 00 00       	callq  ffffffff8100cf5e <linked_list_first>
ffffffff81007bed:	48 89 45 f8          	mov    %rax,-0x8(%rbp)
ffffffff81007bf1:	e9 dd 01 00 00       	jmpq   ffffffff81007dd3 <vmmgr_merge_free_block+0x21d>
ffffffff81007bf6:	48 8b 45 f8          	mov    -0x8(%rbp),%rax
ffffffff81007bfa:	48 89 c7             	mov    %rax,%rdi
ffffffff81007bfd:	e8 72 53 00 00       	callq  ffffffff8100cf74 <linked_list_next>
ffffffff81007c02:	48 89 45 e8          	mov    %rax,-0x18(%rbp)
ffffffff81007c06:	48 8b 45 f8          	mov    -0x8(%rbp),%rax
ffffffff81007c0a:	48 83 c0 10          	add    $0x10,%rax
ffffffff81007c0e:	48 89 45 e0          	mov    %rax,-0x20(%rbp)
ffffffff81007c12:	66 c7 45 f2 00 00    	movw   $0x0,-0xe(%rbp)
ffffffff81007c18:	e9 9d 01 00 00       	jmpq   ffffffff81007dba <vmmgr_merge_free_block+0x204>
ffffffff81007c1d:	0f b7 45 f2          	movzwl -0xe(%rbp),%eax
ffffffff81007c21:	48 c1 e0 04          	shl    $0x4,%rax
ffffffff81007c25:	48 89 c2             	mov    %rax,%rdx
ffffffff81007c28:	48 8b 45 e0          	mov    -0x20(%rbp),%rax
ffffffff81007c2c:	48 01 d0             	add    %rdx,%rax
ffffffff81007c2f:	48 8b 10             	mov    (%rax),%rdx
ffffffff81007c32:	48 8b 45 d8          	mov    -0x28(%rbp),%rax
ffffffff81007c36:	48 8b 08             	mov    (%rax),%rcx
ffffffff81007c39:	48 8b 45 d8          	mov    -0x28(%rbp),%rax
ffffffff81007c3d:	48 8b 40 08          	mov    0x8(%rax),%rax
ffffffff81007c41:	48 01 c8             	add    %rcx,%rax
ffffffff81007c44:	48 39 c2             	cmp    %rax,%rdx
ffffffff81007c47:	0f 85 a2 00 00 00    	jne    ffffffff81007cef <vmmgr_merge_free_block+0x139>
ffffffff81007c4d:	0f b7 45 f2          	movzwl -0xe(%rbp),%eax
ffffffff81007c51:	48 c1 e0 04          	shl    $0x4,%rax
ffffffff81007c55:	48 89 c2             	mov    %rax,%rdx
ffffffff81007c58:	48 8b 45 e0          	mov    -0x20(%rbp),%rax
ffffffff81007c5c:	48 01 c2             	add    %rax,%rdx
ffffffff81007c5f:	48 8b 45 d8          	mov    -0x28(%rbp),%rax
ffffffff81007c63:	48 8b 00             	mov    (%rax),%rax
ffffffff81007c66:	48 89 02             	mov    %rax,(%rdx)
ffffffff81007c69:	0f b7 45 f2          	movzwl -0xe(%rbp),%eax
ffffffff81007c6d:	48 c1 e0 04          	shl    $0x4,%rax
ffffffff81007c71:	48 89 c2             	mov    %rax,%rdx
ffffffff81007c74:	48 8b 45 e0          	mov    -0x20(%rbp),%rax
ffffffff81007c78:	48 01 d0             	add    %rdx,%rax
ffffffff81007c7b:	48 8b 48 08          	mov    0x8(%rax),%rcx
ffffffff81007c7f:	48 8b 45 d8          	mov    -0x28(%rbp),%rax
ffffffff81007c83:	48 8b 50 08          	mov    0x8(%rax),%rdx
ffffffff81007c87:	0f b7 45 f2          	movzwl -0xe(%rbp),%eax
ffffffff81007c8b:	48 c1 e0 04          	shl    $0x4,%rax
ffffffff81007c8f:	48 89 c6             	mov    %rax,%rsi
ffffffff81007c92:	48 8b 45 e0          	mov    -0x20(%rbp),%rax
ffffffff81007c96:	48 01 f0             	add    %rsi,%rax
ffffffff81007c99:	48 01 ca             	add    %rcx,%rdx
ffffffff81007c9c:	48 89 50 08          	mov    %rdx,0x8(%rax)
ffffffff81007ca0:	83 7d f4 01          	cmpl   $0x1,-0xc(%rbp)
ffffffff81007ca4:	75 17                	jne    ffffffff81007cbd <vmmgr_merge_free_block+0x107>
ffffffff81007ca6:	48 8b 45 d8          	mov    -0x28(%rbp),%rax
ffffffff81007caa:	48 c7 00 00 00 00 00 	movq   $0x0,(%rax)
ffffffff81007cb1:	48 8b 45 d8          	mov    -0x28(%rbp),%rax
ffffffff81007cb5:	48 c7 40 08 00 00 00 	movq   $0x0,0x8(%rax)
ffffffff81007cbc:	00 
ffffffff81007cbd:	0f b7 45 f2          	movzwl -0xe(%rbp),%eax
ffffffff81007cc1:	48 c1 e0 04          	shl    $0x4,%rax
ffffffff81007cc5:	48 89 c2             	mov    %rax,%rdx
ffffffff81007cc8:	48 8b 45 e0          	mov    -0x20(%rbp),%rax
ffffffff81007ccc:	48 01 d0             	add    %rdx,%rax
ffffffff81007ccf:	48 89 45 d8          	mov    %rax,-0x28(%rbp)
ffffffff81007cd3:	48 c7 c7 a0 10 02 81 	mov    $0xffffffff810210a0,%rdi
ffffffff81007cda:	e8 7f 52 00 00       	callq  ffffffff8100cf5e <linked_list_first>
ffffffff81007cdf:	48 89 45 f8          	mov    %rax,-0x8(%rbp)
ffffffff81007ce3:	c7 45 f4 01 00 00 00 	movl   $0x1,-0xc(%rbp)
ffffffff81007cea:	e9 c0 00 00 00       	jmpq   ffffffff81007daf <vmmgr_merge_free_block+0x1f9>
ffffffff81007cef:	0f b7 45 f2          	movzwl -0xe(%rbp),%eax
ffffffff81007cf3:	48 c1 e0 04          	shl    $0x4,%rax
ffffffff81007cf7:	48 89 c2             	mov    %rax,%rdx
ffffffff81007cfa:	48 8b 45 e0          	mov    -0x20(%rbp),%rax
ffffffff81007cfe:	48 01 d0             	add    %rdx,%rax
ffffffff81007d01:	48 8b 10             	mov    (%rax),%rdx
ffffffff81007d04:	0f b7 45 f2          	movzwl -0xe(%rbp),%eax
ffffffff81007d08:	48 c1 e0 04          	shl    $0x4,%rax
ffffffff81007d0c:	48 89 c1             	mov    %rax,%rcx
ffffffff81007d0f:	48 8b 45 e0          	mov    -0x20(%rbp),%rax
ffffffff81007d13:	48 01 c8             	add    %rcx,%rax
ffffffff81007d16:	48 8b 40 08          	mov    0x8(%rax),%rax
ffffffff81007d1a:	48 01 c2             	add    %rax,%rdx
ffffffff81007d1d:	48 8b 45 d8          	mov    -0x28(%rbp),%rax
ffffffff81007d21:	48 8b 00             	mov    (%rax),%rax
ffffffff81007d24:	48 39 c2             	cmp    %rax,%rdx
ffffffff81007d27:	0f 85 82 00 00 00    	jne    ffffffff81007daf <vmmgr_merge_free_block+0x1f9>
ffffffff81007d2d:	0f b7 45 f2          	movzwl -0xe(%rbp),%eax
ffffffff81007d31:	48 c1 e0 04          	shl    $0x4,%rax
ffffffff81007d35:	48 89 c2             	mov    %rax,%rdx
ffffffff81007d38:	48 8b 45 e0          	mov    -0x20(%rbp),%rax
ffffffff81007d3c:	48 01 d0             	add    %rdx,%rax
ffffffff81007d3f:	48 8b 48 08          	mov    0x8(%rax),%rcx
ffffffff81007d43:	48 8b 45 d8          	mov    -0x28(%rbp),%rax
ffffffff81007d47:	48 8b 50 08          	mov    0x8(%rax),%rdx
ffffffff81007d4b:	0f b7 45 f2          	movzwl -0xe(%rbp),%eax
ffffffff81007d4f:	48 c1 e0 04          	shl    $0x4,%rax
ffffffff81007d53:	48 89 c6             	mov    %rax,%rsi
ffffffff81007d56:	48 8b 45 e0          	mov    -0x20(%rbp),%rax
ffffffff81007d5a:	48 01 f0             	add    %rsi,%rax
ffffffff81007d5d:	48 01 ca             	add    %rcx,%rdx
ffffffff81007d60:	48 89 50 08          	mov    %rdx,0x8(%rax)
ffffffff81007d64:	0f b7 45 f2          	movzwl -0xe(%rbp),%eax
ffffffff81007d68:	48 c1 e0 04          	shl    $0x4,%rax
ffffffff81007d6c:	48 89 c2             	mov    %rax,%rdx
ffffffff81007d6f:	48 8b 45 e0          	mov    -0x20(%rbp),%rax
ffffffff81007d73:	48 01 d0             	add    %rdx,%rax
ffffffff81007d76:	48 89 45 d8          	mov    %rax,-0x28(%rbp)
ffffffff81007d7a:	83 7d f4 01          	cmpl   $0x1,-0xc(%rbp)
ffffffff81007d7e:	75 17                	jne    ffffffff81007d97 <vmmgr_merge_free_block+0x1e1>
ffffffff81007d80:	48 8b 45 d8          	mov    -0x28(%rbp),%rax
ffffffff81007d84:	48 c7 00 00 00 00 00 	movq   $0x0,(%rax)
ffffffff81007d8b:	48 8b 45 d8          	mov    -0x28(%rbp),%rax
ffffffff81007d8f:	48 c7 40 08 00 00 00 	movq   $0x0,0x8(%rax)
ffffffff81007d96:	00 
ffffffff81007d97:	48 c7 c7 a0 10 02 81 	mov    $0xffffffff810210a0,%rdi
ffffffff81007d9e:	e8 bb 51 00 00       	callq  ffffffff8100cf5e <linked_list_first>
ffffffff81007da3:	48 89 45 f8          	mov    %rax,-0x8(%rbp)
ffffffff81007da7:	c7 45 f4 01 00 00 00 	movl   $0x1,-0xc(%rbp)
ffffffff81007dae:	90                   	nop
ffffffff81007daf:	0f b7 45 f2          	movzwl -0xe(%rbp),%eax
ffffffff81007db3:	83 c0 01             	add    $0x1,%eax
ffffffff81007db6:	66 89 45 f2          	mov    %ax,-0xe(%rbp)
ffffffff81007dba:	0f b7 05 0f 93 01 00 	movzwl 0x1930f(%rip),%eax        # ffffffff810210d0 <vmem_mgr+0x30>
ffffffff81007dc1:	66 39 45 f2          	cmp    %ax,-0xe(%rbp)
ffffffff81007dc5:	0f 82 52 fe ff ff    	jb     ffffffff81007c1d <vmmgr_merge_free_block+0x67>
ffffffff81007dcb:	48 8b 45 e8          	mov    -0x18(%rbp),%rax
ffffffff81007dcf:	48 89 45 f8          	mov    %rax,-0x8(%rbp)
ffffffff81007dd3:	48 83 7d f8 00       	cmpq   $0x0,-0x8(%rbp)
ffffffff81007dd8:	0f 85 18 fe ff ff    	jne    ffffffff81007bf6 <vmmgr_merge_free_block+0x40>
ffffffff81007dde:	83 7d f4 00          	cmpl   $0x0,-0xc(%rbp)
ffffffff81007de2:	74 07                	je     ffffffff81007deb <vmmgr_merge_free_block+0x235>
ffffffff81007de4:	b8 00 00 00 00       	mov    $0x0,%eax
ffffffff81007de9:	eb 05                	jmp    ffffffff81007df0 <vmmgr_merge_free_block+0x23a>
ffffffff81007deb:	b8 ff ff ff ff       	mov    $0xffffffff,%eax
ffffffff81007df0:	c9                   	leaveq 
ffffffff81007df1:	c3                   	retq   

ffffffff81007df2 <vmmgr_split_free_block>:
ffffffff81007df2:	55                   	push   %rbp
ffffffff81007df3:	48 89 e5             	mov    %rsp,%rbp
ffffffff81007df6:	48 83 ec 20          	sub    $0x20,%rsp
ffffffff81007dfa:	48 89 7d f8          	mov    %rdi,-0x8(%rbp)
ffffffff81007dfe:	48 89 75 f0          	mov    %rsi,-0x10(%rbp)
ffffffff81007e02:	48 89 55 e8          	mov    %rdx,-0x18(%rbp)
ffffffff81007e06:	48 89 4d e0          	mov    %rcx,-0x20(%rbp)
ffffffff81007e0a:	48 8b 45 f8          	mov    -0x8(%rbp),%rax
ffffffff81007e0e:	48 8b 70 08          	mov    0x8(%rax),%rsi
ffffffff81007e12:	48 8b 45 f8          	mov    -0x8(%rbp),%rax
ffffffff81007e16:	48 8b 00             	mov    (%rax),%rax
ffffffff81007e19:	48 8b 4d e8          	mov    -0x18(%rbp),%rcx
ffffffff81007e1d:	48 8b 55 f0          	mov    -0x10(%rbp),%rdx
ffffffff81007e21:	48 89 c7             	mov    %rax,%rdi
ffffffff81007e24:	e8 89 f9 ff ff       	callq  ffffffff810077b2 <vmm_is_in_range>
ffffffff81007e29:	85 c0                	test   %eax,%eax
ffffffff81007e2b:	0f 84 a5 00 00 00    	je     ffffffff81007ed6 <vmmgr_split_free_block+0xe4>
ffffffff81007e31:	48 8b 55 f0          	mov    -0x10(%rbp),%rdx
ffffffff81007e35:	48 8b 45 e8          	mov    -0x18(%rbp),%rax
ffffffff81007e39:	48 01 c2             	add    %rax,%rdx
ffffffff81007e3c:	48 8b 45 e0          	mov    -0x20(%rbp),%rax
ffffffff81007e40:	48 89 10             	mov    %rdx,(%rax)
ffffffff81007e43:	48 8b 45 f8          	mov    -0x8(%rbp),%rax
ffffffff81007e47:	48 8b 10             	mov    (%rax),%rdx
ffffffff81007e4a:	48 8b 45 f8          	mov    -0x8(%rbp),%rax
ffffffff81007e4e:	48 8b 40 08          	mov    0x8(%rax),%rax
ffffffff81007e52:	48 01 c2             	add    %rax,%rdx
ffffffff81007e55:	48 8b 45 e0          	mov    -0x20(%rbp),%rax
ffffffff81007e59:	48 8b 00             	mov    (%rax),%rax
ffffffff81007e5c:	48 29 c2             	sub    %rax,%rdx
ffffffff81007e5f:	48 8b 45 e0          	mov    -0x20(%rbp),%rax
ffffffff81007e63:	48 89 50 08          	mov    %rdx,0x8(%rax)
ffffffff81007e67:	48 8b 45 f8          	mov    -0x8(%rbp),%rax
ffffffff81007e6b:	48 8b 00             	mov    (%rax),%rax
ffffffff81007e6e:	48 8b 55 f0          	mov    -0x10(%rbp),%rdx
ffffffff81007e72:	48 29 c2             	sub    %rax,%rdx
ffffffff81007e75:	48 8b 45 f8          	mov    -0x8(%rbp),%rax
ffffffff81007e79:	48 89 50 08          	mov    %rdx,0x8(%rax)
ffffffff81007e7d:	48 8b 45 e0          	mov    -0x20(%rbp),%rax
ffffffff81007e81:	48 8b 40 08          	mov    0x8(%rax),%rax
ffffffff81007e85:	48 85 c0             	test   %rax,%rax
ffffffff81007e88:	75 0b                	jne    ffffffff81007e95 <vmmgr_split_free_block+0xa3>
ffffffff81007e8a:	48 8b 45 e0          	mov    -0x20(%rbp),%rax
ffffffff81007e8e:	48 c7 00 00 00 00 00 	movq   $0x0,(%rax)
ffffffff81007e95:	48 8b 45 f8          	mov    -0x8(%rbp),%rax
ffffffff81007e99:	48 8b 40 08          	mov    0x8(%rax),%rax
ffffffff81007e9d:	48 85 c0             	test   %rax,%rax
ffffffff81007ea0:	75 2d                	jne    ffffffff81007ecf <vmmgr_split_free_block+0xdd>
ffffffff81007ea2:	48 8b 4d f8          	mov    -0x8(%rbp),%rcx
ffffffff81007ea6:	48 8b 45 e0          	mov    -0x20(%rbp),%rax
ffffffff81007eaa:	48 8b 50 08          	mov    0x8(%rax),%rdx
ffffffff81007eae:	48 8b 00             	mov    (%rax),%rax
ffffffff81007eb1:	48 89 01             	mov    %rax,(%rcx)
ffffffff81007eb4:	48 89 51 08          	mov    %rdx,0x8(%rcx)
ffffffff81007eb8:	48 8b 45 e0          	mov    -0x20(%rbp),%rax
ffffffff81007ebc:	48 c7 00 00 00 00 00 	movq   $0x0,(%rax)
ffffffff81007ec3:	48 8b 45 e0          	mov    -0x20(%rbp),%rax
ffffffff81007ec7:	48 c7 40 08 00 00 00 	movq   $0x0,0x8(%rax)
ffffffff81007ece:	00 
ffffffff81007ecf:	b8 00 00 00 00       	mov    $0x0,%eax
ffffffff81007ed4:	eb 05                	jmp    ffffffff81007edb <vmmgr_split_free_block+0xe9>
ffffffff81007ed6:	b8 ff ff ff ff       	mov    $0xffffffff,%eax
ffffffff81007edb:	c9                   	leaveq 
ffffffff81007edc:	c3                   	retq   

ffffffff81007edd <vmmgr_put_free_mem>:
ffffffff81007edd:	55                   	push   %rbp
ffffffff81007ede:	48 89 e5             	mov    %rsp,%rbp
ffffffff81007ee1:	48 83 ec 30          	sub    $0x30,%rsp
ffffffff81007ee5:	48 89 7d d8          	mov    %rdi,-0x28(%rbp)
ffffffff81007ee9:	48 c7 45 f8 00 00 00 	movq   $0x0,-0x8(%rbp)
ffffffff81007ef0:	00 
ffffffff81007ef1:	48 c7 45 e8 00 00 00 	movq   $0x0,-0x18(%rbp)
ffffffff81007ef8:	00 
ffffffff81007ef9:	48 c7 45 e0 00 00 00 	movq   $0x0,-0x20(%rbp)
ffffffff81007f00:	00 
ffffffff81007f01:	48 c7 c7 a0 10 02 81 	mov    $0xffffffff810210a0,%rdi
ffffffff81007f08:	e8 51 50 00 00       	callq  ffffffff8100cf5e <linked_list_first>
ffffffff81007f0d:	48 89 45 f8          	mov    %rax,-0x8(%rbp)
ffffffff81007f11:	e9 a5 00 00 00       	jmpq   ffffffff81007fbb <vmmgr_put_free_mem+0xde>
ffffffff81007f16:	48 8b 45 f8          	mov    -0x8(%rbp),%rax
ffffffff81007f1a:	48 89 c7             	mov    %rax,%rdi
ffffffff81007f1d:	e8 52 50 00 00       	callq  ffffffff8100cf74 <linked_list_next>
ffffffff81007f22:	48 89 45 e8          	mov    %rax,-0x18(%rbp)
ffffffff81007f26:	48 8b 45 f8          	mov    -0x8(%rbp),%rax
ffffffff81007f2a:	48 83 c0 10          	add    $0x10,%rax
ffffffff81007f2e:	48 89 45 e0          	mov    %rax,-0x20(%rbp)
ffffffff81007f32:	66 c7 45 f6 00 00    	movw   $0x0,-0xa(%rbp)
ffffffff81007f38:	eb 54                	jmp    ffffffff81007f8e <vmmgr_put_free_mem+0xb1>
ffffffff81007f3a:	0f b7 45 f6          	movzwl -0xa(%rbp),%eax
ffffffff81007f3e:	48 c1 e0 04          	shl    $0x4,%rax
ffffffff81007f42:	48 89 c2             	mov    %rax,%rdx
ffffffff81007f45:	48 8b 45 e0          	mov    -0x20(%rbp),%rax
ffffffff81007f49:	48 01 d0             	add    %rdx,%rax
ffffffff81007f4c:	48 8b 40 08          	mov    0x8(%rax),%rax
ffffffff81007f50:	48 85 c0             	test   %rax,%rax
ffffffff81007f53:	75 2e                	jne    ffffffff81007f83 <vmmgr_put_free_mem+0xa6>
ffffffff81007f55:	0f b7 45 f6          	movzwl -0xa(%rbp),%eax
ffffffff81007f59:	48 c1 e0 04          	shl    $0x4,%rax
ffffffff81007f5d:	48 89 c2             	mov    %rax,%rdx
ffffffff81007f60:	48 8b 45 e0          	mov    -0x20(%rbp),%rax
ffffffff81007f64:	48 8d 0c 02          	lea    (%rdx,%rax,1),%rcx
ffffffff81007f68:	48 8b 45 d8          	mov    -0x28(%rbp),%rax
ffffffff81007f6c:	ba 10 00 00 00       	mov    $0x10,%edx
ffffffff81007f71:	48 89 c6             	mov    %rax,%rsi
ffffffff81007f74:	48 89 cf             	mov    %rcx,%rdi
ffffffff81007f77:	e8 80 28 00 00       	callq  ffffffff8100a7fc <memcpy>
ffffffff81007f7c:	b8 00 00 00 00       	mov    $0x0,%eax
ffffffff81007f81:	eb 48                	jmp    ffffffff81007fcb <vmmgr_put_free_mem+0xee>
ffffffff81007f83:	0f b7 45 f6          	movzwl -0xa(%rbp),%eax
ffffffff81007f87:	83 c0 01             	add    $0x1,%eax
ffffffff81007f8a:	66 89 45 f6          	mov    %ax,-0xa(%rbp)
ffffffff81007f8e:	0f b7 05 3b 91 01 00 	movzwl 0x1913b(%rip),%eax        # ffffffff810210d0 <vmem_mgr+0x30>
ffffffff81007f95:	66 39 45 f6          	cmp    %ax,-0xa(%rbp)
ffffffff81007f99:	72 9f                	jb     ffffffff81007f3a <vmmgr_put_free_mem+0x5d>
ffffffff81007f9b:	48 83 7d e8 00       	cmpq   $0x0,-0x18(%rbp)
ffffffff81007fa0:	75 11                	jne    ffffffff81007fb3 <vmmgr_put_free_mem+0xd6>
ffffffff81007fa2:	48 c7 c7 50 e2 00 81 	mov    $0xffffffff8100e250,%rdi
ffffffff81007fa9:	b8 00 00 00 00       	mov    $0x0,%eax
ffffffff81007fae:	e8 22 f1 ff ff       	callq  ffffffff810070d5 <kprintf>
ffffffff81007fb3:	48 8b 45 e8          	mov    -0x18(%rbp),%rax
ffffffff81007fb7:	48 89 45 f8          	mov    %rax,-0x8(%rbp)
ffffffff81007fbb:	48 83 7d f8 00       	cmpq   $0x0,-0x8(%rbp)
ffffffff81007fc0:	0f 85 50 ff ff ff    	jne    ffffffff81007f16 <vmmgr_put_free_mem+0x39>
ffffffff81007fc6:	b8 ff ff ff ff       	mov    $0xffffffff,%eax
ffffffff81007fcb:	c9                   	leaveq 
ffffffff81007fcc:	c3                   	retq   

ffffffff81007fcd <vmmgr_reserve>:
ffffffff81007fcd:	55                   	push   %rbp
ffffffff81007fce:	48 89 e5             	mov    %rsp,%rbp
ffffffff81007fd1:	48 83 ec 70          	sub    $0x70,%rsp
ffffffff81007fd5:	48 89 7d a8          	mov    %rdi,-0x58(%rbp)
ffffffff81007fd9:	48 89 75 a0          	mov    %rsi,-0x60(%rbp)
ffffffff81007fdd:	89 d0                	mov    %edx,%eax
ffffffff81007fdf:	88 45 9c             	mov    %al,-0x64(%rbp)
ffffffff81007fe2:	48 c7 45 f8 00 00 00 	movq   $0x0,-0x8(%rbp)
ffffffff81007fe9:	00 
ffffffff81007fea:	48 c7 45 e8 00 00 00 	movq   $0x0,-0x18(%rbp)
ffffffff81007ff1:	00 
ffffffff81007ff2:	48 c7 45 e0 00 00 00 	movq   $0x0,-0x20(%rbp)
ffffffff81007ff9:	00 
ffffffff81007ffa:	48 c7 45 d8 00 00 00 	movq   $0x0,-0x28(%rbp)
ffffffff81008001:	00 
ffffffff81008002:	48 8d 45 c8          	lea    -0x38(%rbp),%rax
ffffffff81008006:	ba 10 00 00 00       	mov    $0x10,%edx
ffffffff8100800b:	be 00 00 00 00       	mov    $0x0,%esi
ffffffff81008010:	48 89 c7             	mov    %rax,%rdi
ffffffff81008013:	e8 a2 27 00 00       	callq  ffffffff8100a7ba <memset>
ffffffff81008018:	48 c7 c7 a0 10 02 81 	mov    $0xffffffff810210a0,%rdi
ffffffff8100801f:	e8 3a 4f 00 00       	callq  ffffffff8100cf5e <linked_list_first>
ffffffff81008024:	48 89 45 f8          	mov    %rax,-0x8(%rbp)
ffffffff81008028:	48 8b 45 a8          	mov    -0x58(%rbp),%rax
ffffffff8100802c:	48 89 45 b0          	mov    %rax,-0x50(%rbp)
ffffffff81008030:	48 8b 45 a0          	mov    -0x60(%rbp),%rax
ffffffff81008034:	48 89 45 b8          	mov    %rax,-0x48(%rbp)
ffffffff81008038:	0f b6 45 9c          	movzbl -0x64(%rbp),%eax
ffffffff8100803c:	88 45 c0             	mov    %al,-0x40(%rbp)
ffffffff8100803f:	e9 f3 00 00 00       	jmpq   ffffffff81008137 <vmmgr_reserve+0x16a>
ffffffff81008044:	48 8b 45 f8          	mov    -0x8(%rbp),%rax
ffffffff81008048:	48 89 c7             	mov    %rax,%rdi
ffffffff8100804b:	e8 24 4f 00 00       	callq  ffffffff8100cf74 <linked_list_next>
ffffffff81008050:	48 89 45 e0          	mov    %rax,-0x20(%rbp)
ffffffff81008054:	48 8b 45 f8          	mov    -0x8(%rbp),%rax
ffffffff81008058:	48 83 c0 10          	add    $0x10,%rax
ffffffff8100805c:	48 89 45 d8          	mov    %rax,-0x28(%rbp)
ffffffff81008060:	66 c7 45 f6 00 00    	movw   $0x0,-0xa(%rbp)
ffffffff81008066:	e9 99 00 00 00       	jmpq   ffffffff81008104 <vmmgr_reserve+0x137>
ffffffff8100806b:	0f b7 45 f6          	movzwl -0xa(%rbp),%eax
ffffffff8100806f:	48 c1 e0 04          	shl    $0x4,%rax
ffffffff81008073:	48 89 c2             	mov    %rax,%rdx
ffffffff81008076:	48 8b 45 d8          	mov    -0x28(%rbp),%rax
ffffffff8100807a:	48 01 d0             	add    %rdx,%rax
ffffffff8100807d:	48 8b 70 08          	mov    0x8(%rax),%rsi
ffffffff81008081:	0f b7 45 f6          	movzwl -0xa(%rbp),%eax
ffffffff81008085:	48 c1 e0 04          	shl    $0x4,%rax
ffffffff81008089:	48 89 c2             	mov    %rax,%rdx
ffffffff8100808c:	48 8b 45 d8          	mov    -0x28(%rbp),%rax
ffffffff81008090:	48 01 d0             	add    %rdx,%rax
ffffffff81008093:	48 8b 00             	mov    (%rax),%rax
ffffffff81008096:	48 8b 4d a0          	mov    -0x60(%rbp),%rcx
ffffffff8100809a:	48 8b 55 a8          	mov    -0x58(%rbp),%rdx
ffffffff8100809e:	48 89 c7             	mov    %rax,%rdi
ffffffff810080a1:	e8 0c f7 ff ff       	callq  ffffffff810077b2 <vmm_is_in_range>
ffffffff810080a6:	85 c0                	test   %eax,%eax
ffffffff810080a8:	74 4f                	je     ffffffff810080f9 <vmmgr_reserve+0x12c>
ffffffff810080aa:	0f b7 45 f6          	movzwl -0xa(%rbp),%eax
ffffffff810080ae:	48 c1 e0 04          	shl    $0x4,%rax
ffffffff810080b2:	48 89 c2             	mov    %rax,%rdx
ffffffff810080b5:	48 8b 45 d8          	mov    -0x28(%rbp),%rax
ffffffff810080b9:	48 8d 3c 02          	lea    (%rdx,%rax,1),%rdi
ffffffff810080bd:	48 8d 4d c8          	lea    -0x38(%rbp),%rcx
ffffffff810080c1:	48 8b 55 a0          	mov    -0x60(%rbp),%rdx
ffffffff810080c5:	48 8b 45 a8          	mov    -0x58(%rbp),%rax
ffffffff810080c9:	48 89 c6             	mov    %rax,%rsi
ffffffff810080cc:	e8 21 fd ff ff       	callq  ffffffff81007df2 <vmmgr_split_free_block>
ffffffff810080d1:	48 8d 45 b0          	lea    -0x50(%rbp),%rax
ffffffff810080d5:	48 89 c7             	mov    %rax,%rdi
ffffffff810080d8:	e8 65 f9 ff ff       	callq  ffffffff81007a42 <vmmgr_add_reserved>
ffffffff810080dd:	48 8b 45 c8          	mov    -0x38(%rbp),%rax
ffffffff810080e1:	48 85 c0             	test   %rax,%rax
ffffffff810080e4:	74 0c                	je     ffffffff810080f2 <vmmgr_reserve+0x125>
ffffffff810080e6:	48 8d 45 c8          	lea    -0x38(%rbp),%rax
ffffffff810080ea:	48 89 c7             	mov    %rax,%rdi
ffffffff810080ed:	e8 eb fd ff ff       	callq  ffffffff81007edd <vmmgr_put_free_mem>
ffffffff810080f2:	b8 00 00 00 00       	mov    $0x0,%eax
ffffffff810080f7:	eb 4e                	jmp    ffffffff81008147 <vmmgr_reserve+0x17a>
ffffffff810080f9:	0f b7 45 f6          	movzwl -0xa(%rbp),%eax
ffffffff810080fd:	83 c0 01             	add    $0x1,%eax
ffffffff81008100:	66 89 45 f6          	mov    %ax,-0xa(%rbp)
ffffffff81008104:	0f b7 05 c5 8f 01 00 	movzwl 0x18fc5(%rip),%eax        # ffffffff810210d0 <vmem_mgr+0x30>
ffffffff8100810b:	66 39 45 f6          	cmp    %ax,-0xa(%rbp)
ffffffff8100810f:	0f 82 56 ff ff ff    	jb     ffffffff8100806b <vmmgr_reserve+0x9e>
ffffffff81008115:	48 83 7d e0 00       	cmpq   $0x0,-0x20(%rbp)
ffffffff8100811a:	75 13                	jne    ffffffff8100812f <vmmgr_reserve+0x162>
ffffffff8100811c:	48 c7 c7 63 e2 00 81 	mov    $0xffffffff8100e263,%rdi
ffffffff81008123:	b8 00 00 00 00       	mov    $0x0,%eax
ffffffff81008128:	e8 a8 ef ff ff       	callq  ffffffff810070d5 <kprintf>
ffffffff8100812d:	eb 13                	jmp    ffffffff81008142 <vmmgr_reserve+0x175>
ffffffff8100812f:	48 8b 45 e0          	mov    -0x20(%rbp),%rax
ffffffff81008133:	48 89 45 f8          	mov    %rax,-0x8(%rbp)
ffffffff81008137:	48 83 7d f8 00       	cmpq   $0x0,-0x8(%rbp)
ffffffff8100813c:	0f 85 02 ff ff ff    	jne    ffffffff81008044 <vmmgr_reserve+0x77>
ffffffff81008142:	b8 ff ff ff ff       	mov    $0xffffffff,%eax
ffffffff81008147:	c9                   	leaveq 
ffffffff81008148:	c3                   	retq   

ffffffff81008149 <vmmgr_map>:
ffffffff81008149:	55                   	push   %rbp
ffffffff8100814a:	48 89 e5             	mov    %rsp,%rbp
ffffffff8100814d:	48 83 ec 70          	sub    $0x70,%rsp
ffffffff81008151:	48 89 7d a8          	mov    %rdi,-0x58(%rbp)
ffffffff81008155:	48 89 75 a0          	mov    %rsi,-0x60(%rbp)
ffffffff81008159:	48 89 55 98          	mov    %rdx,-0x68(%rbp)
ffffffff8100815d:	89 4d 94             	mov    %ecx,-0x6c(%rbp)
ffffffff81008160:	48 c7 45 f8 00 00 00 	movq   $0x0,-0x8(%rbp)
ffffffff81008167:	00 
ffffffff81008168:	48 c7 45 d8 00 00 00 	movq   $0x0,-0x28(%rbp)
ffffffff8100816f:	00 
ffffffff81008170:	48 c7 45 d0 00 00 00 	movq   $0x0,-0x30(%rbp)
ffffffff81008177:	00 
ffffffff81008178:	48 c7 45 f0 00 00 00 	movq   $0x0,-0x10(%rbp)
ffffffff8100817f:	00 
ffffffff81008180:	48 8b 45 a0          	mov    -0x60(%rbp),%rax
ffffffff81008184:	48 89 45 e8          	mov    %rax,-0x18(%rbp)
ffffffff81008188:	48 c7 45 c8 00 00 00 	movq   $0x0,-0x38(%rbp)
ffffffff8100818f:	00 
ffffffff81008190:	48 8b 45 98          	mov    -0x68(%rbp),%rax
ffffffff81008194:	48 05 ff 0f 00 00    	add    $0xfff,%rax
ffffffff8100819a:	48 25 00 f0 ff ff    	and    $0xfffffffffffff000,%rax
ffffffff810081a0:	48 89 45 98          	mov    %rax,-0x68(%rbp)
ffffffff810081a4:	48 8d 45 b8          	lea    -0x48(%rbp),%rax
ffffffff810081a8:	ba 10 00 00 00       	mov    $0x10,%edx
ffffffff810081ad:	be 00 00 00 00       	mov    $0x0,%esi
ffffffff810081b2:	48 89 c7             	mov    %rax,%rdi
ffffffff810081b5:	e8 00 26 00 00       	callq  ffffffff8100a7ba <memset>
ffffffff810081ba:	48 c7 c7 a0 10 02 81 	mov    $0xffffffff810210a0,%rdi
ffffffff810081c1:	e8 98 4d 00 00       	callq  ffffffff8100cf5e <linked_list_first>
ffffffff810081c6:	48 89 45 f8          	mov    %rax,-0x8(%rbp)
ffffffff810081ca:	e9 bf 01 00 00       	jmpq   ffffffff8100838e <vmmgr_map+0x245>
ffffffff810081cf:	48 8b 45 f8          	mov    -0x8(%rbp),%rax
ffffffff810081d3:	48 89 c7             	mov    %rax,%rdi
ffffffff810081d6:	e8 99 4d 00 00       	callq  ffffffff8100cf74 <linked_list_next>
ffffffff810081db:	48 89 45 d8          	mov    %rax,-0x28(%rbp)
ffffffff810081df:	48 8b 45 f8          	mov    -0x8(%rbp),%rax
ffffffff810081e3:	48 83 c0 10          	add    $0x10,%rax
ffffffff810081e7:	48 89 45 d0          	mov    %rax,-0x30(%rbp)
ffffffff810081eb:	66 c7 45 e6 00 00    	movw   $0x0,-0x1a(%rbp)
ffffffff810081f1:	e9 30 01 00 00       	jmpq   ffffffff81008326 <vmmgr_map+0x1dd>
ffffffff810081f6:	0f b7 45 e6          	movzwl -0x1a(%rbp),%eax
ffffffff810081fa:	48 c1 e0 04          	shl    $0x4,%rax
ffffffff810081fe:	48 89 c2             	mov    %rax,%rdx
ffffffff81008201:	48 8b 45 d0          	mov    -0x30(%rbp),%rax
ffffffff81008205:	48 01 d0             	add    %rdx,%rax
ffffffff81008208:	48 8b 40 08          	mov    0x8(%rax),%rax
ffffffff8100820c:	48 85 c0             	test   %rax,%rax
ffffffff8100820f:	0f 84 05 01 00 00    	je     ffffffff8100831a <vmmgr_map+0x1d1>
ffffffff81008215:	48 83 7d f0 00       	cmpq   $0x0,-0x10(%rbp)
ffffffff8100821a:	75 16                	jne    ffffffff81008232 <vmmgr_map+0xe9>
ffffffff8100821c:	0f b7 45 e6          	movzwl -0x1a(%rbp),%eax
ffffffff81008220:	48 c1 e0 04          	shl    $0x4,%rax
ffffffff81008224:	48 89 c2             	mov    %rax,%rdx
ffffffff81008227:	48 8b 45 d0          	mov    -0x30(%rbp),%rax
ffffffff8100822b:	48 01 d0             	add    %rdx,%rax
ffffffff8100822e:	48 89 45 f0          	mov    %rax,-0x10(%rbp)
ffffffff81008232:	48 83 7d a0 00       	cmpq   $0x0,-0x60(%rbp)
ffffffff81008237:	74 3d                	je     ffffffff81008276 <vmmgr_map+0x12d>
ffffffff81008239:	48 8b 45 f0          	mov    -0x10(%rbp),%rax
ffffffff8100823d:	48 8b 70 08          	mov    0x8(%rax),%rsi
ffffffff81008241:	48 8b 45 f0          	mov    -0x10(%rbp),%rax
ffffffff81008245:	48 8b 00             	mov    (%rax),%rax
ffffffff81008248:	48 8b 4d 98          	mov    -0x68(%rbp),%rcx
ffffffff8100824c:	48 8b 55 a0          	mov    -0x60(%rbp),%rdx
ffffffff81008250:	48 89 c7             	mov    %rax,%rdi
ffffffff81008253:	e8 5a f5 ff ff       	callq  ffffffff810077b2 <vmm_is_in_range>
ffffffff81008258:	85 c0                	test   %eax,%eax
ffffffff8100825a:	74 0d                	je     ffffffff81008269 <vmmgr_map+0x120>
ffffffff8100825c:	48 8b 45 a0          	mov    -0x60(%rbp),%rax
ffffffff81008260:	48 89 45 e8          	mov    %rax,-0x18(%rbp)
ffffffff81008264:	e9 ce 00 00 00       	jmpq   ffffffff81008337 <vmmgr_map+0x1ee>
ffffffff81008269:	48 c7 45 f0 00 00 00 	movq   $0x0,-0x10(%rbp)
ffffffff81008270:	00 
ffffffff81008271:	e9 a5 00 00 00       	jmpq   ffffffff8100831b <vmmgr_map+0x1d2>
ffffffff81008276:	48 83 7d f0 00       	cmpq   $0x0,-0x10(%rbp)
ffffffff8100827b:	0f 84 9a 00 00 00    	je     ffffffff8100831b <vmmgr_map+0x1d2>
ffffffff81008281:	48 8b 45 f0          	mov    -0x10(%rbp),%rax
ffffffff81008285:	48 8b 40 08          	mov    0x8(%rax),%rax
ffffffff81008289:	48 39 45 98          	cmp    %rax,-0x68(%rbp)
ffffffff8100828d:	76 34                	jbe    ffffffff810082c3 <vmmgr_map+0x17a>
ffffffff8100828f:	0f b7 45 e6          	movzwl -0x1a(%rbp),%eax
ffffffff81008293:	48 c1 e0 04          	shl    $0x4,%rax
ffffffff81008297:	48 89 c2             	mov    %rax,%rdx
ffffffff8100829a:	48 8b 45 d0          	mov    -0x30(%rbp),%rax
ffffffff8100829e:	48 01 d0             	add    %rdx,%rax
ffffffff810082a1:	48 8b 40 08          	mov    0x8(%rax),%rax
ffffffff810082a5:	48 39 45 98          	cmp    %rax,-0x68(%rbp)
ffffffff810082a9:	77 18                	ja     ffffffff810082c3 <vmmgr_map+0x17a>
ffffffff810082ab:	0f b7 45 e6          	movzwl -0x1a(%rbp),%eax
ffffffff810082af:	48 c1 e0 04          	shl    $0x4,%rax
ffffffff810082b3:	48 89 c2             	mov    %rax,%rdx
ffffffff810082b6:	48 8b 45 d0          	mov    -0x30(%rbp),%rax
ffffffff810082ba:	48 01 d0             	add    %rdx,%rax
ffffffff810082bd:	48 89 45 f0          	mov    %rax,-0x10(%rbp)
ffffffff810082c1:	eb 58                	jmp    ffffffff8100831b <vmmgr_map+0x1d2>
ffffffff810082c3:	48 8b 45 f0          	mov    -0x10(%rbp),%rax
ffffffff810082c7:	48 8b 50 08          	mov    0x8(%rax),%rdx
ffffffff810082cb:	0f b7 45 e6          	movzwl -0x1a(%rbp),%eax
ffffffff810082cf:	48 c1 e0 04          	shl    $0x4,%rax
ffffffff810082d3:	48 89 c1             	mov    %rax,%rcx
ffffffff810082d6:	48 8b 45 d0          	mov    -0x30(%rbp),%rax
ffffffff810082da:	48 01 c8             	add    %rcx,%rax
ffffffff810082dd:	48 8b 40 08          	mov    0x8(%rax),%rax
ffffffff810082e1:	48 39 c2             	cmp    %rax,%rdx
ffffffff810082e4:	76 35                	jbe    ffffffff8100831b <vmmgr_map+0x1d2>
ffffffff810082e6:	0f b7 45 e6          	movzwl -0x1a(%rbp),%eax
ffffffff810082ea:	48 c1 e0 04          	shl    $0x4,%rax
ffffffff810082ee:	48 89 c2             	mov    %rax,%rdx
ffffffff810082f1:	48 8b 45 d0          	mov    -0x30(%rbp),%rax
ffffffff810082f5:	48 01 d0             	add    %rdx,%rax
ffffffff810082f8:	48 8b 40 08          	mov    0x8(%rax),%rax
ffffffff810082fc:	48 39 45 98          	cmp    %rax,-0x68(%rbp)
ffffffff81008300:	73 19                	jae    ffffffff8100831b <vmmgr_map+0x1d2>
ffffffff81008302:	0f b7 45 e6          	movzwl -0x1a(%rbp),%eax
ffffffff81008306:	48 c1 e0 04          	shl    $0x4,%rax
ffffffff8100830a:	48 89 c2             	mov    %rax,%rdx
ffffffff8100830d:	48 8b 45 d0          	mov    -0x30(%rbp),%rax
ffffffff81008311:	48 01 d0             	add    %rdx,%rax
ffffffff81008314:	48 89 45 f0          	mov    %rax,-0x10(%rbp)
ffffffff81008318:	eb 01                	jmp    ffffffff8100831b <vmmgr_map+0x1d2>
ffffffff8100831a:	90                   	nop
ffffffff8100831b:	0f b7 45 e6          	movzwl -0x1a(%rbp),%eax
ffffffff8100831f:	83 c0 01             	add    $0x1,%eax
ffffffff81008322:	66 89 45 e6          	mov    %ax,-0x1a(%rbp)
ffffffff81008326:	0f b7 05 a3 8d 01 00 	movzwl 0x18da3(%rip),%eax        # ffffffff810210d0 <vmem_mgr+0x30>
ffffffff8100832d:	66 39 45 e6          	cmp    %ax,-0x1a(%rbp)
ffffffff81008331:	0f 82 bf fe ff ff    	jb     ffffffff810081f6 <vmmgr_map+0xad>
ffffffff81008337:	48 83 7d d8 00       	cmpq   $0x0,-0x28(%rbp)
ffffffff8100833c:	75 41                	jne    ffffffff8100837f <vmmgr_map+0x236>
ffffffff8100833e:	48 83 7d a0 00       	cmpq   $0x0,-0x60(%rbp)
ffffffff81008343:	74 3a                	je     ffffffff8100837f <vmmgr_map+0x236>
ffffffff81008345:	48 83 7d e8 00       	cmpq   $0x0,-0x18(%rbp)
ffffffff8100834a:	75 33                	jne    ffffffff8100837f <vmmgr_map+0x236>
ffffffff8100834c:	48 c7 c7 78 e2 00 81 	mov    $0xffffffff8100e278,%rdi
ffffffff81008353:	b8 00 00 00 00       	mov    $0x0,%eax
ffffffff81008358:	e8 78 ed ff ff       	callq  ffffffff810070d5 <kprintf>
ffffffff8100835d:	48 c7 45 a0 00 00 00 	movq   $0x0,-0x60(%rbp)
ffffffff81008364:	00 
ffffffff81008365:	48 c7 c7 a0 10 02 81 	mov    $0xffffffff810210a0,%rdi
ffffffff8100836c:	e8 ed 4b 00 00       	callq  ffffffff8100cf5e <linked_list_first>
ffffffff81008371:	48 89 45 f8          	mov    %rax,-0x8(%rbp)
ffffffff81008375:	48 c7 45 f0 00 00 00 	movq   $0x0,-0x10(%rbp)
ffffffff8100837c:	00 
ffffffff8100837d:	eb 0f                	jmp    ffffffff8100838e <vmmgr_map+0x245>
ffffffff8100837f:	48 83 7d e8 00       	cmpq   $0x0,-0x18(%rbp)
ffffffff81008384:	75 15                	jne    ffffffff8100839b <vmmgr_map+0x252>
ffffffff81008386:	48 8b 45 d8          	mov    -0x28(%rbp),%rax
ffffffff8100838a:	48 89 45 f8          	mov    %rax,-0x8(%rbp)
ffffffff8100838e:	48 83 7d f8 00       	cmpq   $0x0,-0x8(%rbp)
ffffffff81008393:	0f 85 36 fe ff ff    	jne    ffffffff810081cf <vmmgr_map+0x86>
ffffffff81008399:	eb 01                	jmp    ffffffff8100839c <vmmgr_map+0x253>
ffffffff8100839b:	90                   	nop
ffffffff8100839c:	48 8b 45 f0          	mov    -0x10(%rbp),%rax
ffffffff810083a0:	48 8b 40 08          	mov    0x8(%rax),%rax
ffffffff810083a4:	48 39 45 98          	cmp    %rax,-0x68(%rbp)
ffffffff810083a8:	76 0a                	jbe    ffffffff810083b4 <vmmgr_map+0x26b>
ffffffff810083aa:	b8 00 00 00 00       	mov    $0x0,%eax
ffffffff810083af:	e9 93 00 00 00       	jmpq   ffffffff81008447 <vmmgr_map+0x2fe>
ffffffff810083b4:	48 83 7d e8 00       	cmpq   $0x0,-0x18(%rbp)
ffffffff810083b9:	75 0b                	jne    ffffffff810083c6 <vmmgr_map+0x27d>
ffffffff810083bb:	48 8b 45 f0          	mov    -0x10(%rbp),%rax
ffffffff810083bf:	48 8b 00             	mov    (%rax),%rax
ffffffff810083c2:	48 89 45 e8          	mov    %rax,-0x18(%rbp)
ffffffff810083c6:	48 8b 05 13 8d 01 00 	mov    0x18d13(%rip),%rax        # ffffffff810210e0 <pagemgr>
ffffffff810083cd:	4c 8b 40 08          	mov    0x8(%rax),%r8
ffffffff810083d1:	8b 4d 94             	mov    -0x6c(%rbp),%ecx
ffffffff810083d4:	48 8b 55 98          	mov    -0x68(%rbp),%rdx
ffffffff810083d8:	48 8b 75 a8          	mov    -0x58(%rbp),%rsi
ffffffff810083dc:	48 8b 45 e8          	mov    -0x18(%rbp),%rax
ffffffff810083e0:	48 89 c7             	mov    %rax,%rdi
ffffffff810083e3:	41 ff d0             	callq  *%r8
ffffffff810083e6:	48 89 45 c8          	mov    %rax,-0x38(%rbp)
ffffffff810083ea:	48 83 7d c8 00       	cmpq   $0x0,-0x38(%rbp)
ffffffff810083ef:	75 25                	jne    ffffffff81008416 <vmmgr_map+0x2cd>
ffffffff810083f1:	48 8b 05 e8 8c 01 00 	mov    0x18ce8(%rip),%rax        # ffffffff810210e0 <pagemgr>
ffffffff810083f8:	48 8b 48 20          	mov    0x20(%rax),%rcx
ffffffff810083fc:	48 8b 45 f0          	mov    -0x10(%rbp),%rax
ffffffff81008400:	48 8b 00             	mov    (%rax),%rax
ffffffff81008403:	48 8b 55 98          	mov    -0x68(%rbp),%rdx
ffffffff81008407:	48 89 d6             	mov    %rdx,%rsi
ffffffff8100840a:	48 89 c7             	mov    %rax,%rdi
ffffffff8100840d:	ff d1                	callq  *%rcx
ffffffff8100840f:	b8 00 00 00 00       	mov    $0x0,%eax
ffffffff81008414:	eb 31                	jmp    ffffffff81008447 <vmmgr_map+0x2fe>
ffffffff81008416:	48 8d 4d b8          	lea    -0x48(%rbp),%rcx
ffffffff8100841a:	48 8b 55 98          	mov    -0x68(%rbp),%rdx
ffffffff8100841e:	48 8b 75 e8          	mov    -0x18(%rbp),%rsi
ffffffff81008422:	48 8b 45 f0          	mov    -0x10(%rbp),%rax
ffffffff81008426:	48 89 c7             	mov    %rax,%rdi
ffffffff81008429:	e8 c4 f9 ff ff       	callq  ffffffff81007df2 <vmmgr_split_free_block>
ffffffff8100842e:	48 8b 45 b8          	mov    -0x48(%rbp),%rax
ffffffff81008432:	48 85 c0             	test   %rax,%rax
ffffffff81008435:	74 0c                	je     ffffffff81008443 <vmmgr_map+0x2fa>
ffffffff81008437:	48 8d 45 b8          	lea    -0x48(%rbp),%rax
ffffffff8100843b:	48 89 c7             	mov    %rax,%rdi
ffffffff8100843e:	e8 9a fa ff ff       	callq  ffffffff81007edd <vmmgr_put_free_mem>
ffffffff81008443:	48 8b 45 e8          	mov    -0x18(%rbp),%rax
ffffffff81008447:	c9                   	leaveq 
ffffffff81008448:	c3                   	retq   

ffffffff81008449 <vmmgr_alloc>:
ffffffff81008449:	55                   	push   %rbp
ffffffff8100844a:	48 89 e5             	mov    %rsp,%rbp
ffffffff8100844d:	48 83 ec 70          	sub    $0x70,%rsp
ffffffff81008451:	48 89 7d a8          	mov    %rdi,-0x58(%rbp)
ffffffff81008455:	48 89 75 a0          	mov    %rsi,-0x60(%rbp)
ffffffff81008459:	89 55 9c             	mov    %edx,-0x64(%rbp)
ffffffff8100845c:	48 c7 45 f8 00 00 00 	movq   $0x0,-0x8(%rbp)
ffffffff81008463:	00 
ffffffff81008464:	48 c7 45 d8 00 00 00 	movq   $0x0,-0x28(%rbp)
ffffffff8100846b:	00 
ffffffff8100846c:	48 c7 45 f0 00 00 00 	movq   $0x0,-0x10(%rbp)
ffffffff81008473:	00 
ffffffff81008474:	48 c7 45 d0 00 00 00 	movq   $0x0,-0x30(%rbp)
ffffffff8100847b:	00 
ffffffff8100847c:	48 c7 45 c8 00 00 00 	movq   $0x0,-0x38(%rbp)
ffffffff81008483:	00 
ffffffff81008484:	48 c7 45 e8 00 00 00 	movq   $0x0,-0x18(%rbp)
ffffffff8100848b:	00 
ffffffff8100848c:	48 c7 45 c0 00 00 00 	movq   $0x0,-0x40(%rbp)
ffffffff81008493:	00 
ffffffff81008494:	48 8b 45 a0          	mov    -0x60(%rbp),%rax
ffffffff81008498:	25 ff 0f 00 00       	and    $0xfff,%eax
ffffffff8100849d:	48 85 c0             	test   %rax,%rax
ffffffff810084a0:	74 14                	je     ffffffff810084b6 <vmmgr_alloc+0x6d>
ffffffff810084a2:	48 8b 45 a0          	mov    -0x60(%rbp),%rax
ffffffff810084a6:	48 05 ff 0f 00 00    	add    $0xfff,%rax
ffffffff810084ac:	48 25 00 f0 ff ff    	and    $0xfffffffffffff000,%rax
ffffffff810084b2:	48 89 45 a0          	mov    %rax,-0x60(%rbp)
ffffffff810084b6:	48 8d 45 b0          	lea    -0x50(%rbp),%rax
ffffffff810084ba:	ba 10 00 00 00       	mov    $0x10,%edx
ffffffff810084bf:	be 00 00 00 00       	mov    $0x0,%esi
ffffffff810084c4:	48 89 c7             	mov    %rax,%rdi
ffffffff810084c7:	e8 ee 22 00 00       	callq  ffffffff8100a7ba <memset>
ffffffff810084cc:	48 c7 c7 a0 10 02 81 	mov    $0xffffffff810210a0,%rdi
ffffffff810084d3:	e8 86 4a 00 00       	callq  ffffffff8100cf5e <linked_list_first>
ffffffff810084d8:	48 89 45 f8          	mov    %rax,-0x8(%rbp)
ffffffff810084dc:	e9 db 01 00 00       	jmpq   ffffffff810086bc <vmmgr_alloc+0x273>
ffffffff810084e1:	48 8b 45 f8          	mov    -0x8(%rbp),%rax
ffffffff810084e5:	48 89 c7             	mov    %rax,%rdi
ffffffff810084e8:	e8 87 4a 00 00       	callq  ffffffff8100cf74 <linked_list_next>
ffffffff810084ed:	48 89 45 d8          	mov    %rax,-0x28(%rbp)
ffffffff810084f1:	48 8b 45 f8          	mov    -0x8(%rbp),%rax
ffffffff810084f5:	48 83 c0 10          	add    $0x10,%rax
ffffffff810084f9:	48 89 45 c8          	mov    %rax,-0x38(%rbp)
ffffffff810084fd:	66 c7 45 e6 00 00    	movw   $0x0,-0x1a(%rbp)
ffffffff81008503:	e9 53 01 00 00       	jmpq   ffffffff8100865b <vmmgr_alloc+0x212>
ffffffff81008508:	0f b7 45 e6          	movzwl -0x1a(%rbp),%eax
ffffffff8100850c:	48 c1 e0 04          	shl    $0x4,%rax
ffffffff81008510:	48 89 c2             	mov    %rax,%rdx
ffffffff81008513:	48 8b 45 c8          	mov    -0x38(%rbp),%rax
ffffffff81008517:	48 01 d0             	add    %rdx,%rax
ffffffff8100851a:	48 8b 40 08          	mov    0x8(%rax),%rax
ffffffff8100851e:	48 85 c0             	test   %rax,%rax
ffffffff81008521:	0f 84 28 01 00 00    	je     ffffffff8100864f <vmmgr_alloc+0x206>
ffffffff81008527:	48 83 7d e8 00       	cmpq   $0x0,-0x18(%rbp)
ffffffff8100852c:	75 16                	jne    ffffffff81008544 <vmmgr_alloc+0xfb>
ffffffff8100852e:	0f b7 45 e6          	movzwl -0x1a(%rbp),%eax
ffffffff81008532:	48 c1 e0 04          	shl    $0x4,%rax
ffffffff81008536:	48 89 c2             	mov    %rax,%rdx
ffffffff81008539:	48 8b 45 c8          	mov    -0x38(%rbp),%rax
ffffffff8100853d:	48 01 d0             	add    %rdx,%rax
ffffffff81008540:	48 89 45 e8          	mov    %rax,-0x18(%rbp)
ffffffff81008544:	48 83 7d a8 00       	cmpq   $0x0,-0x58(%rbp)
ffffffff81008549:	74 60                	je     ffffffff810085ab <vmmgr_alloc+0x162>
ffffffff8100854b:	48 8b 45 e8          	mov    -0x18(%rbp),%rax
ffffffff8100854f:	48 8b 70 08          	mov    0x8(%rax),%rsi
ffffffff81008553:	48 8b 45 e8          	mov    -0x18(%rbp),%rax
ffffffff81008557:	48 8b 00             	mov    (%rax),%rax
ffffffff8100855a:	48 8b 4d a0          	mov    -0x60(%rbp),%rcx
ffffffff8100855e:	48 8b 55 a8          	mov    -0x58(%rbp),%rdx
ffffffff81008562:	48 89 c7             	mov    %rax,%rdi
ffffffff81008565:	e8 48 f2 ff ff       	callq  ffffffff810077b2 <vmm_is_in_range>
ffffffff8100856a:	85 c0                	test   %eax,%eax
ffffffff8100856c:	74 30                	je     ffffffff8100859e <vmmgr_alloc+0x155>
ffffffff8100856e:	48 8b 45 e8          	mov    -0x18(%rbp),%rax
ffffffff81008572:	48 8b 50 08          	mov    0x8(%rax),%rdx
ffffffff81008576:	48 8b 45 e8          	mov    -0x18(%rbp),%rax
ffffffff8100857a:	48 8b 00             	mov    (%rax),%rax
ffffffff8100857d:	48 89 c6             	mov    %rax,%rsi
ffffffff81008580:	48 c7 c7 84 e2 00 81 	mov    $0xffffffff8100e284,%rdi
ffffffff81008587:	b8 00 00 00 00       	mov    $0x0,%eax
ffffffff8100858c:	e8 44 eb ff ff       	callq  ffffffff810070d5 <kprintf>
ffffffff81008591:	48 8b 45 a8          	mov    -0x58(%rbp),%rax
ffffffff81008595:	48 89 45 f0          	mov    %rax,-0x10(%rbp)
ffffffff81008599:	e9 ce 00 00 00       	jmpq   ffffffff8100866c <vmmgr_alloc+0x223>
ffffffff8100859e:	48 c7 45 e8 00 00 00 	movq   $0x0,-0x18(%rbp)
ffffffff810085a5:	00 
ffffffff810085a6:	e9 a5 00 00 00       	jmpq   ffffffff81008650 <vmmgr_alloc+0x207>
ffffffff810085ab:	48 83 7d e8 00       	cmpq   $0x0,-0x18(%rbp)
ffffffff810085b0:	0f 84 9a 00 00 00    	je     ffffffff81008650 <vmmgr_alloc+0x207>
ffffffff810085b6:	48 8b 45 e8          	mov    -0x18(%rbp),%rax
ffffffff810085ba:	48 8b 40 08          	mov    0x8(%rax),%rax
ffffffff810085be:	48 39 45 a0          	cmp    %rax,-0x60(%rbp)
ffffffff810085c2:	76 34                	jbe    ffffffff810085f8 <vmmgr_alloc+0x1af>
ffffffff810085c4:	0f b7 45 e6          	movzwl -0x1a(%rbp),%eax
ffffffff810085c8:	48 c1 e0 04          	shl    $0x4,%rax
ffffffff810085cc:	48 89 c2             	mov    %rax,%rdx
ffffffff810085cf:	48 8b 45 c8          	mov    -0x38(%rbp),%rax
ffffffff810085d3:	48 01 d0             	add    %rdx,%rax
ffffffff810085d6:	48 8b 40 08          	mov    0x8(%rax),%rax
ffffffff810085da:	48 39 45 a0          	cmp    %rax,-0x60(%rbp)
ffffffff810085de:	77 18                	ja     ffffffff810085f8 <vmmgr_alloc+0x1af>
ffffffff810085e0:	0f b7 45 e6          	movzwl -0x1a(%rbp),%eax
ffffffff810085e4:	48 c1 e0 04          	shl    $0x4,%rax
ffffffff810085e8:	48 89 c2             	mov    %rax,%rdx
ffffffff810085eb:	48 8b 45 c8          	mov    -0x38(%rbp),%rax
ffffffff810085ef:	48 01 d0             	add    %rdx,%rax
ffffffff810085f2:	48 89 45 e8          	mov    %rax,-0x18(%rbp)
ffffffff810085f6:	eb 58                	jmp    ffffffff81008650 <vmmgr_alloc+0x207>
ffffffff810085f8:	48 8b 45 e8          	mov    -0x18(%rbp),%rax
ffffffff810085fc:	48 8b 50 08          	mov    0x8(%rax),%rdx
ffffffff81008600:	0f b7 45 e6          	movzwl -0x1a(%rbp),%eax
ffffffff81008604:	48 c1 e0 04          	shl    $0x4,%rax
ffffffff81008608:	48 89 c1             	mov    %rax,%rcx
ffffffff8100860b:	48 8b 45 c8          	mov    -0x38(%rbp),%rax
ffffffff8100860f:	48 01 c8             	add    %rcx,%rax
ffffffff81008612:	48 8b 40 08          	mov    0x8(%rax),%rax
ffffffff81008616:	48 39 c2             	cmp    %rax,%rdx
ffffffff81008619:	76 35                	jbe    ffffffff81008650 <vmmgr_alloc+0x207>
ffffffff8100861b:	0f b7 45 e6          	movzwl -0x1a(%rbp),%eax
ffffffff8100861f:	48 c1 e0 04          	shl    $0x4,%rax
ffffffff81008623:	48 89 c2             	mov    %rax,%rdx
ffffffff81008626:	48 8b 45 c8          	mov    -0x38(%rbp),%rax
ffffffff8100862a:	48 01 d0             	add    %rdx,%rax
ffffffff8100862d:	48 8b 40 08          	mov    0x8(%rax),%rax
ffffffff81008631:	48 39 45 a0          	cmp    %rax,-0x60(%rbp)
ffffffff81008635:	73 19                	jae    ffffffff81008650 <vmmgr_alloc+0x207>
ffffffff81008637:	0f b7 45 e6          	movzwl -0x1a(%rbp),%eax
ffffffff8100863b:	48 c1 e0 04          	shl    $0x4,%rax
ffffffff8100863f:	48 89 c2             	mov    %rax,%rdx
ffffffff81008642:	48 8b 45 c8          	mov    -0x38(%rbp),%rax
ffffffff81008646:	48 01 d0             	add    %rdx,%rax
ffffffff81008649:	48 89 45 e8          	mov    %rax,-0x18(%rbp)
ffffffff8100864d:	eb 01                	jmp    ffffffff81008650 <vmmgr_alloc+0x207>
ffffffff8100864f:	90                   	nop
ffffffff81008650:	0f b7 45 e6          	movzwl -0x1a(%rbp),%eax
ffffffff81008654:	83 c0 01             	add    $0x1,%eax
ffffffff81008657:	66 89 45 e6          	mov    %ax,-0x1a(%rbp)
ffffffff8100865b:	0f b7 05 6e 8a 01 00 	movzwl 0x18a6e(%rip),%eax        # ffffffff810210d0 <vmem_mgr+0x30>
ffffffff81008662:	66 39 45 e6          	cmp    %ax,-0x1a(%rbp)
ffffffff81008666:	0f 82 9c fe ff ff    	jb     ffffffff81008508 <vmmgr_alloc+0xbf>
ffffffff8100866c:	48 83 7d d8 00       	cmpq   $0x0,-0x28(%rbp)
ffffffff81008671:	75 41                	jne    ffffffff810086b4 <vmmgr_alloc+0x26b>
ffffffff81008673:	48 83 7d a8 00       	cmpq   $0x0,-0x58(%rbp)
ffffffff81008678:	74 3a                	je     ffffffff810086b4 <vmmgr_alloc+0x26b>
ffffffff8100867a:	48 83 7d f0 00       	cmpq   $0x0,-0x10(%rbp)
ffffffff8100867f:	75 33                	jne    ffffffff810086b4 <vmmgr_alloc+0x26b>
ffffffff81008681:	48 c7 c7 99 e2 00 81 	mov    $0xffffffff8100e299,%rdi
ffffffff81008688:	b8 00 00 00 00       	mov    $0x0,%eax
ffffffff8100868d:	e8 43 ea ff ff       	callq  ffffffff810070d5 <kprintf>
ffffffff81008692:	48 c7 45 a8 00 00 00 	movq   $0x0,-0x58(%rbp)
ffffffff81008699:	00 
ffffffff8100869a:	48 c7 c7 a0 10 02 81 	mov    $0xffffffff810210a0,%rdi
ffffffff810086a1:	e8 b8 48 00 00       	callq  ffffffff8100cf5e <linked_list_first>
ffffffff810086a6:	48 89 45 f8          	mov    %rax,-0x8(%rbp)
ffffffff810086aa:	48 c7 45 e8 00 00 00 	movq   $0x0,-0x18(%rbp)
ffffffff810086b1:	00 
ffffffff810086b2:	eb 08                	jmp    ffffffff810086bc <vmmgr_alloc+0x273>
ffffffff810086b4:	48 8b 45 d8          	mov    -0x28(%rbp),%rax
ffffffff810086b8:	48 89 45 f8          	mov    %rax,-0x8(%rbp)
ffffffff810086bc:	48 83 7d f8 00       	cmpq   $0x0,-0x8(%rbp)
ffffffff810086c1:	0f 85 1a fe ff ff    	jne    ffffffff810084e1 <vmmgr_alloc+0x98>
ffffffff810086c7:	48 8b 45 e8          	mov    -0x18(%rbp),%rax
ffffffff810086cb:	48 8b 40 08          	mov    0x8(%rax),%rax
ffffffff810086cf:	48 39 45 a0          	cmp    %rax,-0x60(%rbp)
ffffffff810086d3:	76 31                	jbe    ffffffff81008706 <vmmgr_alloc+0x2bd>
ffffffff810086d5:	48 8b 45 e8          	mov    -0x18(%rbp),%rax
ffffffff810086d9:	48 8b 50 08          	mov    0x8(%rax),%rdx
ffffffff810086dd:	48 8b 45 e8          	mov    -0x18(%rbp),%rax
ffffffff810086e1:	48 8b 00             	mov    (%rax),%rax
ffffffff810086e4:	48 8b 4d a0          	mov    -0x60(%rbp),%rcx
ffffffff810086e8:	48 89 c6             	mov    %rax,%rsi
ffffffff810086eb:	48 c7 c7 a8 e2 00 81 	mov    $0xffffffff8100e2a8,%rdi
ffffffff810086f2:	b8 00 00 00 00       	mov    $0x0,%eax
ffffffff810086f7:	e8 d9 e9 ff ff       	callq  ffffffff810070d5 <kprintf>
ffffffff810086fc:	b8 00 00 00 00       	mov    $0x0,%eax
ffffffff81008701:	e9 84 00 00 00       	jmpq   ffffffff8100878a <vmmgr_alloc+0x341>
ffffffff81008706:	48 83 7d f0 00       	cmpq   $0x0,-0x10(%rbp)
ffffffff8100870b:	75 0b                	jne    ffffffff81008718 <vmmgr_alloc+0x2cf>
ffffffff8100870d:	48 8b 45 e8          	mov    -0x18(%rbp),%rax
ffffffff81008711:	48 8b 00             	mov    (%rax),%rax
ffffffff81008714:	48 89 45 f0          	mov    %rax,-0x10(%rbp)
ffffffff81008718:	48 8b 05 c1 89 01 00 	mov    0x189c1(%rip),%rax        # ffffffff810210e0 <pagemgr>
ffffffff8100871f:	4c 8b 00             	mov    (%rax),%r8
ffffffff81008722:	8b 55 9c             	mov    -0x64(%rbp),%edx
ffffffff81008725:	48 8b 4d a0          	mov    -0x60(%rbp),%rcx
ffffffff81008729:	48 8b 45 f0          	mov    -0x10(%rbp),%rax
ffffffff8100872d:	48 89 ce             	mov    %rcx,%rsi
ffffffff81008730:	48 89 c7             	mov    %rax,%rdi
ffffffff81008733:	41 ff d0             	callq  *%r8
ffffffff81008736:	48 89 45 f0          	mov    %rax,-0x10(%rbp)
ffffffff8100873a:	48 83 7d f0 00       	cmpq   $0x0,-0x10(%rbp)
ffffffff8100873f:	75 18                	jne    ffffffff81008759 <vmmgr_alloc+0x310>
ffffffff81008741:	48 c7 c7 c8 e2 00 81 	mov    $0xffffffff8100e2c8,%rdi
ffffffff81008748:	b8 00 00 00 00       	mov    $0x0,%eax
ffffffff8100874d:	e8 83 e9 ff ff       	callq  ffffffff810070d5 <kprintf>
ffffffff81008752:	b8 00 00 00 00       	mov    $0x0,%eax
ffffffff81008757:	eb 31                	jmp    ffffffff8100878a <vmmgr_alloc+0x341>
ffffffff81008759:	48 8d 4d b0          	lea    -0x50(%rbp),%rcx
ffffffff8100875d:	48 8b 55 a0          	mov    -0x60(%rbp),%rdx
ffffffff81008761:	48 8b 75 f0          	mov    -0x10(%rbp),%rsi
ffffffff81008765:	48 8b 45 e8          	mov    -0x18(%rbp),%rax
ffffffff81008769:	48 89 c7             	mov    %rax,%rdi
ffffffff8100876c:	e8 81 f6 ff ff       	callq  ffffffff81007df2 <vmmgr_split_free_block>
ffffffff81008771:	48 8b 45 b0          	mov    -0x50(%rbp),%rax
ffffffff81008775:	48 85 c0             	test   %rax,%rax
ffffffff81008778:	74 0c                	je     ffffffff81008786 <vmmgr_alloc+0x33d>
ffffffff8100877a:	48 8d 45 b0          	lea    -0x50(%rbp),%rax
ffffffff8100877e:	48 89 c7             	mov    %rax,%rdi
ffffffff81008781:	e8 57 f7 ff ff       	callq  ffffffff81007edd <vmmgr_put_free_mem>
ffffffff81008786:	48 8b 45 f0          	mov    -0x10(%rbp),%rax
ffffffff8100878a:	c9                   	leaveq 
ffffffff8100878b:	c3                   	retq   

ffffffff8100878c <vmmgr_free>:
ffffffff8100878c:	55                   	push   %rbp
ffffffff8100878d:	48 89 e5             	mov    %rsp,%rbp
ffffffff81008790:	48 83 ec 30          	sub    $0x30,%rsp
ffffffff81008794:	48 89 7d d8          	mov    %rdi,-0x28(%rbp)
ffffffff81008798:	48 89 75 d0          	mov    %rsi,-0x30(%rbp)
ffffffff8100879c:	48 8b 45 d8          	mov    -0x28(%rbp),%rax
ffffffff810087a0:	48 89 45 f0          	mov    %rax,-0x10(%rbp)
ffffffff810087a4:	c7 45 fc 00 00 00 00 	movl   $0x0,-0x4(%rbp)
ffffffff810087ab:	48 8b 45 d0          	mov    -0x30(%rbp),%rax
ffffffff810087af:	25 ff 0f 00 00       	and    $0xfff,%eax
ffffffff810087b4:	48 85 c0             	test   %rax,%rax
ffffffff810087b7:	74 14                	je     ffffffff810087cd <vmmgr_free+0x41>
ffffffff810087b9:	48 8b 45 d0          	mov    -0x30(%rbp),%rax
ffffffff810087bd:	48 05 ff 0f 00 00    	add    $0xfff,%rax
ffffffff810087c3:	48 25 00 f0 ff ff    	and    $0xfffffffffffff000,%rax
ffffffff810087c9:	48 89 45 d0          	mov    %rax,-0x30(%rbp)
ffffffff810087cd:	48 8b 45 f0          	mov    -0x10(%rbp),%rax
ffffffff810087d1:	48 89 45 e0          	mov    %rax,-0x20(%rbp)
ffffffff810087d5:	48 8b 45 d0          	mov    -0x30(%rbp),%rax
ffffffff810087d9:	48 89 45 e8          	mov    %rax,-0x18(%rbp)
ffffffff810087dd:	48 83 7d f0 00       	cmpq   $0x0,-0x10(%rbp)
ffffffff810087e2:	75 0a                	jne    ffffffff810087ee <vmmgr_free+0x62>
ffffffff810087e4:	b8 ff ff ff ff       	mov    $0xffffffff,%eax
ffffffff810087e9:	e9 87 00 00 00       	jmpq   ffffffff81008875 <vmmgr_free+0xe9>
ffffffff810087ee:	48 8b 55 d0          	mov    -0x30(%rbp),%rdx
ffffffff810087f2:	48 8b 45 f0          	mov    -0x10(%rbp),%rax
ffffffff810087f6:	48 89 d6             	mov    %rdx,%rsi
ffffffff810087f9:	48 89 c7             	mov    %rax,%rdi
ffffffff810087fc:	e8 71 f1 ff ff       	callq  ffffffff81007972 <vmmgr_is_free>
ffffffff81008801:	85 c0                	test   %eax,%eax
ffffffff81008803:	74 07                	je     ffffffff8100880c <vmmgr_free+0x80>
ffffffff81008805:	b8 ff ff ff ff       	mov    $0xffffffff,%eax
ffffffff8100880a:	eb 69                	jmp    ffffffff81008875 <vmmgr_free+0xe9>
ffffffff8100880c:	48 8b 55 d0          	mov    -0x30(%rbp),%rdx
ffffffff81008810:	48 8b 45 f0          	mov    -0x10(%rbp),%rax
ffffffff81008814:	48 89 d6             	mov    %rdx,%rsi
ffffffff81008817:	48 89 c7             	mov    %rax,%rdi
ffffffff8100881a:	e8 82 f0 ff ff       	callq  ffffffff810078a1 <vmmgr_is_reserved>
ffffffff8100881f:	85 c0                	test   %eax,%eax
ffffffff81008821:	74 07                	je     ffffffff8100882a <vmmgr_free+0x9e>
ffffffff81008823:	b8 ff ff ff ff       	mov    $0xffffffff,%eax
ffffffff81008828:	eb 4b                	jmp    ffffffff81008875 <vmmgr_free+0xe9>
ffffffff8100882a:	48 8d 45 e0          	lea    -0x20(%rbp),%rax
ffffffff8100882e:	48 89 c7             	mov    %rax,%rdi
ffffffff81008831:	e8 80 f3 ff ff       	callq  ffffffff81007bb6 <vmmgr_merge_free_block>
ffffffff81008836:	89 45 fc             	mov    %eax,-0x4(%rbp)
ffffffff81008839:	83 7d fc 00          	cmpl   $0x0,-0x4(%rbp)
ffffffff8100883d:	74 0f                	je     ffffffff8100884e <vmmgr_free+0xc2>
ffffffff8100883f:	48 8d 45 e0          	lea    -0x20(%rbp),%rax
ffffffff81008843:	48 89 c7             	mov    %rax,%rdi
ffffffff81008846:	e8 92 f6 ff ff       	callq  ffffffff81007edd <vmmgr_put_free_mem>
ffffffff8100884b:	89 45 fc             	mov    %eax,-0x4(%rbp)
ffffffff8100884e:	83 7d fc 00          	cmpl   $0x0,-0x4(%rbp)
ffffffff81008852:	75 1e                	jne    ffffffff81008872 <vmmgr_free+0xe6>
ffffffff81008854:	48 8b 05 85 88 01 00 	mov    0x18885(%rip),%rax        # ffffffff810210e0 <pagemgr>
ffffffff8100885b:	48 8b 48 18          	mov    0x18(%rax),%rcx
ffffffff8100885f:	48 8b 55 d0          	mov    -0x30(%rbp),%rdx
ffffffff81008863:	48 8b 45 f0          	mov    -0x10(%rbp),%rax
ffffffff81008867:	48 89 d6             	mov    %rdx,%rsi
ffffffff8100886a:	48 89 c7             	mov    %rax,%rdi
ffffffff8100886d:	ff d1                	callq  *%rcx
ffffffff8100886f:	89 45 fc             	mov    %eax,-0x4(%rbp)
ffffffff81008872:	8b 45 fc             	mov    -0x4(%rbp),%eax
ffffffff81008875:	c9                   	leaveq 
ffffffff81008876:	c3                   	retq   

ffffffff81008877 <vmmgr_unmap>:
ffffffff81008877:	55                   	push   %rbp
ffffffff81008878:	48 89 e5             	mov    %rsp,%rbp
ffffffff8100887b:	48 83 ec 30          	sub    $0x30,%rsp
ffffffff8100887f:	48 89 7d d8          	mov    %rdi,-0x28(%rbp)
ffffffff81008883:	48 89 75 d0          	mov    %rsi,-0x30(%rbp)
ffffffff81008887:	48 8b 45 d8          	mov    -0x28(%rbp),%rax
ffffffff8100888b:	48 89 45 f0          	mov    %rax,-0x10(%rbp)
ffffffff8100888f:	c7 45 fc 00 00 00 00 	movl   $0x0,-0x4(%rbp)
ffffffff81008896:	48 8b 45 d0          	mov    -0x30(%rbp),%rax
ffffffff8100889a:	25 ff 0f 00 00       	and    $0xfff,%eax
ffffffff8100889f:	48 85 c0             	test   %rax,%rax
ffffffff810088a2:	74 14                	je     ffffffff810088b8 <vmmgr_unmap+0x41>
ffffffff810088a4:	48 8b 45 d0          	mov    -0x30(%rbp),%rax
ffffffff810088a8:	48 05 ff 0f 00 00    	add    $0xfff,%rax
ffffffff810088ae:	48 25 00 f0 ff ff    	and    $0xfffffffffffff000,%rax
ffffffff810088b4:	48 89 45 d0          	mov    %rax,-0x30(%rbp)
ffffffff810088b8:	48 8b 45 f0          	mov    -0x10(%rbp),%rax
ffffffff810088bc:	48 89 45 e0          	mov    %rax,-0x20(%rbp)
ffffffff810088c0:	48 8b 45 d0          	mov    -0x30(%rbp),%rax
ffffffff810088c4:	48 89 45 e8          	mov    %rax,-0x18(%rbp)
ffffffff810088c8:	48 83 7d f0 00       	cmpq   $0x0,-0x10(%rbp)
ffffffff810088cd:	75 0a                	jne    ffffffff810088d9 <vmmgr_unmap+0x62>
ffffffff810088cf:	b8 ff ff ff ff       	mov    $0xffffffff,%eax
ffffffff810088d4:	e9 87 00 00 00       	jmpq   ffffffff81008960 <vmmgr_unmap+0xe9>
ffffffff810088d9:	48 8b 55 d0          	mov    -0x30(%rbp),%rdx
ffffffff810088dd:	48 8b 45 f0          	mov    -0x10(%rbp),%rax
ffffffff810088e1:	48 89 d6             	mov    %rdx,%rsi
ffffffff810088e4:	48 89 c7             	mov    %rax,%rdi
ffffffff810088e7:	e8 86 f0 ff ff       	callq  ffffffff81007972 <vmmgr_is_free>
ffffffff810088ec:	85 c0                	test   %eax,%eax
ffffffff810088ee:	74 07                	je     ffffffff810088f7 <vmmgr_unmap+0x80>
ffffffff810088f0:	b8 ff ff ff ff       	mov    $0xffffffff,%eax
ffffffff810088f5:	eb 69                	jmp    ffffffff81008960 <vmmgr_unmap+0xe9>
ffffffff810088f7:	48 8b 55 d0          	mov    -0x30(%rbp),%rdx
ffffffff810088fb:	48 8b 45 f0          	mov    -0x10(%rbp),%rax
ffffffff810088ff:	48 89 d6             	mov    %rdx,%rsi
ffffffff81008902:	48 89 c7             	mov    %rax,%rdi
ffffffff81008905:	e8 97 ef ff ff       	callq  ffffffff810078a1 <vmmgr_is_reserved>
ffffffff8100890a:	85 c0                	test   %eax,%eax
ffffffff8100890c:	74 07                	je     ffffffff81008915 <vmmgr_unmap+0x9e>
ffffffff8100890e:	b8 ff ff ff ff       	mov    $0xffffffff,%eax
ffffffff81008913:	eb 4b                	jmp    ffffffff81008960 <vmmgr_unmap+0xe9>
ffffffff81008915:	48 8d 45 e0          	lea    -0x20(%rbp),%rax
ffffffff81008919:	48 89 c7             	mov    %rax,%rdi
ffffffff8100891c:	e8 95 f2 ff ff       	callq  ffffffff81007bb6 <vmmgr_merge_free_block>
ffffffff81008921:	89 45 fc             	mov    %eax,-0x4(%rbp)
ffffffff81008924:	83 7d fc 00          	cmpl   $0x0,-0x4(%rbp)
ffffffff81008928:	74 0f                	je     ffffffff81008939 <vmmgr_unmap+0xc2>
ffffffff8100892a:	48 8d 45 e0          	lea    -0x20(%rbp),%rax
ffffffff8100892e:	48 89 c7             	mov    %rax,%rdi
ffffffff81008931:	e8 a7 f5 ff ff       	callq  ffffffff81007edd <vmmgr_put_free_mem>
ffffffff81008936:	89 45 fc             	mov    %eax,-0x4(%rbp)
ffffffff81008939:	83 7d fc 00          	cmpl   $0x0,-0x4(%rbp)
ffffffff8100893d:	75 1e                	jne    ffffffff8100895d <vmmgr_unmap+0xe6>
ffffffff8100893f:	48 8b 05 9a 87 01 00 	mov    0x1879a(%rip),%rax        # ffffffff810210e0 <pagemgr>
ffffffff81008946:	48 8b 48 20          	mov    0x20(%rax),%rcx
ffffffff8100894a:	48 8b 55 d0          	mov    -0x30(%rbp),%rdx
ffffffff8100894e:	48 8b 45 f0          	mov    -0x10(%rbp),%rax
ffffffff81008952:	48 89 d6             	mov    %rdx,%rsi
ffffffff81008955:	48 89 c7             	mov    %rax,%rdi
ffffffff81008958:	ff d1                	callq  *%rcx
ffffffff8100895a:	89 45 fc             	mov    %eax,-0x4(%rbp)
ffffffff8100895d:	8b 45 fc             	mov    -0x4(%rbp),%eax
ffffffff81008960:	c9                   	leaveq 
ffffffff81008961:	c3                   	retq   

ffffffff81008962 <vmmgr_change_attrib>:
ffffffff81008962:	55                   	push   %rbp
ffffffff81008963:	48 89 e5             	mov    %rsp,%rbp
ffffffff81008966:	48 83 ec 20          	sub    $0x20,%rsp
ffffffff8100896a:	48 89 7d f8          	mov    %rdi,-0x8(%rbp)
ffffffff8100896e:	48 89 75 f0          	mov    %rsi,-0x10(%rbp)
ffffffff81008972:	89 55 ec             	mov    %edx,-0x14(%rbp)
ffffffff81008975:	48 83 7d f0 00       	cmpq   $0x0,-0x10(%rbp)
ffffffff8100897a:	75 07                	jne    ffffffff81008983 <vmmgr_change_attrib+0x21>
ffffffff8100897c:	b8 ff ff ff ff       	mov    $0xffffffff,%eax
ffffffff81008981:	eb 1f                	jmp    ffffffff810089a2 <vmmgr_change_attrib+0x40>
ffffffff81008983:	48 8b 05 56 87 01 00 	mov    0x18756(%rip),%rax        # ffffffff810210e0 <pagemgr>
ffffffff8100898a:	4c 8b 40 10          	mov    0x10(%rax),%r8
ffffffff8100898e:	8b 55 ec             	mov    -0x14(%rbp),%edx
ffffffff81008991:	48 8b 4d f0          	mov    -0x10(%rbp),%rcx
ffffffff81008995:	48 8b 45 f8          	mov    -0x8(%rbp),%rax
ffffffff81008999:	48 89 ce             	mov    %rcx,%rsi
ffffffff8100899c:	48 89 c7             	mov    %rax,%rdi
ffffffff8100899f:	41 ff d0             	callq  *%r8
ffffffff810089a2:	c9                   	leaveq 
ffffffff810089a3:	c3                   	retq   

ffffffff810089a4 <init_serial>:
ffffffff810089a4:	55                   	push   %rbp
ffffffff810089a5:	48 89 e5             	mov    %rsp,%rbp
ffffffff810089a8:	be 01 00 00 00       	mov    $0x1,%esi
ffffffff810089ad:	bf f9 03 00 00       	mov    $0x3f9,%edi
ffffffff810089b2:	e8 d1 1c 00 00       	callq  ffffffff8100a688 <write_port_b>
ffffffff810089b7:	be 80 00 00 00       	mov    $0x80,%esi
ffffffff810089bc:	bf fb 03 00 00       	mov    $0x3fb,%edi
ffffffff810089c1:	e8 c2 1c 00 00       	callq  ffffffff8100a688 <write_port_b>
ffffffff810089c6:	be 03 00 00 00       	mov    $0x3,%esi
ffffffff810089cb:	bf f8 03 00 00       	mov    $0x3f8,%edi
ffffffff810089d0:	e8 b3 1c 00 00       	callq  ffffffff8100a688 <write_port_b>
ffffffff810089d5:	be 00 00 00 00       	mov    $0x0,%esi
ffffffff810089da:	bf f9 03 00 00       	mov    $0x3f9,%edi
ffffffff810089df:	e8 a4 1c 00 00       	callq  ffffffff8100a688 <write_port_b>
ffffffff810089e4:	be 03 00 00 00       	mov    $0x3,%esi
ffffffff810089e9:	bf fb 03 00 00       	mov    $0x3fb,%edi
ffffffff810089ee:	e8 95 1c 00 00       	callq  ffffffff8100a688 <write_port_b>
ffffffff810089f3:	be c7 00 00 00       	mov    $0xc7,%esi
ffffffff810089f8:	bf fa 03 00 00       	mov    $0x3fa,%edi
ffffffff810089fd:	e8 86 1c 00 00       	callq  ffffffff8100a688 <write_port_b>
ffffffff81008a02:	be 0b 00 00 00       	mov    $0xb,%esi
ffffffff81008a07:	bf fc 03 00 00       	mov    $0x3fc,%edi
ffffffff81008a0c:	e8 77 1c 00 00       	callq  ffffffff8100a688 <write_port_b>
ffffffff81008a11:	90                   	nop
ffffffff81008a12:	5d                   	pop    %rbp
ffffffff81008a13:	c3                   	retq   

ffffffff81008a14 <is_transmit_empty>:
ffffffff81008a14:	55                   	push   %rbp
ffffffff81008a15:	48 89 e5             	mov    %rsp,%rbp
ffffffff81008a18:	bf fd 03 00 00       	mov    $0x3fd,%edi
ffffffff81008a1d:	e8 5e 1c 00 00       	callq  ffffffff8100a680 <read_port_b>
ffffffff81008a22:	0f b6 c0             	movzbl %al,%eax
ffffffff81008a25:	83 e0 20             	and    $0x20,%eax
ffffffff81008a28:	5d                   	pop    %rbp
ffffffff81008a29:	c3                   	retq   

ffffffff81008a2a <write_serial>:
ffffffff81008a2a:	55                   	push   %rbp
ffffffff81008a2b:	48 89 e5             	mov    %rsp,%rbp
ffffffff81008a2e:	48 83 ec 10          	sub    $0x10,%rsp
ffffffff81008a32:	89 f8                	mov    %edi,%eax
ffffffff81008a34:	88 45 fc             	mov    %al,-0x4(%rbp)
ffffffff81008a37:	90                   	nop
ffffffff81008a38:	b8 00 00 00 00       	mov    $0x0,%eax
ffffffff81008a3d:	e8 d2 ff ff ff       	callq  ffffffff81008a14 <is_transmit_empty>
ffffffff81008a42:	85 c0                	test   %eax,%eax
ffffffff81008a44:	74 f2                	je     ffffffff81008a38 <write_serial+0xe>
ffffffff81008a46:	0f b6 45 fc          	movzbl -0x4(%rbp),%eax
ffffffff81008a4a:	0f b6 c0             	movzbl %al,%eax
ffffffff81008a4d:	89 c6                	mov    %eax,%esi
ffffffff81008a4f:	bf f8 03 00 00       	mov    $0x3f8,%edi
ffffffff81008a54:	e8 2f 1c 00 00       	callq  ffffffff8100a688 <write_port_b>
ffffffff81008a59:	90                   	nop
ffffffff81008a5a:	c9                   	leaveq 
ffffffff81008a5b:	c3                   	retq   

ffffffff81008a5c <mem_iter_fill_root>:
ffffffff81008a5c:	55                   	push   %rbp
ffffffff81008a5d:	48 89 e5             	mov    %rsp,%rbp
ffffffff81008a60:	48 83 ec 10          	sub    $0x10,%rsp
ffffffff81008a64:	48 89 7d f8          	mov    %rdi,-0x8(%rbp)
ffffffff81008a68:	48 89 75 f0          	mov    %rsi,-0x10(%rbp)
ffffffff81008a6c:	48 8b 45 f8          	mov    -0x8(%rbp),%rax
ffffffff81008a70:	8b 40 10             	mov    0x10(%rax),%eax
ffffffff81008a73:	83 f8 01             	cmp    $0x1,%eax
ffffffff81008a76:	75 3c                	jne    ffffffff81008ab4 <mem_iter_fill_root+0x58>
ffffffff81008a78:	8b 05 8e 86 01 00    	mov    0x1868e(%rip),%eax        # ffffffff8102110c <physmm_root+0xc>
ffffffff81008a7e:	83 c0 01             	add    $0x1,%eax
ffffffff81008a81:	89 05 85 86 01 00    	mov    %eax,0x18685(%rip)        # ffffffff8102110c <physmm_root+0xc>
ffffffff81008a87:	48 8b 15 72 86 01 00 	mov    0x18672(%rip),%rdx        # ffffffff81021100 <physmm_root>
ffffffff81008a8e:	48 8b 45 f8          	mov    -0x8(%rbp),%rax
ffffffff81008a92:	48 8b 40 08          	mov    0x8(%rax),%rax
ffffffff81008a96:	48 01 d0             	add    %rdx,%rax
ffffffff81008a99:	48 89 05 60 86 01 00 	mov    %rax,0x18660(%rip)        # ffffffff81021100 <physmm_root>
ffffffff81008aa0:	48 8b 05 89 86 01 00 	mov    0x18689(%rip),%rax        # ffffffff81021130 <physmm_root+0x30>
ffffffff81008aa7:	48 83 c0 30          	add    $0x30,%rax
ffffffff81008aab:	48 89 05 7e 86 01 00 	mov    %rax,0x1867e(%rip)        # ffffffff81021130 <physmm_root+0x30>
ffffffff81008ab2:	eb 0f                	jmp    ffffffff81008ac3 <mem_iter_fill_root+0x67>
ffffffff81008ab4:	8b 05 4e 86 01 00    	mov    0x1864e(%rip),%eax        # ffffffff81021108 <physmm_root+0x8>
ffffffff81008aba:	83 c0 01             	add    $0x1,%eax
ffffffff81008abd:	89 05 45 86 01 00    	mov    %eax,0x18645(%rip)        # ffffffff81021108 <physmm_root+0x8>
ffffffff81008ac3:	48 8b 05 6e 86 01 00 	mov    0x1866e(%rip),%rax        # ffffffff81021138 <physmm_root+0x38>
ffffffff81008aca:	48 83 c0 28          	add    $0x28,%rax
ffffffff81008ace:	48 89 05 63 86 01 00 	mov    %rax,0x18663(%rip)        # ffffffff81021138 <physmm_root+0x38>
ffffffff81008ad5:	48 8b 45 f8          	mov    -0x8(%rbp),%rax
ffffffff81008ad9:	48 8b 10             	mov    (%rax),%rdx
ffffffff81008adc:	48 8b 05 6d 86 01 00 	mov    0x1866d(%rip),%rax        # ffffffff81021150 <physmm_root+0x50>
ffffffff81008ae3:	48 39 c2             	cmp    %rax,%rdx
ffffffff81008ae6:	73 42                	jae    ffffffff81008b2a <mem_iter_fill_root+0xce>
ffffffff81008ae8:	48 8b 45 f8          	mov    -0x8(%rbp),%rax
ffffffff81008aec:	48 8b 10             	mov    (%rax),%rdx
ffffffff81008aef:	48 8b 45 f8          	mov    -0x8(%rbp),%rax
ffffffff81008af3:	48 8b 40 08          	mov    0x8(%rax),%rax
ffffffff81008af7:	48 01 c2             	add    %rax,%rdx
ffffffff81008afa:	48 8b 05 57 86 01 00 	mov    0x18657(%rip),%rax        # ffffffff81021158 <physmm_root+0x58>
ffffffff81008b01:	48 39 c2             	cmp    %rax,%rdx
ffffffff81008b04:	76 24                	jbe    ffffffff81008b2a <mem_iter_fill_root+0xce>
ffffffff81008b06:	48 8b 45 f8          	mov    -0x8(%rbp),%rax
ffffffff81008b0a:	48 8b 10             	mov    (%rax),%rdx
ffffffff81008b0d:	48 89 15 64 86 01 00 	mov    %rdx,0x18664(%rip)        # ffffffff81021178 <physmm_root+0x78>
ffffffff81008b14:	48 8b 50 08          	mov    0x8(%rax),%rdx
ffffffff81008b18:	48 89 15 61 86 01 00 	mov    %rdx,0x18661(%rip)        # ffffffff81021180 <physmm_root+0x80>
ffffffff81008b1f:	48 8b 40 10          	mov    0x10(%rax),%rax
ffffffff81008b23:	48 89 05 5e 86 01 00 	mov    %rax,0x1865e(%rip)        # ffffffff81021188 <physmm_root+0x88>
ffffffff81008b2a:	90                   	nop
ffffffff81008b2b:	c9                   	leaveq 
ffffffff81008b2c:	c3                   	retq   

ffffffff81008b2d <mem_iter_build_structs>:
ffffffff81008b2d:	55                   	push   %rbp
ffffffff81008b2e:	48 89 e5             	mov    %rsp,%rbp
ffffffff81008b31:	48 81 ec c0 00 00 00 	sub    $0xc0,%rsp
ffffffff81008b38:	48 89 bd 48 ff ff ff 	mov    %rdi,-0xb8(%rbp)
ffffffff81008b3f:	48 89 b5 40 ff ff ff 	mov    %rsi,-0xc0(%rbp)
ffffffff81008b46:	48 8b 85 40 ff ff ff 	mov    -0xc0(%rbp),%rax
ffffffff81008b4d:	48 89 45 e8          	mov    %rax,-0x18(%rbp)
ffffffff81008b51:	48 8b 45 e8          	mov    -0x18(%rbp),%rax
ffffffff81008b55:	48 8b 00             	mov    (%rax),%rax
ffffffff81008b58:	48 89 45 e0          	mov    %rax,-0x20(%rbp)
ffffffff81008b5c:	48 8b 45 e8          	mov    -0x18(%rbp),%rax
ffffffff81008b60:	48 8b 40 08          	mov    0x8(%rax),%rax
ffffffff81008b64:	48 89 45 d8          	mov    %rax,-0x28(%rbp)
ffffffff81008b68:	48 c7 45 d0 00 00 00 	movq   $0x0,-0x30(%rbp)
ffffffff81008b6f:	00 
ffffffff81008b70:	48 c7 45 c8 00 00 00 	movq   $0x0,-0x38(%rbp)
ffffffff81008b77:	00 
ffffffff81008b78:	48 c7 45 f8 00 00 00 	movq   $0x0,-0x8(%rbp)
ffffffff81008b7f:	00 
ffffffff81008b80:	48 c7 45 c0 00 00 00 	movq   $0x0,-0x40(%rbp)
ffffffff81008b87:	00 
ffffffff81008b88:	48 c7 45 88 00 00 00 	movq   $0x0,-0x78(%rbp)
ffffffff81008b8f:	00 
ffffffff81008b90:	48 c7 45 90 00 00 00 	movq   $0x0,-0x70(%rbp)
ffffffff81008b97:	00 
ffffffff81008b98:	48 c7 45 98 00 00 00 	movq   $0x0,-0x68(%rbp)
ffffffff81008b9f:	00 
ffffffff81008ba0:	48 c7 45 a0 00 00 00 	movq   $0x0,-0x60(%rbp)
ffffffff81008ba7:	00 
ffffffff81008ba8:	48 c7 45 a8 00 00 00 	movq   $0x0,-0x58(%rbp)
ffffffff81008baf:	00 
ffffffff81008bb0:	48 c7 45 b8 00 00 00 	movq   $0x0,-0x48(%rbp)
ffffffff81008bb7:	00 
ffffffff81008bb8:	48 8d 95 58 ff ff ff 	lea    -0xa8(%rbp),%rdx
ffffffff81008bbf:	b8 00 00 00 00       	mov    $0x0,%eax
ffffffff81008bc4:	b9 06 00 00 00       	mov    $0x6,%ecx
ffffffff81008bc9:	48 89 d7             	mov    %rdx,%rdi
ffffffff81008bcc:	f3 48 ab             	rep stos %rax,%es:(%rdi)
ffffffff81008bcf:	48 c7 45 b0 78 11 02 	movq   $0xffffffff81021178,-0x50(%rbp)
ffffffff81008bd6:	81 
ffffffff81008bd7:	48 8d 45 88          	lea    -0x78(%rbp),%rax
ffffffff81008bdb:	ba 28 00 00 00       	mov    $0x28,%edx
ffffffff81008be0:	be 00 00 00 00       	mov    $0x0,%esi
ffffffff81008be5:	48 89 c7             	mov    %rax,%rdi
ffffffff81008be8:	e8 cd 1b 00 00       	callq  ffffffff8100a7ba <memset>
ffffffff81008bed:	48 8d 85 58 ff ff ff 	lea    -0xa8(%rbp),%rax
ffffffff81008bf4:	ba 30 00 00 00       	mov    $0x30,%edx
ffffffff81008bf9:	be 00 00 00 00       	mov    $0x0,%esi
ffffffff81008bfe:	48 89 c7             	mov    %rax,%rdi
ffffffff81008c01:	e8 b4 1b 00 00       	callq  ffffffff8100a7ba <memset>
ffffffff81008c06:	48 8b 85 48 ff ff ff 	mov    -0xb8(%rbp),%rax
ffffffff81008c0d:	48 8b 00             	mov    (%rax),%rax
ffffffff81008c10:	48 89 45 90          	mov    %rax,-0x70(%rbp)
ffffffff81008c14:	48 8b 85 48 ff ff ff 	mov    -0xb8(%rbp),%rax
ffffffff81008c1b:	48 8b 40 08          	mov    0x8(%rax),%rax
ffffffff81008c1f:	48 89 45 98          	mov    %rax,-0x68(%rbp)
ffffffff81008c23:	48 8b 85 48 ff ff ff 	mov    -0xb8(%rbp),%rax
ffffffff81008c2a:	8b 40 10             	mov    0x10(%rax),%eax
ffffffff81008c2d:	88 45 88             	mov    %al,-0x78(%rbp)
ffffffff81008c30:	0f b6 45 88          	movzbl -0x78(%rbp),%eax
ffffffff81008c34:	3c 01                	cmp    $0x1,%al
ffffffff81008c36:	0f 85 b3 03 00 00    	jne    ffffffff81008fef <mem_iter_build_structs+0x4c2>
ffffffff81008c3c:	48 8b 15 dd 84 01 00 	mov    0x184dd(%rip),%rdx        # ffffffff81021120 <physmm_root+0x20>
ffffffff81008c43:	48 8b 45 d8          	mov    -0x28(%rbp),%rax
ffffffff81008c47:	48 8b 00             	mov    (%rax),%rax
ffffffff81008c4a:	48 01 d0             	add    %rdx,%rax
ffffffff81008c4d:	48 89 45 a0          	mov    %rax,-0x60(%rbp)
ffffffff81008c51:	48 8b 45 98          	mov    -0x68(%rbp),%rax
ffffffff81008c55:	48 c1 e8 0f          	shr    $0xf,%rax
ffffffff81008c59:	48 89 85 78 ff ff ff 	mov    %rax,-0x88(%rbp)
ffffffff81008c60:	48 8b 45 98          	mov    -0x68(%rbp),%rax
ffffffff81008c64:	48 c1 e8 0c          	shr    $0xc,%rax
ffffffff81008c68:	48 89 85 58 ff ff ff 	mov    %rax,-0xa8(%rbp)
ffffffff81008c6f:	48 8b 85 58 ff ff ff 	mov    -0xa8(%rbp),%rax
ffffffff81008c76:	48 89 85 60 ff ff ff 	mov    %rax,-0xa0(%rbp)
ffffffff81008c7d:	48 8b 85 78 ff ff ff 	mov    -0x88(%rbp),%rax
ffffffff81008c84:	48 05 ff 0f 00 00    	add    $0xfff,%rax
ffffffff81008c8a:	48 25 00 f0 ff ff    	and    $0xfffffffffffff000,%rax
ffffffff81008c90:	48 89 45 80          	mov    %rax,-0x80(%rbp)
ffffffff81008c94:	48 8b 45 90          	mov    -0x70(%rbp),%rax
ffffffff81008c98:	48 8b 4d 98          	mov    -0x68(%rbp),%rcx
ffffffff81008c9c:	48 8b 55 80          	mov    -0x80(%rbp),%rdx
ffffffff81008ca0:	48 29 d1             	sub    %rdx,%rcx
ffffffff81008ca3:	48 89 ca             	mov    %rcx,%rdx
ffffffff81008ca6:	48 01 d0             	add    %rdx,%rax
ffffffff81008ca9:	48 25 00 f0 ff ff    	and    $0xfffffffffffff000,%rax
ffffffff81008caf:	48 89 85 68 ff ff ff 	mov    %rax,-0x98(%rbp)
ffffffff81008cb6:	48 8b 55 90          	mov    -0x70(%rbp),%rdx
ffffffff81008cba:	48 8b 45 b0          	mov    -0x50(%rbp),%rax
ffffffff81008cbe:	48 8b 00             	mov    (%rax),%rax
ffffffff81008cc1:	48 39 c2             	cmp    %rax,%rdx
ffffffff81008cc4:	75 1e                	jne    ffffffff81008ce4 <mem_iter_build_structs+0x1b7>
ffffffff81008cc6:	48 8b 15 7b 84 01 00 	mov    0x1847b(%rip),%rdx        # ffffffff81021148 <physmm_root+0x48>
ffffffff81008ccd:	48 8b 05 4c 84 01 00 	mov    0x1844c(%rip),%rax        # ffffffff81021120 <physmm_root+0x20>
ffffffff81008cd4:	48 01 d0             	add    %rdx,%rax
ffffffff81008cd7:	48 25 00 f0 ff ff    	and    $0xfffffffffffff000,%rax
ffffffff81008cdd:	48 89 85 68 ff ff ff 	mov    %rax,-0x98(%rbp)
ffffffff81008ce4:	48 8b 95 68 ff ff ff 	mov    -0x98(%rbp),%rdx
ffffffff81008ceb:	48 8b 45 80          	mov    -0x80(%rbp),%rax
ffffffff81008cef:	48 8d 0c 02          	lea    (%rdx,%rax,1),%rcx
ffffffff81008cf3:	48 8b 55 90          	mov    -0x70(%rbp),%rdx
ffffffff81008cf7:	48 8b 45 98          	mov    -0x68(%rbp),%rax
ffffffff81008cfb:	48 01 d0             	add    %rdx,%rax
ffffffff81008cfe:	48 39 c1             	cmp    %rax,%rcx
ffffffff81008d01:	76 14                	jbe    ffffffff81008d17 <mem_iter_build_structs+0x1ea>
ffffffff81008d03:	48 8b 85 68 ff ff ff 	mov    -0x98(%rbp),%rax
ffffffff81008d0a:	48 2d 00 10 00 00    	sub    $0x1000,%rax
ffffffff81008d10:	48 89 85 68 ff ff ff 	mov    %rax,-0x98(%rbp)
ffffffff81008d17:	48 8b 55 90          	mov    -0x70(%rbp),%rdx
ffffffff81008d1b:	48 8b 45 98          	mov    -0x68(%rbp),%rax
ffffffff81008d1f:	48 01 d0             	add    %rdx,%rax
ffffffff81008d22:	48 89 c6             	mov    %rax,%rsi
ffffffff81008d25:	48 c7 c7 d8 e2 00 81 	mov    $0xffffffff8100e2d8,%rdi
ffffffff81008d2c:	b8 00 00 00 00       	mov    $0x0,%eax
ffffffff81008d31:	e8 9f e3 ff ff       	callq  ffffffff810070d5 <kprintf>
ffffffff81008d36:	48 8b 95 68 ff ff ff 	mov    -0x98(%rbp),%rdx
ffffffff81008d3d:	48 8b 45 80          	mov    -0x80(%rbp),%rax
ffffffff81008d41:	48 01 c2             	add    %rax,%rdx
ffffffff81008d44:	48 8b 85 68 ff ff ff 	mov    -0x98(%rbp),%rax
ffffffff81008d4b:	48 89 c6             	mov    %rax,%rsi
ffffffff81008d4e:	48 c7 c7 f0 e2 00 81 	mov    $0xffffffff8100e2f0,%rdi
ffffffff81008d55:	b8 00 00 00 00       	mov    $0x0,%eax
ffffffff81008d5a:	e8 76 e3 ff ff       	callq  ffffffff810070d5 <kprintf>
ffffffff81008d5f:	48 c7 45 f0 00 00 00 	movq   $0x0,-0x10(%rbp)
ffffffff81008d66:	00 
ffffffff81008d67:	e9 20 02 00 00       	jmpq   ffffffff81008f8c <mem_iter_build_structs+0x45f>
ffffffff81008d6c:	48 8b 45 90          	mov    -0x70(%rbp),%rax
ffffffff81008d70:	48 8b 55 f0          	mov    -0x10(%rbp),%rdx
ffffffff81008d74:	48 c1 e2 0c          	shl    $0xc,%rdx
ffffffff81008d78:	48 01 d0             	add    %rdx,%rax
ffffffff81008d7b:	48 89 45 d0          	mov    %rax,-0x30(%rbp)
ffffffff81008d7f:	48 8b 45 d0          	mov    -0x30(%rbp),%rax
ffffffff81008d83:	48 05 00 10 00 00    	add    $0x1000,%rax
ffffffff81008d89:	48 89 45 c8          	mov    %rax,-0x38(%rbp)
ffffffff81008d8d:	48 8b 45 f0          	mov    -0x10(%rbp),%rax
ffffffff81008d91:	83 e0 3f             	and    $0x3f,%eax
ffffffff81008d94:	48 85 c0             	test   %rax,%rax
ffffffff81008d97:	75 2d                	jne    ffffffff81008dc6 <mem_iter_build_structs+0x299>
ffffffff81008d99:	48 8b 85 68 ff ff ff 	mov    -0x98(%rbp),%rax
ffffffff81008da0:	48 8b 55 f0          	mov    -0x10(%rbp),%rdx
ffffffff81008da4:	48 c1 ea 06          	shr    $0x6,%rdx
ffffffff81008da8:	48 c1 e2 03          	shl    $0x3,%rdx
ffffffff81008dac:	48 01 d0             	add    %rdx,%rax
ffffffff81008daf:	48 89 c7             	mov    %rax,%rdi
ffffffff81008db2:	e8 17 1b 00 00       	callq  ffffffff8100a8ce <pagemgr_boot_temp_map>
ffffffff81008db7:	48 89 45 f8          	mov    %rax,-0x8(%rbp)
ffffffff81008dbb:	48 8b 45 f8          	mov    -0x8(%rbp),%rax
ffffffff81008dbf:	48 c7 00 00 00 00 00 	movq   $0x0,(%rax)
ffffffff81008dc6:	48 8b 05 83 83 01 00 	mov    0x18383(%rip),%rax        # ffffffff81021150 <physmm_root+0x50>
ffffffff81008dcd:	48 39 45 d0          	cmp    %rax,-0x30(%rbp)
ffffffff81008dd1:	72 49                	jb     ffffffff81008e1c <mem_iter_build_structs+0x2ef>
ffffffff81008dd3:	48 8b 05 7e 83 01 00 	mov    0x1837e(%rip),%rax        # ffffffff81021158 <physmm_root+0x58>
ffffffff81008dda:	48 39 45 c8          	cmp    %rax,-0x38(%rbp)
ffffffff81008dde:	77 3c                	ja     ffffffff81008e1c <mem_iter_build_structs+0x2ef>
ffffffff81008de0:	48 8b 45 f8          	mov    -0x8(%rbp),%rax
ffffffff81008de4:	48 8b 10             	mov    (%rax),%rdx
ffffffff81008de7:	48 8b 45 f0          	mov    -0x10(%rbp),%rax
ffffffff81008deb:	83 e0 3f             	and    $0x3f,%eax
ffffffff81008dee:	be 01 00 00 00       	mov    $0x1,%esi
ffffffff81008df3:	89 c1                	mov    %eax,%ecx
ffffffff81008df5:	d3 e6                	shl    %cl,%esi
ffffffff81008df7:	89 f0                	mov    %esi,%eax
ffffffff81008df9:	48 98                	cltq   
ffffffff81008dfb:	48 09 c2             	or     %rax,%rdx
ffffffff81008dfe:	48 8b 45 f8          	mov    -0x8(%rbp),%rax
ffffffff81008e02:	48 89 10             	mov    %rdx,(%rax)
ffffffff81008e05:	48 8b 85 60 ff ff ff 	mov    -0xa0(%rbp),%rax
ffffffff81008e0c:	48 83 e8 01          	sub    $0x1,%rax
ffffffff81008e10:	48 89 85 60 ff ff ff 	mov    %rax,-0xa0(%rbp)
ffffffff81008e17:	e9 6b 01 00 00       	jmpq   ffffffff81008f87 <mem_iter_build_structs+0x45a>
ffffffff81008e1c:	48 8b 05 ed 82 01 00 	mov    0x182ed(%rip),%rax        # ffffffff81021110 <physmm_root+0x10>
ffffffff81008e23:	48 39 45 d0          	cmp    %rax,-0x30(%rbp)
ffffffff81008e27:	72 53                	jb     ffffffff81008e7c <mem_iter_build_structs+0x34f>
ffffffff81008e29:	48 8b 15 e0 82 01 00 	mov    0x182e0(%rip),%rdx        # ffffffff81021110 <physmm_root+0x10>
ffffffff81008e30:	48 8b 05 09 83 01 00 	mov    0x18309(%rip),%rax        # ffffffff81021140 <physmm_root+0x40>
ffffffff81008e37:	48 01 d0             	add    %rdx,%rax
ffffffff81008e3a:	48 39 45 c8          	cmp    %rax,-0x38(%rbp)
ffffffff81008e3e:	77 3c                	ja     ffffffff81008e7c <mem_iter_build_structs+0x34f>
ffffffff81008e40:	48 8b 45 f8          	mov    -0x8(%rbp),%rax
ffffffff81008e44:	48 8b 10             	mov    (%rax),%rdx
ffffffff81008e47:	48 8b 45 f0          	mov    -0x10(%rbp),%rax
ffffffff81008e4b:	83 e0 3f             	and    $0x3f,%eax
ffffffff81008e4e:	be 01 00 00 00       	mov    $0x1,%esi
ffffffff81008e53:	89 c1                	mov    %eax,%ecx
ffffffff81008e55:	d3 e6                	shl    %cl,%esi
ffffffff81008e57:	89 f0                	mov    %esi,%eax
ffffffff81008e59:	48 98                	cltq   
ffffffff81008e5b:	48 09 c2             	or     %rax,%rdx
ffffffff81008e5e:	48 8b 45 f8          	mov    -0x8(%rbp),%rax
ffffffff81008e62:	48 89 10             	mov    %rdx,(%rax)
ffffffff81008e65:	48 8b 85 60 ff ff ff 	mov    -0xa0(%rbp),%rax
ffffffff81008e6c:	48 83 e8 01          	sub    $0x1,%rax
ffffffff81008e70:	48 89 85 60 ff ff ff 	mov    %rax,-0xa0(%rbp)
ffffffff81008e77:	e9 0b 01 00 00       	jmpq   ffffffff81008f87 <mem_iter_build_structs+0x45a>
ffffffff81008e7c:	48 8b 05 9d 82 01 00 	mov    0x1829d(%rip),%rax        # ffffffff81021120 <physmm_root+0x20>
ffffffff81008e83:	48 39 45 d0          	cmp    %rax,-0x30(%rbp)
ffffffff81008e87:	72 53                	jb     ffffffff81008edc <mem_iter_build_structs+0x3af>
ffffffff81008e89:	48 8b 15 90 82 01 00 	mov    0x18290(%rip),%rdx        # ffffffff81021120 <physmm_root+0x20>
ffffffff81008e90:	48 8b 05 b1 82 01 00 	mov    0x182b1(%rip),%rax        # ffffffff81021148 <physmm_root+0x48>
ffffffff81008e97:	48 01 d0             	add    %rdx,%rax
ffffffff81008e9a:	48 39 45 c8          	cmp    %rax,-0x38(%rbp)
ffffffff81008e9e:	77 3c                	ja     ffffffff81008edc <mem_iter_build_structs+0x3af>
ffffffff81008ea0:	48 8b 45 f8          	mov    -0x8(%rbp),%rax
ffffffff81008ea4:	48 8b 10             	mov    (%rax),%rdx
ffffffff81008ea7:	48 8b 45 f0          	mov    -0x10(%rbp),%rax
ffffffff81008eab:	83 e0 3f             	and    $0x3f,%eax
ffffffff81008eae:	be 01 00 00 00       	mov    $0x1,%esi
ffffffff81008eb3:	89 c1                	mov    %eax,%ecx
ffffffff81008eb5:	d3 e6                	shl    %cl,%esi
ffffffff81008eb7:	89 f0                	mov    %esi,%eax
ffffffff81008eb9:	48 98                	cltq   
ffffffff81008ebb:	48 09 c2             	or     %rax,%rdx
ffffffff81008ebe:	48 8b 45 f8          	mov    -0x8(%rbp),%rax
ffffffff81008ec2:	48 89 10             	mov    %rdx,(%rax)
ffffffff81008ec5:	48 8b 85 60 ff ff ff 	mov    -0xa0(%rbp),%rax
ffffffff81008ecc:	48 83 e8 01          	sub    $0x1,%rax
ffffffff81008ed0:	48 89 85 60 ff ff ff 	mov    %rax,-0xa0(%rbp)
ffffffff81008ed7:	e9 ab 00 00 00       	jmpq   ffffffff81008f87 <mem_iter_build_structs+0x45a>
ffffffff81008edc:	48 8b 85 68 ff ff ff 	mov    -0x98(%rbp),%rax
ffffffff81008ee3:	48 39 45 d0          	cmp    %rax,-0x30(%rbp)
ffffffff81008ee7:	72 4d                	jb     ffffffff81008f36 <mem_iter_build_structs+0x409>
ffffffff81008ee9:	48 8b 95 68 ff ff ff 	mov    -0x98(%rbp),%rdx
ffffffff81008ef0:	48 8b 45 80          	mov    -0x80(%rbp),%rax
ffffffff81008ef4:	48 01 d0             	add    %rdx,%rax
ffffffff81008ef7:	48 39 45 c8          	cmp    %rax,-0x38(%rbp)
ffffffff81008efb:	77 39                	ja     ffffffff81008f36 <mem_iter_build_structs+0x409>
ffffffff81008efd:	48 8b 45 f8          	mov    -0x8(%rbp),%rax
ffffffff81008f01:	48 8b 10             	mov    (%rax),%rdx
ffffffff81008f04:	48 8b 45 f0          	mov    -0x10(%rbp),%rax
ffffffff81008f08:	83 e0 3f             	and    $0x3f,%eax
ffffffff81008f0b:	be 01 00 00 00       	mov    $0x1,%esi
ffffffff81008f10:	89 c1                	mov    %eax,%ecx
ffffffff81008f12:	d3 e6                	shl    %cl,%esi
ffffffff81008f14:	89 f0                	mov    %esi,%eax
ffffffff81008f16:	48 98                	cltq   
ffffffff81008f18:	48 09 c2             	or     %rax,%rdx
ffffffff81008f1b:	48 8b 45 f8          	mov    -0x8(%rbp),%rax
ffffffff81008f1f:	48 89 10             	mov    %rdx,(%rax)
ffffffff81008f22:	48 8b 85 60 ff ff ff 	mov    -0xa0(%rbp),%rax
ffffffff81008f29:	48 83 e8 01          	sub    $0x1,%rax
ffffffff81008f2d:	48 89 85 60 ff ff ff 	mov    %rax,-0xa0(%rbp)
ffffffff81008f34:	eb 51                	jmp    ffffffff81008f87 <mem_iter_build_structs+0x45a>
ffffffff81008f36:	48 8b 05 c3 60 00 00 	mov    0x60c3(%rip),%rax        # ffffffff8100f000 <_rodata_end>
ffffffff81008f3d:	48 39 45 d0          	cmp    %rax,-0x30(%rbp)
ffffffff81008f41:	72 44                	jb     ffffffff81008f87 <mem_iter_build_structs+0x45a>
ffffffff81008f43:	48 8b 05 c6 60 00 00 	mov    0x60c6(%rip),%rax        # ffffffff8100f010 <boot_paging_end>
ffffffff81008f4a:	48 39 45 c8          	cmp    %rax,-0x38(%rbp)
ffffffff81008f4e:	77 37                	ja     ffffffff81008f87 <mem_iter_build_structs+0x45a>
ffffffff81008f50:	48 8b 45 f8          	mov    -0x8(%rbp),%rax
ffffffff81008f54:	48 8b 10             	mov    (%rax),%rdx
ffffffff81008f57:	48 8b 45 f0          	mov    -0x10(%rbp),%rax
ffffffff81008f5b:	83 e0 3f             	and    $0x3f,%eax
ffffffff81008f5e:	be 01 00 00 00       	mov    $0x1,%esi
ffffffff81008f63:	89 c1                	mov    %eax,%ecx
ffffffff81008f65:	d3 e6                	shl    %cl,%esi
ffffffff81008f67:	89 f0                	mov    %esi,%eax
ffffffff81008f69:	48 98                	cltq   
ffffffff81008f6b:	48 09 c2             	or     %rax,%rdx
ffffffff81008f6e:	48 8b 45 f8          	mov    -0x8(%rbp),%rax
ffffffff81008f72:	48 89 10             	mov    %rdx,(%rax)
ffffffff81008f75:	48 8b 85 60 ff ff ff 	mov    -0xa0(%rbp),%rax
ffffffff81008f7c:	48 83 e8 01          	sub    $0x1,%rax
ffffffff81008f80:	48 89 85 60 ff ff ff 	mov    %rax,-0xa0(%rbp)
ffffffff81008f87:	48 83 45 f0 01       	addq   $0x1,-0x10(%rbp)
ffffffff81008f8c:	48 8b 85 58 ff ff ff 	mov    -0xa8(%rbp),%rax
ffffffff81008f93:	48 39 45 f0          	cmp    %rax,-0x10(%rbp)
ffffffff81008f97:	0f 82 cf fd ff ff    	jb     ffffffff81008d6c <mem_iter_build_structs+0x23f>
ffffffff81008f9d:	48 8b 15 7c 81 01 00 	mov    0x1817c(%rip),%rdx        # ffffffff81021120 <physmm_root+0x20>
ffffffff81008fa4:	48 8b 45 d8          	mov    -0x28(%rbp),%rax
ffffffff81008fa8:	48 8b 00             	mov    (%rax),%rax
ffffffff81008fab:	48 01 d0             	add    %rdx,%rax
ffffffff81008fae:	48 89 45 a0          	mov    %rax,-0x60(%rbp)
ffffffff81008fb2:	48 8b 45 a0          	mov    -0x60(%rbp),%rax
ffffffff81008fb6:	48 89 c7             	mov    %rax,%rdi
ffffffff81008fb9:	e8 10 19 00 00       	callq  ffffffff8100a8ce <pagemgr_boot_temp_map>
ffffffff81008fbe:	48 89 45 b8          	mov    %rax,-0x48(%rbp)
ffffffff81008fc2:	48 8d 8d 58 ff ff ff 	lea    -0xa8(%rbp),%rcx
ffffffff81008fc9:	48 8b 45 b8          	mov    -0x48(%rbp),%rax
ffffffff81008fcd:	ba 30 00 00 00       	mov    $0x30,%edx
ffffffff81008fd2:	48 89 ce             	mov    %rcx,%rsi
ffffffff81008fd5:	48 89 c7             	mov    %rax,%rdi
ffffffff81008fd8:	e8 1f 18 00 00       	callq  ffffffff8100a7fc <memcpy>
ffffffff81008fdd:	48 8b 45 d8          	mov    -0x28(%rbp),%rax
ffffffff81008fe1:	48 8b 00             	mov    (%rax),%rax
ffffffff81008fe4:	48 8d 50 30          	lea    0x30(%rax),%rdx
ffffffff81008fe8:	48 8b 45 d8          	mov    -0x28(%rbp),%rax
ffffffff81008fec:	48 89 10             	mov    %rdx,(%rax)
ffffffff81008fef:	48 8b 15 1a 81 01 00 	mov    0x1811a(%rip),%rdx        # ffffffff81021110 <physmm_root+0x10>
ffffffff81008ff6:	48 8b 45 e0          	mov    -0x20(%rbp),%rax
ffffffff81008ffa:	48 8b 00             	mov    (%rax),%rax
ffffffff81008ffd:	48 01 d0             	add    %rdx,%rax
ffffffff81009000:	48 89 c7             	mov    %rax,%rdi
ffffffff81009003:	e8 c6 18 00 00       	callq  ffffffff8100a8ce <pagemgr_boot_temp_map>
ffffffff81009008:	48 89 45 c0          	mov    %rax,-0x40(%rbp)
ffffffff8100900c:	48 8d 4d 88          	lea    -0x78(%rbp),%rcx
ffffffff81009010:	48 8b 45 c0          	mov    -0x40(%rbp),%rax
ffffffff81009014:	ba 28 00 00 00       	mov    $0x28,%edx
ffffffff81009019:	48 89 ce             	mov    %rcx,%rsi
ffffffff8100901c:	48 89 c7             	mov    %rax,%rdi
ffffffff8100901f:	e8 d8 17 00 00       	callq  ffffffff8100a7fc <memcpy>
ffffffff81009024:	48 8b 45 e0          	mov    -0x20(%rbp),%rax
ffffffff81009028:	48 8b 00             	mov    (%rax),%rax
ffffffff8100902b:	48 8d 50 28          	lea    0x28(%rax),%rdx
ffffffff8100902f:	48 8b 45 e0          	mov    -0x20(%rbp),%rax
ffffffff81009033:	48 89 10             	mov    %rdx,(%rax)
ffffffff81009036:	90                   	nop
ffffffff81009037:	c9                   	leaveq 
ffffffff81009038:	c3                   	retq   

ffffffff81009039 <physmm_early_init>:
ffffffff81009039:	55                   	push   %rbp
ffffffff8100903a:	48 89 e5             	mov    %rsp,%rbp
ffffffff8100903d:	48 83 ec 30          	sub    $0x30,%rsp
ffffffff81009041:	48 c7 45 d8 00 00 00 	movq   $0x0,-0x28(%rbp)
ffffffff81009048:	00 
ffffffff81009049:	48 c7 45 d0 00 00 00 	movq   $0x0,-0x30(%rbp)
ffffffff81009050:	00 
ffffffff81009051:	48 c7 45 f8 00 00 00 	movq   $0x0,-0x8(%rbp)
ffffffff81009058:	00 
ffffffff81009059:	48 c7 45 f0 00 00 00 	movq   $0x0,-0x10(%rbp)
ffffffff81009060:	00 
ffffffff81009061:	48 c7 c7 18 e3 00 81 	mov    $0xffffffff8100e318,%rdi
ffffffff81009068:	b8 00 00 00 00       	mov    $0x0,%eax
ffffffff8100906d:	e8 63 e0 ff ff       	callq  ffffffff810070d5 <kprintf>
ffffffff81009072:	ba 90 00 00 00       	mov    $0x90,%edx
ffffffff81009077:	be 00 00 00 00       	mov    $0x0,%esi
ffffffff8100907c:	48 c7 c7 00 11 02 81 	mov    $0xffffffff81021100,%rdi
ffffffff81009083:	e8 32 17 00 00       	callq  ffffffff8100a7ba <memset>
ffffffff81009088:	48 c7 c0 00 00 00 01 	mov    $0x1000000,%rax
ffffffff8100908f:	48 89 05 ba 80 01 00 	mov    %rax,0x180ba(%rip)        # ffffffff81021150 <physmm_root+0x50>
ffffffff81009096:	48 c7 c0 00 20 02 01 	mov    $0x1022000,%rax
ffffffff8100909d:	48 89 05 b4 80 01 00 	mov    %rax,0x180b4(%rip)        # ffffffff81021158 <physmm_root+0x58>
ffffffff810090a4:	48 c7 c0 00 00 00 80 	mov    $0xffffffff80000000,%rax
ffffffff810090ab:	48 89 05 b6 80 01 00 	mov    %rax,0x180b6(%rip)        # ffffffff81021168 <physmm_root+0x68>
ffffffff810090b2:	48 c7 c0 00 20 02 81 	mov    $0xffffffff81022000,%rax
ffffffff810090b9:	48 89 05 b0 80 01 00 	mov    %rax,0x180b0(%rip)        # ffffffff81021170 <physmm_root+0x70>
ffffffff810090c0:	48 8b 15 91 80 01 00 	mov    0x18091(%rip),%rdx        # ffffffff81021158 <physmm_root+0x58>
ffffffff810090c7:	48 8b 05 82 80 01 00 	mov    0x18082(%rip),%rax        # ffffffff81021150 <physmm_root+0x50>
ffffffff810090ce:	48 29 c2             	sub    %rax,%rdx
ffffffff810090d1:	48 89 d0             	mov    %rdx,%rax
ffffffff810090d4:	48 89 05 85 80 01 00 	mov    %rax,0x18085(%rip)        # ffffffff81021160 <physmm_root+0x60>
ffffffff810090db:	be 00 00 00 00       	mov    $0x0,%esi
ffffffff810090e0:	48 c7 c7 5c 8a 00 81 	mov    $0xffffffff81008a5c,%rdi
ffffffff810090e7:	e8 f5 15 00 00       	callq  ffffffff8100a6e1 <mem_map_iter>
ffffffff810090ec:	48 8b 05 3d 80 01 00 	mov    0x1803d(%rip),%rax        # ffffffff81021130 <physmm_root+0x30>
ffffffff810090f3:	48 05 ff 0f 00 00    	add    $0xfff,%rax
ffffffff810090f9:	48 25 00 f0 ff ff    	and    $0xfffffffffffff000,%rax
ffffffff810090ff:	48 89 05 42 80 01 00 	mov    %rax,0x18042(%rip)        # ffffffff81021148 <physmm_root+0x48>
ffffffff81009106:	48 8b 05 2b 80 01 00 	mov    0x1802b(%rip),%rax        # ffffffff81021138 <physmm_root+0x38>
ffffffff8100910d:	48 05 ff 0f 00 00    	add    $0xfff,%rax
ffffffff81009113:	48 25 00 f0 ff ff    	and    $0xfffffffffffff000,%rax
ffffffff81009119:	48 89 05 20 80 01 00 	mov    %rax,0x18020(%rip)        # ffffffff81021140 <physmm_root+0x40>
ffffffff81009120:	48 8b 05 59 80 01 00 	mov    0x18059(%rip),%rax        # ffffffff81021180 <physmm_root+0x80>
ffffffff81009127:	48 c1 e8 0f          	shr    $0xf,%rax
ffffffff8100912b:	48 89 45 f8          	mov    %rax,-0x8(%rbp)
ffffffff8100912f:	48 8b 15 0a 80 01 00 	mov    0x1800a(%rip),%rdx        # ffffffff81021140 <physmm_root+0x40>
ffffffff81009136:	48 8b 05 0b 80 01 00 	mov    0x1800b(%rip),%rax        # ffffffff81021148 <physmm_root+0x48>
ffffffff8100913d:	48 01 c2             	add    %rax,%rdx
ffffffff81009140:	48 8b 45 f8          	mov    -0x8(%rbp),%rax
ffffffff81009144:	48 05 ff 0f 00 00    	add    $0xfff,%rax
ffffffff8100914a:	48 25 00 f0 ff ff    	and    $0xfffffffffffff000,%rax
ffffffff81009150:	48 01 d0             	add    %rdx,%rax
ffffffff81009153:	48 89 45 f0          	mov    %rax,-0x10(%rbp)
ffffffff81009157:	48 8b 15 fa 7f 01 00 	mov    0x17ffa(%rip),%rdx        # ffffffff81021158 <physmm_root+0x58>
ffffffff8100915e:	48 8b 45 f0          	mov    -0x10(%rbp),%rax
ffffffff81009162:	48 8d 0c 02          	lea    (%rdx,%rax,1),%rcx
ffffffff81009166:	48 8b 15 0b 80 01 00 	mov    0x1800b(%rip),%rdx        # ffffffff81021178 <physmm_root+0x78>
ffffffff8100916d:	48 8b 05 0c 80 01 00 	mov    0x1800c(%rip),%rax        # ffffffff81021180 <physmm_root+0x80>
ffffffff81009174:	48 01 d0             	add    %rdx,%rax
ffffffff81009177:	48 39 c1             	cmp    %rax,%rcx
ffffffff8100917a:	72 49                	jb     ffffffff810091c5 <physmm_early_init+0x18c>
ffffffff8100917c:	48 8b 05 cd 7f 01 00 	mov    0x17fcd(%rip),%rax        # ffffffff81021150 <physmm_root+0x50>
ffffffff81009183:	48 2b 45 f0          	sub    -0x10(%rbp),%rax
ffffffff81009187:	48 25 00 f0 ff ff    	and    $0xfffffffffffff000,%rax
ffffffff8100918d:	48 89 05 7c 7f 01 00 	mov    %rax,0x17f7c(%rip)        # ffffffff81021110 <physmm_root+0x10>
ffffffff81009194:	48 8b 05 75 7f 01 00 	mov    0x17f75(%rip),%rax        # ffffffff81021110 <physmm_root+0x10>
ffffffff8100919b:	48 3d ff ff ff 00    	cmp    $0xffffff,%rax
ffffffff810091a1:	77 50                	ja     ffffffff810091f3 <physmm_early_init+0x1ba>
ffffffff810091a3:	48 8b 05 66 7f 01 00 	mov    0x17f66(%rip),%rax        # ffffffff81021110 <physmm_root+0x10>
ffffffff810091aa:	48 3d ff ff ff 00    	cmp    $0xffffff,%rax
ffffffff810091b0:	76 41                	jbe    ffffffff810091f3 <physmm_early_init+0x1ba>
ffffffff810091b2:	48 c7 c7 48 e3 00 81 	mov    $0xffffffff8100e348,%rdi
ffffffff810091b9:	b8 00 00 00 00       	mov    $0x0,%eax
ffffffff810091be:	e8 12 df ff ff       	callq  ffffffff810070d5 <kprintf>
ffffffff810091c3:	eb fe                	jmp    ffffffff810091c3 <physmm_early_init+0x18a>
ffffffff810091c5:	48 8b 15 ac 7f 01 00 	mov    0x17fac(%rip),%rdx        # ffffffff81021178 <physmm_root+0x78>
ffffffff810091cc:	48 8b 05 ad 7f 01 00 	mov    0x17fad(%rip),%rax        # ffffffff81021180 <physmm_root+0x80>
ffffffff810091d3:	48 2b 45 f0          	sub    -0x10(%rbp),%rax
ffffffff810091d7:	48 05 ff 0f 00 00    	add    $0xfff,%rax
ffffffff810091dd:	48 25 00 f0 ff ff    	and    $0xfffffffffffff000,%rax
ffffffff810091e3:	48 01 d0             	add    %rdx,%rax
ffffffff810091e6:	48 25 00 f0 ff ff    	and    $0xfffffffffffff000,%rax
ffffffff810091ec:	48 89 05 1d 7f 01 00 	mov    %rax,0x17f1d(%rip)        # ffffffff81021110 <physmm_root+0x10>
ffffffff810091f3:	48 8b 15 16 7f 01 00 	mov    0x17f16(%rip),%rdx        # ffffffff81021110 <physmm_root+0x10>
ffffffff810091fa:	48 8b 05 3f 7f 01 00 	mov    0x17f3f(%rip),%rax        # ffffffff81021140 <physmm_root+0x40>
ffffffff81009201:	48 01 d0             	add    %rdx,%rax
ffffffff81009204:	48 89 05 15 7f 01 00 	mov    %rax,0x17f15(%rip)        # ffffffff81021120 <physmm_root+0x20>
ffffffff8100920b:	48 8d 45 d8          	lea    -0x28(%rbp),%rax
ffffffff8100920f:	48 89 45 e0          	mov    %rax,-0x20(%rbp)
ffffffff81009213:	48 8d 45 d0          	lea    -0x30(%rbp),%rax
ffffffff81009217:	48 89 45 e8          	mov    %rax,-0x18(%rbp)
ffffffff8100921b:	48 8d 45 e0          	lea    -0x20(%rbp),%rax
ffffffff8100921f:	48 89 c6             	mov    %rax,%rsi
ffffffff81009222:	48 c7 c7 2d 8b 00 81 	mov    $0xffffffff81008b2d,%rdi
ffffffff81009229:	e8 b3 14 00 00       	callq  ffffffff8100a6e1 <mem_map_iter>
ffffffff8100922e:	48 c7 c7 6f e3 00 81 	mov    $0xffffffff8100e36f,%rdi
ffffffff81009235:	b8 00 00 00 00       	mov    $0x0,%eax
ffffffff8100923a:	e8 96 de ff ff       	callq  ffffffff810070d5 <kprintf>
ffffffff8100923f:	48 8b 15 12 7f 01 00 	mov    0x17f12(%rip),%rdx        # ffffffff81021158 <physmm_root+0x58>
ffffffff81009246:	48 8b 05 03 7f 01 00 	mov    0x17f03(%rip),%rax        # ffffffff81021150 <physmm_root+0x50>
ffffffff8100924d:	48 89 c6             	mov    %rax,%rsi
ffffffff81009250:	48 c7 c7 8a e3 00 81 	mov    $0xffffffff8100e38a,%rdi
ffffffff81009257:	b8 00 00 00 00       	mov    $0x0,%eax
ffffffff8100925c:	e8 74 de ff ff       	callq  ffffffff810070d5 <kprintf>
ffffffff81009261:	48 8b 15 d8 7e 01 00 	mov    0x17ed8(%rip),%rdx        # ffffffff81021140 <physmm_root+0x40>
ffffffff81009268:	48 8b 05 a1 7e 01 00 	mov    0x17ea1(%rip),%rax        # ffffffff81021110 <physmm_root+0x10>
ffffffff8100926f:	48 89 c6             	mov    %rax,%rsi
ffffffff81009272:	48 c7 c7 a6 e3 00 81 	mov    $0xffffffff8100e3a6,%rdi
ffffffff81009279:	b8 00 00 00 00       	mov    $0x0,%eax
ffffffff8100927e:	e8 52 de ff ff       	callq  ffffffff810070d5 <kprintf>
ffffffff81009283:	48 8b 15 be 7e 01 00 	mov    0x17ebe(%rip),%rdx        # ffffffff81021148 <physmm_root+0x48>
ffffffff8100928a:	48 8b 05 8f 7e 01 00 	mov    0x17e8f(%rip),%rax        # ffffffff81021120 <physmm_root+0x20>
ffffffff81009291:	48 89 c6             	mov    %rax,%rsi
ffffffff81009294:	48 c7 c7 c2 e3 00 81 	mov    $0xffffffff8100e3c2,%rdi
ffffffff8100929b:	b8 00 00 00 00       	mov    $0x0,%eax
ffffffff810092a0:	e8 30 de ff ff       	callq  ffffffff810070d5 <kprintf>
ffffffff810092a5:	48 8b 45 f0          	mov    -0x10(%rbp),%rax
ffffffff810092a9:	48 89 c6             	mov    %rax,%rsi
ffffffff810092ac:	48 c7 c7 dc e3 00 81 	mov    $0xffffffff8100e3dc,%rdi
ffffffff810092b3:	b8 00 00 00 00       	mov    $0x0,%eax
ffffffff810092b8:	e8 18 de ff ff       	callq  ffffffff810070d5 <kprintf>
ffffffff810092bd:	ba 10 00 00 00       	mov    $0x10,%edx
ffffffff810092c2:	be 00 00 00 00       	mov    $0x0,%esi
ffffffff810092c7:	48 c7 c7 90 11 02 81 	mov    $0xffffffff81021190,%rdi
ffffffff810092ce:	e8 e7 14 00 00       	callq  ffffffff8100a7ba <memset>
ffffffff810092d3:	48 c7 05 b2 7e 01 00 	movq   $0xffffffff810092e1,0x17eb2(%rip)        # ffffffff81021190 <physmm_if>
ffffffff810092da:	e1 92 00 81 
ffffffff810092de:	90                   	nop
ffffffff810092df:	c9                   	leaveq 
ffffffff810092e0:	c3                   	retq   

ffffffff810092e1 <physmm_boot_alloc_pf>:
ffffffff810092e1:	55                   	push   %rbp
ffffffff810092e2:	48 89 e5             	mov    %rsp,%rbp
ffffffff810092e5:	48 81 ec b0 00 00 00 	sub    $0xb0,%rsp
ffffffff810092ec:	48 89 bd 68 ff ff ff 	mov    %rdi,-0x98(%rbp)
ffffffff810092f3:	89 f0                	mov    %esi,%eax
ffffffff810092f5:	48 89 95 58 ff ff ff 	mov    %rdx,-0xa8(%rbp)
ffffffff810092fc:	48 89 8d 50 ff ff ff 	mov    %rcx,-0xb0(%rbp)
ffffffff81009303:	88 85 64 ff ff ff    	mov    %al,-0x9c(%rbp)
ffffffff81009309:	48 c7 45 f8 00 00 00 	movq   $0x0,-0x8(%rbp)
ffffffff81009310:	00 
ffffffff81009311:	48 c7 45 f0 00 00 00 	movq   $0x0,-0x10(%rbp)
ffffffff81009318:	00 
ffffffff81009319:	48 c7 45 e8 00 00 00 	movq   $0x0,-0x18(%rbp)
ffffffff81009320:	00 
ffffffff81009321:	48 c7 45 d0 00 00 00 	movq   $0x0,-0x30(%rbp)
ffffffff81009328:	00 
ffffffff81009329:	48 c7 45 e0 00 00 00 	movq   $0x0,-0x20(%rbp)
ffffffff81009330:	00 
ffffffff81009331:	48 c7 45 c8 00 00 00 	movq   $0x0,-0x38(%rbp)
ffffffff81009338:	00 
ffffffff81009339:	c7 45 dc 00 00 00 00 	movl   $0x0,-0x24(%rbp)
ffffffff81009340:	c7 45 d8 00 00 00 00 	movl   $0x0,-0x28(%rbp)
ffffffff81009347:	e9 11 02 00 00       	jmpq   ffffffff8100955d <physmm_boot_alloc_pf+0x27c>
ffffffff8100934c:	48 8b 15 bd 7d 01 00 	mov    0x17dbd(%rip),%rdx        # ffffffff81021110 <physmm_root+0x10>
ffffffff81009353:	48 8b 45 f8          	mov    -0x8(%rbp),%rax
ffffffff81009357:	48 01 d0             	add    %rdx,%rax
ffffffff8100935a:	48 89 c7             	mov    %rax,%rdi
ffffffff8100935d:	e8 6c 15 00 00       	callq  ffffffff8100a8ce <pagemgr_boot_temp_map>
ffffffff81009362:	48 8b 10             	mov    (%rax),%rdx
ffffffff81009365:	48 89 55 a0          	mov    %rdx,-0x60(%rbp)
ffffffff81009369:	48 8b 50 08          	mov    0x8(%rax),%rdx
ffffffff8100936d:	48 89 55 a8          	mov    %rdx,-0x58(%rbp)
ffffffff81009371:	48 8b 50 10          	mov    0x10(%rax),%rdx
ffffffff81009375:	48 89 55 b0          	mov    %rdx,-0x50(%rbp)
ffffffff81009379:	48 8b 50 18          	mov    0x18(%rax),%rdx
ffffffff8100937d:	48 89 55 b8          	mov    %rdx,-0x48(%rbp)
ffffffff81009381:	48 8b 40 20          	mov    0x20(%rax),%rax
ffffffff81009385:	48 89 45 c0          	mov    %rax,-0x40(%rbp)
ffffffff81009389:	0f b6 45 a0          	movzbl -0x60(%rbp),%eax
ffffffff8100938d:	3c 01                	cmp    $0x1,%al
ffffffff8100938f:	75 13                	jne    ffffffff810093a4 <physmm_boot_alloc_pf+0xc3>
ffffffff81009391:	48 8b 55 a8          	mov    -0x58(%rbp),%rdx
ffffffff81009395:	48 8b 45 b0          	mov    -0x50(%rbp),%rax
ffffffff81009399:	48 01 d0             	add    %rdx,%rax
ffffffff8100939c:	48 3d 00 00 10 00    	cmp    $0x100000,%rax
ffffffff810093a2:	77 0a                	ja     ffffffff810093ae <physmm_boot_alloc_pf+0xcd>
ffffffff810093a4:	48 83 45 f8 28       	addq   $0x28,-0x8(%rbp)
ffffffff810093a9:	e9 af 01 00 00       	jmpq   ffffffff8100955d <physmm_boot_alloc_pf+0x27c>
ffffffff810093ae:	48 8b 45 a8          	mov    -0x58(%rbp),%rax
ffffffff810093b2:	48 3d 00 00 10 00    	cmp    $0x100000,%rax
ffffffff810093b8:	77 1d                	ja     ffffffff810093d7 <physmm_boot_alloc_pf+0xf6>
ffffffff810093ba:	48 8b 55 a8          	mov    -0x58(%rbp),%rdx
ffffffff810093be:	48 8b 45 b0          	mov    -0x50(%rbp),%rax
ffffffff810093c2:	48 01 d0             	add    %rdx,%rax
ffffffff810093c5:	48 3d 00 00 00 01    	cmp    $0x1000000,%rax
ffffffff810093cb:	76 0a                	jbe    ffffffff810093d7 <physmm_boot_alloc_pf+0xf6>
ffffffff810093cd:	48 c7 45 f0 00 10 00 	movq   $0x1000,-0x10(%rbp)
ffffffff810093d4:	00 
ffffffff810093d5:	eb 08                	jmp    ffffffff810093df <physmm_boot_alloc_pf+0xfe>
ffffffff810093d7:	48 c7 45 f0 00 00 00 	movq   $0x0,-0x10(%rbp)
ffffffff810093de:	00 
ffffffff810093df:	48 8b 45 b8          	mov    -0x48(%rbp),%rax
ffffffff810093e3:	48 89 c7             	mov    %rax,%rdi
ffffffff810093e6:	e8 e3 14 00 00       	callq  ffffffff8100a8ce <pagemgr_boot_temp_map>
ffffffff810093eb:	48 8b 10             	mov    (%rax),%rdx
ffffffff810093ee:	48 89 95 70 ff ff ff 	mov    %rdx,-0x90(%rbp)
ffffffff810093f5:	48 8b 50 08          	mov    0x8(%rax),%rdx
ffffffff810093f9:	48 89 95 78 ff ff ff 	mov    %rdx,-0x88(%rbp)
ffffffff81009400:	48 8b 50 10          	mov    0x10(%rax),%rdx
ffffffff81009404:	48 89 55 80          	mov    %rdx,-0x80(%rbp)
ffffffff81009408:	48 8b 50 18          	mov    0x18(%rax),%rdx
ffffffff8100940c:	48 89 55 88          	mov    %rdx,-0x78(%rbp)
ffffffff81009410:	48 8b 50 20          	mov    0x20(%rax),%rdx
ffffffff81009414:	48 89 55 90          	mov    %rdx,-0x70(%rbp)
ffffffff81009418:	48 8b 40 28          	mov    0x28(%rax),%rax
ffffffff8100941c:	48 89 45 98          	mov    %rax,-0x68(%rbp)
ffffffff81009420:	48 8b 85 70 ff ff ff 	mov    -0x90(%rbp),%rax
ffffffff81009427:	48 39 45 f0          	cmp    %rax,-0x10(%rbp)
ffffffff8100942b:	73 0c                	jae    ffffffff81009439 <physmm_boot_alloc_pf+0x158>
ffffffff8100942d:	48 8b 85 78 ff ff ff 	mov    -0x88(%rbp),%rax
ffffffff81009434:	48 85 c0             	test   %rax,%rax
ffffffff81009437:	75 0a                	jne    ffffffff81009443 <physmm_boot_alloc_pf+0x162>
ffffffff81009439:	48 83 45 f8 28       	addq   $0x28,-0x8(%rbp)
ffffffff8100943e:	e9 1a 01 00 00       	jmpq   ffffffff8100955d <physmm_boot_alloc_pf+0x27c>
ffffffff81009443:	48 8b 45 80          	mov    -0x80(%rbp),%rax
ffffffff81009447:	48 8b 55 f0          	mov    -0x10(%rbp),%rdx
ffffffff8100944b:	48 c1 ea 06          	shr    $0x6,%rdx
ffffffff8100944f:	48 c1 e2 03          	shl    $0x3,%rdx
ffffffff81009453:	48 01 d0             	add    %rdx,%rax
ffffffff81009456:	48 89 c7             	mov    %rax,%rdi
ffffffff81009459:	e8 70 14 00 00       	callq  ffffffff8100a8ce <pagemgr_boot_temp_map>
ffffffff8100945e:	48 89 45 e8          	mov    %rax,-0x18(%rbp)
ffffffff81009462:	e9 d2 00 00 00       	jmpq   ffffffff81009539 <physmm_boot_alloc_pf+0x258>
ffffffff81009467:	48 8b 45 f0          	mov    -0x10(%rbp),%rax
ffffffff8100946b:	83 e0 3f             	and    $0x3f,%eax
ffffffff8100946e:	48 85 c0             	test   %rax,%rax
ffffffff81009471:	75 1f                	jne    ffffffff81009492 <physmm_boot_alloc_pf+0x1b1>
ffffffff81009473:	48 8b 45 80          	mov    -0x80(%rbp),%rax
ffffffff81009477:	48 8b 55 f0          	mov    -0x10(%rbp),%rdx
ffffffff8100947b:	48 c1 ea 06          	shr    $0x6,%rdx
ffffffff8100947f:	48 c1 e2 03          	shl    $0x3,%rdx
ffffffff81009483:	48 01 d0             	add    %rdx,%rax
ffffffff81009486:	48 89 c7             	mov    %rax,%rdi
ffffffff81009489:	e8 40 14 00 00       	callq  ffffffff8100a8ce <pagemgr_boot_temp_map>
ffffffff8100948e:	48 89 45 e8          	mov    %rax,-0x18(%rbp)
ffffffff81009492:	48 8b 45 e8          	mov    -0x18(%rbp),%rax
ffffffff81009496:	48 8b 00             	mov    (%rax),%rax
ffffffff81009499:	48 f7 d0             	not    %rax
ffffffff8100949c:	48 89 c2             	mov    %rax,%rdx
ffffffff8100949f:	48 8b 45 f0          	mov    -0x10(%rbp),%rax
ffffffff810094a3:	83 e0 3f             	and    $0x3f,%eax
ffffffff810094a6:	be 01 00 00 00       	mov    $0x1,%esi
ffffffff810094ab:	89 c1                	mov    %eax,%ecx
ffffffff810094ad:	d3 e6                	shl    %cl,%esi
ffffffff810094af:	89 f0                	mov    %esi,%eax
ffffffff810094b1:	48 98                	cltq   
ffffffff810094b3:	48 21 d0             	and    %rdx,%rax
ffffffff810094b6:	48 85 c0             	test   %rax,%rax
ffffffff810094b9:	74 79                	je     ffffffff81009534 <physmm_boot_alloc_pf+0x253>
ffffffff810094bb:	48 8b 45 a8          	mov    -0x58(%rbp),%rax
ffffffff810094bf:	48 8b 55 f0          	mov    -0x10(%rbp),%rdx
ffffffff810094c3:	48 c1 e2 0c          	shl    $0xc,%rdx
ffffffff810094c7:	48 01 d0             	add    %rdx,%rax
ffffffff810094ca:	48 89 45 d0          	mov    %rax,-0x30(%rbp)
ffffffff810094ce:	48 8b 95 50 ff ff ff 	mov    -0xb0(%rbp),%rdx
ffffffff810094d5:	48 8b 45 d0          	mov    -0x30(%rbp),%rax
ffffffff810094d9:	48 8b 8d 58 ff ff ff 	mov    -0xa8(%rbp),%rcx
ffffffff810094e0:	be 01 00 00 00       	mov    $0x1,%esi
ffffffff810094e5:	48 89 c7             	mov    %rax,%rdi
ffffffff810094e8:	ff d1                	callq  *%rcx
ffffffff810094ea:	48 85 c0             	test   %rax,%rax
ffffffff810094ed:	75 09                	jne    ffffffff810094f8 <physmm_boot_alloc_pf+0x217>
ffffffff810094ef:	c7 45 d8 01 00 00 00 	movl   $0x1,-0x28(%rbp)
ffffffff810094f6:	eb 52                	jmp    ffffffff8100954a <physmm_boot_alloc_pf+0x269>
ffffffff810094f8:	48 8b 45 e8          	mov    -0x18(%rbp),%rax
ffffffff810094fc:	48 8b 10             	mov    (%rax),%rdx
ffffffff810094ff:	48 8b 45 f0          	mov    -0x10(%rbp),%rax
ffffffff81009503:	83 e0 3f             	and    $0x3f,%eax
ffffffff81009506:	be 01 00 00 00       	mov    $0x1,%esi
ffffffff8100950b:	89 c1                	mov    %eax,%ecx
ffffffff8100950d:	d3 e6                	shl    %cl,%esi
ffffffff8100950f:	89 f0                	mov    %esi,%eax
ffffffff81009511:	48 98                	cltq   
ffffffff81009513:	48 09 c2             	or     %rax,%rdx
ffffffff81009516:	48 8b 45 e8          	mov    -0x18(%rbp),%rax
ffffffff8100951a:	48 89 10             	mov    %rdx,(%rax)
ffffffff8100951d:	48 8b 85 78 ff ff ff 	mov    -0x88(%rbp),%rax
ffffffff81009524:	48 83 e8 01          	sub    $0x1,%rax
ffffffff81009528:	48 89 85 78 ff ff ff 	mov    %rax,-0x88(%rbp)
ffffffff8100952f:	48 83 45 e0 01       	addq   $0x1,-0x20(%rbp)
ffffffff81009534:	48 83 45 f0 01       	addq   $0x1,-0x10(%rbp)
ffffffff81009539:	48 8b 85 70 ff ff ff 	mov    -0x90(%rbp),%rax
ffffffff81009540:	48 39 45 f0          	cmp    %rax,-0x10(%rbp)
ffffffff81009544:	0f 82 1d ff ff ff    	jb     ffffffff81009467 <physmm_boot_alloc_pf+0x186>
ffffffff8100954a:	48 8b 45 e0          	mov    -0x20(%rbp),%rax
ffffffff8100954e:	48 3b 85 68 ff ff ff 	cmp    -0x98(%rbp),%rax
ffffffff81009555:	73 17                	jae    ffffffff8100956e <physmm_boot_alloc_pf+0x28d>
ffffffff81009557:	83 7d d8 00          	cmpl   $0x0,-0x28(%rbp)
ffffffff8100955b:	75 11                	jne    ffffffff8100956e <physmm_boot_alloc_pf+0x28d>
ffffffff8100955d:	48 8b 05 d4 7b 01 00 	mov    0x17bd4(%rip),%rax        # ffffffff81021138 <physmm_root+0x38>
ffffffff81009564:	48 39 45 f8          	cmp    %rax,-0x8(%rbp)
ffffffff81009568:	0f 82 de fd ff ff    	jb     ffffffff8100934c <physmm_boot_alloc_pf+0x6b>
ffffffff8100956e:	48 8b 45 b8          	mov    -0x48(%rbp),%rax
ffffffff81009572:	48 89 c7             	mov    %rax,%rdi
ffffffff81009575:	e8 54 13 00 00       	callq  ffffffff8100a8ce <pagemgr_boot_temp_map>
ffffffff8100957a:	48 89 45 c8          	mov    %rax,-0x38(%rbp)
ffffffff8100957e:	48 8d 8d 70 ff ff ff 	lea    -0x90(%rbp),%rcx
ffffffff81009585:	48 8b 45 c8          	mov    -0x38(%rbp),%rax
ffffffff81009589:	ba 30 00 00 00       	mov    $0x30,%edx
ffffffff8100958e:	48 89 ce             	mov    %rcx,%rsi
ffffffff81009591:	48 89 c7             	mov    %rax,%rdi
ffffffff81009594:	e8 63 12 00 00       	callq  ffffffff8100a7fc <memcpy>
ffffffff81009599:	48 8b 45 e0          	mov    -0x20(%rbp),%rax
ffffffff8100959d:	48 3b 85 68 ff ff ff 	cmp    -0x98(%rbp),%rax
ffffffff810095a4:	73 07                	jae    ffffffff810095ad <physmm_boot_alloc_pf+0x2cc>
ffffffff810095a6:	c7 45 dc ff ff ff ff 	movl   $0xffffffff,-0x24(%rbp)
ffffffff810095ad:	8b 45 dc             	mov    -0x24(%rbp),%eax
ffffffff810095b0:	c9                   	leaveq 
ffffffff810095b1:	c3                   	retq   

ffffffff810095b2 <physmm_init>:
ffffffff810095b2:	55                   	push   %rbp
ffffffff810095b3:	48 89 e5             	mov    %rsp,%rbp
ffffffff810095b6:	48 83 ec 40          	sub    $0x40,%rsp
ffffffff810095ba:	48 c7 45 e8 00 00 00 	movq   $0x0,-0x18(%rbp)
ffffffff810095c1:	00 
ffffffff810095c2:	48 c7 45 e0 00 00 00 	movq   $0x0,-0x20(%rbp)
ffffffff810095c9:	00 
ffffffff810095ca:	48 c7 45 f8 00 00 00 	movq   $0x0,-0x8(%rbp)
ffffffff810095d1:	00 
ffffffff810095d2:	48 c7 45 d8 00 00 00 	movq   $0x0,-0x28(%rbp)
ffffffff810095d9:	00 
ffffffff810095da:	48 c7 45 d0 00 00 00 	movq   $0x0,-0x30(%rbp)
ffffffff810095e1:	00 
ffffffff810095e2:	48 c7 45 c8 00 00 00 	movq   $0x0,-0x38(%rbp)
ffffffff810095e9:	00 
ffffffff810095ea:	48 c7 c7 f8 e3 00 81 	mov    $0xffffffff8100e3f8,%rdi
ffffffff810095f1:	b8 00 00 00 00       	mov    $0x0,%eax
ffffffff810095f6:	e8 da da ff ff       	callq  ffffffff810070d5 <kprintf>
ffffffff810095fb:	48 8b 15 3e 7b 01 00 	mov    0x17b3e(%rip),%rdx        # ffffffff81021140 <physmm_root+0x40>
ffffffff81009602:	48 8b 05 07 7b 01 00 	mov    0x17b07(%rip),%rax        # ffffffff81021110 <physmm_root+0x10>
ffffffff81009609:	b9 01 00 00 00       	mov    $0x1,%ecx
ffffffff8100960e:	be 00 00 00 00       	mov    $0x0,%esi
ffffffff81009613:	48 89 c7             	mov    %rax,%rdi
ffffffff81009616:	e8 2e eb ff ff       	callq  ffffffff81008149 <vmmgr_map>
ffffffff8100961b:	48 89 05 f6 7a 01 00 	mov    %rax,0x17af6(%rip)        # ffffffff81021118 <physmm_root+0x18>
ffffffff81009622:	48 8b 15 1f 7b 01 00 	mov    0x17b1f(%rip),%rdx        # ffffffff81021148 <physmm_root+0x48>
ffffffff81009629:	48 8b 05 f0 7a 01 00 	mov    0x17af0(%rip),%rax        # ffffffff81021120 <physmm_root+0x20>
ffffffff81009630:	b9 01 00 00 00       	mov    $0x1,%ecx
ffffffff81009635:	be 00 00 00 00       	mov    $0x0,%esi
ffffffff8100963a:	48 89 c7             	mov    %rax,%rdi
ffffffff8100963d:	e8 07 eb ff ff       	callq  ffffffff81008149 <vmmgr_map>
ffffffff81009642:	48 89 05 df 7a 01 00 	mov    %rax,0x17adf(%rip)        # ffffffff81021128 <physmm_root+0x28>
ffffffff81009649:	48 8b 05 d8 7a 01 00 	mov    0x17ad8(%rip),%rax        # ffffffff81021128 <physmm_root+0x28>
ffffffff81009650:	48 85 c0             	test   %rax,%rax
ffffffff81009653:	74 10                	je     ffffffff81009665 <physmm_init+0xb3>
ffffffff81009655:	48 8b 05 bc 7a 01 00 	mov    0x17abc(%rip),%rax        # ffffffff81021118 <physmm_root+0x18>
ffffffff8100965c:	48 85 c0             	test   %rax,%rax
ffffffff8100965f:	0f 85 00 02 00 00    	jne    ffffffff81009865 <physmm_init+0x2b3>
ffffffff81009665:	b8 ff ff ff ff       	mov    $0xffffffff,%eax
ffffffff8100966a:	e9 22 02 00 00       	jmpq   ffffffff81009891 <physmm_init+0x2df>
ffffffff8100966f:	48 8b 15 a2 7a 01 00 	mov    0x17aa2(%rip),%rdx        # ffffffff81021118 <physmm_root+0x18>
ffffffff81009676:	48 8b 45 f8          	mov    -0x8(%rbp),%rax
ffffffff8100967a:	48 01 d0             	add    %rdx,%rax
ffffffff8100967d:	48 89 45 e8          	mov    %rax,-0x18(%rbp)
ffffffff81009681:	48 8b 45 e8          	mov    -0x18(%rbp),%rax
ffffffff81009685:	0f b6 00             	movzbl (%rax),%eax
ffffffff81009688:	0f b6 f0             	movzbl %al,%esi
ffffffff8100968b:	48 8b 45 e8          	mov    -0x18(%rbp),%rax
ffffffff8100968f:	48 8b 48 10          	mov    0x10(%rax),%rcx
ffffffff81009693:	48 8b 45 e8          	mov    -0x18(%rbp),%rax
ffffffff81009697:	48 8b 50 08          	mov    0x8(%rax),%rdx
ffffffff8100969b:	48 8b 45 e8          	mov    -0x18(%rbp),%rax
ffffffff8100969f:	41 89 f0             	mov    %esi,%r8d
ffffffff810096a2:	48 89 c6             	mov    %rax,%rsi
ffffffff810096a5:	48 c7 c7 20 e4 00 81 	mov    $0xffffffff8100e420,%rdi
ffffffff810096ac:	b8 00 00 00 00       	mov    $0x0,%eax
ffffffff810096b1:	e8 1f da ff ff       	callq  ffffffff810070d5 <kprintf>
ffffffff810096b6:	48 8b 45 e8          	mov    -0x18(%rbp),%rax
ffffffff810096ba:	0f b6 00             	movzbl (%rax),%eax
ffffffff810096bd:	3c 01                	cmp    $0x1,%al
ffffffff810096bf:	0f 85 9b 01 00 00    	jne    ffffffff81009860 <physmm_init+0x2ae>
ffffffff810096c5:	48 8b 15 5c 7a 01 00 	mov    0x17a5c(%rip),%rdx        # ffffffff81021128 <physmm_root+0x28>
ffffffff810096cc:	48 8b 45 e8          	mov    -0x18(%rbp),%rax
ffffffff810096d0:	48 8b 40 18          	mov    0x18(%rax),%rax
ffffffff810096d4:	48 01 c2             	add    %rax,%rdx
ffffffff810096d7:	48 8b 05 42 7a 01 00 	mov    0x17a42(%rip),%rax        # ffffffff81021120 <physmm_root+0x20>
ffffffff810096de:	48 29 c2             	sub    %rax,%rdx
ffffffff810096e1:	48 89 d0             	mov    %rdx,%rax
ffffffff810096e4:	48 89 c2             	mov    %rax,%rdx
ffffffff810096e7:	48 8b 45 e8          	mov    -0x18(%rbp),%rax
ffffffff810096eb:	48 89 50 20          	mov    %rdx,0x20(%rax)
ffffffff810096ef:	48 8b 45 e8          	mov    -0x18(%rbp),%rax
ffffffff810096f3:	48 8b 40 20          	mov    0x20(%rax),%rax
ffffffff810096f7:	48 89 45 e0          	mov    %rax,-0x20(%rbp)
ffffffff810096fb:	48 8b 45 e0          	mov    -0x20(%rbp),%rax
ffffffff810096ff:	48 8b 50 28          	mov    0x28(%rax),%rdx
ffffffff81009703:	48 8b 45 e0          	mov    -0x20(%rbp),%rax
ffffffff81009707:	48 8b 40 10          	mov    0x10(%rax),%rax
ffffffff8100970b:	b9 01 00 00 00       	mov    $0x1,%ecx
ffffffff81009710:	be 00 00 00 00       	mov    $0x0,%esi
ffffffff81009715:	48 89 c7             	mov    %rax,%rdi
ffffffff81009718:	e8 2c ea ff ff       	callq  ffffffff81008149 <vmmgr_map>
ffffffff8100971d:	48 8b 55 e0          	mov    -0x20(%rbp),%rdx
ffffffff81009721:	48 89 42 18          	mov    %rax,0x18(%rdx)
ffffffff81009725:	48 8b 45 e0          	mov    -0x20(%rbp),%rax
ffffffff81009729:	48 8b 40 18          	mov    0x18(%rax),%rax
ffffffff8100972d:	48 85 c0             	test   %rax,%rax
ffffffff81009730:	75 0a                	jne    ffffffff8100973c <physmm_init+0x18a>
ffffffff81009732:	b8 ff ff ff ff       	mov    $0xffffffff,%eax
ffffffff81009737:	e9 55 01 00 00       	jmpq   ffffffff81009891 <physmm_init+0x2df>
ffffffff8100973c:	48 8b 45 e8          	mov    -0x18(%rbp),%rax
ffffffff81009740:	48 8b 50 08          	mov    0x8(%rax),%rdx
ffffffff81009744:	48 8b 05 b5 58 00 00 	mov    0x58b5(%rip),%rax        # ffffffff8100f000 <_rodata_end>
ffffffff8100974b:	48 39 c2             	cmp    %rax,%rdx
ffffffff8100974e:	0f 87 e8 00 00 00    	ja     ffffffff8100983c <physmm_init+0x28a>
ffffffff81009754:	48 8b 45 e8          	mov    -0x18(%rbp),%rax
ffffffff81009758:	48 8b 50 08          	mov    0x8(%rax),%rdx
ffffffff8100975c:	48 8b 45 e8          	mov    -0x18(%rbp),%rax
ffffffff81009760:	48 8b 40 10          	mov    0x10(%rax),%rax
ffffffff81009764:	48 01 c2             	add    %rax,%rdx
ffffffff81009767:	48 8b 05 a2 58 00 00 	mov    0x58a2(%rip),%rax        # ffffffff8100f010 <boot_paging_end>
ffffffff8100976e:	48 39 c2             	cmp    %rax,%rdx
ffffffff81009771:	0f 82 c5 00 00 00    	jb     ffffffff8100983c <physmm_init+0x28a>
ffffffff81009777:	48 8b 05 82 58 00 00 	mov    0x5882(%rip),%rax        # ffffffff8100f000 <_rodata_end>
ffffffff8100977e:	48 89 45 f0          	mov    %rax,-0x10(%rbp)
ffffffff81009782:	e9 a4 00 00 00       	jmpq   ffffffff8100982b <physmm_init+0x279>
ffffffff81009787:	48 8b 45 e8          	mov    -0x18(%rbp),%rax
ffffffff8100978b:	48 8b 40 08          	mov    0x8(%rax),%rax
ffffffff8100978f:	48 8b 55 f0          	mov    -0x10(%rbp),%rdx
ffffffff81009793:	48 29 c2             	sub    %rax,%rdx
ffffffff81009796:	48 89 d0             	mov    %rdx,%rax
ffffffff81009799:	48 c1 e8 0c          	shr    $0xc,%rax
ffffffff8100979d:	48 89 45 d0          	mov    %rax,-0x30(%rbp)
ffffffff810097a1:	48 8b 45 d0          	mov    -0x30(%rbp),%rax
ffffffff810097a5:	48 c1 e8 06          	shr    $0x6,%rax
ffffffff810097a9:	48 89 45 c8          	mov    %rax,-0x38(%rbp)
ffffffff810097ad:	48 8b 45 e0          	mov    -0x20(%rbp),%rax
ffffffff810097b1:	48 8b 40 18          	mov    0x18(%rax),%rax
ffffffff810097b5:	48 8b 55 c8          	mov    -0x38(%rbp),%rdx
ffffffff810097b9:	48 c1 e2 03          	shl    $0x3,%rdx
ffffffff810097bd:	48 01 d0             	add    %rdx,%rax
ffffffff810097c0:	48 8b 10             	mov    (%rax),%rdx
ffffffff810097c3:	48 8b 45 d0          	mov    -0x30(%rbp),%rax
ffffffff810097c7:	83 e0 3f             	and    $0x3f,%eax
ffffffff810097ca:	89 c1                	mov    %eax,%ecx
ffffffff810097cc:	48 d3 ea             	shr    %cl,%rdx
ffffffff810097cf:	48 89 d0             	mov    %rdx,%rax
ffffffff810097d2:	83 e0 01             	and    $0x1,%eax
ffffffff810097d5:	48 85 c0             	test   %rax,%rax
ffffffff810097d8:	74 49                	je     ffffffff81009823 <physmm_init+0x271>
ffffffff810097da:	48 8b 45 e0          	mov    -0x20(%rbp),%rax
ffffffff810097de:	48 8b 40 18          	mov    0x18(%rax),%rax
ffffffff810097e2:	48 8b 55 c8          	mov    -0x38(%rbp),%rdx
ffffffff810097e6:	48 c1 e2 03          	shl    $0x3,%rdx
ffffffff810097ea:	48 01 d0             	add    %rdx,%rax
ffffffff810097ed:	48 8b 10             	mov    (%rax),%rdx
ffffffff810097f0:	48 8b 45 d0          	mov    -0x30(%rbp),%rax
ffffffff810097f4:	83 e0 3f             	and    $0x3f,%eax
ffffffff810097f7:	be 01 00 00 00       	mov    $0x1,%esi
ffffffff810097fc:	89 c1                	mov    %eax,%ecx
ffffffff810097fe:	48 d3 e6             	shl    %cl,%rsi
ffffffff81009801:	48 89 f0             	mov    %rsi,%rax
ffffffff81009804:	48 f7 d0             	not    %rax
ffffffff81009807:	48 89 c6             	mov    %rax,%rsi
ffffffff8100980a:	48 8b 45 e0          	mov    -0x20(%rbp),%rax
ffffffff8100980e:	48 8b 40 18          	mov    0x18(%rax),%rax
ffffffff81009812:	48 8b 4d c8          	mov    -0x38(%rbp),%rcx
ffffffff81009816:	48 c1 e1 03          	shl    $0x3,%rcx
ffffffff8100981a:	48 01 c8             	add    %rcx,%rax
ffffffff8100981d:	48 21 f2             	and    %rsi,%rdx
ffffffff81009820:	48 89 10             	mov    %rdx,(%rax)
ffffffff81009823:	48 81 45 f0 00 10 00 	addq   $0x1000,-0x10(%rbp)
ffffffff8100982a:	00 
ffffffff8100982b:	48 8b 05 de 57 00 00 	mov    0x57de(%rip),%rax        # ffffffff8100f010 <boot_paging_end>
ffffffff81009832:	48 39 45 f0          	cmp    %rax,-0x10(%rbp)
ffffffff81009836:	0f 82 4b ff ff ff    	jb     ffffffff81009787 <physmm_init+0x1d5>
ffffffff8100983c:	48 8b 45 e0          	mov    -0x20(%rbp),%rax
ffffffff81009840:	48 8b 50 20          	mov    0x20(%rax),%rdx
ffffffff81009844:	48 8b 45 e0          	mov    -0x20(%rbp),%rax
ffffffff81009848:	48 8b 40 18          	mov    0x18(%rax),%rax
ffffffff8100984c:	48 89 c6             	mov    %rax,%rsi
ffffffff8100984f:	48 c7 c7 47 e4 00 81 	mov    $0xffffffff8100e447,%rdi
ffffffff81009856:	b8 00 00 00 00       	mov    $0x0,%eax
ffffffff8100985b:	e8 75 d8 ff ff       	callq  ffffffff810070d5 <kprintf>
ffffffff81009860:	48 83 45 f8 28       	addq   $0x28,-0x8(%rbp)
ffffffff81009865:	48 8b 05 cc 78 01 00 	mov    0x178cc(%rip),%rax        # ffffffff81021138 <physmm_root+0x38>
ffffffff8100986c:	48 39 45 f8          	cmp    %rax,-0x8(%rbp)
ffffffff81009870:	0f 82 f9 fd ff ff    	jb     ffffffff8100966f <physmm_init+0xbd>
ffffffff81009876:	48 c7 05 0f 79 01 00 	movq   $0xffffffff81009c16,0x1790f(%rip)        # ffffffff81021190 <physmm_if>
ffffffff8100987d:	16 9c 00 81 
ffffffff81009881:	48 c7 05 0c 79 01 00 	movq   $0xffffffff8100a199,0x1790c(%rip)        # ffffffff81021198 <physmm_if+0x8>
ffffffff81009888:	99 a1 00 81 
ffffffff8100988c:	b8 00 00 00 00       	mov    $0x0,%eax
ffffffff81009891:	c9                   	leaveq 
ffffffff81009892:	c3                   	retq   

ffffffff81009893 <physmm_has_contig>:
ffffffff81009893:	55                   	push   %rbp
ffffffff81009894:	48 89 e5             	mov    %rsp,%rbp
ffffffff81009897:	48 83 ec 48          	sub    $0x48,%rsp
ffffffff8100989b:	48 89 7d c8          	mov    %rdi,-0x38(%rbp)
ffffffff8100989f:	48 89 75 c0          	mov    %rsi,-0x40(%rbp)
ffffffff810098a3:	48 89 55 b8          	mov    %rdx,-0x48(%rbp)
ffffffff810098a7:	48 c7 45 f8 00 00 00 	movq   $0x0,-0x8(%rbp)
ffffffff810098ae:	00 
ffffffff810098af:	48 c7 45 f0 00 00 00 	movq   $0x0,-0x10(%rbp)
ffffffff810098b6:	00 
ffffffff810098b7:	48 c7 45 e8 00 00 00 	movq   $0x0,-0x18(%rbp)
ffffffff810098be:	00 
ffffffff810098bf:	48 c7 45 e0 00 00 00 	movq   $0x0,-0x20(%rbp)
ffffffff810098c6:	00 
ffffffff810098c7:	48 c7 45 d8 00 00 00 	movq   $0x0,-0x28(%rbp)
ffffffff810098ce:	00 
ffffffff810098cf:	48 8b 45 c8          	mov    -0x38(%rbp),%rax
ffffffff810098d3:	0f b6 00             	movzbl (%rax),%eax
ffffffff810098d6:	3c 01                	cmp    $0x1,%al
ffffffff810098d8:	74 0a                	je     ffffffff810098e4 <physmm_has_contig+0x51>
ffffffff810098da:	b8 ff ff ff ff       	mov    $0xffffffff,%eax
ffffffff810098df:	e9 34 01 00 00       	jmpq   ffffffff81009a18 <physmm_has_contig+0x185>
ffffffff810098e4:	48 8b 45 c8          	mov    -0x38(%rbp),%rax
ffffffff810098e8:	48 8b 40 20          	mov    0x20(%rax),%rax
ffffffff810098ec:	48 89 45 d8          	mov    %rax,-0x28(%rbp)
ffffffff810098f0:	48 8b 45 b8          	mov    -0x48(%rbp),%rax
ffffffff810098f4:	48 c7 00 00 00 00 00 	movq   $0x0,(%rax)
ffffffff810098fb:	e9 e7 00 00 00       	jmpq   ffffffff810099e7 <physmm_has_contig+0x154>
ffffffff81009900:	48 8b 45 c8          	mov    -0x38(%rbp),%rax
ffffffff81009904:	48 8b 40 08          	mov    0x8(%rax),%rax
ffffffff81009908:	48 8b 55 f8          	mov    -0x8(%rbp),%rdx
ffffffff8100990c:	48 c1 e2 0c          	shl    $0xc,%rdx
ffffffff81009910:	48 01 d0             	add    %rdx,%rax
ffffffff81009913:	48 3d ff ff 0f 00    	cmp    $0xfffff,%rax
ffffffff81009919:	76 25                	jbe    ffffffff81009940 <physmm_has_contig+0xad>
ffffffff8100991b:	48 8b 45 c8          	mov    -0x38(%rbp),%rax
ffffffff8100991f:	48 8b 40 08          	mov    0x8(%rax),%rax
ffffffff81009923:	48 8b 55 f8          	mov    -0x8(%rbp),%rdx
ffffffff81009927:	48 c1 e2 0c          	shl    $0xc,%rdx
ffffffff8100992b:	48 01 d0             	add    %rdx,%rax
ffffffff8100992e:	48 3d ff ff ff 00    	cmp    $0xffffff,%rax
ffffffff81009934:	77 0a                	ja     ffffffff81009940 <physmm_has_contig+0xad>
ffffffff81009936:	48 83 45 f8 01       	addq   $0x1,-0x8(%rbp)
ffffffff8100993b:	e9 a7 00 00 00       	jmpq   ffffffff810099e7 <physmm_has_contig+0x154>
ffffffff81009940:	48 8b 45 f8          	mov    -0x8(%rbp),%rax
ffffffff81009944:	83 e0 3f             	and    $0x3f,%eax
ffffffff81009947:	48 85 c0             	test   %rax,%rax
ffffffff8100994a:	74 5a                	je     ffffffff810099a6 <physmm_has_contig+0x113>
ffffffff8100994c:	48 8b 45 d8          	mov    -0x28(%rbp),%rax
ffffffff81009950:	48 8b 40 18          	mov    0x18(%rax),%rax
ffffffff81009954:	48 8b 55 e8          	mov    -0x18(%rbp),%rdx
ffffffff81009958:	48 c1 e2 03          	shl    $0x3,%rdx
ffffffff8100995c:	48 01 d0             	add    %rdx,%rax
ffffffff8100995f:	48 8b 10             	mov    (%rax),%rdx
ffffffff81009962:	48 8b 45 f8          	mov    -0x8(%rbp),%rax
ffffffff81009966:	83 e0 3f             	and    $0x3f,%eax
ffffffff81009969:	be 01 00 00 00       	mov    $0x1,%esi
ffffffff8100996e:	89 c1                	mov    %eax,%ecx
ffffffff81009970:	d3 e6                	shl    %cl,%esi
ffffffff81009972:	89 f0                	mov    %esi,%eax
ffffffff81009974:	48 98                	cltq   
ffffffff81009976:	48 21 d0             	and    %rdx,%rax
ffffffff81009979:	48 85 c0             	test   %rax,%rax
ffffffff8100997c:	74 0a                	je     ffffffff81009988 <physmm_has_contig+0xf5>
ffffffff8100997e:	48 c7 45 f0 00 00 00 	movq   $0x0,-0x10(%rbp)
ffffffff81009985:	00 
ffffffff81009986:	eb 17                	jmp    ffffffff8100999f <physmm_has_contig+0x10c>
ffffffff81009988:	48 83 7d f0 00       	cmpq   $0x0,-0x10(%rbp)
ffffffff8100998d:	75 0b                	jne    ffffffff8100999a <physmm_has_contig+0x107>
ffffffff8100998f:	48 8b 45 b8          	mov    -0x48(%rbp),%rax
ffffffff81009993:	48 8b 55 f8          	mov    -0x8(%rbp),%rdx
ffffffff81009997:	48 89 10             	mov    %rdx,(%rax)
ffffffff8100999a:	48 83 45 f0 01       	addq   $0x1,-0x10(%rbp)
ffffffff8100999f:	48 83 45 f8 01       	addq   $0x1,-0x8(%rbp)
ffffffff810099a4:	eb 30                	jmp    ffffffff810099d6 <physmm_has_contig+0x143>
ffffffff810099a6:	48 8b 45 d8          	mov    -0x28(%rbp),%rax
ffffffff810099aa:	48 8b 40 18          	mov    0x18(%rax),%rax
ffffffff810099ae:	48 8b 55 e8          	mov    -0x18(%rbp),%rdx
ffffffff810099b2:	48 c1 e2 03          	shl    $0x3,%rdx
ffffffff810099b6:	48 01 d0             	add    %rdx,%rax
ffffffff810099b9:	48 8b 00             	mov    (%rax),%rax
ffffffff810099bc:	48 85 c0             	test   %rax,%rax
ffffffff810099bf:	75 10                	jne    ffffffff810099d1 <physmm_has_contig+0x13e>
ffffffff810099c1:	48 83 45 f0 40       	addq   $0x40,-0x10(%rbp)
ffffffff810099c6:	48 8b 45 b8          	mov    -0x48(%rbp),%rax
ffffffff810099ca:	48 8b 55 f8          	mov    -0x8(%rbp),%rdx
ffffffff810099ce:	48 89 10             	mov    %rdx,(%rax)
ffffffff810099d1:	48 83 45 f8 40       	addq   $0x40,-0x8(%rbp)
ffffffff810099d6:	48 8b 45 f8          	mov    -0x8(%rbp),%rax
ffffffff810099da:	83 e0 3f             	and    $0x3f,%eax
ffffffff810099dd:	48 85 c0             	test   %rax,%rax
ffffffff810099e0:	75 05                	jne    ffffffff810099e7 <physmm_has_contig+0x154>
ffffffff810099e2:	48 83 45 e8 01       	addq   $0x1,-0x18(%rbp)
ffffffff810099e7:	48 8b 45 d8          	mov    -0x28(%rbp),%rax
ffffffff810099eb:	48 8b 00             	mov    (%rax),%rax
ffffffff810099ee:	48 39 45 f8          	cmp    %rax,-0x8(%rbp)
ffffffff810099f2:	73 0e                	jae    ffffffff81009a02 <physmm_has_contig+0x16f>
ffffffff810099f4:	48 8b 45 f0          	mov    -0x10(%rbp),%rax
ffffffff810099f8:	48 3b 45 c0          	cmp    -0x40(%rbp),%rax
ffffffff810099fc:	0f 82 fe fe ff ff    	jb     ffffffff81009900 <physmm_has_contig+0x6d>
ffffffff81009a02:	48 8b 45 f0          	mov    -0x10(%rbp),%rax
ffffffff81009a06:	48 3b 45 c0          	cmp    -0x40(%rbp),%rax
ffffffff81009a0a:	73 07                	jae    ffffffff81009a13 <physmm_has_contig+0x180>
ffffffff81009a0c:	b8 ff ff ff ff       	mov    $0xffffffff,%eax
ffffffff81009a11:	eb 05                	jmp    ffffffff81009a18 <physmm_has_contig+0x185>
ffffffff81009a13:	b8 00 00 00 00       	mov    $0x0,%eax
ffffffff81009a18:	c9                   	leaveq 
ffffffff81009a19:	c3                   	retq   

ffffffff81009a1a <physmm_find_highest_mem>:
ffffffff81009a1a:	55                   	push   %rbp
ffffffff81009a1b:	48 89 e5             	mov    %rsp,%rbp
ffffffff81009a1e:	48 83 ec 38          	sub    $0x38,%rsp
ffffffff81009a22:	48 89 7d c8          	mov    %rdi,-0x38(%rbp)
ffffffff81009a26:	48 8b 05 eb 76 01 00 	mov    0x176eb(%rip),%rax        # ffffffff81021118 <physmm_root+0x18>
ffffffff81009a2d:	48 89 45 f0          	mov    %rax,-0x10(%rbp)
ffffffff81009a31:	48 c7 45 e8 00 00 00 	movq   $0x0,-0x18(%rbp)
ffffffff81009a38:	00 
ffffffff81009a39:	48 c7 45 e0 00 00 00 	movq   $0x0,-0x20(%rbp)
ffffffff81009a40:	00 
ffffffff81009a41:	48 c7 45 d8 00 00 00 	movq   $0x0,-0x28(%rbp)
ffffffff81009a48:	00 
ffffffff81009a49:	48 8b 05 e8 76 01 00 	mov    0x176e8(%rip),%rax        # ffffffff81021138 <physmm_root+0x38>
ffffffff81009a50:	48 ba cd cc cc cc cc 	movabs $0xcccccccccccccccd,%rdx
ffffffff81009a57:	cc cc cc 
ffffffff81009a5a:	48 f7 e2             	mul    %rdx
ffffffff81009a5d:	48 89 d0             	mov    %rdx,%rax
ffffffff81009a60:	48 c1 e8 05          	shr    $0x5,%rax
ffffffff81009a64:	48 89 45 e0          	mov    %rax,-0x20(%rbp)
ffffffff81009a68:	48 8b 45 e0          	mov    -0x20(%rbp),%rax
ffffffff81009a6c:	48 89 45 f8          	mov    %rax,-0x8(%rbp)
ffffffff81009a70:	e9 a6 00 00 00       	jmpq   ffffffff81009b1b <physmm_find_highest_mem+0x101>
ffffffff81009a75:	48 8b 55 f8          	mov    -0x8(%rbp),%rdx
ffffffff81009a79:	48 89 d0             	mov    %rdx,%rax
ffffffff81009a7c:	48 c1 e0 02          	shl    $0x2,%rax
ffffffff81009a80:	48 01 d0             	add    %rdx,%rax
ffffffff81009a83:	48 c1 e0 03          	shl    $0x3,%rax
ffffffff81009a87:	48 8d 50 d8          	lea    -0x28(%rax),%rdx
ffffffff81009a8b:	48 8b 45 f0          	mov    -0x10(%rbp),%rax
ffffffff81009a8f:	48 01 d0             	add    %rdx,%rax
ffffffff81009a92:	0f b6 00             	movzbl (%rax),%eax
ffffffff81009a95:	3c 01                	cmp    $0x1,%al
ffffffff81009a97:	75 79                	jne    ffffffff81009b12 <physmm_find_highest_mem+0xf8>
ffffffff81009a99:	48 8b 55 f8          	mov    -0x8(%rbp),%rdx
ffffffff81009a9d:	48 89 d0             	mov    %rdx,%rax
ffffffff81009aa0:	48 c1 e0 02          	shl    $0x2,%rax
ffffffff81009aa4:	48 01 d0             	add    %rdx,%rax
ffffffff81009aa7:	48 c1 e0 03          	shl    $0x3,%rax
ffffffff81009aab:	48 8d 50 d8          	lea    -0x28(%rax),%rdx
ffffffff81009aaf:	48 8b 45 f0          	mov    -0x10(%rbp),%rax
ffffffff81009ab3:	48 01 d0             	add    %rdx,%rax
ffffffff81009ab6:	48 8b 40 08          	mov    0x8(%rax),%rax
ffffffff81009aba:	48 3d ff ff 0f 00    	cmp    $0xfffff,%rax
ffffffff81009ac0:	76 53                	jbe    ffffffff81009b15 <physmm_find_highest_mem+0xfb>
ffffffff81009ac2:	48 8b 55 f8          	mov    -0x8(%rbp),%rdx
ffffffff81009ac6:	48 89 d0             	mov    %rdx,%rax
ffffffff81009ac9:	48 c1 e0 02          	shl    $0x2,%rax
ffffffff81009acd:	48 01 d0             	add    %rdx,%rax
ffffffff81009ad0:	48 c1 e0 03          	shl    $0x3,%rax
ffffffff81009ad4:	48 8d 50 d8          	lea    -0x28(%rax),%rdx
ffffffff81009ad8:	48 8b 45 f0          	mov    -0x10(%rbp),%rax
ffffffff81009adc:	48 01 d0             	add    %rdx,%rax
ffffffff81009adf:	48 8b 40 20          	mov    0x20(%rax),%rax
ffffffff81009ae3:	48 89 45 e8          	mov    %rax,-0x18(%rbp)
ffffffff81009ae7:	48 8b 45 e8          	mov    -0x18(%rbp),%rax
ffffffff81009aeb:	48 8b 40 08          	mov    0x8(%rax),%rax
ffffffff81009aef:	48 01 45 d8          	add    %rax,-0x28(%rbp)
ffffffff81009af3:	48 8b 55 f8          	mov    -0x8(%rbp),%rdx
ffffffff81009af7:	48 89 d0             	mov    %rdx,%rax
ffffffff81009afa:	48 c1 e0 02          	shl    $0x2,%rax
ffffffff81009afe:	48 01 d0             	add    %rdx,%rax
ffffffff81009b01:	48 c1 e0 03          	shl    $0x3,%rax
ffffffff81009b05:	48 8d 50 d8          	lea    -0x28(%rax),%rdx
ffffffff81009b09:	48 8b 45 f0          	mov    -0x10(%rbp),%rax
ffffffff81009b0d:	48 01 d0             	add    %rdx,%rax
ffffffff81009b10:	eb 19                	jmp    ffffffff81009b2b <physmm_find_highest_mem+0x111>
ffffffff81009b12:	90                   	nop
ffffffff81009b13:	eb 01                	jmp    ffffffff81009b16 <physmm_find_highest_mem+0xfc>
ffffffff81009b15:	90                   	nop
ffffffff81009b16:	48 83 6d f8 01       	subq   $0x1,-0x8(%rbp)
ffffffff81009b1b:	48 83 7d f8 00       	cmpq   $0x0,-0x8(%rbp)
ffffffff81009b20:	0f 85 4f ff ff ff    	jne    ffffffff81009a75 <physmm_find_highest_mem+0x5b>
ffffffff81009b26:	b8 00 00 00 00       	mov    $0x0,%eax
ffffffff81009b2b:	c9                   	leaveq 
ffffffff81009b2c:	c3                   	retq   

ffffffff81009b2d <physmm_find_contig>:
ffffffff81009b2d:	55                   	push   %rbp
ffffffff81009b2e:	48 89 e5             	mov    %rsp,%rbp
ffffffff81009b31:	48 83 ec 38          	sub    $0x38,%rsp
ffffffff81009b35:	48 89 7d d8          	mov    %rdi,-0x28(%rbp)
ffffffff81009b39:	89 f0                	mov    %esi,%eax
ffffffff81009b3b:	48 89 55 c8          	mov    %rdx,-0x38(%rbp)
ffffffff81009b3f:	88 45 d4             	mov    %al,-0x2c(%rbp)
ffffffff81009b42:	48 8b 05 cf 75 01 00 	mov    0x175cf(%rip),%rax        # ffffffff81021118 <physmm_root+0x18>
ffffffff81009b49:	48 89 45 f0          	mov    %rax,-0x10(%rbp)
ffffffff81009b4d:	48 c7 45 e8 00 00 00 	movq   $0x0,-0x18(%rbp)
ffffffff81009b54:	00 
ffffffff81009b55:	48 c7 45 e0 00 00 00 	movq   $0x0,-0x20(%rbp)
ffffffff81009b5c:	00 
ffffffff81009b5d:	48 8b 05 d4 75 01 00 	mov    0x175d4(%rip),%rax        # ffffffff81021138 <physmm_root+0x38>
ffffffff81009b64:	48 ba cd cc cc cc cc 	movabs $0xcccccccccccccccd,%rdx
ffffffff81009b6b:	cc cc cc 
ffffffff81009b6e:	48 f7 e2             	mul    %rdx
ffffffff81009b71:	48 89 d0             	mov    %rdx,%rax
ffffffff81009b74:	48 c1 e8 05          	shr    $0x5,%rax
ffffffff81009b78:	48 89 45 e0          	mov    %rax,-0x20(%rbp)
ffffffff81009b7c:	48 c7 45 f8 00 00 00 	movq   $0x0,-0x8(%rbp)
ffffffff81009b83:	00 
ffffffff81009b84:	eb 7b                	jmp    ffffffff81009c01 <physmm_find_contig+0xd4>
ffffffff81009b86:	48 8b 55 f8          	mov    -0x8(%rbp),%rdx
ffffffff81009b8a:	48 89 d0             	mov    %rdx,%rax
ffffffff81009b8d:	48 c1 e0 02          	shl    $0x2,%rax
ffffffff81009b91:	48 01 d0             	add    %rdx,%rax
ffffffff81009b94:	48 c1 e0 03          	shl    $0x3,%rax
ffffffff81009b98:	48 89 c2             	mov    %rax,%rdx
ffffffff81009b9b:	48 8b 45 f0          	mov    -0x10(%rbp),%rax
ffffffff81009b9f:	48 01 d0             	add    %rdx,%rax
ffffffff81009ba2:	0f b6 00             	movzbl (%rax),%eax
ffffffff81009ba5:	3c 01                	cmp    $0x1,%al
ffffffff81009ba7:	75 52                	jne    ffffffff81009bfb <physmm_find_contig+0xce>
ffffffff81009ba9:	48 8b 55 f8          	mov    -0x8(%rbp),%rdx
ffffffff81009bad:	48 89 d0             	mov    %rdx,%rax
ffffffff81009bb0:	48 c1 e0 02          	shl    $0x2,%rax
ffffffff81009bb4:	48 01 d0             	add    %rdx,%rax
ffffffff81009bb7:	48 c1 e0 03          	shl    $0x3,%rax
ffffffff81009bbb:	48 89 c2             	mov    %rax,%rdx
ffffffff81009bbe:	48 8b 45 f0          	mov    -0x10(%rbp),%rax
ffffffff81009bc2:	48 8d 0c 02          	lea    (%rdx,%rax,1),%rcx
ffffffff81009bc6:	48 8b 55 c8          	mov    -0x38(%rbp),%rdx
ffffffff81009bca:	48 8b 45 d8          	mov    -0x28(%rbp),%rax
ffffffff81009bce:	48 89 c6             	mov    %rax,%rsi
ffffffff81009bd1:	48 89 cf             	mov    %rcx,%rdi
ffffffff81009bd4:	e8 ba fc ff ff       	callq  ffffffff81009893 <physmm_has_contig>
ffffffff81009bd9:	85 c0                	test   %eax,%eax
ffffffff81009bdb:	75 1f                	jne    ffffffff81009bfc <physmm_find_contig+0xcf>
ffffffff81009bdd:	48 8b 55 f8          	mov    -0x8(%rbp),%rdx
ffffffff81009be1:	48 89 d0             	mov    %rdx,%rax
ffffffff81009be4:	48 c1 e0 02          	shl    $0x2,%rax
ffffffff81009be8:	48 01 d0             	add    %rdx,%rax
ffffffff81009beb:	48 c1 e0 03          	shl    $0x3,%rax
ffffffff81009bef:	48 89 c2             	mov    %rax,%rdx
ffffffff81009bf2:	48 8b 45 f0          	mov    -0x10(%rbp),%rax
ffffffff81009bf6:	48 01 d0             	add    %rdx,%rax
ffffffff81009bf9:	eb 19                	jmp    ffffffff81009c14 <physmm_find_contig+0xe7>
ffffffff81009bfb:	90                   	nop
ffffffff81009bfc:	48 83 45 f8 01       	addq   $0x1,-0x8(%rbp)
ffffffff81009c01:	48 8b 45 f8          	mov    -0x8(%rbp),%rax
ffffffff81009c05:	48 3b 45 e0          	cmp    -0x20(%rbp),%rax
ffffffff81009c09:	0f 82 77 ff ff ff    	jb     ffffffff81009b86 <physmm_find_contig+0x59>
ffffffff81009c0f:	b8 00 00 00 00       	mov    $0x0,%eax
ffffffff81009c14:	c9                   	leaveq 
ffffffff81009c15:	c3                   	retq   

ffffffff81009c16 <physmm_alloc_pf>:
ffffffff81009c16:	55                   	push   %rbp
ffffffff81009c17:	48 89 e5             	mov    %rsp,%rbp
ffffffff81009c1a:	48 81 ec a0 00 00 00 	sub    $0xa0,%rsp
ffffffff81009c21:	48 89 bd 78 ff ff ff 	mov    %rdi,-0x88(%rbp)
ffffffff81009c28:	89 f0                	mov    %esi,%eax
ffffffff81009c2a:	48 89 95 68 ff ff ff 	mov    %rdx,-0x98(%rbp)
ffffffff81009c31:	48 89 8d 60 ff ff ff 	mov    %rcx,-0xa0(%rbp)
ffffffff81009c38:	88 85 74 ff ff ff    	mov    %al,-0x8c(%rbp)
ffffffff81009c3e:	48 8b 05 d3 74 01 00 	mov    0x174d3(%rip),%rax        # ffffffff81021118 <physmm_root+0x18>
ffffffff81009c45:	48 89 45 f8          	mov    %rax,-0x8(%rbp)
ffffffff81009c49:	48 c7 45 c8 00 00 00 	movq   $0x0,-0x38(%rbp)
ffffffff81009c50:	00 
ffffffff81009c51:	48 c7 45 f0 00 00 00 	movq   $0x0,-0x10(%rbp)
ffffffff81009c58:	00 
ffffffff81009c59:	48 c7 45 88 00 00 00 	movq   $0x0,-0x78(%rbp)
ffffffff81009c60:	00 
ffffffff81009c61:	48 c7 45 c0 00 00 00 	movq   $0x0,-0x40(%rbp)
ffffffff81009c68:	00 
ffffffff81009c69:	48 c7 45 b8 00 00 00 	movq   $0x0,-0x48(%rbp)
ffffffff81009c70:	00 
ffffffff81009c71:	48 c7 45 b0 00 00 00 	movq   $0x0,-0x50(%rbp)
ffffffff81009c78:	00 
ffffffff81009c79:	48 c7 45 a8 00 00 00 	movq   $0x0,-0x58(%rbp)
ffffffff81009c80:	00 
ffffffff81009c81:	48 c7 45 a0 00 00 00 	movq   $0x0,-0x60(%rbp)
ffffffff81009c88:	00 
ffffffff81009c89:	c6 45 ef 00          	movb   $0x0,-0x11(%rbp)
ffffffff81009c8d:	48 c7 45 e0 00 00 00 	movq   $0x0,-0x20(%rbp)
ffffffff81009c94:	00 
ffffffff81009c95:	48 c7 45 98 00 00 00 	movq   $0x0,-0x68(%rbp)
ffffffff81009c9c:	00 
ffffffff81009c9d:	48 c7 45 90 00 00 00 	movq   $0x0,-0x70(%rbp)
ffffffff81009ca4:	00 
ffffffff81009ca5:	0f b6 85 74 ff ff ff 	movzbl -0x8c(%rbp),%eax
ffffffff81009cac:	83 e0 04             	and    $0x4,%eax
ffffffff81009caf:	85 c0                	test   %eax,%eax
ffffffff81009cb1:	74 32                	je     ffffffff81009ce5 <physmm_alloc_pf+0xcf>
ffffffff81009cb3:	0f b6 85 74 ff ff ff 	movzbl -0x8c(%rbp),%eax
ffffffff81009cba:	83 e0 01             	and    $0x1,%eax
ffffffff81009cbd:	85 c0                	test   %eax,%eax
ffffffff81009cbf:	75 24                	jne    ffffffff81009ce5 <physmm_alloc_pf+0xcf>
ffffffff81009cc1:	48 8b 85 78 ff ff ff 	mov    -0x88(%rbp),%rax
ffffffff81009cc8:	48 89 c7             	mov    %rax,%rdi
ffffffff81009ccb:	e8 4a fd ff ff       	callq  ffffffff81009a1a <physmm_find_highest_mem>
ffffffff81009cd0:	48 89 45 f8          	mov    %rax,-0x8(%rbp)
ffffffff81009cd4:	48 83 7d f8 00       	cmpq   $0x0,-0x8(%rbp)
ffffffff81009cd9:	75 57                	jne    ffffffff81009d32 <physmm_alloc_pf+0x11c>
ffffffff81009cdb:	b8 ff ff ff ff       	mov    $0xffffffff,%eax
ffffffff81009ce0:	e9 49 04 00 00       	jmpq   ffffffff8100a12e <physmm_alloc_pf+0x518>
ffffffff81009ce5:	0f b6 85 74 ff ff ff 	movzbl -0x8c(%rbp),%eax
ffffffff81009cec:	83 e0 01             	and    $0x1,%eax
ffffffff81009cef:	85 c0                	test   %eax,%eax
ffffffff81009cf1:	74 3f                	je     ffffffff81009d32 <physmm_alloc_pf+0x11c>
ffffffff81009cf3:	0f b6 85 74 ff ff ff 	movzbl -0x8c(%rbp),%eax
ffffffff81009cfa:	83 e0 04             	and    $0x4,%eax
ffffffff81009cfd:	85 c0                	test   %eax,%eax
ffffffff81009cff:	75 31                	jne    ffffffff81009d32 <physmm_alloc_pf+0x11c>
ffffffff81009d01:	0f b6 8d 74 ff ff ff 	movzbl -0x8c(%rbp),%ecx
ffffffff81009d08:	48 8d 55 88          	lea    -0x78(%rbp),%rdx
ffffffff81009d0c:	48 8b 85 78 ff ff ff 	mov    -0x88(%rbp),%rax
ffffffff81009d13:	89 ce                	mov    %ecx,%esi
ffffffff81009d15:	48 89 c7             	mov    %rax,%rdi
ffffffff81009d18:	e8 10 fe ff ff       	callq  ffffffff81009b2d <physmm_find_contig>
ffffffff81009d1d:	48 89 45 f8          	mov    %rax,-0x8(%rbp)
ffffffff81009d21:	48 83 7d f8 00       	cmpq   $0x0,-0x8(%rbp)
ffffffff81009d26:	75 0a                	jne    ffffffff81009d32 <physmm_alloc_pf+0x11c>
ffffffff81009d28:	b8 ff ff ff ff       	mov    $0xffffffff,%eax
ffffffff81009d2d:	e9 fc 03 00 00       	jmpq   ffffffff8100a12e <physmm_alloc_pf+0x518>
ffffffff81009d32:	0f b6 85 74 ff ff ff 	movzbl -0x8c(%rbp),%eax
ffffffff81009d39:	83 e0 10             	and    $0x10,%eax
ffffffff81009d3c:	85 c0                	test   %eax,%eax
ffffffff81009d3e:	74 0b                	je     ffffffff81009d4b <physmm_alloc_pf+0x135>
ffffffff81009d40:	48 c7 85 78 ff ff ff 	movq   $0xffffffffffffffff,-0x88(%rbp)
ffffffff81009d47:	ff ff ff ff 
ffffffff81009d4b:	48 8b 55 f8          	mov    -0x8(%rbp),%rdx
ffffffff81009d4f:	48 8b 05 c2 73 01 00 	mov    0x173c2(%rip),%rax        # ffffffff81021118 <physmm_root+0x18>
ffffffff81009d56:	48 29 c2             	sub    %rax,%rdx
ffffffff81009d59:	48 89 d0             	mov    %rdx,%rax
ffffffff81009d5c:	48 ba cd cc cc cc cc 	movabs $0xcccccccccccccccd,%rdx
ffffffff81009d63:	cc cc cc 
ffffffff81009d66:	48 f7 e2             	mul    %rdx
ffffffff81009d69:	48 89 d0             	mov    %rdx,%rax
ffffffff81009d6c:	48 c1 e8 05          	shr    $0x5,%rax
ffffffff81009d70:	48 89 45 c0          	mov    %rax,-0x40(%rbp)
ffffffff81009d74:	48 8b 05 bd 73 01 00 	mov    0x173bd(%rip),%rax        # ffffffff81021138 <physmm_root+0x38>
ffffffff81009d7b:	48 ba cd cc cc cc cc 	movabs $0xcccccccccccccccd,%rdx
ffffffff81009d82:	cc cc cc 
ffffffff81009d85:	48 f7 e2             	mul    %rdx
ffffffff81009d88:	48 89 d0             	mov    %rdx,%rax
ffffffff81009d8b:	48 c1 e8 05          	shr    $0x5,%rax
ffffffff81009d8f:	48 89 45 b8          	mov    %rax,-0x48(%rbp)
ffffffff81009d93:	48 8b 05 7e 73 01 00 	mov    0x1737e(%rip),%rax        # ffffffff81021118 <physmm_root+0x18>
ffffffff81009d9a:	48 89 45 f8          	mov    %rax,-0x8(%rbp)
ffffffff81009d9e:	48 8b 45 c0          	mov    -0x40(%rbp),%rax
ffffffff81009da2:	48 89 45 d8          	mov    %rax,-0x28(%rbp)
ffffffff81009da6:	e9 4e 03 00 00       	jmpq   ffffffff8100a0f9 <physmm_alloc_pf+0x4e3>
ffffffff81009dab:	48 8b 55 d8          	mov    -0x28(%rbp),%rdx
ffffffff81009daf:	48 89 d0             	mov    %rdx,%rax
ffffffff81009db2:	48 c1 e0 02          	shl    $0x2,%rax
ffffffff81009db6:	48 01 d0             	add    %rdx,%rax
ffffffff81009db9:	48 c1 e0 03          	shl    $0x3,%rax
ffffffff81009dbd:	48 89 c2             	mov    %rax,%rdx
ffffffff81009dc0:	48 8b 45 f8          	mov    -0x8(%rbp),%rax
ffffffff81009dc4:	48 01 d0             	add    %rdx,%rax
ffffffff81009dc7:	0f b6 00             	movzbl (%rax),%eax
ffffffff81009dca:	3c 01                	cmp    $0x1,%al
ffffffff81009dcc:	0f 85 21 03 00 00    	jne    ffffffff8100a0f3 <physmm_alloc_pf+0x4dd>
ffffffff81009dd2:	48 c7 45 88 00 00 00 	movq   $0x0,-0x78(%rbp)
ffffffff81009dd9:	00 
ffffffff81009dda:	48 8b 55 d8          	mov    -0x28(%rbp),%rdx
ffffffff81009dde:	48 89 d0             	mov    %rdx,%rax
ffffffff81009de1:	48 c1 e0 02          	shl    $0x2,%rax
ffffffff81009de5:	48 01 d0             	add    %rdx,%rax
ffffffff81009de8:	48 c1 e0 03          	shl    $0x3,%rax
ffffffff81009dec:	48 89 c2             	mov    %rax,%rdx
ffffffff81009def:	48 8b 45 f8          	mov    -0x8(%rbp),%rax
ffffffff81009df3:	48 01 d0             	add    %rdx,%rax
ffffffff81009df6:	48 8b 40 20          	mov    0x20(%rax),%rax
ffffffff81009dfa:	48 89 45 c8          	mov    %rax,-0x38(%rbp)
ffffffff81009dfe:	e9 aa 02 00 00       	jmpq   ffffffff8100a0ad <physmm_alloc_pf+0x497>
ffffffff81009e03:	48 8b 55 d8          	mov    -0x28(%rbp),%rdx
ffffffff81009e07:	48 89 d0             	mov    %rdx,%rax
ffffffff81009e0a:	48 c1 e0 02          	shl    $0x2,%rax
ffffffff81009e0e:	48 01 d0             	add    %rdx,%rax
ffffffff81009e11:	48 c1 e0 03          	shl    $0x3,%rax
ffffffff81009e15:	48 89 c2             	mov    %rax,%rdx
ffffffff81009e18:	48 8b 45 f8          	mov    -0x8(%rbp),%rax
ffffffff81009e1c:	48 01 d0             	add    %rdx,%rax
ffffffff81009e1f:	48 8b 40 08          	mov    0x8(%rax),%rax
ffffffff81009e23:	48 8b 55 88          	mov    -0x78(%rbp),%rdx
ffffffff81009e27:	48 c1 e2 0c          	shl    $0xc,%rdx
ffffffff81009e2b:	48 01 d0             	add    %rdx,%rax
ffffffff81009e2e:	48 89 45 a8          	mov    %rax,-0x58(%rbp)
ffffffff81009e32:	48 8b 45 88          	mov    -0x78(%rbp),%rax
ffffffff81009e36:	48 c1 e8 06          	shr    $0x6,%rax
ffffffff81009e3a:	48 89 45 b0          	mov    %rax,-0x50(%rbp)
ffffffff81009e3e:	48 8b 45 88          	mov    -0x78(%rbp),%rax
ffffffff81009e42:	83 e0 3f             	and    $0x3f,%eax
ffffffff81009e45:	48 89 45 90          	mov    %rax,-0x70(%rbp)
ffffffff81009e49:	0f b6 85 74 ff ff ff 	movzbl -0x8c(%rbp),%eax
ffffffff81009e50:	83 e0 08             	and    $0x8,%eax
ffffffff81009e53:	85 c0                	test   %eax,%eax
ffffffff81009e55:	75 21                	jne    ffffffff81009e78 <physmm_alloc_pf+0x262>
ffffffff81009e57:	48 81 7d a8 ff ff 0f 	cmpq   $0xfffff,-0x58(%rbp)
ffffffff81009e5e:	00 
ffffffff81009e5f:	76 38                	jbe    ffffffff81009e99 <physmm_alloc_pf+0x283>
ffffffff81009e61:	48 81 7d a8 ff ff ff 	cmpq   $0xffffff,-0x58(%rbp)
ffffffff81009e68:	00 
ffffffff81009e69:	77 2e                	ja     ffffffff81009e99 <physmm_alloc_pf+0x283>
ffffffff81009e6b:	48 c7 45 88 00 10 00 	movq   $0x1000,-0x78(%rbp)
ffffffff81009e72:	00 
ffffffff81009e73:	e9 35 02 00 00       	jmpq   ffffffff8100a0ad <physmm_alloc_pf+0x497>
ffffffff81009e78:	48 81 7d a8 ff ff ff 	cmpq   $0xffffff,-0x58(%rbp)
ffffffff81009e7f:	00 
ffffffff81009e80:	76 09                	jbe    ffffffff81009e8b <physmm_alloc_pf+0x275>
ffffffff81009e82:	c6 45 ef 01          	movb   $0x1,-0x11(%rbp)
ffffffff81009e86:	e9 53 02 00 00       	jmpq   ffffffff8100a0de <physmm_alloc_pf+0x4c8>
ffffffff81009e8b:	48 81 7d a8 ff ff 0f 	cmpq   $0xfffff,-0x58(%rbp)
ffffffff81009e92:	00 
ffffffff81009e93:	0f 86 44 02 00 00    	jbe    ffffffff8100a0dd <physmm_alloc_pf+0x4c7>
ffffffff81009e99:	48 81 7d a8 ff ff 0f 	cmpq   $0xfffff,-0x58(%rbp)
ffffffff81009ea0:	00 
ffffffff81009ea1:	77 11                	ja     ffffffff81009eb4 <physmm_alloc_pf+0x29e>
ffffffff81009ea3:	48 8b 45 88          	mov    -0x78(%rbp),%rax
ffffffff81009ea7:	48 83 c0 01          	add    $0x1,%rax
ffffffff81009eab:	48 89 45 88          	mov    %rax,-0x78(%rbp)
ffffffff81009eaf:	e9 f9 01 00 00       	jmpq   ffffffff8100a0ad <physmm_alloc_pf+0x497>
ffffffff81009eb4:	48 83 7d 90 00       	cmpq   $0x0,-0x70(%rbp)
ffffffff81009eb9:	0f 85 23 01 00 00    	jne    ffffffff81009fe2 <physmm_alloc_pf+0x3cc>
ffffffff81009ebf:	48 8b 45 c8          	mov    -0x38(%rbp),%rax
ffffffff81009ec3:	48 8b 40 18          	mov    0x18(%rax),%rax
ffffffff81009ec7:	48 8b 55 b0          	mov    -0x50(%rbp),%rdx
ffffffff81009ecb:	48 c1 e2 03          	shl    $0x3,%rdx
ffffffff81009ecf:	48 01 d0             	add    %rdx,%rax
ffffffff81009ed2:	48 8b 00             	mov    (%rax),%rax
ffffffff81009ed5:	48 85 c0             	test   %rax,%rax
ffffffff81009ed8:	0f 85 04 01 00 00    	jne    ffffffff81009fe2 <physmm_alloc_pf+0x3cc>
ffffffff81009ede:	48 8b 85 78 ff ff ff 	mov    -0x88(%rbp),%rax
ffffffff81009ee5:	48 2b 45 f0          	sub    -0x10(%rbp),%rax
ffffffff81009ee9:	ba 40 00 00 00       	mov    $0x40,%edx
ffffffff81009eee:	48 83 f8 40          	cmp    $0x40,%rax
ffffffff81009ef2:	48 0f 47 c2          	cmova  %rdx,%rax
ffffffff81009ef6:	48 89 45 a0          	mov    %rax,-0x60(%rbp)
ffffffff81009efa:	48 8b 95 60 ff ff ff 	mov    -0xa0(%rbp),%rdx
ffffffff81009f01:	48 8b 4d a0          	mov    -0x60(%rbp),%rcx
ffffffff81009f05:	48 8b 45 a8          	mov    -0x58(%rbp),%rax
ffffffff81009f09:	4c 8b 85 68 ff ff ff 	mov    -0x98(%rbp),%r8
ffffffff81009f10:	48 89 ce             	mov    %rcx,%rsi
ffffffff81009f13:	48 89 c7             	mov    %rax,%rdi
ffffffff81009f16:	41 ff d0             	callq  *%r8
ffffffff81009f19:	48 89 45 98          	mov    %rax,-0x68(%rbp)
ffffffff81009f1d:	48 83 7d 98 00       	cmpq   $0x0,-0x68(%rbp)
ffffffff81009f22:	75 09                	jne    ffffffff81009f2d <physmm_alloc_pf+0x317>
ffffffff81009f24:	c6 45 ef 01          	movb   $0x1,-0x11(%rbp)
ffffffff81009f28:	e9 b1 01 00 00       	jmpq   ffffffff8100a0de <physmm_alloc_pf+0x4c8>
ffffffff81009f2d:	b8 40 00 00 00       	mov    $0x40,%eax
ffffffff81009f32:	48 83 7d 98 40       	cmpq   $0x40,-0x68(%rbp)
ffffffff81009f37:	48 0f 46 45 98       	cmovbe -0x68(%rbp),%rax
ffffffff81009f3c:	48 89 45 98          	mov    %rax,-0x68(%rbp)
ffffffff81009f40:	48 c7 45 e0 00 00 00 	movq   $0x0,-0x20(%rbp)
ffffffff81009f47:	00 
ffffffff81009f48:	48 c7 45 d0 00 00 00 	movq   $0x0,-0x30(%rbp)
ffffffff81009f4f:	00 
ffffffff81009f50:	eb 1a                	jmp    ffffffff81009f6c <physmm_alloc_pf+0x356>
ffffffff81009f52:	48 8b 45 d0          	mov    -0x30(%rbp),%rax
ffffffff81009f56:	ba 01 00 00 00       	mov    $0x1,%edx
ffffffff81009f5b:	89 c1                	mov    %eax,%ecx
ffffffff81009f5d:	48 d3 e2             	shl    %cl,%rdx
ffffffff81009f60:	48 89 d0             	mov    %rdx,%rax
ffffffff81009f63:	48 09 45 e0          	or     %rax,-0x20(%rbp)
ffffffff81009f67:	48 83 45 d0 01       	addq   $0x1,-0x30(%rbp)
ffffffff81009f6c:	48 8b 45 d0          	mov    -0x30(%rbp),%rax
ffffffff81009f70:	48 3b 45 98          	cmp    -0x68(%rbp),%rax
ffffffff81009f74:	72 dc                	jb     ffffffff81009f52 <physmm_alloc_pf+0x33c>
ffffffff81009f76:	48 8b 45 c8          	mov    -0x38(%rbp),%rax
ffffffff81009f7a:	48 8b 40 18          	mov    0x18(%rax),%rax
ffffffff81009f7e:	48 8b 55 b0          	mov    -0x50(%rbp),%rdx
ffffffff81009f82:	48 c1 e2 03          	shl    $0x3,%rdx
ffffffff81009f86:	48 01 c2             	add    %rax,%rdx
ffffffff81009f89:	48 8b 45 e0          	mov    -0x20(%rbp),%rax
ffffffff81009f8d:	48 89 02             	mov    %rax,(%rdx)
ffffffff81009f90:	48 8b 45 98          	mov    -0x68(%rbp),%rax
ffffffff81009f94:	48 01 45 f0          	add    %rax,-0x10(%rbp)
ffffffff81009f98:	48 8b 55 88          	mov    -0x78(%rbp),%rdx
ffffffff81009f9c:	48 8b 45 98          	mov    -0x68(%rbp),%rax
ffffffff81009fa0:	48 01 d0             	add    %rdx,%rax
ffffffff81009fa3:	48 89 45 88          	mov    %rax,-0x78(%rbp)
ffffffff81009fa7:	48 8b 45 c8          	mov    -0x38(%rbp),%rax
ffffffff81009fab:	48 8b 40 08          	mov    0x8(%rax),%rax
ffffffff81009faf:	48 39 45 98          	cmp    %rax,-0x68(%rbp)
ffffffff81009fb3:	77 1c                	ja     ffffffff81009fd1 <physmm_alloc_pf+0x3bb>
ffffffff81009fb5:	48 8b 45 c8          	mov    -0x38(%rbp),%rax
ffffffff81009fb9:	48 8b 40 08          	mov    0x8(%rax),%rax
ffffffff81009fbd:	48 2b 45 98          	sub    -0x68(%rbp),%rax
ffffffff81009fc1:	48 89 c2             	mov    %rax,%rdx
ffffffff81009fc4:	48 8b 45 c8          	mov    -0x38(%rbp),%rax
ffffffff81009fc8:	48 89 50 08          	mov    %rdx,0x8(%rax)
ffffffff81009fcc:	e9 dc 00 00 00       	jmpq   ffffffff8100a0ad <physmm_alloc_pf+0x497>
ffffffff81009fd1:	48 8b 45 c8          	mov    -0x38(%rbp),%rax
ffffffff81009fd5:	48 c7 40 08 00 00 00 	movq   $0x0,0x8(%rax)
ffffffff81009fdc:	00 
ffffffff81009fdd:	e9 cb 00 00 00       	jmpq   ffffffff8100a0ad <physmm_alloc_pf+0x497>
ffffffff81009fe2:	48 8b 45 90          	mov    -0x70(%rbp),%rax
ffffffff81009fe6:	ba 01 00 00 00       	mov    $0x1,%edx
ffffffff81009feb:	89 c1                	mov    %eax,%ecx
ffffffff81009fed:	48 d3 e2             	shl    %cl,%rdx
ffffffff81009ff0:	48 89 d0             	mov    %rdx,%rax
ffffffff81009ff3:	48 89 45 e0          	mov    %rax,-0x20(%rbp)
ffffffff81009ff7:	48 8b 45 c8          	mov    -0x38(%rbp),%rax
ffffffff81009ffb:	48 8b 40 18          	mov    0x18(%rax),%rax
ffffffff81009fff:	48 8b 55 b0          	mov    -0x50(%rbp),%rdx
ffffffff8100a003:	48 c1 e2 03          	shl    $0x3,%rdx
ffffffff8100a007:	48 01 d0             	add    %rdx,%rax
ffffffff8100a00a:	48 8b 00             	mov    (%rax),%rax
ffffffff8100a00d:	48 f7 d0             	not    %rax
ffffffff8100a010:	48 23 45 e0          	and    -0x20(%rbp),%rax
ffffffff8100a014:	48 85 c0             	test   %rax,%rax
ffffffff8100a017:	0f 84 84 00 00 00    	je     ffffffff8100a0a1 <physmm_alloc_pf+0x48b>
ffffffff8100a01d:	48 c7 45 a0 01 00 00 	movq   $0x1,-0x60(%rbp)
ffffffff8100a024:	00 
ffffffff8100a025:	48 8b 95 60 ff ff ff 	mov    -0xa0(%rbp),%rdx
ffffffff8100a02c:	48 8b 4d a0          	mov    -0x60(%rbp),%rcx
ffffffff8100a030:	48 8b 45 a8          	mov    -0x58(%rbp),%rax
ffffffff8100a034:	4c 8b 85 68 ff ff ff 	mov    -0x98(%rbp),%r8
ffffffff8100a03b:	48 89 ce             	mov    %rcx,%rsi
ffffffff8100a03e:	48 89 c7             	mov    %rax,%rdi
ffffffff8100a041:	41 ff d0             	callq  *%r8
ffffffff8100a044:	48 89 45 98          	mov    %rax,-0x68(%rbp)
ffffffff8100a048:	48 83 7d 98 00       	cmpq   $0x0,-0x68(%rbp)
ffffffff8100a04d:	75 09                	jne    ffffffff8100a058 <physmm_alloc_pf+0x442>
ffffffff8100a04f:	c6 45 ef 01          	movb   $0x1,-0x11(%rbp)
ffffffff8100a053:	e9 86 00 00 00       	jmpq   ffffffff8100a0de <physmm_alloc_pf+0x4c8>
ffffffff8100a058:	48 8b 45 c8          	mov    -0x38(%rbp),%rax
ffffffff8100a05c:	48 8b 40 18          	mov    0x18(%rax),%rax
ffffffff8100a060:	48 8b 55 b0          	mov    -0x50(%rbp),%rdx
ffffffff8100a064:	48 c1 e2 03          	shl    $0x3,%rdx
ffffffff8100a068:	48 01 d0             	add    %rdx,%rax
ffffffff8100a06b:	48 8b 00             	mov    (%rax),%rax
ffffffff8100a06e:	48 8b 55 c8          	mov    -0x38(%rbp),%rdx
ffffffff8100a072:	48 8b 52 18          	mov    0x18(%rdx),%rdx
ffffffff8100a076:	48 8b 4d b0          	mov    -0x50(%rbp),%rcx
ffffffff8100a07a:	48 c1 e1 03          	shl    $0x3,%rcx
ffffffff8100a07e:	48 01 ca             	add    %rcx,%rdx
ffffffff8100a081:	48 0b 45 e0          	or     -0x20(%rbp),%rax
ffffffff8100a085:	48 89 02             	mov    %rax,(%rdx)
ffffffff8100a088:	48 8b 45 c8          	mov    -0x38(%rbp),%rax
ffffffff8100a08c:	48 8b 40 08          	mov    0x8(%rax),%rax
ffffffff8100a090:	48 8d 50 ff          	lea    -0x1(%rax),%rdx
ffffffff8100a094:	48 8b 45 c8          	mov    -0x38(%rbp),%rax
ffffffff8100a098:	48 89 50 08          	mov    %rdx,0x8(%rax)
ffffffff8100a09c:	48 83 45 f0 01       	addq   $0x1,-0x10(%rbp)
ffffffff8100a0a1:	48 8b 45 88          	mov    -0x78(%rbp),%rax
ffffffff8100a0a5:	48 83 c0 01          	add    $0x1,%rax
ffffffff8100a0a9:	48 89 45 88          	mov    %rax,-0x78(%rbp)
ffffffff8100a0ad:	48 8b 45 c8          	mov    -0x38(%rbp),%rax
ffffffff8100a0b1:	48 8b 10             	mov    (%rax),%rdx
ffffffff8100a0b4:	48 8b 45 88          	mov    -0x78(%rbp),%rax
ffffffff8100a0b8:	48 39 c2             	cmp    %rax,%rdx
ffffffff8100a0bb:	76 21                	jbe    ffffffff8100a0de <physmm_alloc_pf+0x4c8>
ffffffff8100a0bd:	48 8b 45 f0          	mov    -0x10(%rbp),%rax
ffffffff8100a0c1:	48 3b 85 78 ff ff ff 	cmp    -0x88(%rbp),%rax
ffffffff8100a0c8:	73 14                	jae    ffffffff8100a0de <physmm_alloc_pf+0x4c8>
ffffffff8100a0ca:	48 8b 45 c8          	mov    -0x38(%rbp),%rax
ffffffff8100a0ce:	48 8b 40 08          	mov    0x8(%rax),%rax
ffffffff8100a0d2:	48 85 c0             	test   %rax,%rax
ffffffff8100a0d5:	0f 85 28 fd ff ff    	jne    ffffffff81009e03 <physmm_alloc_pf+0x1ed>
ffffffff8100a0db:	eb 01                	jmp    ffffffff8100a0de <physmm_alloc_pf+0x4c8>
ffffffff8100a0dd:	90                   	nop
ffffffff8100a0de:	48 8b 45 f0          	mov    -0x10(%rbp),%rax
ffffffff8100a0e2:	48 3b 85 78 ff ff ff 	cmp    -0x88(%rbp),%rax
ffffffff8100a0e9:	73 1c                	jae    ffffffff8100a107 <physmm_alloc_pf+0x4f1>
ffffffff8100a0eb:	80 7d ef 00          	cmpb   $0x0,-0x11(%rbp)
ffffffff8100a0ef:	75 16                	jne    ffffffff8100a107 <physmm_alloc_pf+0x4f1>
ffffffff8100a0f1:	eb 01                	jmp    ffffffff8100a0f4 <physmm_alloc_pf+0x4de>
ffffffff8100a0f3:	90                   	nop
ffffffff8100a0f4:	48 83 45 d8 01       	addq   $0x1,-0x28(%rbp)
ffffffff8100a0f9:	48 8b 45 d8          	mov    -0x28(%rbp),%rax
ffffffff8100a0fd:	48 3b 45 b8          	cmp    -0x48(%rbp),%rax
ffffffff8100a101:	0f 82 a4 fc ff ff    	jb     ffffffff81009dab <physmm_alloc_pf+0x195>
ffffffff8100a107:	48 8b 45 f0          	mov    -0x10(%rbp),%rax
ffffffff8100a10b:	48 3b 85 78 ff ff ff 	cmp    -0x88(%rbp),%rax
ffffffff8100a112:	73 15                	jae    ffffffff8100a129 <physmm_alloc_pf+0x513>
ffffffff8100a114:	0f b6 85 74 ff ff ff 	movzbl -0x8c(%rbp),%eax
ffffffff8100a11b:	83 e0 10             	and    $0x10,%eax
ffffffff8100a11e:	85 c0                	test   %eax,%eax
ffffffff8100a120:	75 07                	jne    ffffffff8100a129 <physmm_alloc_pf+0x513>
ffffffff8100a122:	b8 ff ff ff ff       	mov    $0xffffffff,%eax
ffffffff8100a127:	eb 05                	jmp    ffffffff8100a12e <physmm_alloc_pf+0x518>
ffffffff8100a129:	b8 00 00 00 00       	mov    $0x0,%eax
ffffffff8100a12e:	c9                   	leaveq 
ffffffff8100a12f:	c3                   	retq   

ffffffff8100a130 <physmm_is_in_range>:
ffffffff8100a130:	55                   	push   %rbp
ffffffff8100a131:	48 89 e5             	mov    %rsp,%rbp
ffffffff8100a134:	48 83 ec 30          	sub    $0x30,%rsp
ffffffff8100a138:	48 89 7d e8          	mov    %rdi,-0x18(%rbp)
ffffffff8100a13c:	48 89 75 e0          	mov    %rsi,-0x20(%rbp)
ffffffff8100a140:	48 89 55 d8          	mov    %rdx,-0x28(%rbp)
ffffffff8100a144:	48 89 4d d0          	mov    %rcx,-0x30(%rbp)
ffffffff8100a148:	48 c7 45 f8 00 00 00 	movq   $0x0,-0x8(%rbp)
ffffffff8100a14f:	00 
ffffffff8100a150:	48 8b 45 d8          	mov    -0x28(%rbp),%rax
ffffffff8100a154:	48 3b 45 e8          	cmp    -0x18(%rbp),%rax
ffffffff8100a158:	73 07                	jae    ffffffff8100a161 <physmm_is_in_range+0x31>
ffffffff8100a15a:	b8 00 00 00 00       	mov    $0x0,%eax
ffffffff8100a15f:	eb 36                	jmp    ffffffff8100a197 <physmm_is_in_range+0x67>
ffffffff8100a161:	48 8b 45 e8          	mov    -0x18(%rbp),%rax
ffffffff8100a165:	48 2b 45 d8          	sub    -0x28(%rbp),%rax
ffffffff8100a169:	48 89 c2             	mov    %rax,%rdx
ffffffff8100a16c:	48 8b 45 e0          	mov    -0x20(%rbp),%rax
ffffffff8100a170:	48 01 d0             	add    %rdx,%rax
ffffffff8100a173:	48 89 45 f8          	mov    %rax,-0x8(%rbp)
ffffffff8100a177:	48 8b 45 f8          	mov    -0x8(%rbp),%rax
ffffffff8100a17b:	48 3b 45 d0          	cmp    -0x30(%rbp),%rax
ffffffff8100a17f:	72 11                	jb     ffffffff8100a192 <physmm_is_in_range+0x62>
ffffffff8100a181:	48 8b 45 e0          	mov    -0x20(%rbp),%rax
ffffffff8100a185:	48 3b 45 f8          	cmp    -0x8(%rbp),%rax
ffffffff8100a189:	72 07                	jb     ffffffff8100a192 <physmm_is_in_range+0x62>
ffffffff8100a18b:	b8 01 00 00 00       	mov    $0x1,%eax
ffffffff8100a190:	eb 05                	jmp    ffffffff8100a197 <physmm_is_in_range+0x67>
ffffffff8100a192:	b8 00 00 00 00       	mov    $0x0,%eax
ffffffff8100a197:	c9                   	leaveq 
ffffffff8100a198:	c3                   	retq   

ffffffff8100a199 <physmm_free_pf>:
ffffffff8100a199:	55                   	push   %rbp
ffffffff8100a19a:	48 89 e5             	mov    %rsp,%rbp
ffffffff8100a19d:	48 83 c4 80          	add    $0xffffffffffffff80,%rsp
ffffffff8100a1a1:	48 89 7d 88          	mov    %rdi,-0x78(%rbp)
ffffffff8100a1a5:	48 89 75 80          	mov    %rsi,-0x80(%rbp)
ffffffff8100a1a9:	48 c7 45 e8 00 00 00 	movq   $0x0,-0x18(%rbp)
ffffffff8100a1b0:	00 
ffffffff8100a1b1:	48 c7 45 e0 00 00 00 	movq   $0x0,-0x20(%rbp)
ffffffff8100a1b8:	00 
ffffffff8100a1b9:	48 c7 45 98 00 00 00 	movq   $0x0,-0x68(%rbp)
ffffffff8100a1c0:	00 
ffffffff8100a1c1:	48 c7 45 90 00 00 00 	movq   $0x0,-0x70(%rbp)
ffffffff8100a1c8:	00 
ffffffff8100a1c9:	48 c7 45 f8 00 00 00 	movq   $0x0,-0x8(%rbp)
ffffffff8100a1d0:	00 
ffffffff8100a1d1:	48 c7 45 d8 00 00 00 	movq   $0x0,-0x28(%rbp)
ffffffff8100a1d8:	00 
ffffffff8100a1d9:	48 c7 45 d0 01 00 00 	movq   $0x1,-0x30(%rbp)
ffffffff8100a1e0:	00 
ffffffff8100a1e1:	48 c7 45 c8 00 00 00 	movq   $0x0,-0x38(%rbp)
ffffffff8100a1e8:	00 
ffffffff8100a1e9:	c6 45 c7 00          	movb   $0x0,-0x39(%rbp)
ffffffff8100a1ed:	48 c7 45 b8 00 00 00 	movq   $0x0,-0x48(%rbp)
ffffffff8100a1f4:	00 
ffffffff8100a1f5:	48 c7 45 b0 00 00 00 	movq   $0x0,-0x50(%rbp)
ffffffff8100a1fc:	00 
ffffffff8100a1fd:	c7 45 ac 00 00 00 00 	movl   $0x0,-0x54(%rbp)
ffffffff8100a204:	48 c7 45 a0 00 00 00 	movq   $0x0,-0x60(%rbp)
ffffffff8100a20b:	00 
ffffffff8100a20c:	48 8b 05 25 6f 01 00 	mov    0x16f25(%rip),%rax        # ffffffff81021138 <physmm_root+0x38>
ffffffff8100a213:	48 ba cd cc cc cc cc 	movabs $0xcccccccccccccccd,%rdx
ffffffff8100a21a:	cc cc cc 
ffffffff8100a21d:	48 f7 e2             	mul    %rdx
ffffffff8100a220:	48 89 d0             	mov    %rdx,%rax
ffffffff8100a223:	48 c1 e8 05          	shr    $0x5,%rax
ffffffff8100a227:	48 89 45 c8          	mov    %rax,-0x38(%rbp)
ffffffff8100a22b:	48 c7 45 98 00 00 00 	movq   $0x0,-0x68(%rbp)
ffffffff8100a232:	00 
ffffffff8100a233:	48 c7 45 90 00 00 00 	movq   $0x0,-0x70(%rbp)
ffffffff8100a23a:	00 
ffffffff8100a23b:	48 8b 55 80          	mov    -0x80(%rbp),%rdx
ffffffff8100a23f:	48 8d 4d 98          	lea    -0x68(%rbp),%rcx
ffffffff8100a243:	48 8d 45 90          	lea    -0x70(%rbp),%rax
ffffffff8100a247:	4c 8b 45 88          	mov    -0x78(%rbp),%r8
ffffffff8100a24b:	48 89 ce             	mov    %rcx,%rsi
ffffffff8100a24e:	48 89 c7             	mov    %rax,%rdi
ffffffff8100a251:	41 ff d0             	callq  *%r8
ffffffff8100a254:	89 45 ac             	mov    %eax,-0x54(%rbp)
ffffffff8100a257:	48 8b 45 98          	mov    -0x68(%rbp),%rax
ffffffff8100a25b:	48 85 c0             	test   %rax,%rax
ffffffff8100a25e:	75 0a                	jne    ffffffff8100a26a <physmm_free_pf+0xd1>
ffffffff8100a260:	83 7d ac 00          	cmpl   $0x0,-0x54(%rbp)
ffffffff8100a264:	0f 84 23 02 00 00    	je     ffffffff8100a48d <physmm_free_pf+0x2f4>
ffffffff8100a26a:	48 8b 05 a7 6e 01 00 	mov    0x16ea7(%rip),%rax        # ffffffff81021118 <physmm_root+0x18>
ffffffff8100a271:	48 89 45 b8          	mov    %rax,-0x48(%rbp)
ffffffff8100a275:	48 c7 45 f0 00 00 00 	movq   $0x0,-0x10(%rbp)
ffffffff8100a27c:	00 
ffffffff8100a27d:	e9 f1 01 00 00       	jmpq   ffffffff8100a473 <physmm_free_pf+0x2da>
ffffffff8100a282:	48 8b 55 f0          	mov    -0x10(%rbp),%rdx
ffffffff8100a286:	48 89 d0             	mov    %rdx,%rax
ffffffff8100a289:	48 c1 e0 02          	shl    $0x2,%rax
ffffffff8100a28d:	48 01 d0             	add    %rdx,%rax
ffffffff8100a290:	48 c1 e0 03          	shl    $0x3,%rax
ffffffff8100a294:	48 89 c2             	mov    %rax,%rdx
ffffffff8100a297:	48 8b 45 b8          	mov    -0x48(%rbp),%rax
ffffffff8100a29b:	48 01 d0             	add    %rdx,%rax
ffffffff8100a29e:	0f b6 00             	movzbl (%rax),%eax
ffffffff8100a2a1:	3c 01                	cmp    $0x1,%al
ffffffff8100a2a3:	0f 85 c1 01 00 00    	jne    ffffffff8100a46a <physmm_free_pf+0x2d1>
ffffffff8100a2a9:	48 8b 45 98          	mov    -0x68(%rbp),%rax
ffffffff8100a2ad:	48 c1 e0 0c          	shl    $0xc,%rax
ffffffff8100a2b1:	48 89 c1             	mov    %rax,%rcx
ffffffff8100a2b4:	48 8b 7d 90          	mov    -0x70(%rbp),%rdi
ffffffff8100a2b8:	48 8b 55 f0          	mov    -0x10(%rbp),%rdx
ffffffff8100a2bc:	48 89 d0             	mov    %rdx,%rax
ffffffff8100a2bf:	48 c1 e0 02          	shl    $0x2,%rax
ffffffff8100a2c3:	48 01 d0             	add    %rdx,%rax
ffffffff8100a2c6:	48 c1 e0 03          	shl    $0x3,%rax
ffffffff8100a2ca:	48 89 c2             	mov    %rax,%rdx
ffffffff8100a2cd:	48 8b 45 b8          	mov    -0x48(%rbp),%rax
ffffffff8100a2d1:	48 01 d0             	add    %rdx,%rax
ffffffff8100a2d4:	48 8b 70 10          	mov    0x10(%rax),%rsi
ffffffff8100a2d8:	48 8b 55 f0          	mov    -0x10(%rbp),%rdx
ffffffff8100a2dc:	48 89 d0             	mov    %rdx,%rax
ffffffff8100a2df:	48 c1 e0 02          	shl    $0x2,%rax
ffffffff8100a2e3:	48 01 d0             	add    %rdx,%rax
ffffffff8100a2e6:	48 c1 e0 03          	shl    $0x3,%rax
ffffffff8100a2ea:	48 89 c2             	mov    %rax,%rdx
ffffffff8100a2ed:	48 8b 45 b8          	mov    -0x48(%rbp),%rax
ffffffff8100a2f1:	48 01 d0             	add    %rdx,%rax
ffffffff8100a2f4:	48 8b 40 08          	mov    0x8(%rax),%rax
ffffffff8100a2f8:	48 89 fa             	mov    %rdi,%rdx
ffffffff8100a2fb:	48 89 c7             	mov    %rax,%rdi
ffffffff8100a2fe:	e8 2d fe ff ff       	callq  ffffffff8100a130 <physmm_is_in_range>
ffffffff8100a303:	85 c0                	test   %eax,%eax
ffffffff8100a305:	0f 84 62 01 00 00    	je     ffffffff8100a46d <physmm_free_pf+0x2d4>
ffffffff8100a30b:	48 8b 55 f0          	mov    -0x10(%rbp),%rdx
ffffffff8100a30f:	48 89 d0             	mov    %rdx,%rax
ffffffff8100a312:	48 c1 e0 02          	shl    $0x2,%rax
ffffffff8100a316:	48 01 d0             	add    %rdx,%rax
ffffffff8100a319:	48 c1 e0 03          	shl    $0x3,%rax
ffffffff8100a31d:	48 89 c2             	mov    %rax,%rdx
ffffffff8100a320:	48 8b 45 b8          	mov    -0x48(%rbp),%rax
ffffffff8100a324:	48 01 d0             	add    %rdx,%rax
ffffffff8100a327:	48 8b 40 20          	mov    0x20(%rax),%rax
ffffffff8100a32b:	48 89 45 b0          	mov    %rax,-0x50(%rbp)
ffffffff8100a32f:	48 c7 45 f8 00 00 00 	movq   $0x0,-0x8(%rbp)
ffffffff8100a336:	00 
ffffffff8100a337:	e9 1e 01 00 00       	jmpq   ffffffff8100a45a <physmm_free_pf+0x2c1>
ffffffff8100a33c:	48 8b 45 f8          	mov    -0x8(%rbp),%rax
ffffffff8100a340:	48 c1 e0 0c          	shl    $0xc,%rax
ffffffff8100a344:	48 89 c2             	mov    %rax,%rdx
ffffffff8100a347:	48 8b 45 90          	mov    -0x70(%rbp),%rax
ffffffff8100a34b:	48 01 d0             	add    %rdx,%rax
ffffffff8100a34e:	48 89 45 d8          	mov    %rax,-0x28(%rbp)
ffffffff8100a352:	48 8b 55 f0          	mov    -0x10(%rbp),%rdx
ffffffff8100a356:	48 89 d0             	mov    %rdx,%rax
ffffffff8100a359:	48 c1 e0 02          	shl    $0x2,%rax
ffffffff8100a35d:	48 01 d0             	add    %rdx,%rax
ffffffff8100a360:	48 c1 e0 03          	shl    $0x3,%rax
ffffffff8100a364:	48 89 c2             	mov    %rax,%rdx
ffffffff8100a367:	48 8b 45 b8          	mov    -0x48(%rbp),%rax
ffffffff8100a36b:	48 01 d0             	add    %rdx,%rax
ffffffff8100a36e:	48 8b 40 08          	mov    0x8(%rax),%rax
ffffffff8100a372:	48 8b 55 d8          	mov    -0x28(%rbp),%rdx
ffffffff8100a376:	48 29 c2             	sub    %rax,%rdx
ffffffff8100a379:	48 89 d0             	mov    %rdx,%rax
ffffffff8100a37c:	48 c1 e8 0c          	shr    $0xc,%rax
ffffffff8100a380:	48 89 45 e8          	mov    %rax,-0x18(%rbp)
ffffffff8100a384:	48 8b 45 e8          	mov    -0x18(%rbp),%rax
ffffffff8100a388:	48 c1 e8 06          	shr    $0x6,%rax
ffffffff8100a38c:	48 89 45 e0          	mov    %rax,-0x20(%rbp)
ffffffff8100a390:	48 8b 45 e8          	mov    -0x18(%rbp),%rax
ffffffff8100a394:	83 e0 3f             	and    $0x3f,%eax
ffffffff8100a397:	88 45 c7             	mov    %al,-0x39(%rbp)
ffffffff8100a39a:	0f b6 45 c7          	movzbl -0x39(%rbp),%eax
ffffffff8100a39e:	ba 01 00 00 00       	mov    $0x1,%edx
ffffffff8100a3a3:	89 c1                	mov    %eax,%ecx
ffffffff8100a3a5:	48 d3 e2             	shl    %cl,%rdx
ffffffff8100a3a8:	48 89 d0             	mov    %rdx,%rax
ffffffff8100a3ab:	48 89 45 d0          	mov    %rax,-0x30(%rbp)
ffffffff8100a3af:	48 8b 45 b0          	mov    -0x50(%rbp),%rax
ffffffff8100a3b3:	48 8b 40 18          	mov    0x18(%rax),%rax
ffffffff8100a3b7:	48 8b 55 e0          	mov    -0x20(%rbp),%rdx
ffffffff8100a3bb:	48 c1 e2 03          	shl    $0x3,%rdx
ffffffff8100a3bf:	48 01 d0             	add    %rdx,%rax
ffffffff8100a3c2:	48 8b 00             	mov    (%rax),%rax
ffffffff8100a3c5:	48 23 45 d0          	and    -0x30(%rbp),%rax
ffffffff8100a3c9:	48 85 c0             	test   %rax,%rax
ffffffff8100a3cc:	74 54                	je     ffffffff8100a422 <physmm_free_pf+0x289>
ffffffff8100a3ce:	48 8b 45 b0          	mov    -0x50(%rbp),%rax
ffffffff8100a3d2:	48 8b 40 18          	mov    0x18(%rax),%rax
ffffffff8100a3d6:	48 8b 55 e0          	mov    -0x20(%rbp),%rdx
ffffffff8100a3da:	48 c1 e2 03          	shl    $0x3,%rdx
ffffffff8100a3de:	48 01 d0             	add    %rdx,%rax
ffffffff8100a3e1:	48 8b 10             	mov    (%rax),%rdx
ffffffff8100a3e4:	48 8b 45 d0          	mov    -0x30(%rbp),%rax
ffffffff8100a3e8:	48 f7 d0             	not    %rax
ffffffff8100a3eb:	48 89 c6             	mov    %rax,%rsi
ffffffff8100a3ee:	48 8b 45 b0          	mov    -0x50(%rbp),%rax
ffffffff8100a3f2:	48 8b 40 18          	mov    0x18(%rax),%rax
ffffffff8100a3f6:	48 8b 4d e0          	mov    -0x20(%rbp),%rcx
ffffffff8100a3fa:	48 c1 e1 03          	shl    $0x3,%rcx
ffffffff8100a3fe:	48 01 c8             	add    %rcx,%rax
ffffffff8100a401:	48 21 f2             	and    %rsi,%rdx
ffffffff8100a404:	48 89 10             	mov    %rdx,(%rax)
ffffffff8100a407:	48 83 45 f8 01       	addq   $0x1,-0x8(%rbp)
ffffffff8100a40c:	48 8b 45 b0          	mov    -0x50(%rbp),%rax
ffffffff8100a410:	48 8b 40 08          	mov    0x8(%rax),%rax
ffffffff8100a414:	48 8d 50 01          	lea    0x1(%rax),%rdx
ffffffff8100a418:	48 8b 45 b0          	mov    -0x50(%rbp),%rax
ffffffff8100a41c:	48 89 50 08          	mov    %rdx,0x8(%rax)
ffffffff8100a420:	eb 1d                	jmp    ffffffff8100a43f <physmm_free_pf+0x2a6>
ffffffff8100a422:	48 8b 45 90          	mov    -0x70(%rbp),%rax
ffffffff8100a426:	48 89 c6             	mov    %rax,%rsi
ffffffff8100a429:	48 c7 c7 62 e4 00 81 	mov    $0xffffffff8100e462,%rdi
ffffffff8100a430:	b8 00 00 00 00       	mov    $0x0,%eax
ffffffff8100a435:	e8 9b cc ff ff       	callq  ffffffff810070d5 <kprintf>
ffffffff8100a43a:	48 83 45 f8 01       	addq   $0x1,-0x8(%rbp)
ffffffff8100a43f:	48 8b 45 b0          	mov    -0x50(%rbp),%rax
ffffffff8100a443:	48 8b 50 08          	mov    0x8(%rax),%rdx
ffffffff8100a447:	48 8b 45 b0          	mov    -0x50(%rbp),%rax
ffffffff8100a44b:	48 8b 00             	mov    (%rax),%rax
ffffffff8100a44e:	48 39 c2             	cmp    %rax,%rdx
ffffffff8100a451:	76 07                	jbe    ffffffff8100a45a <physmm_free_pf+0x2c1>
ffffffff8100a453:	b8 ff ff ff ff       	mov    $0xffffffff,%eax
ffffffff8100a458:	eb 39                	jmp    ffffffff8100a493 <physmm_free_pf+0x2fa>
ffffffff8100a45a:	48 8b 45 98          	mov    -0x68(%rbp),%rax
ffffffff8100a45e:	48 39 45 f8          	cmp    %rax,-0x8(%rbp)
ffffffff8100a462:	0f 82 d4 fe ff ff    	jb     ffffffff8100a33c <physmm_free_pf+0x1a3>
ffffffff8100a468:	eb 04                	jmp    ffffffff8100a46e <physmm_free_pf+0x2d5>
ffffffff8100a46a:	90                   	nop
ffffffff8100a46b:	eb 01                	jmp    ffffffff8100a46e <physmm_free_pf+0x2d5>
ffffffff8100a46d:	90                   	nop
ffffffff8100a46e:	48 83 45 f0 01       	addq   $0x1,-0x10(%rbp)
ffffffff8100a473:	48 8b 45 f0          	mov    -0x10(%rbp),%rax
ffffffff8100a477:	48 3b 45 c8          	cmp    -0x38(%rbp),%rax
ffffffff8100a47b:	0f 82 01 fe ff ff    	jb     ffffffff8100a282 <physmm_free_pf+0xe9>
ffffffff8100a481:	83 7d ac 00          	cmpl   $0x0,-0x54(%rbp)
ffffffff8100a485:	0f 85 a0 fd ff ff    	jne    ffffffff8100a22b <physmm_free_pf+0x92>
ffffffff8100a48b:	eb 01                	jmp    ffffffff8100a48e <physmm_free_pf+0x2f5>
ffffffff8100a48d:	90                   	nop
ffffffff8100a48e:	b8 00 00 00 00       	mov    $0x0,%eax
ffffffff8100a493:	c9                   	leaveq 
ffffffff8100a494:	c3                   	retq   

ffffffff8100a495 <physmm_dump_bitmaps>:
ffffffff8100a495:	55                   	push   %rbp
ffffffff8100a496:	48 89 e5             	mov    %rsp,%rbp
ffffffff8100a499:	48 83 ec 30          	sub    $0x30,%rsp
ffffffff8100a49d:	48 c7 45 e8 00 00 00 	movq   $0x0,-0x18(%rbp)
ffffffff8100a4a4:	00 
ffffffff8100a4a5:	48 c7 45 e0 00 00 00 	movq   $0x0,-0x20(%rbp)
ffffffff8100a4ac:	00 
ffffffff8100a4ad:	48 c7 45 d8 00 00 00 	movq   $0x0,-0x28(%rbp)
ffffffff8100a4b4:	00 
ffffffff8100a4b5:	48 8b 05 5c 6c 01 00 	mov    0x16c5c(%rip),%rax        # ffffffff81021118 <physmm_root+0x18>
ffffffff8100a4bc:	48 85 c0             	test   %rax,%rax
ffffffff8100a4bf:	0f 84 38 01 00 00    	je     ffffffff8100a5fd <physmm_dump_bitmaps+0x168>
ffffffff8100a4c5:	48 8b 05 6c 6c 01 00 	mov    0x16c6c(%rip),%rax        # ffffffff81021138 <physmm_root+0x38>
ffffffff8100a4cc:	48 ba cd cc cc cc cc 	movabs $0xcccccccccccccccd,%rdx
ffffffff8100a4d3:	cc cc cc 
ffffffff8100a4d6:	48 f7 e2             	mul    %rdx
ffffffff8100a4d9:	48 89 d0             	mov    %rdx,%rax
ffffffff8100a4dc:	48 c1 e8 05          	shr    $0x5,%rax
ffffffff8100a4e0:	48 89 45 d8          	mov    %rax,-0x28(%rbp)
ffffffff8100a4e4:	48 8b 05 2d 6c 01 00 	mov    0x16c2d(%rip),%rax        # ffffffff81021118 <physmm_root+0x18>
ffffffff8100a4eb:	48 89 45 e8          	mov    %rax,-0x18(%rbp)
ffffffff8100a4ef:	48 c7 45 f8 00 00 00 	movq   $0x0,-0x8(%rbp)
ffffffff8100a4f6:	00 
ffffffff8100a4f7:	e9 f1 00 00 00       	jmpq   ffffffff8100a5ed <physmm_dump_bitmaps+0x158>
ffffffff8100a4fc:	48 8b 55 f8          	mov    -0x8(%rbp),%rdx
ffffffff8100a500:	48 89 d0             	mov    %rdx,%rax
ffffffff8100a503:	48 c1 e0 02          	shl    $0x2,%rax
ffffffff8100a507:	48 01 d0             	add    %rdx,%rax
ffffffff8100a50a:	48 c1 e0 03          	shl    $0x3,%rax
ffffffff8100a50e:	48 89 c2             	mov    %rax,%rdx
ffffffff8100a511:	48 8b 45 e8          	mov    -0x18(%rbp),%rax
ffffffff8100a515:	48 01 d0             	add    %rdx,%rax
ffffffff8100a518:	0f b6 00             	movzbl (%rax),%eax
ffffffff8100a51b:	3c 01                	cmp    $0x1,%al
ffffffff8100a51d:	0f 85 c4 00 00 00    	jne    ffffffff8100a5e7 <physmm_dump_bitmaps+0x152>
ffffffff8100a523:	48 8b 55 f8          	mov    -0x8(%rbp),%rdx
ffffffff8100a527:	48 89 d0             	mov    %rdx,%rax
ffffffff8100a52a:	48 c1 e0 02          	shl    $0x2,%rax
ffffffff8100a52e:	48 01 d0             	add    %rdx,%rax
ffffffff8100a531:	48 c1 e0 03          	shl    $0x3,%rax
ffffffff8100a535:	48 89 c2             	mov    %rax,%rdx
ffffffff8100a538:	48 8b 45 e8          	mov    -0x18(%rbp),%rax
ffffffff8100a53c:	48 01 d0             	add    %rdx,%rax
ffffffff8100a53f:	48 8b 40 20          	mov    0x20(%rax),%rax
ffffffff8100a543:	48 89 45 e0          	mov    %rax,-0x20(%rbp)
ffffffff8100a547:	48 8b 55 f8          	mov    -0x8(%rbp),%rdx
ffffffff8100a54b:	48 89 d0             	mov    %rdx,%rax
ffffffff8100a54e:	48 c1 e0 02          	shl    $0x2,%rax
ffffffff8100a552:	48 01 d0             	add    %rdx,%rax
ffffffff8100a555:	48 c1 e0 03          	shl    $0x3,%rax
ffffffff8100a559:	48 89 c2             	mov    %rax,%rdx
ffffffff8100a55c:	48 8b 45 e8          	mov    -0x18(%rbp),%rax
ffffffff8100a560:	48 01 d0             	add    %rdx,%rax
ffffffff8100a563:	48 8b 40 08          	mov    0x8(%rax),%rax
ffffffff8100a567:	48 89 c6             	mov    %rax,%rsi
ffffffff8100a56a:	48 c7 c7 75 e4 00 81 	mov    $0xffffffff8100e475,%rdi
ffffffff8100a571:	b8 00 00 00 00       	mov    $0x0,%eax
ffffffff8100a576:	e8 5a cb ff ff       	callq  ffffffff810070d5 <kprintf>
ffffffff8100a57b:	48 c7 45 f0 00 00 00 	movq   $0x0,-0x10(%rbp)
ffffffff8100a582:	00 
ffffffff8100a583:	eb 4e                	jmp    ffffffff8100a5d3 <physmm_dump_bitmaps+0x13e>
ffffffff8100a585:	48 8b 45 e0          	mov    -0x20(%rbp),%rax
ffffffff8100a589:	48 8b 40 18          	mov    0x18(%rax),%rax
ffffffff8100a58d:	48 8b 55 f0          	mov    -0x10(%rbp),%rdx
ffffffff8100a591:	48 c1 e2 03          	shl    $0x3,%rdx
ffffffff8100a595:	48 01 d0             	add    %rdx,%rax
ffffffff8100a598:	48 8b 00             	mov    (%rax),%rax
ffffffff8100a59b:	48 85 c0             	test   %rax,%rax
ffffffff8100a59e:	74 2e                	je     ffffffff8100a5ce <physmm_dump_bitmaps+0x139>
ffffffff8100a5a0:	48 8b 45 e0          	mov    -0x20(%rbp),%rax
ffffffff8100a5a4:	48 8b 40 18          	mov    0x18(%rax),%rax
ffffffff8100a5a8:	48 8b 55 f0          	mov    -0x10(%rbp),%rdx
ffffffff8100a5ac:	48 c1 e2 03          	shl    $0x3,%rdx
ffffffff8100a5b0:	48 01 d0             	add    %rdx,%rax
ffffffff8100a5b3:	48 8b 10             	mov    (%rax),%rdx
ffffffff8100a5b6:	48 8b 45 f0          	mov    -0x10(%rbp),%rax
ffffffff8100a5ba:	48 89 c6             	mov    %rax,%rsi
ffffffff8100a5bd:	48 c7 c7 82 e4 00 81 	mov    $0xffffffff8100e482,%rdi
ffffffff8100a5c4:	b8 00 00 00 00       	mov    $0x0,%eax
ffffffff8100a5c9:	e8 07 cb ff ff       	callq  ffffffff810070d5 <kprintf>
ffffffff8100a5ce:	48 83 45 f0 01       	addq   $0x1,-0x10(%rbp)
ffffffff8100a5d3:	48 8b 45 e0          	mov    -0x20(%rbp),%rax
ffffffff8100a5d7:	48 8b 40 20          	mov    0x20(%rax),%rax
ffffffff8100a5db:	48 c1 e8 03          	shr    $0x3,%rax
ffffffff8100a5df:	48 39 45 f0          	cmp    %rax,-0x10(%rbp)
ffffffff8100a5e3:	72 a0                	jb     ffffffff8100a585 <physmm_dump_bitmaps+0xf0>
ffffffff8100a5e5:	eb 01                	jmp    ffffffff8100a5e8 <physmm_dump_bitmaps+0x153>
ffffffff8100a5e7:	90                   	nop
ffffffff8100a5e8:	48 83 45 f8 01       	addq   $0x1,-0x8(%rbp)
ffffffff8100a5ed:	48 8b 45 f8          	mov    -0x8(%rbp),%rax
ffffffff8100a5f1:	48 3b 45 d8          	cmp    -0x28(%rbp),%rax
ffffffff8100a5f5:	0f 82 01 ff ff ff    	jb     ffffffff8100a4fc <physmm_dump_bitmaps+0x67>
ffffffff8100a5fb:	eb 01                	jmp    ffffffff8100a5fe <physmm_dump_bitmaps+0x169>
ffffffff8100a5fd:	90                   	nop
ffffffff8100a5fe:	c9                   	leaveq 
ffffffff8100a5ff:	c3                   	retq   

ffffffff8100a600 <physmm_get>:
ffffffff8100a600:	55                   	push   %rbp
ffffffff8100a601:	48 89 e5             	mov    %rsp,%rbp
ffffffff8100a604:	48 c7 c0 90 11 02 81 	mov    $0xffffffff81021190,%rax
ffffffff8100a60b:	5d                   	pop    %rbp
ffffffff8100a60c:	c3                   	retq   

ffffffff8100a60d <test>:
ffffffff8100a60d:	55                   	push   %rbp
ffffffff8100a60e:	48 89 e5             	mov    %rsp,%rbp
ffffffff8100a611:	48 83 ec 18          	sub    $0x18,%rsp
ffffffff8100a615:	48 89 7d f8          	mov    %rdi,-0x8(%rbp)
ffffffff8100a619:	48 89 75 f0          	mov    %rsi,-0x10(%rbp)
ffffffff8100a61d:	48 89 55 e8          	mov    %rdx,-0x18(%rbp)
ffffffff8100a621:	48 8b 45 f0          	mov    -0x10(%rbp),%rax
ffffffff8100a625:	89 c2                	mov    %eax,%edx
ffffffff8100a627:	8b 05 73 6b 01 00    	mov    0x16b73(%rip),%eax        # ffffffff810211a0 <allocs.1688>
ffffffff8100a62d:	01 d0                	add    %edx,%eax
ffffffff8100a62f:	89 05 6b 6b 01 00    	mov    %eax,0x16b6b(%rip)        # ffffffff810211a0 <allocs.1688>
ffffffff8100a635:	48 8b 45 f0          	mov    -0x10(%rbp),%rax
ffffffff8100a639:	c9                   	leaveq 
ffffffff8100a63a:	c3                   	retq   

ffffffff8100a63b <physmm_test>:
ffffffff8100a63b:	55                   	push   %rbp
ffffffff8100a63c:	48 89 e5             	mov    %rsp,%rbp
ffffffff8100a63f:	48 83 ec 10          	sub    $0x10,%rsp
ffffffff8100a643:	b9 00 00 00 00       	mov    $0x0,%ecx
ffffffff8100a648:	48 c7 c2 0d a6 00 81 	mov    $0xffffffff8100a60d,%rdx
ffffffff8100a64f:	be 00 00 00 00       	mov    $0x0,%esi
ffffffff8100a654:	bf 00 00 40 00       	mov    $0x400000,%edi
ffffffff8100a659:	e8 b8 f5 ff ff       	callq  ffffffff81009c16 <physmm_alloc_pf>
ffffffff8100a65e:	89 45 fc             	mov    %eax,-0x4(%rbp)
ffffffff8100a661:	8b 45 fc             	mov    -0x4(%rbp),%eax
ffffffff8100a664:	89 c6                	mov    %eax,%esi
ffffffff8100a666:	48 c7 c7 98 e4 00 81 	mov    $0xffffffff8100e498,%rdi
ffffffff8100a66d:	b8 00 00 00 00       	mov    $0x0,%eax
ffffffff8100a672:	e8 5e ca ff ff       	callq  ffffffff810070d5 <kprintf>
ffffffff8100a677:	90                   	nop
ffffffff8100a678:	c9                   	leaveq 
ffffffff8100a679:	c3                   	retq   
ffffffff8100a67a:	66 0f 1f 44 00 00    	nopw   0x0(%rax,%rax,1)

ffffffff8100a680 <read_port_b>:
ffffffff8100a680:	48 89 fa             	mov    %rdi,%rdx
ffffffff8100a683:	48 31 c0             	xor    %rax,%rax
ffffffff8100a686:	ec                   	in     (%dx),%al
ffffffff8100a687:	c3                   	retq   

ffffffff8100a688 <write_port_b>:
ffffffff8100a688:	48 89 fa             	mov    %rdi,%rdx
ffffffff8100a68b:	48 89 f0             	mov    %rsi,%rax
ffffffff8100a68e:	ee                   	out    %al,(%dx)
ffffffff8100a68f:	c3                   	retq   

ffffffff8100a690 <read_port_w>:
ffffffff8100a690:	48 89 fa             	mov    %rdi,%rdx
ffffffff8100a693:	48 31 c0             	xor    %rax,%rax
ffffffff8100a696:	66 ed                	in     (%dx),%ax
ffffffff8100a698:	c3                   	retq   

ffffffff8100a699 <write_port_w>:
ffffffff8100a699:	48 89 fa             	mov    %rdi,%rdx
ffffffff8100a69c:	48 89 f0             	mov    %rsi,%rax
ffffffff8100a69f:	66 ef                	out    %ax,(%dx)
ffffffff8100a6a1:	c3                   	retq   

ffffffff8100a6a2 <read_port_dw>:
ffffffff8100a6a2:	48 89 fa             	mov    %rdi,%rdx
ffffffff8100a6a5:	48 31 c0             	xor    %rax,%rax
ffffffff8100a6a8:	ed                   	in     (%dx),%eax
ffffffff8100a6a9:	c3                   	retq   

ffffffff8100a6aa <write_port_dw>:
ffffffff8100a6aa:	48 89 fa             	mov    %rdi,%rdx
ffffffff8100a6ad:	48 89 f0             	mov    %rsi,%rax
ffffffff8100a6b0:	ef                   	out    %eax,(%dx)
ffffffff8100a6b1:	c3                   	retq   
ffffffff8100a6b2:	66 2e 0f 1f 84 00 00 	nopw   %cs:0x0(%rax,%rax,1)
ffffffff8100a6b9:	00 00 00 
ffffffff8100a6bc:	0f 1f 40 00          	nopl   0x0(%rax)

ffffffff8100a6c0 <reload_pages>:
ffffffff8100a6c0:	0f 20 d8             	mov    %cr3,%rax
ffffffff8100a6c3:	0f 22 d8             	mov    %rax,%cr3
ffffffff8100a6c6:	c3                   	retq   

ffffffff8100a6c7 <write_cr3>:
ffffffff8100a6c7:	0f 22 df             	mov    %rdi,%cr3
ffffffff8100a6ca:	c3                   	retq   

ffffffff8100a6cb <read_cr3>:
ffffffff8100a6cb:	0f 20 d8             	mov    %cr3,%rax
ffffffff8100a6ce:	c3                   	retq   

ffffffff8100a6cf <write_cr2>:
ffffffff8100a6cf:	48 89 f8             	mov    %rdi,%rax
ffffffff8100a6d2:	0f 22 d0             	mov    %rax,%cr2
ffffffff8100a6d5:	c3                   	retq   

ffffffff8100a6d6 <read_cr2>:
ffffffff8100a6d6:	0f 20 d0             	mov    %cr2,%rax
ffffffff8100a6d9:	c3                   	retq   

ffffffff8100a6da <__invlpg>:
ffffffff8100a6da:	0f 01 3f             	invlpg (%rdi)
ffffffff8100a6dd:	c3                   	retq   

ffffffff8100a6de <__wbinvd>:
ffffffff8100a6de:	0f 09                	wbinvd 
ffffffff8100a6e0:	c3                   	retq   

ffffffff8100a6e1 <mem_map_iter>:
ffffffff8100a6e1:	55                   	push   %rbp
ffffffff8100a6e2:	48 89 e5             	mov    %rsp,%rbp
ffffffff8100a6e5:	48 83 ec 60          	sub    $0x60,%rsp
ffffffff8100a6e9:	48 89 7d a8          	mov    %rdi,-0x58(%rbp)
ffffffff8100a6ed:	48 89 75 a0          	mov    %rsi,-0x60(%rbp)
ffffffff8100a6f1:	48 c7 45 f0 00 00 00 	movq   $0x0,-0x10(%rbp)
ffffffff8100a6f8:	00 
ffffffff8100a6f9:	48 c7 45 e8 00 00 00 	movq   $0x0,-0x18(%rbp)
ffffffff8100a700:	00 
ffffffff8100a701:	c7 45 e4 00 00 00 00 	movl   $0x0,-0x1c(%rbp)
ffffffff8100a708:	48 c7 45 d8 00 00 00 	movq   $0x0,-0x28(%rbp)
ffffffff8100a70f:	00 
ffffffff8100a710:	48 c7 45 d0 00 00 00 	movq   $0x0,-0x30(%rbp)
ffffffff8100a717:	00 
ffffffff8100a718:	8b 05 f2 78 ff 7f    	mov    0x7fff78f2(%rip),%eax        # 1002010 <mem_map_sig>
ffffffff8100a71e:	3d 02 b0 ad 2b       	cmp    $0x2badb002,%eax
ffffffff8100a723:	0f 85 8e 00 00 00    	jne    ffffffff8100a7b7 <mem_map_iter+0xd6>
ffffffff8100a729:	8b 05 dd 78 ff 7f    	mov    0x7fff78dd(%rip),%eax        # 100200c <mem_map_addr>
ffffffff8100a72f:	89 c0                	mov    %eax,%eax
ffffffff8100a731:	48 89 45 f0          	mov    %rax,-0x10(%rbp)
ffffffff8100a735:	48 8b 45 f0          	mov    -0x10(%rbp),%rax
ffffffff8100a739:	8b 40 2c             	mov    0x2c(%rax),%eax
ffffffff8100a73c:	89 c0                	mov    %eax,%eax
ffffffff8100a73e:	48 89 45 d0          	mov    %rax,-0x30(%rbp)
ffffffff8100a742:	48 c7 45 f8 00 00 00 	movq   $0x0,-0x8(%rbp)
ffffffff8100a749:	00 
ffffffff8100a74a:	eb 61                	jmp    ffffffff8100a7ad <mem_map_iter+0xcc>
ffffffff8100a74c:	48 8b 45 f0          	mov    -0x10(%rbp),%rax
ffffffff8100a750:	8b 40 30             	mov    0x30(%rax),%eax
ffffffff8100a753:	89 c2                	mov    %eax,%edx
ffffffff8100a755:	48 8b 45 f8          	mov    -0x8(%rbp),%rax
ffffffff8100a759:	48 01 d0             	add    %rdx,%rax
ffffffff8100a75c:	48 89 45 e8          	mov    %rax,-0x18(%rbp)
ffffffff8100a760:	48 8b 45 e8          	mov    -0x18(%rbp),%rax
ffffffff8100a764:	48 8b 40 04          	mov    0x4(%rax),%rax
ffffffff8100a768:	48 89 45 b8          	mov    %rax,-0x48(%rbp)
ffffffff8100a76c:	48 8b 45 e8          	mov    -0x18(%rbp),%rax
ffffffff8100a770:	48 8b 40 0c          	mov    0xc(%rax),%rax
ffffffff8100a774:	48 89 45 c0          	mov    %rax,-0x40(%rbp)
ffffffff8100a778:	48 8b 45 e8          	mov    -0x18(%rbp),%rax
ffffffff8100a77c:	8b 40 14             	mov    0x14(%rax),%eax
ffffffff8100a77f:	89 45 c8             	mov    %eax,-0x38(%rbp)
ffffffff8100a782:	48 8b 45 e8          	mov    -0x18(%rbp),%rax
ffffffff8100a786:	8b 00                	mov    (%rax),%eax
ffffffff8100a788:	89 c2                	mov    %eax,%edx
ffffffff8100a78a:	48 8b 45 f8          	mov    -0x8(%rbp),%rax
ffffffff8100a78e:	48 01 d0             	add    %rdx,%rax
ffffffff8100a791:	48 83 c0 04          	add    $0x4,%rax
ffffffff8100a795:	48 89 45 f8          	mov    %rax,-0x8(%rbp)
ffffffff8100a799:	48 8b 55 a0          	mov    -0x60(%rbp),%rdx
ffffffff8100a79d:	48 8d 45 b8          	lea    -0x48(%rbp),%rax
ffffffff8100a7a1:	48 8b 4d a8          	mov    -0x58(%rbp),%rcx
ffffffff8100a7a5:	48 89 d6             	mov    %rdx,%rsi
ffffffff8100a7a8:	48 89 c7             	mov    %rax,%rdi
ffffffff8100a7ab:	ff d1                	callq  *%rcx
ffffffff8100a7ad:	48 8b 45 f8          	mov    -0x8(%rbp),%rax
ffffffff8100a7b1:	48 3b 45 d0          	cmp    -0x30(%rbp),%rax
ffffffff8100a7b5:	72 95                	jb     ffffffff8100a74c <mem_map_iter+0x6b>
ffffffff8100a7b7:	90                   	nop
ffffffff8100a7b8:	c9                   	leaveq 
ffffffff8100a7b9:	c3                   	retq   

ffffffff8100a7ba <memset>:
ffffffff8100a7ba:	55                   	push   %rbp
ffffffff8100a7bb:	48 89 e5             	mov    %rsp,%rbp
ffffffff8100a7be:	48 83 ec 28          	sub    $0x28,%rsp
ffffffff8100a7c2:	48 89 7d e8          	mov    %rdi,-0x18(%rbp)
ffffffff8100a7c6:	89 75 e4             	mov    %esi,-0x1c(%rbp)
ffffffff8100a7c9:	48 89 55 d8          	mov    %rdx,-0x28(%rbp)
ffffffff8100a7cd:	48 c7 45 f8 00 00 00 	movq   $0x0,-0x8(%rbp)
ffffffff8100a7d4:	00 
ffffffff8100a7d5:	eb 15                	jmp    ffffffff8100a7ec <memset+0x32>
ffffffff8100a7d7:	48 8b 55 e8          	mov    -0x18(%rbp),%rdx
ffffffff8100a7db:	48 8b 45 f8          	mov    -0x8(%rbp),%rax
ffffffff8100a7df:	48 01 d0             	add    %rdx,%rax
ffffffff8100a7e2:	8b 55 e4             	mov    -0x1c(%rbp),%edx
ffffffff8100a7e5:	88 10                	mov    %dl,(%rax)
ffffffff8100a7e7:	48 83 45 f8 01       	addq   $0x1,-0x8(%rbp)
ffffffff8100a7ec:	48 8b 45 f8          	mov    -0x8(%rbp),%rax
ffffffff8100a7f0:	48 3b 45 d8          	cmp    -0x28(%rbp),%rax
ffffffff8100a7f4:	72 e1                	jb     ffffffff8100a7d7 <memset+0x1d>
ffffffff8100a7f6:	48 8b 45 e8          	mov    -0x18(%rbp),%rax
ffffffff8100a7fa:	c9                   	leaveq 
ffffffff8100a7fb:	c3                   	retq   

ffffffff8100a7fc <memcpy>:
ffffffff8100a7fc:	55                   	push   %rbp
ffffffff8100a7fd:	48 89 e5             	mov    %rsp,%rbp
ffffffff8100a800:	48 83 ec 28          	sub    $0x28,%rsp
ffffffff8100a804:	48 89 7d e8          	mov    %rdi,-0x18(%rbp)
ffffffff8100a808:	48 89 75 e0          	mov    %rsi,-0x20(%rbp)
ffffffff8100a80c:	48 89 55 d8          	mov    %rdx,-0x28(%rbp)
ffffffff8100a810:	48 c7 45 f8 00 00 00 	movq   $0x0,-0x8(%rbp)
ffffffff8100a817:	00 
ffffffff8100a818:	eb 20                	jmp    ffffffff8100a83a <memcpy+0x3e>
ffffffff8100a81a:	48 8b 55 e0          	mov    -0x20(%rbp),%rdx
ffffffff8100a81e:	48 8b 45 f8          	mov    -0x8(%rbp),%rax
ffffffff8100a822:	48 01 d0             	add    %rdx,%rax
ffffffff8100a825:	48 8b 4d e8          	mov    -0x18(%rbp),%rcx
ffffffff8100a829:	48 8b 55 f8          	mov    -0x8(%rbp),%rdx
ffffffff8100a82d:	48 01 ca             	add    %rcx,%rdx
ffffffff8100a830:	0f b6 00             	movzbl (%rax),%eax
ffffffff8100a833:	88 02                	mov    %al,(%rdx)
ffffffff8100a835:	48 83 45 f8 01       	addq   $0x1,-0x8(%rbp)
ffffffff8100a83a:	48 8b 45 f8          	mov    -0x8(%rbp),%rax
ffffffff8100a83e:	48 3b 45 d8          	cmp    -0x28(%rbp),%rax
ffffffff8100a842:	72 d6                	jb     ffffffff8100a81a <memcpy+0x1e>
ffffffff8100a844:	48 8b 45 e8          	mov    -0x18(%rbp),%rax
ffffffff8100a848:	c9                   	leaveq 
ffffffff8100a849:	c3                   	retq   

ffffffff8100a84a <memcmp>:
ffffffff8100a84a:	55                   	push   %rbp
ffffffff8100a84b:	48 89 e5             	mov    %rsp,%rbp
ffffffff8100a84e:	48 83 ec 28          	sub    $0x28,%rsp
ffffffff8100a852:	48 89 7d e8          	mov    %rdi,-0x18(%rbp)
ffffffff8100a856:	48 89 75 e0          	mov    %rsi,-0x20(%rbp)
ffffffff8100a85a:	48 89 55 d8          	mov    %rdx,-0x28(%rbp)
ffffffff8100a85e:	c6 45 f7 00          	movb   $0x0,-0x9(%rbp)
ffffffff8100a862:	c6 45 f6 00          	movb   $0x0,-0xa(%rbp)
ffffffff8100a866:	48 c7 45 f8 00 00 00 	movq   $0x0,-0x8(%rbp)
ffffffff8100a86d:	00 
ffffffff8100a86e:	eb 4d                	jmp    ffffffff8100a8bd <memcmp+0x73>
ffffffff8100a870:	48 8b 55 e8          	mov    -0x18(%rbp),%rdx
ffffffff8100a874:	48 8b 45 f8          	mov    -0x8(%rbp),%rax
ffffffff8100a878:	48 01 d0             	add    %rdx,%rax
ffffffff8100a87b:	0f b6 10             	movzbl (%rax),%edx
ffffffff8100a87e:	48 8b 4d e0          	mov    -0x20(%rbp),%rcx
ffffffff8100a882:	48 8b 45 f8          	mov    -0x8(%rbp),%rax
ffffffff8100a886:	48 01 c8             	add    %rcx,%rax
ffffffff8100a889:	0f b6 00             	movzbl (%rax),%eax
ffffffff8100a88c:	38 c2                	cmp    %al,%dl
ffffffff8100a88e:	74 28                	je     ffffffff8100a8b8 <memcmp+0x6e>
ffffffff8100a890:	48 8b 55 e8          	mov    -0x18(%rbp),%rdx
ffffffff8100a894:	48 8b 45 f8          	mov    -0x8(%rbp),%rax
ffffffff8100a898:	48 01 d0             	add    %rdx,%rax
ffffffff8100a89b:	0f b6 00             	movzbl (%rax),%eax
ffffffff8100a89e:	0f be d0             	movsbl %al,%edx
ffffffff8100a8a1:	48 8b 4d e0          	mov    -0x20(%rbp),%rcx
ffffffff8100a8a5:	48 8b 45 f8          	mov    -0x8(%rbp),%rax
ffffffff8100a8a9:	48 01 c8             	add    %rcx,%rax
ffffffff8100a8ac:	0f b6 00             	movzbl (%rax),%eax
ffffffff8100a8af:	0f be c0             	movsbl %al,%eax
ffffffff8100a8b2:	29 c2                	sub    %eax,%edx
ffffffff8100a8b4:	89 d0                	mov    %edx,%eax
ffffffff8100a8b6:	eb 14                	jmp    ffffffff8100a8cc <memcmp+0x82>
ffffffff8100a8b8:	48 83 45 f8 01       	addq   $0x1,-0x8(%rbp)
ffffffff8100a8bd:	48 8b 45 f8          	mov    -0x8(%rbp),%rax
ffffffff8100a8c1:	48 3b 45 d8          	cmp    -0x28(%rbp),%rax
ffffffff8100a8c5:	72 a9                	jb     ffffffff8100a870 <memcmp+0x26>
ffffffff8100a8c7:	b8 00 00 00 00       	mov    $0x0,%eax
ffffffff8100a8cc:	c9                   	leaveq 
ffffffff8100a8cd:	c3                   	retq   

ffffffff8100a8ce <pagemgr_boot_temp_map>:
ffffffff8100a8ce:	55                   	push   %rbp
ffffffff8100a8cf:	48 89 e5             	mov    %rsp,%rbp
ffffffff8100a8d2:	48 83 ec 30          	sub    $0x30,%rsp
ffffffff8100a8d6:	48 89 7d d8          	mov    %rdi,-0x28(%rbp)
ffffffff8100a8da:	66 c7 45 f6 00 00    	movw   $0x0,-0xa(%rbp)
ffffffff8100a8e0:	48 c7 45 f8 00 00 00 	movq   $0x0,-0x8(%rbp)
ffffffff8100a8e7:	00 
ffffffff8100a8e8:	48 c7 45 e8 00 00 00 	movq   $0x0,-0x18(%rbp)
ffffffff8100a8ef:	00 
ffffffff8100a8f0:	48 c7 45 e0 00 00 00 	movq   $0x0,-0x20(%rbp)
ffffffff8100a8f7:	00 
ffffffff8100a8f8:	48 8b 45 d8          	mov    -0x28(%rbp),%rax
ffffffff8100a8fc:	66 25 ff 0f          	and    $0xfff,%ax
ffffffff8100a900:	66 89 45 f6          	mov    %ax,-0xa(%rbp)
ffffffff8100a904:	0f b7 45 f6          	movzwl -0xa(%rbp),%eax
ffffffff8100a908:	48 29 45 d8          	sub    %rax,-0x28(%rbp)
ffffffff8100a90c:	48 8b 05 b5 68 01 00 	mov    0x168b5(%rip),%rax        # ffffffff810211c8 <page_manager+0x8>
ffffffff8100a913:	48 85 c0             	test   %rax,%rax
ffffffff8100a916:	75 73                	jne    ffffffff8100a98b <pagemgr_boot_temp_map+0xbd>
ffffffff8100a918:	48 c7 45 e8 00 00 10 	movq   $0x100000,-0x18(%rbp)
ffffffff8100a91f:	00 
ffffffff8100a920:	48 c7 c0 00 00 00 80 	mov    $0xffffffff80000000,%rax
ffffffff8100a927:	48 0d 00 e0 ff 3f    	or     $0x3fffe000,%rax
ffffffff8100a92d:	48 89 45 f8          	mov    %rax,-0x8(%rbp)
ffffffff8100a931:	48 8b 45 e8          	mov    -0x18(%rbp),%rax
ffffffff8100a935:	48 05 f0 2f 20 00    	add    $0x202ff0,%rax
ffffffff8100a93b:	48 89 45 e0          	mov    %rax,-0x20(%rbp)
ffffffff8100a93f:	48 8b 45 d8          	mov    -0x28(%rbp),%rax
ffffffff8100a943:	48 83 c8 1b          	or     $0x1b,%rax
ffffffff8100a947:	48 89 c2             	mov    %rax,%rdx
ffffffff8100a94a:	48 8b 45 e0          	mov    -0x20(%rbp),%rax
ffffffff8100a94e:	48 89 10             	mov    %rdx,(%rax)
ffffffff8100a951:	48 8b 45 d8          	mov    -0x28(%rbp),%rax
ffffffff8100a955:	48 8d 90 00 10 00 00 	lea    0x1000(%rax),%rdx
ffffffff8100a95c:	48 8b 45 e0          	mov    -0x20(%rbp),%rax
ffffffff8100a960:	48 83 c0 08          	add    $0x8,%rax
ffffffff8100a964:	48 83 ca 1b          	or     $0x1b,%rdx
ffffffff8100a968:	48 89 10             	mov    %rdx,(%rax)
ffffffff8100a96b:	48 8b 45 f8          	mov    -0x8(%rbp),%rax
ffffffff8100a96f:	48 89 c7             	mov    %rax,%rdi
ffffffff8100a972:	e8 63 fd ff ff       	callq  ffffffff8100a6da <__invlpg>
ffffffff8100a977:	48 8b 45 f8          	mov    -0x8(%rbp),%rax
ffffffff8100a97b:	48 05 00 10 00 00    	add    $0x1000,%rax
ffffffff8100a981:	48 89 c7             	mov    %rax,%rdi
ffffffff8100a984:	e8 51 fd ff ff       	callq  ffffffff8100a6da <__invlpg>
ffffffff8100a989:	eb 2c                	jmp    ffffffff8100a9b7 <pagemgr_boot_temp_map+0xe9>
ffffffff8100a98b:	48 8b 45 d8          	mov    -0x28(%rbp),%rax
ffffffff8100a98f:	be fe 01 00 00       	mov    $0x1fe,%esi
ffffffff8100a994:	48 89 c7             	mov    %rax,%rdi
ffffffff8100a997:	e8 c6 08 00 00       	callq  ffffffff8100b262 <pagemgr_temp_map>
ffffffff8100a99c:	48 89 45 f8          	mov    %rax,-0x8(%rbp)
ffffffff8100a9a0:	48 8b 45 d8          	mov    -0x28(%rbp),%rax
ffffffff8100a9a4:	48 05 00 10 00 00    	add    $0x1000,%rax
ffffffff8100a9aa:	be ff 01 00 00       	mov    $0x1ff,%esi
ffffffff8100a9af:	48 89 c7             	mov    %rax,%rdi
ffffffff8100a9b2:	e8 ab 08 00 00       	callq  ffffffff8100b262 <pagemgr_temp_map>
ffffffff8100a9b7:	0f b7 55 f6          	movzwl -0xa(%rbp),%edx
ffffffff8100a9bb:	48 8b 45 f8          	mov    -0x8(%rbp),%rax
ffffffff8100a9bf:	48 01 d0             	add    %rdx,%rax
ffffffff8100a9c2:	c9                   	leaveq 
ffffffff8100a9c3:	c3                   	retq   

ffffffff8100a9c4 <pagemgr_boot_alloc_cb>:
ffffffff8100a9c4:	55                   	push   %rbp
ffffffff8100a9c5:	48 89 e5             	mov    %rsp,%rbp
ffffffff8100a9c8:	48 83 ec 28          	sub    $0x28,%rsp
ffffffff8100a9cc:	48 89 7d e8          	mov    %rdi,-0x18(%rbp)
ffffffff8100a9d0:	48 89 75 e0          	mov    %rsi,-0x20(%rbp)
ffffffff8100a9d4:	48 89 55 d8          	mov    %rdx,-0x28(%rbp)
ffffffff8100a9d8:	48 8b 45 d8          	mov    -0x28(%rbp),%rax
ffffffff8100a9dc:	48 89 45 f8          	mov    %rax,-0x8(%rbp)
ffffffff8100a9e0:	48 8b 45 f8          	mov    -0x8(%rbp),%rax
ffffffff8100a9e4:	48 8b 00             	mov    (%rax),%rax
ffffffff8100a9e7:	48 85 c0             	test   %rax,%rax
ffffffff8100a9ea:	74 07                	je     ffffffff8100a9f3 <pagemgr_boot_alloc_cb+0x2f>
ffffffff8100a9ec:	b8 00 00 00 00       	mov    $0x0,%eax
ffffffff8100a9f1:	eb 10                	jmp    ffffffff8100aa03 <pagemgr_boot_alloc_cb+0x3f>
ffffffff8100a9f3:	48 8b 45 f8          	mov    -0x8(%rbp),%rax
ffffffff8100a9f7:	48 8b 55 e8          	mov    -0x18(%rbp),%rdx
ffffffff8100a9fb:	48 89 10             	mov    %rdx,(%rax)
ffffffff8100a9fe:	b8 01 00 00 00       	mov    $0x1,%eax
ffffffff8100aa03:	c9                   	leaveq 
ffffffff8100aa04:	c3                   	retq   

ffffffff8100aa05 <pagemgr_boot_alloc_pf>:
ffffffff8100aa05:	55                   	push   %rbp
ffffffff8100aa06:	48 89 e5             	mov    %rsp,%rbp
ffffffff8100aa09:	48 83 ec 10          	sub    $0x10,%rsp
ffffffff8100aa0d:	48 c7 45 f8 00 00 00 	movq   $0x0,-0x8(%rbp)
ffffffff8100aa14:	00 
ffffffff8100aa15:	48 8b 05 ec 67 01 00 	mov    0x167ec(%rip),%rax        # ffffffff81021208 <physmm>
ffffffff8100aa1c:	4c 8b 00             	mov    (%rax),%r8
ffffffff8100aa1f:	48 8d 45 f8          	lea    -0x8(%rbp),%rax
ffffffff8100aa23:	48 89 c1             	mov    %rax,%rcx
ffffffff8100aa26:	48 c7 c2 c4 a9 00 81 	mov    $0xffffffff8100a9c4,%rdx
ffffffff8100aa2d:	be 00 00 00 00       	mov    $0x0,%esi
ffffffff8100aa32:	bf 01 00 00 00       	mov    $0x1,%edi
ffffffff8100aa37:	41 ff d0             	callq  *%r8
ffffffff8100aa3a:	48 8b 45 f8          	mov    -0x8(%rbp),%rax
ffffffff8100aa3e:	c9                   	leaveq 
ffffffff8100aa3f:	c3                   	retq   

ffffffff8100aa40 <pagemgr_attr_translate>:
ffffffff8100aa40:	55                   	push   %rbp
ffffffff8100aa41:	48 89 e5             	mov    %rsp,%rbp
ffffffff8100aa44:	48 83 ec 10          	sub    $0x10,%rsp
ffffffff8100aa48:	48 89 7d f8          	mov    %rdi,-0x8(%rbp)
ffffffff8100aa4c:	89 75 f4             	mov    %esi,-0xc(%rbp)
ffffffff8100aa4f:	48 8b 45 f8          	mov    -0x8(%rbp),%rax
ffffffff8100aa53:	0f b6 00             	movzbl (%rax),%eax
ffffffff8100aa56:	83 e0 01             	and    $0x1,%eax
ffffffff8100aa59:	84 c0                	test   %al,%al
ffffffff8100aa5b:	0f 84 ad 00 00 00    	je     ffffffff8100ab0e <pagemgr_attr_translate+0xce>
ffffffff8100aa61:	8b 45 f4             	mov    -0xc(%rbp),%eax
ffffffff8100aa64:	83 e0 01             	and    $0x1,%eax
ffffffff8100aa67:	85 c0                	test   %eax,%eax
ffffffff8100aa69:	0f 95 c2             	setne  %dl
ffffffff8100aa6c:	48 8b 45 f8          	mov    -0x8(%rbp),%rax
ffffffff8100aa70:	83 e2 01             	and    $0x1,%edx
ffffffff8100aa73:	8d 0c 12             	lea    (%rdx,%rdx,1),%ecx
ffffffff8100aa76:	0f b6 10             	movzbl (%rax),%edx
ffffffff8100aa79:	83 e2 fd             	and    $0xfffffffd,%edx
ffffffff8100aa7c:	09 ca                	or     %ecx,%edx
ffffffff8100aa7e:	88 10                	mov    %dl,(%rax)
ffffffff8100aa80:	8b 45 f4             	mov    -0xc(%rbp),%eax
ffffffff8100aa83:	83 e0 02             	and    $0x2,%eax
ffffffff8100aa86:	85 c0                	test   %eax,%eax
ffffffff8100aa88:	0f 95 c2             	setne  %dl
ffffffff8100aa8b:	48 8b 45 f8          	mov    -0x8(%rbp),%rax
ffffffff8100aa8f:	83 e2 01             	and    $0x1,%edx
ffffffff8100aa92:	8d 0c 95 00 00 00 00 	lea    0x0(,%rdx,4),%ecx
ffffffff8100aa99:	0f b6 10             	movzbl (%rax),%edx
ffffffff8100aa9c:	83 e2 fb             	and    $0xfffffffb,%edx
ffffffff8100aa9f:	09 ca                	or     %ecx,%edx
ffffffff8100aaa1:	88 10                	mov    %dl,(%rax)
ffffffff8100aaa3:	8b 45 f4             	mov    -0xc(%rbp),%eax
ffffffff8100aaa6:	83 e0 04             	and    $0x4,%eax
ffffffff8100aaa9:	85 c0                	test   %eax,%eax
ffffffff8100aaab:	0f 95 c2             	setne  %dl
ffffffff8100aaae:	48 8b 45 f8          	mov    -0x8(%rbp),%rax
ffffffff8100aab2:	83 e2 01             	and    $0x1,%edx
ffffffff8100aab5:	8d 0c d5 00 00 00 00 	lea    0x0(,%rdx,8),%ecx
ffffffff8100aabc:	0f b6 10             	movzbl (%rax),%edx
ffffffff8100aabf:	83 e2 f7             	and    $0xfffffff7,%edx
ffffffff8100aac2:	09 ca                	or     %ecx,%edx
ffffffff8100aac4:	88 10                	mov    %dl,(%rax)
ffffffff8100aac6:	8b 45 f4             	mov    -0xc(%rbp),%eax
ffffffff8100aac9:	83 e0 08             	and    $0x8,%eax
ffffffff8100aacc:	85 c0                	test   %eax,%eax
ffffffff8100aace:	0f 95 c2             	setne  %dl
ffffffff8100aad1:	48 8b 45 f8          	mov    -0x8(%rbp),%rax
ffffffff8100aad5:	83 e2 01             	and    $0x1,%edx
ffffffff8100aad8:	89 d1                	mov    %edx,%ecx
ffffffff8100aada:	c1 e1 04             	shl    $0x4,%ecx
ffffffff8100aadd:	0f b6 10             	movzbl (%rax),%edx
ffffffff8100aae0:	83 e2 ef             	and    $0xffffffef,%edx
ffffffff8100aae3:	09 ca                	or     %ecx,%edx
ffffffff8100aae5:	88 10                	mov    %dl,(%rax)
ffffffff8100aae7:	8b 45 f4             	mov    -0xc(%rbp),%eax
ffffffff8100aaea:	83 e0 10             	and    $0x10,%eax
ffffffff8100aaed:	85 c0                	test   %eax,%eax
ffffffff8100aaef:	0f 94 c2             	sete   %dl
ffffffff8100aaf2:	48 8b 45 f8          	mov    -0x8(%rbp),%rax
ffffffff8100aaf6:	89 d1                	mov    %edx,%ecx
ffffffff8100aaf8:	c1 e1 07             	shl    $0x7,%ecx
ffffffff8100aafb:	0f b6 50 07          	movzbl 0x7(%rax),%edx
ffffffff8100aaff:	83 e2 7f             	and    $0x7f,%edx
ffffffff8100ab02:	09 ca                	or     %ecx,%edx
ffffffff8100ab04:	88 50 07             	mov    %dl,0x7(%rax)
ffffffff8100ab07:	b8 00 00 00 00       	mov    $0x0,%eax
ffffffff8100ab0c:	eb 05                	jmp    ffffffff8100ab13 <pagemgr_attr_translate+0xd3>
ffffffff8100ab0e:	b8 ff ff ff ff       	mov    $0xffffffff,%eax
ffffffff8100ab13:	c9                   	leaveq 
ffffffff8100ab14:	c3                   	retq   

ffffffff8100ab15 <pagemgr_build_init_pagetable>:
ffffffff8100ab15:	55                   	push   %rbp
ffffffff8100ab16:	48 89 e5             	mov    %rsp,%rbp
ffffffff8100ab19:	48 83 c4 80          	add    $0xffffffffffffff80,%rsp
ffffffff8100ab1d:	48 c7 45 f8 00 30 00 	movq   $0x1003000,-0x8(%rbp)
ffffffff8100ab24:	01 
ffffffff8100ab25:	48 c7 45 c0 00 00 00 	movq   $0x0,-0x40(%rbp)
ffffffff8100ab2c:	00 
ffffffff8100ab2d:	48 c7 45 b8 00 00 00 	movq   $0x0,-0x48(%rbp)
ffffffff8100ab34:	00 
ffffffff8100ab35:	48 c7 45 f0 00 00 00 	movq   $0x0,-0x10(%rbp)
ffffffff8100ab3c:	00 
ffffffff8100ab3d:	48 c7 45 e8 00 00 00 	movq   $0x0,-0x18(%rbp)
ffffffff8100ab44:	00 
ffffffff8100ab45:	48 c7 45 e0 00 00 00 	movq   $0x0,-0x20(%rbp)
ffffffff8100ab4c:	00 
ffffffff8100ab4d:	48 c7 45 d8 00 00 00 	movq   $0x0,-0x28(%rbp)
ffffffff8100ab54:	00 
ffffffff8100ab55:	66 c7 45 d6 ff ff    	movw   $0xffff,-0x2a(%rbp)
ffffffff8100ab5b:	66 c7 45 d4 ff ff    	movw   $0xffff,-0x2c(%rbp)
ffffffff8100ab61:	66 c7 45 d2 ff ff    	movw   $0xffff,-0x2e(%rbp)
ffffffff8100ab67:	66 c7 45 d0 ff ff    	movw   $0xffff,-0x30(%rbp)
ffffffff8100ab6d:	66 c7 45 b6 ff ff    	movw   $0xffff,-0x4a(%rbp)
ffffffff8100ab73:	c6 45 b5 00          	movb   $0x0,-0x4b(%rbp)
ffffffff8100ab77:	0f b6 05 52 66 01 00 	movzbl 0x16652(%rip),%eax        # ffffffff810211d0 <page_manager+0x10>
ffffffff8100ab7e:	88 45 b4             	mov    %al,-0x4c(%rbp)
ffffffff8100ab81:	48 8b 05 38 66 01 00 	mov    0x16638(%rip),%rax        # ffffffff810211c0 <page_manager>
ffffffff8100ab88:	48 89 c7             	mov    %rax,%rdi
ffffffff8100ab8b:	e8 3e fd ff ff       	callq  ffffffff8100a8ce <pagemgr_boot_temp_map>
ffffffff8100ab90:	48 89 45 d8          	mov    %rax,-0x28(%rbp)
ffffffff8100ab94:	48 8b 45 d8          	mov    -0x28(%rbp),%rax
ffffffff8100ab98:	ba 00 10 00 00       	mov    $0x1000,%edx
ffffffff8100ab9d:	be 00 00 00 00       	mov    $0x0,%esi
ffffffff8100aba2:	48 89 c7             	mov    %rax,%rdi
ffffffff8100aba5:	e8 10 fc ff ff       	callq  ffffffff8100a7ba <memset>
ffffffff8100abaa:	c6 45 cf 00          	movb   $0x0,-0x31(%rbp)
ffffffff8100abae:	e9 5c 05 00 00       	jmpq   ffffffff8100b10f <pagemgr_build_init_pagetable+0x5fa>
ffffffff8100abb3:	80 7d cf 00          	cmpb   $0x0,-0x31(%rbp)
ffffffff8100abb7:	75 23                	jne    ffffffff8100abdc <pagemgr_build_init_pagetable+0xc7>
ffffffff8100abb9:	48 c7 c2 00 00 00 80 	mov    $0xffffffff80000000,%rdx
ffffffff8100abc0:	48 8b 45 f8          	mov    -0x8(%rbp),%rax
ffffffff8100abc4:	48 01 d0             	add    %rdx,%rax
ffffffff8100abc7:	48 89 45 f0          	mov    %rax,-0x10(%rbp)
ffffffff8100abcb:	48 c7 c0 00 20 02 81 	mov    $0xffffffff81022000,%rax
ffffffff8100abd2:	48 2b 45 f0          	sub    -0x10(%rbp),%rax
ffffffff8100abd6:	48 89 45 e8          	mov    %rax,-0x18(%rbp)
ffffffff8100abda:	eb 10                	jmp    ffffffff8100abec <pagemgr_build_init_pagetable+0xd7>
ffffffff8100abdc:	48 c7 45 f0 00 00 e0 	movq   $0xffffffffffe00000,-0x10(%rbp)
ffffffff8100abe3:	ff 
ffffffff8100abe4:	48 c7 45 e8 00 00 20 	movq   $0x200000,-0x18(%rbp)
ffffffff8100abeb:	00 
ffffffff8100abec:	48 c7 45 e0 00 00 00 	movq   $0x0,-0x20(%rbp)
ffffffff8100abf3:	00 
ffffffff8100abf4:	e9 fe 04 00 00       	jmpq   ffffffff8100b0f7 <pagemgr_build_init_pagetable+0x5e2>
ffffffff8100abf9:	48 8b 55 f0          	mov    -0x10(%rbp),%rdx
ffffffff8100abfd:	48 8b 45 e0          	mov    -0x20(%rbp),%rax
ffffffff8100ac01:	48 01 d0             	add    %rdx,%rax
ffffffff8100ac04:	48 89 45 b8          	mov    %rax,-0x48(%rbp)
ffffffff8100ac08:	80 7d b4 00          	cmpb   $0x0,-0x4c(%rbp)
ffffffff8100ac0c:	0f 84 db 00 00 00    	je     ffffffff8100aced <pagemgr_build_init_pagetable+0x1d8>
ffffffff8100ac12:	0f b7 45 d6          	movzwl -0x2a(%rbp),%eax
ffffffff8100ac16:	48 8b 55 b8          	mov    -0x48(%rbp),%rdx
ffffffff8100ac1a:	48 c1 ea 2f          	shr    $0x2f,%rdx
ffffffff8100ac1e:	81 e2 ff 01 00 00    	and    $0x1ff,%edx
ffffffff8100ac24:	48 39 d0             	cmp    %rdx,%rax
ffffffff8100ac27:	0f 84 c0 00 00 00    	je     ffffffff8100aced <pagemgr_build_init_pagetable+0x1d8>
ffffffff8100ac2d:	48 8b 45 b8          	mov    -0x48(%rbp),%rax
ffffffff8100ac31:	48 c1 e8 2f          	shr    $0x2f,%rax
ffffffff8100ac35:	66 25 ff 01          	and    $0x1ff,%ax
ffffffff8100ac39:	66 89 45 d6          	mov    %ax,-0x2a(%rbp)
ffffffff8100ac3d:	b8 00 00 00 00       	mov    $0x0,%eax
ffffffff8100ac42:	e8 be fd ff ff       	callq  ffffffff8100aa05 <pagemgr_boot_alloc_pf>
ffffffff8100ac47:	48 89 45 ac          	mov    %rax,-0x54(%rbp)
ffffffff8100ac4b:	48 8b 45 ac          	mov    -0x54(%rbp),%rax
ffffffff8100ac4f:	48 85 c0             	test   %rax,%rax
ffffffff8100ac52:	75 0a                	jne    ffffffff8100ac5e <pagemgr_build_init_pagetable+0x149>
ffffffff8100ac54:	b8 ff ff ff ff       	mov    $0xffffffff,%eax
ffffffff8100ac59:	e9 cb 04 00 00       	jmpq   ffffffff8100b129 <pagemgr_build_init_pagetable+0x614>
ffffffff8100ac5e:	0f b6 45 ac          	movzbl -0x54(%rbp),%eax
ffffffff8100ac62:	83 c8 01             	or     $0x1,%eax
ffffffff8100ac65:	88 45 ac             	mov    %al,-0x54(%rbp)
ffffffff8100ac68:	0f b6 45 ac          	movzbl -0x54(%rbp),%eax
ffffffff8100ac6c:	83 c8 02             	or     $0x2,%eax
ffffffff8100ac6f:	88 45 ac             	mov    %al,-0x54(%rbp)
ffffffff8100ac72:	48 8b 45 ac          	mov    -0x54(%rbp),%rax
ffffffff8100ac76:	48 ba 00 f0 ff ff ff 	movabs $0x7ffffffffffff000,%rdx
ffffffff8100ac7d:	ff ff 7f 
ffffffff8100ac80:	48 21 d0             	and    %rdx,%rax
ffffffff8100ac83:	48 89 c7             	mov    %rax,%rdi
ffffffff8100ac86:	e8 43 fc ff ff       	callq  ffffffff8100a8ce <pagemgr_boot_temp_map>
ffffffff8100ac8b:	48 89 45 d8          	mov    %rax,-0x28(%rbp)
ffffffff8100ac8f:	48 8b 45 d8          	mov    -0x28(%rbp),%rax
ffffffff8100ac93:	ba 00 10 00 00       	mov    $0x1000,%edx
ffffffff8100ac98:	be 00 00 00 00       	mov    $0x0,%esi
ffffffff8100ac9d:	48 89 c7             	mov    %rax,%rdi
ffffffff8100aca0:	e8 15 fb ff ff       	callq  ffffffff8100a7ba <memset>
ffffffff8100aca5:	48 8b 05 14 65 01 00 	mov    0x16514(%rip),%rax        # ffffffff810211c0 <page_manager>
ffffffff8100acac:	48 ba 00 f0 ff ff ff 	movabs $0x7ffffffffffff000,%rdx
ffffffff8100acb3:	ff ff 7f 
ffffffff8100acb6:	48 21 d0             	and    %rdx,%rax
ffffffff8100acb9:	48 89 c7             	mov    %rax,%rdi
ffffffff8100acbc:	e8 0d fc ff ff       	callq  ffffffff8100a8ce <pagemgr_boot_temp_map>
ffffffff8100acc1:	48 89 45 d8          	mov    %rax,-0x28(%rbp)
ffffffff8100acc5:	0f b7 45 d6          	movzwl -0x2a(%rbp),%eax
ffffffff8100acc9:	48 8d 14 c5 00 00 00 	lea    0x0(,%rax,8),%rdx
ffffffff8100acd0:	00 
ffffffff8100acd1:	48 8b 45 d8          	mov    -0x28(%rbp),%rax
ffffffff8100acd5:	48 8d 0c 02          	lea    (%rdx,%rax,1),%rcx
ffffffff8100acd9:	48 8d 45 ac          	lea    -0x54(%rbp),%rax
ffffffff8100acdd:	ba 08 00 00 00       	mov    $0x8,%edx
ffffffff8100ace2:	48 89 c6             	mov    %rax,%rsi
ffffffff8100ace5:	48 89 cf             	mov    %rcx,%rdi
ffffffff8100ace8:	e8 0f fb ff ff       	callq  ffffffff8100a7fc <memcpy>
ffffffff8100aced:	0f b7 45 d4          	movzwl -0x2c(%rbp),%eax
ffffffff8100acf1:	48 8b 55 b8          	mov    -0x48(%rbp),%rdx
ffffffff8100acf5:	48 c1 ea 27          	shr    $0x27,%rdx
ffffffff8100acf9:	81 e2 ff 01 00 00    	and    $0x1ff,%edx
ffffffff8100acff:	48 39 d0             	cmp    %rdx,%rax
ffffffff8100ad02:	0f 84 d8 00 00 00    	je     ffffffff8100ade0 <pagemgr_build_init_pagetable+0x2cb>
ffffffff8100ad08:	48 8b 45 b8          	mov    -0x48(%rbp),%rax
ffffffff8100ad0c:	48 c1 e8 27          	shr    $0x27,%rax
ffffffff8100ad10:	66 25 ff 01          	and    $0x1ff,%ax
ffffffff8100ad14:	66 89 45 d4          	mov    %ax,-0x2c(%rbp)
ffffffff8100ad18:	b8 00 00 00 00       	mov    $0x0,%eax
ffffffff8100ad1d:	e8 e3 fc ff ff       	callq  ffffffff8100aa05 <pagemgr_boot_alloc_pf>
ffffffff8100ad22:	48 89 45 a4          	mov    %rax,-0x5c(%rbp)
ffffffff8100ad26:	48 8b 45 a4          	mov    -0x5c(%rbp),%rax
ffffffff8100ad2a:	48 85 c0             	test   %rax,%rax
ffffffff8100ad2d:	75 0a                	jne    ffffffff8100ad39 <pagemgr_build_init_pagetable+0x224>
ffffffff8100ad2f:	b8 ff ff ff ff       	mov    $0xffffffff,%eax
ffffffff8100ad34:	e9 f0 03 00 00       	jmpq   ffffffff8100b129 <pagemgr_build_init_pagetable+0x614>
ffffffff8100ad39:	0f b6 45 a4          	movzbl -0x5c(%rbp),%eax
ffffffff8100ad3d:	83 c8 01             	or     $0x1,%eax
ffffffff8100ad40:	88 45 a4             	mov    %al,-0x5c(%rbp)
ffffffff8100ad43:	0f b6 45 a4          	movzbl -0x5c(%rbp),%eax
ffffffff8100ad47:	83 c8 02             	or     $0x2,%eax
ffffffff8100ad4a:	88 45 a4             	mov    %al,-0x5c(%rbp)
ffffffff8100ad4d:	48 8b 45 a4          	mov    -0x5c(%rbp),%rax
ffffffff8100ad51:	48 ba 00 f0 ff ff ff 	movabs $0x7ffffffffffff000,%rdx
ffffffff8100ad58:	ff ff 7f 
ffffffff8100ad5b:	48 21 d0             	and    %rdx,%rax
ffffffff8100ad5e:	48 89 c7             	mov    %rax,%rdi
ffffffff8100ad61:	e8 68 fb ff ff       	callq  ffffffff8100a8ce <pagemgr_boot_temp_map>
ffffffff8100ad66:	48 89 45 d8          	mov    %rax,-0x28(%rbp)
ffffffff8100ad6a:	48 8b 45 d8          	mov    -0x28(%rbp),%rax
ffffffff8100ad6e:	ba 00 10 00 00       	mov    $0x1000,%edx
ffffffff8100ad73:	be 00 00 00 00       	mov    $0x0,%esi
ffffffff8100ad78:	48 89 c7             	mov    %rax,%rdi
ffffffff8100ad7b:	e8 3a fa ff ff       	callq  ffffffff8100a7ba <memset>
ffffffff8100ad80:	80 7d b4 00          	cmpb   $0x0,-0x4c(%rbp)
ffffffff8100ad84:	74 1f                	je     ffffffff8100ada5 <pagemgr_build_init_pagetable+0x290>
ffffffff8100ad86:	48 8b 45 ac          	mov    -0x54(%rbp),%rax
ffffffff8100ad8a:	48 ba 00 f0 ff ff ff 	movabs $0x7ffffffffffff000,%rdx
ffffffff8100ad91:	ff ff 7f 
ffffffff8100ad94:	48 21 d0             	and    %rdx,%rax
ffffffff8100ad97:	48 89 c7             	mov    %rax,%rdi
ffffffff8100ad9a:	e8 2f fb ff ff       	callq  ffffffff8100a8ce <pagemgr_boot_temp_map>
ffffffff8100ad9f:	48 89 45 d8          	mov    %rax,-0x28(%rbp)
ffffffff8100ada3:	eb 13                	jmp    ffffffff8100adb8 <pagemgr_build_init_pagetable+0x2a3>
ffffffff8100ada5:	48 8b 05 14 64 01 00 	mov    0x16414(%rip),%rax        # ffffffff810211c0 <page_manager>
ffffffff8100adac:	48 89 c7             	mov    %rax,%rdi
ffffffff8100adaf:	e8 1a fb ff ff       	callq  ffffffff8100a8ce <pagemgr_boot_temp_map>
ffffffff8100adb4:	48 89 45 d8          	mov    %rax,-0x28(%rbp)
ffffffff8100adb8:	0f b7 45 d4          	movzwl -0x2c(%rbp),%eax
ffffffff8100adbc:	48 8d 14 c5 00 00 00 	lea    0x0(,%rax,8),%rdx
ffffffff8100adc3:	00 
ffffffff8100adc4:	48 8b 45 d8          	mov    -0x28(%rbp),%rax
ffffffff8100adc8:	48 8d 0c 02          	lea    (%rdx,%rax,1),%rcx
ffffffff8100adcc:	48 8d 45 a4          	lea    -0x5c(%rbp),%rax
ffffffff8100add0:	ba 08 00 00 00       	mov    $0x8,%edx
ffffffff8100add5:	48 89 c6             	mov    %rax,%rsi
ffffffff8100add8:	48 89 cf             	mov    %rcx,%rdi
ffffffff8100addb:	e8 1c fa ff ff       	callq  ffffffff8100a7fc <memcpy>
ffffffff8100ade0:	0f b7 45 d2          	movzwl -0x2e(%rbp),%eax
ffffffff8100ade4:	48 8b 55 b8          	mov    -0x48(%rbp),%rdx
ffffffff8100ade8:	48 c1 ea 1e          	shr    $0x1e,%rdx
ffffffff8100adec:	81 e2 ff 01 00 00    	and    $0x1ff,%edx
ffffffff8100adf2:	48 39 d0             	cmp    %rdx,%rax
ffffffff8100adf5:	0f 84 bd 00 00 00    	je     ffffffff8100aeb8 <pagemgr_build_init_pagetable+0x3a3>
ffffffff8100adfb:	48 8b 45 b8          	mov    -0x48(%rbp),%rax
ffffffff8100adff:	48 c1 e8 1e          	shr    $0x1e,%rax
ffffffff8100ae03:	66 25 ff 01          	and    $0x1ff,%ax
ffffffff8100ae07:	66 89 45 d2          	mov    %ax,-0x2e(%rbp)
ffffffff8100ae0b:	b8 00 00 00 00       	mov    $0x0,%eax
ffffffff8100ae10:	e8 f0 fb ff ff       	callq  ffffffff8100aa05 <pagemgr_boot_alloc_pf>
ffffffff8100ae15:	48 89 45 9c          	mov    %rax,-0x64(%rbp)
ffffffff8100ae19:	48 8b 45 9c          	mov    -0x64(%rbp),%rax
ffffffff8100ae1d:	48 85 c0             	test   %rax,%rax
ffffffff8100ae20:	75 0a                	jne    ffffffff8100ae2c <pagemgr_build_init_pagetable+0x317>
ffffffff8100ae22:	b8 ff ff ff ff       	mov    $0xffffffff,%eax
ffffffff8100ae27:	e9 fd 02 00 00       	jmpq   ffffffff8100b129 <pagemgr_build_init_pagetable+0x614>
ffffffff8100ae2c:	0f b6 45 9c          	movzbl -0x64(%rbp),%eax
ffffffff8100ae30:	83 c8 01             	or     $0x1,%eax
ffffffff8100ae33:	88 45 9c             	mov    %al,-0x64(%rbp)
ffffffff8100ae36:	0f b6 45 9c          	movzbl -0x64(%rbp),%eax
ffffffff8100ae3a:	83 c8 02             	or     $0x2,%eax
ffffffff8100ae3d:	88 45 9c             	mov    %al,-0x64(%rbp)
ffffffff8100ae40:	48 8b 45 9c          	mov    -0x64(%rbp),%rax
ffffffff8100ae44:	48 ba 00 f0 ff ff ff 	movabs $0x7ffffffffffff000,%rdx
ffffffff8100ae4b:	ff ff 7f 
ffffffff8100ae4e:	48 21 d0             	and    %rdx,%rax
ffffffff8100ae51:	48 89 c7             	mov    %rax,%rdi
ffffffff8100ae54:	e8 75 fa ff ff       	callq  ffffffff8100a8ce <pagemgr_boot_temp_map>
ffffffff8100ae59:	48 89 45 d8          	mov    %rax,-0x28(%rbp)
ffffffff8100ae5d:	48 8b 45 d8          	mov    -0x28(%rbp),%rax
ffffffff8100ae61:	ba 00 10 00 00       	mov    $0x1000,%edx
ffffffff8100ae66:	be 00 00 00 00       	mov    $0x0,%esi
ffffffff8100ae6b:	48 89 c7             	mov    %rax,%rdi
ffffffff8100ae6e:	e8 47 f9 ff ff       	callq  ffffffff8100a7ba <memset>
ffffffff8100ae73:	48 8b 45 a4          	mov    -0x5c(%rbp),%rax
ffffffff8100ae77:	48 ba 00 f0 ff ff ff 	movabs $0x7ffffffffffff000,%rdx
ffffffff8100ae7e:	ff ff 7f 
ffffffff8100ae81:	48 21 d0             	and    %rdx,%rax
ffffffff8100ae84:	48 89 c7             	mov    %rax,%rdi
ffffffff8100ae87:	e8 42 fa ff ff       	callq  ffffffff8100a8ce <pagemgr_boot_temp_map>
ffffffff8100ae8c:	48 89 45 d8          	mov    %rax,-0x28(%rbp)
ffffffff8100ae90:	0f b7 45 d2          	movzwl -0x2e(%rbp),%eax
ffffffff8100ae94:	48 8d 14 c5 00 00 00 	lea    0x0(,%rax,8),%rdx
ffffffff8100ae9b:	00 
ffffffff8100ae9c:	48 8b 45 d8          	mov    -0x28(%rbp),%rax
ffffffff8100aea0:	48 8d 0c 02          	lea    (%rdx,%rax,1),%rcx
ffffffff8100aea4:	48 8d 45 9c          	lea    -0x64(%rbp),%rax
ffffffff8100aea8:	ba 08 00 00 00       	mov    $0x8,%edx
ffffffff8100aead:	48 89 c6             	mov    %rax,%rsi
ffffffff8100aeb0:	48 89 cf             	mov    %rcx,%rdi
ffffffff8100aeb3:	e8 44 f9 ff ff       	callq  ffffffff8100a7fc <memcpy>
ffffffff8100aeb8:	0f b7 45 d0          	movzwl -0x30(%rbp),%eax
ffffffff8100aebc:	48 8b 55 b8          	mov    -0x48(%rbp),%rdx
ffffffff8100aec0:	48 c1 ea 15          	shr    $0x15,%rdx
ffffffff8100aec4:	81 e2 ff 01 00 00    	and    $0x1ff,%edx
ffffffff8100aeca:	48 39 d0             	cmp    %rdx,%rax
ffffffff8100aecd:	0f 84 bd 00 00 00    	je     ffffffff8100af90 <pagemgr_build_init_pagetable+0x47b>
ffffffff8100aed3:	48 8b 45 b8          	mov    -0x48(%rbp),%rax
ffffffff8100aed7:	48 c1 e8 15          	shr    $0x15,%rax
ffffffff8100aedb:	66 25 ff 01          	and    $0x1ff,%ax
ffffffff8100aedf:	66 89 45 d0          	mov    %ax,-0x30(%rbp)
ffffffff8100aee3:	b8 00 00 00 00       	mov    $0x0,%eax
ffffffff8100aee8:	e8 18 fb ff ff       	callq  ffffffff8100aa05 <pagemgr_boot_alloc_pf>
ffffffff8100aeed:	48 89 45 94          	mov    %rax,-0x6c(%rbp)
ffffffff8100aef1:	48 8b 45 94          	mov    -0x6c(%rbp),%rax
ffffffff8100aef5:	48 85 c0             	test   %rax,%rax
ffffffff8100aef8:	75 0a                	jne    ffffffff8100af04 <pagemgr_build_init_pagetable+0x3ef>
ffffffff8100aefa:	b8 ff ff ff ff       	mov    $0xffffffff,%eax
ffffffff8100aeff:	e9 25 02 00 00       	jmpq   ffffffff8100b129 <pagemgr_build_init_pagetable+0x614>
ffffffff8100af04:	0f b6 45 94          	movzbl -0x6c(%rbp),%eax
ffffffff8100af08:	83 c8 01             	or     $0x1,%eax
ffffffff8100af0b:	88 45 94             	mov    %al,-0x6c(%rbp)
ffffffff8100af0e:	0f b6 45 94          	movzbl -0x6c(%rbp),%eax
ffffffff8100af12:	83 c8 02             	or     $0x2,%eax
ffffffff8100af15:	88 45 94             	mov    %al,-0x6c(%rbp)
ffffffff8100af18:	48 8b 45 94          	mov    -0x6c(%rbp),%rax
ffffffff8100af1c:	48 ba 00 f0 ff ff ff 	movabs $0x7ffffffffffff000,%rdx
ffffffff8100af23:	ff ff 7f 
ffffffff8100af26:	48 21 d0             	and    %rdx,%rax
ffffffff8100af29:	48 89 c7             	mov    %rax,%rdi
ffffffff8100af2c:	e8 9d f9 ff ff       	callq  ffffffff8100a8ce <pagemgr_boot_temp_map>
ffffffff8100af31:	48 89 45 d8          	mov    %rax,-0x28(%rbp)
ffffffff8100af35:	48 8b 45 d8          	mov    -0x28(%rbp),%rax
ffffffff8100af39:	ba 00 10 00 00       	mov    $0x1000,%edx
ffffffff8100af3e:	be 00 00 00 00       	mov    $0x0,%esi
ffffffff8100af43:	48 89 c7             	mov    %rax,%rdi
ffffffff8100af46:	e8 6f f8 ff ff       	callq  ffffffff8100a7ba <memset>
ffffffff8100af4b:	48 8b 45 9c          	mov    -0x64(%rbp),%rax
ffffffff8100af4f:	48 ba 00 f0 ff ff ff 	movabs $0x7ffffffffffff000,%rdx
ffffffff8100af56:	ff ff 7f 
ffffffff8100af59:	48 21 d0             	and    %rdx,%rax
ffffffff8100af5c:	48 89 c7             	mov    %rax,%rdi
ffffffff8100af5f:	e8 6a f9 ff ff       	callq  ffffffff8100a8ce <pagemgr_boot_temp_map>
ffffffff8100af64:	48 89 45 d8          	mov    %rax,-0x28(%rbp)
ffffffff8100af68:	0f b7 45 d0          	movzwl -0x30(%rbp),%eax
ffffffff8100af6c:	48 8d 14 c5 00 00 00 	lea    0x0(,%rax,8),%rdx
ffffffff8100af73:	00 
ffffffff8100af74:	48 8b 45 d8          	mov    -0x28(%rbp),%rax
ffffffff8100af78:	48 8d 0c 02          	lea    (%rdx,%rax,1),%rcx
ffffffff8100af7c:	48 8d 45 94          	lea    -0x6c(%rbp),%rax
ffffffff8100af80:	ba 08 00 00 00       	mov    $0x8,%edx
ffffffff8100af85:	48 89 c6             	mov    %rax,%rsi
ffffffff8100af88:	48 89 cf             	mov    %rcx,%rdi
ffffffff8100af8b:	e8 6c f8 ff ff       	callq  ffffffff8100a7fc <memcpy>
ffffffff8100af90:	48 8b 45 b8          	mov    -0x48(%rbp),%rax
ffffffff8100af94:	48 c1 e8 0c          	shr    $0xc,%rax
ffffffff8100af98:	66 25 ff 01          	and    $0x1ff,%ax
ffffffff8100af9c:	66 89 45 b6          	mov    %ax,-0x4a(%rbp)
ffffffff8100afa0:	80 7d cf 00          	cmpb   $0x0,-0x31(%rbp)
ffffffff8100afa4:	0f 85 9b 00 00 00    	jne    ffffffff8100b045 <pagemgr_build_init_pagetable+0x530>
ffffffff8100afaa:	48 8b 45 f8          	mov    -0x8(%rbp),%rax
ffffffff8100afae:	48 89 45 8c          	mov    %rax,-0x74(%rbp)
ffffffff8100afb2:	0f b6 05 18 62 01 00 	movzbl 0x16218(%rip),%eax        # ffffffff810211d1 <page_manager+0x11>
ffffffff8100afb9:	83 e0 01             	and    $0x1,%eax
ffffffff8100afbc:	c1 e0 07             	shl    $0x7,%eax
ffffffff8100afbf:	89 c2                	mov    %eax,%edx
ffffffff8100afc1:	0f b6 45 93          	movzbl -0x6d(%rbp),%eax
ffffffff8100afc5:	83 e0 7f             	and    $0x7f,%eax
ffffffff8100afc8:	09 d0                	or     %edx,%eax
ffffffff8100afca:	88 45 93             	mov    %al,-0x6d(%rbp)
ffffffff8100afcd:	48 c7 c0 00 30 00 81 	mov    $0xffffffff81003000,%rax
ffffffff8100afd4:	48 39 45 b8          	cmp    %rax,-0x48(%rbp)
ffffffff8100afd8:	72 23                	jb     ffffffff8100affd <pagemgr_build_init_pagetable+0x4e8>
ffffffff8100afda:	48 c7 c0 00 e0 00 81 	mov    $0xffffffff8100e000,%rax
ffffffff8100afe1:	48 39 45 b8          	cmp    %rax,-0x48(%rbp)
ffffffff8100afe5:	77 16                	ja     ffffffff8100affd <pagemgr_build_init_pagetable+0x4e8>
ffffffff8100afe7:	0f b6 45 8c          	movzbl -0x74(%rbp),%eax
ffffffff8100afeb:	83 e0 fd             	and    $0xfffffffd,%eax
ffffffff8100afee:	88 45 8c             	mov    %al,-0x74(%rbp)
ffffffff8100aff1:	0f b6 45 93          	movzbl -0x6d(%rbp),%eax
ffffffff8100aff5:	83 e0 7f             	and    $0x7f,%eax
ffffffff8100aff8:	88 45 93             	mov    %al,-0x6d(%rbp)
ffffffff8100affb:	eb 3e                	jmp    ffffffff8100b03b <pagemgr_build_init_pagetable+0x526>
ffffffff8100affd:	48 c7 c0 00 f0 00 81 	mov    $0xffffffff8100f000,%rax
ffffffff8100b004:	48 39 45 b8          	cmp    %rax,-0x48(%rbp)
ffffffff8100b008:	72 0d                	jb     ffffffff8100b017 <pagemgr_build_init_pagetable+0x502>
ffffffff8100b00a:	48 c7 c0 00 00 01 81 	mov    $0xffffffff81010000,%rax
ffffffff8100b011:	48 39 45 b8          	cmp    %rax,-0x48(%rbp)
ffffffff8100b015:	76 1a                	jbe    ffffffff8100b031 <pagemgr_build_init_pagetable+0x51c>
ffffffff8100b017:	48 c7 c0 00 10 01 81 	mov    $0xffffffff81011000,%rax
ffffffff8100b01e:	48 39 45 b8          	cmp    %rax,-0x48(%rbp)
ffffffff8100b022:	72 17                	jb     ffffffff8100b03b <pagemgr_build_init_pagetable+0x526>
ffffffff8100b024:	48 c7 c0 00 20 02 81 	mov    $0xffffffff81022000,%rax
ffffffff8100b02b:	48 39 45 b8          	cmp    %rax,-0x48(%rbp)
ffffffff8100b02f:	77 0a                	ja     ffffffff8100b03b <pagemgr_build_init_pagetable+0x526>
ffffffff8100b031:	0f b6 45 8c          	movzbl -0x74(%rbp),%eax
ffffffff8100b035:	83 c8 02             	or     $0x2,%eax
ffffffff8100b038:	88 45 8c             	mov    %al,-0x74(%rbp)
ffffffff8100b03b:	48 81 45 f8 00 10 00 	addq   $0x1000,-0x8(%rbp)
ffffffff8100b042:	00 
ffffffff8100b043:	eb 44                	jmp    ffffffff8100b089 <pagemgr_build_init_pagetable+0x574>
ffffffff8100b045:	80 7d cf 01          	cmpb   $0x1,-0x31(%rbp)
ffffffff8100b049:	75 3e                	jne    ffffffff8100b089 <pagemgr_build_init_pagetable+0x574>
ffffffff8100b04b:	0f b6 05 7f 61 01 00 	movzbl 0x1617f(%rip),%eax        # ffffffff810211d1 <page_manager+0x11>
ffffffff8100b052:	83 e0 01             	and    $0x1,%eax
ffffffff8100b055:	c1 e0 07             	shl    $0x7,%eax
ffffffff8100b058:	89 c2                	mov    %eax,%edx
ffffffff8100b05a:	0f b6 45 93          	movzbl -0x6d(%rbp),%eax
ffffffff8100b05e:	83 e0 7f             	and    $0x7f,%eax
ffffffff8100b061:	09 d0                	or     %edx,%eax
ffffffff8100b063:	88 45 93             	mov    %al,-0x6d(%rbp)
ffffffff8100b066:	66 83 7d b6 00       	cmpw   $0x0,-0x4a(%rbp)
ffffffff8100b06b:	75 14                	jne    ffffffff8100b081 <pagemgr_build_init_pagetable+0x56c>
ffffffff8100b06d:	48 8b 45 94          	mov    -0x6c(%rbp),%rax
ffffffff8100b071:	48 89 45 8c          	mov    %rax,-0x74(%rbp)
ffffffff8100b075:	0f b6 45 8c          	movzbl -0x74(%rbp),%eax
ffffffff8100b079:	83 c8 02             	or     $0x2,%eax
ffffffff8100b07c:	88 45 8c             	mov    %al,-0x74(%rbp)
ffffffff8100b07f:	eb 08                	jmp    ffffffff8100b089 <pagemgr_build_init_pagetable+0x574>
ffffffff8100b081:	48 c7 45 8c 00 00 00 	movq   $0x0,-0x74(%rbp)
ffffffff8100b088:	00 
ffffffff8100b089:	0f b6 45 8c          	movzbl -0x74(%rbp),%eax
ffffffff8100b08d:	83 c8 01             	or     $0x1,%eax
ffffffff8100b090:	88 45 8c             	mov    %al,-0x74(%rbp)
ffffffff8100b093:	48 81 45 e0 00 10 00 	addq   $0x1000,-0x20(%rbp)
ffffffff8100b09a:	00 
ffffffff8100b09b:	48 8b 45 94          	mov    -0x6c(%rbp),%rax
ffffffff8100b09f:	48 ba 00 f0 ff ff ff 	movabs $0x7ffffffffffff000,%rdx
ffffffff8100b0a6:	ff ff 7f 
ffffffff8100b0a9:	48 21 d0             	and    %rdx,%rax
ffffffff8100b0ac:	48 89 c7             	mov    %rax,%rdi
ffffffff8100b0af:	e8 1a f8 ff ff       	callq  ffffffff8100a8ce <pagemgr_boot_temp_map>
ffffffff8100b0b4:	48 89 45 d8          	mov    %rax,-0x28(%rbp)
ffffffff8100b0b8:	0f b7 45 b6          	movzwl -0x4a(%rbp),%eax
ffffffff8100b0bc:	48 8d 14 c5 00 00 00 	lea    0x0(,%rax,8),%rdx
ffffffff8100b0c3:	00 
ffffffff8100b0c4:	48 8b 45 d8          	mov    -0x28(%rbp),%rax
ffffffff8100b0c8:	48 8d 0c 02          	lea    (%rdx,%rax,1),%rcx
ffffffff8100b0cc:	48 8d 45 8c          	lea    -0x74(%rbp),%rax
ffffffff8100b0d0:	ba 08 00 00 00       	mov    $0x8,%edx
ffffffff8100b0d5:	48 89 c6             	mov    %rax,%rsi
ffffffff8100b0d8:	48 89 cf             	mov    %rcx,%rdi
ffffffff8100b0db:	e8 1c f7 ff ff       	callq  ffffffff8100a7fc <memcpy>
ffffffff8100b0e0:	80 7d cf 00          	cmpb   $0x0,-0x31(%rbp)
ffffffff8100b0e4:	75 11                	jne    ffffffff8100b0f7 <pagemgr_build_init_pagetable+0x5e2>
ffffffff8100b0e6:	48 81 7d b8 ff ff df 	cmpq   $0xffffffffffdfffff,-0x48(%rbp)
ffffffff8100b0ed:	ff 
ffffffff8100b0ee:	76 07                	jbe    ffffffff8100b0f7 <pagemgr_build_init_pagetable+0x5e2>
ffffffff8100b0f0:	b8 ff ff ff ff       	mov    $0xffffffff,%eax
ffffffff8100b0f5:	eb 32                	jmp    ffffffff8100b129 <pagemgr_build_init_pagetable+0x614>
ffffffff8100b0f7:	48 8b 45 e0          	mov    -0x20(%rbp),%rax
ffffffff8100b0fb:	48 3b 45 e8          	cmp    -0x18(%rbp),%rax
ffffffff8100b0ff:	0f 82 f4 fa ff ff    	jb     ffffffff8100abf9 <pagemgr_build_init_pagetable+0xe4>
ffffffff8100b105:	0f b6 45 cf          	movzbl -0x31(%rbp),%eax
ffffffff8100b109:	83 c0 01             	add    $0x1,%eax
ffffffff8100b10c:	88 45 cf             	mov    %al,-0x31(%rbp)
ffffffff8100b10f:	80 7d cf 01          	cmpb   $0x1,-0x31(%rbp)
ffffffff8100b113:	0f 86 9a fa ff ff    	jbe    ffffffff8100abb3 <pagemgr_build_init_pagetable+0x9e>
ffffffff8100b119:	48 c7 05 a4 60 01 00 	movq   $0xffffffffffe00000,0x160a4(%rip)        # ffffffff810211c8 <page_manager+0x8>
ffffffff8100b120:	00 00 e0 ff 
ffffffff8100b124:	b8 00 00 00 00       	mov    $0x0,%eax
ffffffff8100b129:	c9                   	leaveq 
ffffffff8100b12a:	c3                   	retq   

ffffffff8100b12b <pagemgr_init>:
ffffffff8100b12b:	55                   	push   %rbp
ffffffff8100b12c:	48 89 e5             	mov    %rsp,%rbp
ffffffff8100b12f:	48 c7 c7 a0 e4 00 81 	mov    $0xffffffff8100e4a0,%rdi
ffffffff8100b136:	b8 00 00 00 00       	mov    $0x0,%eax
ffffffff8100b13b:	e8 95 bf ff ff       	callq  ffffffff810070d5 <kprintf>
ffffffff8100b140:	e8 bb f4 ff ff       	callq  ffffffff8100a600 <physmm_get>
ffffffff8100b145:	48 89 05 bc 60 01 00 	mov    %rax,0x160bc(%rip)        # ffffffff81021208 <physmm>
ffffffff8100b14c:	ba 28 00 00 00       	mov    $0x28,%edx
ffffffff8100b151:	be 00 00 00 00       	mov    $0x0,%esi
ffffffff8100b156:	48 c7 c7 c0 11 02 81 	mov    $0xffffffff810211c0,%rdi
ffffffff8100b15d:	e8 58 f6 ff ff       	callq  ffffffff8100a7ba <memset>
ffffffff8100b162:	48 c7 c7 d4 11 02 81 	mov    $0xffffffff810211d4,%rdi
ffffffff8100b169:	e8 92 7e ff ff       	callq  ffffffff81003000 <spinlock_init>
ffffffff8100b16e:	b8 00 00 00 00       	mov    $0x0,%eax
ffffffff8100b173:	e8 8d f8 ff ff       	callq  ffffffff8100aa05 <pagemgr_boot_alloc_pf>
ffffffff8100b178:	48 89 05 41 60 01 00 	mov    %rax,0x16041(%rip)        # ffffffff810211c0 <page_manager>
ffffffff8100b17f:	e8 38 1b 00 00       	callq  ffffffff8100ccbc <has_nx>
ffffffff8100b184:	84 c0                	test   %al,%al
ffffffff8100b186:	74 11                	je     ffffffff8100b199 <pagemgr_init+0x6e>
ffffffff8100b188:	b8 00 00 00 00       	mov    $0x0,%eax
ffffffff8100b18d:	e8 43 1b 00 00       	callq  ffffffff8100ccd5 <enable_nx>
ffffffff8100b192:	c6 05 38 60 01 00 01 	movb   $0x1,0x16038(%rip)        # ffffffff810211d1 <page_manager+0x11>
ffffffff8100b199:	e8 02 1b 00 00       	callq  ffffffff8100cca0 <has_pml5>
ffffffff8100b19e:	84 c0                	test   %al,%al
ffffffff8100b1a0:	74 11                	je     ffffffff8100b1b3 <pagemgr_init+0x88>
ffffffff8100b1a2:	b8 00 00 00 00       	mov    $0x0,%eax
ffffffff8100b1a7:	e8 74 1b 00 00       	callq  ffffffff8100cd20 <enable_pml5>
ffffffff8100b1ac:	c6 05 1d 60 01 00 01 	movb   $0x1,0x1601d(%rip)        # ffffffff810211d0 <page_manager+0x10>
ffffffff8100b1b3:	b8 00 00 00 00       	mov    $0x0,%eax
ffffffff8100b1b8:	e8 6f 1b 00 00       	callq  ffffffff8100cd2c <enable_wp>
ffffffff8100b1bd:	48 8b 05 fc 5f 01 00 	mov    0x15ffc(%rip),%rax        # ffffffff810211c0 <page_manager>
ffffffff8100b1c4:	48 85 c0             	test   %rax,%rax
ffffffff8100b1c7:	75 07                	jne    ffffffff8100b1d0 <pagemgr_init+0xa5>
ffffffff8100b1c9:	b8 ff ff ff ff       	mov    $0xffffffff,%eax
ffffffff8100b1ce:	eb 72                	jmp    ffffffff8100b242 <pagemgr_init+0x117>
ffffffff8100b1d0:	e8 40 f9 ff ff       	callq  ffffffff8100ab15 <pagemgr_build_init_pagetable>
ffffffff8100b1d5:	83 f8 ff             	cmp    $0xffffffff,%eax
ffffffff8100b1d8:	75 07                	jne    ffffffff8100b1e1 <pagemgr_init+0xb6>
ffffffff8100b1da:	b8 ff ff ff ff       	mov    $0xffffffff,%eax
ffffffff8100b1df:	eb 61                	jmp    ffffffff8100b242 <pagemgr_init+0x117>
ffffffff8100b1e1:	48 8b 05 d8 5f 01 00 	mov    0x15fd8(%rip),%rax        # ffffffff810211c0 <page_manager>
ffffffff8100b1e8:	48 89 c7             	mov    %rax,%rdi
ffffffff8100b1eb:	e8 d7 f4 ff ff       	callq  ffffffff8100a6c7 <write_cr3>
ffffffff8100b1f0:	ba 28 00 00 00       	mov    $0x28,%edx
ffffffff8100b1f5:	be 00 00 00 00       	mov    $0x0,%esi
ffffffff8100b1fa:	48 c7 c7 e0 11 02 81 	mov    $0xffffffff810211e0,%rdi
ffffffff8100b201:	e8 b4 f5 ff ff       	callq  ffffffff8100a7ba <memset>
ffffffff8100b206:	48 c7 05 cf 5f 01 00 	movq   $0xffffffff8100c5b8,0x15fcf(%rip)        # ffffffff810211e0 <pagemgr_if>
ffffffff8100b20d:	b8 c5 00 81 
ffffffff8100b211:	48 c7 05 cc 5f 01 00 	movq   $0xffffffff8100c461,0x15fcc(%rip)        # ffffffff810211e8 <pagemgr_if+0x8>
ffffffff8100b218:	61 c4 00 81 
ffffffff8100b21c:	48 c7 05 c9 5f 01 00 	movq   $0xffffffff8100c749,0x15fc9(%rip)        # ffffffff810211f0 <pagemgr_if+0x10>
ffffffff8100b223:	49 c7 00 81 
ffffffff8100b227:	48 c7 05 c6 5f 01 00 	movq   $0xffffffff8100c89a,0x15fc6(%rip)        # ffffffff810211f8 <pagemgr_if+0x18>
ffffffff8100b22e:	9a c8 00 81 
ffffffff8100b232:	48 c7 05 c3 5f 01 00 	movq   $0xffffffff8100ca00,0x15fc3(%rip)        # ffffffff81021200 <pagemgr_if+0x20>
ffffffff8100b239:	00 ca 00 81 
ffffffff8100b23d:	b8 00 00 00 00       	mov    $0x0,%eax
ffffffff8100b242:	5d                   	pop    %rbp
ffffffff8100b243:	c3                   	retq   

ffffffff8100b244 <pagemgr_install_handler>:
ffffffff8100b244:	55                   	push   %rbp
ffffffff8100b245:	48 89 e5             	mov    %rsp,%rbp
ffffffff8100b248:	ba 0e 00 00 00       	mov    $0xe,%edx
ffffffff8100b24d:	48 c7 c6 c0 11 02 81 	mov    $0xffffffff810211c0,%rsi
ffffffff8100b254:	48 c7 c7 5c cc 00 81 	mov    $0xffffffff8100cc5c,%rdi
ffffffff8100b25b:	e8 a5 81 ff ff       	callq  ffffffff81003405 <isr_install>
ffffffff8100b260:	5d                   	pop    %rbp
ffffffff8100b261:	c3                   	retq   

ffffffff8100b262 <pagemgr_temp_map>:
ffffffff8100b262:	55                   	push   %rbp
ffffffff8100b263:	48 89 e5             	mov    %rsp,%rbp
ffffffff8100b266:	48 83 ec 30          	sub    $0x30,%rsp
ffffffff8100b26a:	48 89 7d d8          	mov    %rdi,-0x28(%rbp)
ffffffff8100b26e:	89 f0                	mov    %esi,%eax
ffffffff8100b270:	66 89 45 d4          	mov    %ax,-0x2c(%rbp)
ffffffff8100b274:	48 c7 45 f8 00 00 e0 	movq   $0xffffffffffe00000,-0x8(%rbp)
ffffffff8100b27b:	ff 
ffffffff8100b27c:	48 c7 45 f0 00 00 00 	movq   $0x0,-0x10(%rbp)
ffffffff8100b283:	00 
ffffffff8100b284:	48 c7 45 e8 00 00 00 	movq   $0x0,-0x18(%rbp)
ffffffff8100b28b:	00 
ffffffff8100b28c:	48 b8 00 f0 ff ff ff 	movabs $0x7ffffffffffff000,%rax
ffffffff8100b293:	ff ff 7f 
ffffffff8100b296:	48 21 45 d8          	and    %rax,-0x28(%rbp)
ffffffff8100b29a:	48 8b 45 d8          	mov    -0x28(%rbp),%rax
ffffffff8100b29e:	25 ff 0f 00 00       	and    $0xfff,%eax
ffffffff8100b2a3:	48 85 c0             	test   %rax,%rax
ffffffff8100b2a6:	74 20                	je     ffffffff8100b2c8 <pagemgr_temp_map+0x66>
ffffffff8100b2a8:	be d8 01 00 00       	mov    $0x1d8,%esi
ffffffff8100b2ad:	48 c7 c7 bb e4 00 81 	mov    $0xffffffff8100e4bb,%rdi
ffffffff8100b2b4:	b8 00 00 00 00       	mov    $0x0,%eax
ffffffff8100b2b9:	e8 17 be ff ff       	callq  ffffffff810070d5 <kprintf>
ffffffff8100b2be:	b8 00 00 00 00       	mov    $0x0,%eax
ffffffff8100b2c3:	e9 85 00 00 00       	jmpq   ffffffff8100b34d <pagemgr_temp_map+0xeb>
ffffffff8100b2c8:	66 83 7d d4 00       	cmpw   $0x0,-0x2c(%rbp)
ffffffff8100b2cd:	74 08                	je     ffffffff8100b2d7 <pagemgr_temp_map+0x75>
ffffffff8100b2cf:	66 81 7d d4 ff 01    	cmpw   $0x1ff,-0x2c(%rbp)
ffffffff8100b2d5:	76 1d                	jbe    ffffffff8100b2f4 <pagemgr_temp_map+0x92>
ffffffff8100b2d7:	be e2 01 00 00       	mov    $0x1e2,%esi
ffffffff8100b2dc:	48 c7 c7 bb e4 00 81 	mov    $0xffffffff8100e4bb,%rdi
ffffffff8100b2e3:	b8 00 00 00 00       	mov    $0x0,%eax
ffffffff8100b2e8:	e8 e8 bd ff ff       	callq  ffffffff810070d5 <kprintf>
ffffffff8100b2ed:	b8 00 00 00 00       	mov    $0x0,%eax
ffffffff8100b2f2:	eb 59                	jmp    ffffffff8100b34d <pagemgr_temp_map+0xeb>
ffffffff8100b2f4:	48 8b 45 d8          	mov    -0x28(%rbp),%rax
ffffffff8100b2f8:	48 89 45 e8          	mov    %rax,-0x18(%rbp)
ffffffff8100b2fc:	0f b6 45 e8          	movzbl -0x18(%rbp),%eax
ffffffff8100b300:	83 c8 02             	or     $0x2,%eax
ffffffff8100b303:	88 45 e8             	mov    %al,-0x18(%rbp)
ffffffff8100b306:	0f b6 45 e8          	movzbl -0x18(%rbp),%eax
ffffffff8100b30a:	83 c8 01             	or     $0x1,%eax
ffffffff8100b30d:	88 45 e8             	mov    %al,-0x18(%rbp)
ffffffff8100b310:	0f b7 45 d4          	movzwl -0x2c(%rbp),%eax
ffffffff8100b314:	48 8d 14 c5 00 00 00 	lea    0x0(,%rax,8),%rdx
ffffffff8100b31b:	00 
ffffffff8100b31c:	48 8b 45 f8          	mov    -0x8(%rbp),%rax
ffffffff8100b320:	48 01 c2             	add    %rax,%rdx
ffffffff8100b323:	48 8b 45 e8          	mov    -0x18(%rbp),%rax
ffffffff8100b327:	48 89 02             	mov    %rax,(%rdx)
ffffffff8100b32a:	0f b7 45 d4          	movzwl -0x2c(%rbp),%eax
ffffffff8100b32e:	c1 e0 0c             	shl    $0xc,%eax
ffffffff8100b331:	48 98                	cltq   
ffffffff8100b333:	48 2d 00 00 20 00    	sub    $0x200000,%rax
ffffffff8100b339:	48 89 45 f0          	mov    %rax,-0x10(%rbp)
ffffffff8100b33d:	48 8b 45 f0          	mov    -0x10(%rbp),%rax
ffffffff8100b341:	48 89 c7             	mov    %rax,%rdi
ffffffff8100b344:	e8 91 f3 ff ff       	callq  ffffffff8100a6da <__invlpg>
ffffffff8100b349:	48 8b 45 f0          	mov    -0x10(%rbp),%rax
ffffffff8100b34d:	c9                   	leaveq 
ffffffff8100b34e:	c3                   	retq   

ffffffff8100b34f <pagemgr_temp_unmap>:
ffffffff8100b34f:	55                   	push   %rbp
ffffffff8100b350:	48 89 e5             	mov    %rsp,%rbp
ffffffff8100b353:	48 83 ec 20          	sub    $0x20,%rsp
ffffffff8100b357:	48 89 7d e8          	mov    %rdi,-0x18(%rbp)
ffffffff8100b35b:	66 c7 45 fe 00 00    	movw   $0x0,-0x2(%rbp)
ffffffff8100b361:	48 c7 45 f0 00 00 e0 	movq   $0xffffffffffe00000,-0x10(%rbp)
ffffffff8100b368:	ff 
ffffffff8100b369:	48 8b 45 e8          	mov    -0x18(%rbp),%rax
ffffffff8100b36d:	25 ff 0f 00 00       	and    $0xfff,%eax
ffffffff8100b372:	48 85 c0             	test   %rax,%rax
ffffffff8100b375:	75 0a                	jne    ffffffff8100b381 <pagemgr_temp_unmap+0x32>
ffffffff8100b377:	48 81 7d e8 00 00 e0 	cmpq   $0xffffffffffe00000,-0x18(%rbp)
ffffffff8100b37e:	ff 
ffffffff8100b37f:	77 07                	ja     ffffffff8100b388 <pagemgr_temp_unmap+0x39>
ffffffff8100b381:	b8 ff ff ff ff       	mov    $0xffffffff,%eax
ffffffff8100b386:	eb 3d                	jmp    ffffffff8100b3c5 <pagemgr_temp_unmap+0x76>
ffffffff8100b388:	48 8b 45 e8          	mov    -0x18(%rbp),%rax
ffffffff8100b38c:	48 05 00 00 20 00    	add    $0x200000,%rax
ffffffff8100b392:	48 c1 e8 0c          	shr    $0xc,%rax
ffffffff8100b396:	66 89 45 fe          	mov    %ax,-0x2(%rbp)
ffffffff8100b39a:	0f b7 45 fe          	movzwl -0x2(%rbp),%eax
ffffffff8100b39e:	48 8d 14 c5 00 00 00 	lea    0x0(,%rax,8),%rdx
ffffffff8100b3a5:	00 
ffffffff8100b3a6:	48 8b 45 f0          	mov    -0x10(%rbp),%rax
ffffffff8100b3aa:	48 01 d0             	add    %rdx,%rax
ffffffff8100b3ad:	48 c7 00 00 00 00 00 	movq   $0x0,(%rax)
ffffffff8100b3b4:	48 8b 45 e8          	mov    -0x18(%rbp),%rax
ffffffff8100b3b8:	48 89 c7             	mov    %rax,%rdi
ffffffff8100b3bb:	e8 1a f3 ff ff       	callq  ffffffff8100a6da <__invlpg>
ffffffff8100b3c0:	b8 00 00 00 00       	mov    $0x0,%eax
ffffffff8100b3c5:	c9                   	leaveq 
ffffffff8100b3c6:	c3                   	retq   

ffffffff8100b3c7 <pagemgr_invalidate>:
ffffffff8100b3c7:	55                   	push   %rbp
ffffffff8100b3c8:	48 89 e5             	mov    %rsp,%rbp
ffffffff8100b3cb:	48 83 ec 10          	sub    $0x10,%rsp
ffffffff8100b3cf:	48 89 7d f8          	mov    %rdi,-0x8(%rbp)
ffffffff8100b3d3:	48 8b 45 f8          	mov    -0x8(%rbp),%rax
ffffffff8100b3d7:	48 89 c7             	mov    %rax,%rdi
ffffffff8100b3da:	e8 fb f2 ff ff       	callq  ffffffff8100a6da <__invlpg>
ffffffff8100b3df:	90                   	nop
ffffffff8100b3e0:	c9                   	leaveq 
ffffffff8100b3e1:	c3                   	retq   

ffffffff8100b3e2 <pagemgr_alloc_pages_cb>:
ffffffff8100b3e2:	55                   	push   %rbp
ffffffff8100b3e3:	48 89 e5             	mov    %rsp,%rbp
ffffffff8100b3e6:	48 83 ec 40          	sub    $0x40,%rsp
ffffffff8100b3ea:	48 89 7d d8          	mov    %rdi,-0x28(%rbp)
ffffffff8100b3ee:	48 89 75 d0          	mov    %rsi,-0x30(%rbp)
ffffffff8100b3f2:	48 89 55 c8          	mov    %rdx,-0x38(%rbp)
ffffffff8100b3f6:	48 c7 45 f8 00 00 00 	movq   $0x0,-0x8(%rbp)
ffffffff8100b3fd:	00 
ffffffff8100b3fe:	c6 45 f7 00          	movb   $0x0,-0x9(%rbp)
ffffffff8100b402:	48 c7 45 e8 00 00 00 	movq   $0x0,-0x18(%rbp)
ffffffff8100b409:	00 
ffffffff8100b40a:	48 8b 45 c8          	mov    -0x38(%rbp),%rax
ffffffff8100b40e:	48 89 45 e0          	mov    %rax,-0x20(%rbp)
ffffffff8100b412:	e9 2e 05 00 00       	jmpq   ffffffff8100b945 <pagemgr_alloc_pages_cb+0x563>
ffffffff8100b417:	48 8b 45 e0          	mov    -0x20(%rbp),%rax
ffffffff8100b41b:	48 8b 50 10          	mov    0x10(%rax),%rdx
ffffffff8100b41f:	48 8b 45 e0          	mov    -0x20(%rbp),%rax
ffffffff8100b423:	48 8b 40 20          	mov    0x20(%rax),%rax
ffffffff8100b427:	48 01 d0             	add    %rdx,%rax
ffffffff8100b42a:	48 89 45 e8          	mov    %rax,-0x18(%rbp)
ffffffff8100b42e:	0f b6 05 9b 5d 01 00 	movzbl 0x15d9b(%rip),%eax        # ffffffff810211d0 <page_manager+0x10>
ffffffff8100b435:	84 c0                	test   %al,%al
ffffffff8100b437:	0f 84 3c 01 00 00    	je     ffffffff8100b579 <pagemgr_alloc_pages_cb+0x197>
ffffffff8100b43d:	48 8b 45 e0          	mov    -0x20(%rbp),%rax
ffffffff8100b441:	0f b7 00             	movzwl (%rax),%eax
ffffffff8100b444:	0f b7 c0             	movzwl %ax,%eax
ffffffff8100b447:	48 8b 55 e8          	mov    -0x18(%rbp),%rdx
ffffffff8100b44b:	48 c1 ea 2f          	shr    $0x2f,%rdx
ffffffff8100b44f:	81 e2 ff 01 00 00    	and    $0x1ff,%edx
ffffffff8100b455:	48 39 d0             	cmp    %rdx,%rax
ffffffff8100b458:	0f 84 1b 01 00 00    	je     ffffffff8100b579 <pagemgr_alloc_pages_cb+0x197>
ffffffff8100b45e:	48 8b 45 e8          	mov    -0x18(%rbp),%rax
ffffffff8100b462:	48 c1 e8 2f          	shr    $0x2f,%rax
ffffffff8100b466:	66 25 ff 01          	and    $0x1ff,%ax
ffffffff8100b46a:	89 c2                	mov    %eax,%edx
ffffffff8100b46c:	48 8b 45 e0          	mov    -0x20(%rbp),%rax
ffffffff8100b470:	66 89 10             	mov    %dx,(%rax)
ffffffff8100b473:	48 8b 45 e0          	mov    -0x20(%rbp),%rax
ffffffff8100b477:	48 8b 50 28          	mov    0x28(%rax),%rdx
ffffffff8100b47b:	48 8b 45 e0          	mov    -0x20(%rbp),%rax
ffffffff8100b47f:	0f b7 00             	movzwl (%rax),%eax
ffffffff8100b482:	0f b7 c0             	movzwl %ax,%eax
ffffffff8100b485:	48 c1 e0 03          	shl    $0x3,%rax
ffffffff8100b489:	48 01 d0             	add    %rdx,%rax
ffffffff8100b48c:	0f b6 00             	movzbl (%rax),%eax
ffffffff8100b48f:	83 e0 01             	and    $0x1,%eax
ffffffff8100b492:	84 c0                	test   %al,%al
ffffffff8100b494:	75 79                	jne    ffffffff8100b50f <pagemgr_alloc_pages_cb+0x12d>
ffffffff8100b496:	48 8b 45 f8          	mov    -0x8(%rbp),%rax
ffffffff8100b49a:	48 c1 e0 0c          	shl    $0xc,%rax
ffffffff8100b49e:	48 89 c1             	mov    %rax,%rcx
ffffffff8100b4a1:	48 8b 45 e0          	mov    -0x20(%rbp),%rax
ffffffff8100b4a5:	48 8b 50 28          	mov    0x28(%rax),%rdx
ffffffff8100b4a9:	48 8b 45 e0          	mov    -0x20(%rbp),%rax
ffffffff8100b4ad:	0f b7 00             	movzwl (%rax),%eax
ffffffff8100b4b0:	0f b7 c0             	movzwl %ax,%eax
ffffffff8100b4b3:	48 c1 e0 03          	shl    $0x3,%rax
ffffffff8100b4b7:	48 01 d0             	add    %rdx,%rax
ffffffff8100b4ba:	48 8b 55 d8          	mov    -0x28(%rbp),%rdx
ffffffff8100b4be:	48 01 ca             	add    %rcx,%rdx
ffffffff8100b4c1:	48 89 10             	mov    %rdx,(%rax)
ffffffff8100b4c4:	48 8b 45 e0          	mov    -0x20(%rbp),%rax
ffffffff8100b4c8:	48 8b 50 28          	mov    0x28(%rax),%rdx
ffffffff8100b4cc:	48 8b 45 e0          	mov    -0x20(%rbp),%rax
ffffffff8100b4d0:	0f b7 00             	movzwl (%rax),%eax
ffffffff8100b4d3:	0f b7 c0             	movzwl %ax,%eax
ffffffff8100b4d6:	48 c1 e0 03          	shl    $0x3,%rax
ffffffff8100b4da:	48 01 d0             	add    %rdx,%rax
ffffffff8100b4dd:	0f b6 10             	movzbl (%rax),%edx
ffffffff8100b4e0:	83 ca 02             	or     $0x2,%edx
ffffffff8100b4e3:	88 10                	mov    %dl,(%rax)
ffffffff8100b4e5:	48 8b 45 e0          	mov    -0x20(%rbp),%rax
ffffffff8100b4e9:	48 8b 50 28          	mov    0x28(%rax),%rdx
ffffffff8100b4ed:	48 8b 45 e0          	mov    -0x20(%rbp),%rax
ffffffff8100b4f1:	0f b7 00             	movzwl (%rax),%eax
ffffffff8100b4f4:	0f b7 c0             	movzwl %ax,%eax
ffffffff8100b4f7:	48 c1 e0 03          	shl    $0x3,%rax
ffffffff8100b4fb:	48 01 d0             	add    %rdx,%rax
ffffffff8100b4fe:	0f b6 10             	movzbl (%rax),%edx
ffffffff8100b501:	83 ca 01             	or     $0x1,%edx
ffffffff8100b504:	88 10                	mov    %dl,(%rax)
ffffffff8100b506:	48 83 45 f8 01       	addq   $0x1,-0x8(%rbp)
ffffffff8100b50b:	c6 45 f7 01          	movb   $0x1,-0x9(%rbp)
ffffffff8100b50f:	48 8b 45 e0          	mov    -0x20(%rbp),%rax
ffffffff8100b513:	48 8b 50 28          	mov    0x28(%rax),%rdx
ffffffff8100b517:	48 8b 45 e0          	mov    -0x20(%rbp),%rax
ffffffff8100b51b:	0f b7 00             	movzwl (%rax),%eax
ffffffff8100b51e:	0f b7 c0             	movzwl %ax,%eax
ffffffff8100b521:	48 c1 e0 03          	shl    $0x3,%rax
ffffffff8100b525:	48 01 d0             	add    %rdx,%rax
ffffffff8100b528:	48 8b 00             	mov    (%rax),%rax
ffffffff8100b52b:	48 ba 00 f0 ff ff ff 	movabs $0x7ffffffffffff000,%rdx
ffffffff8100b532:	ff ff 7f 
ffffffff8100b535:	48 21 d0             	and    %rdx,%rax
ffffffff8100b538:	be 02 00 00 00       	mov    $0x2,%esi
ffffffff8100b53d:	48 89 c7             	mov    %rax,%rdi
ffffffff8100b540:	e8 1d fd ff ff       	callq  ffffffff8100b262 <pagemgr_temp_map>
ffffffff8100b545:	48 89 c2             	mov    %rax,%rdx
ffffffff8100b548:	48 8b 45 e0          	mov    -0x20(%rbp),%rax
ffffffff8100b54c:	48 89 50 30          	mov    %rdx,0x30(%rax)
ffffffff8100b550:	80 7d f7 00          	cmpb   $0x0,-0x9(%rbp)
ffffffff8100b554:	74 23                	je     ffffffff8100b579 <pagemgr_alloc_pages_cb+0x197>
ffffffff8100b556:	48 8b 45 e0          	mov    -0x20(%rbp),%rax
ffffffff8100b55a:	48 8b 40 30          	mov    0x30(%rax),%rax
ffffffff8100b55e:	ba 00 10 00 00       	mov    $0x1000,%edx
ffffffff8100b563:	be 00 00 00 00       	mov    $0x0,%esi
ffffffff8100b568:	48 89 c7             	mov    %rax,%rdi
ffffffff8100b56b:	e8 4a f2 ff ff       	callq  ffffffff8100a7ba <memset>
ffffffff8100b570:	c6 45 f7 00          	movb   $0x0,-0x9(%rbp)
ffffffff8100b574:	e9 cc 03 00 00       	jmpq   ffffffff8100b945 <pagemgr_alloc_pages_cb+0x563>
ffffffff8100b579:	48 8b 45 e0          	mov    -0x20(%rbp),%rax
ffffffff8100b57d:	48 8b 40 30          	mov    0x30(%rax),%rax
ffffffff8100b581:	48 85 c0             	test   %rax,%rax
ffffffff8100b584:	0f 84 43 01 00 00    	je     ffffffff8100b6cd <pagemgr_alloc_pages_cb+0x2eb>
ffffffff8100b58a:	48 8b 45 e0          	mov    -0x20(%rbp),%rax
ffffffff8100b58e:	0f b7 40 02          	movzwl 0x2(%rax),%eax
ffffffff8100b592:	0f b7 c0             	movzwl %ax,%eax
ffffffff8100b595:	48 8b 55 e8          	mov    -0x18(%rbp),%rdx
ffffffff8100b599:	48 c1 ea 27          	shr    $0x27,%rdx
ffffffff8100b59d:	81 e2 ff 01 00 00    	and    $0x1ff,%edx
ffffffff8100b5a3:	48 39 d0             	cmp    %rdx,%rax
ffffffff8100b5a6:	0f 84 21 01 00 00    	je     ffffffff8100b6cd <pagemgr_alloc_pages_cb+0x2eb>
ffffffff8100b5ac:	48 8b 45 e8          	mov    -0x18(%rbp),%rax
ffffffff8100b5b0:	48 c1 e8 27          	shr    $0x27,%rax
ffffffff8100b5b4:	66 25 ff 01          	and    $0x1ff,%ax
ffffffff8100b5b8:	89 c2                	mov    %eax,%edx
ffffffff8100b5ba:	48 8b 45 e0          	mov    -0x20(%rbp),%rax
ffffffff8100b5be:	66 89 50 02          	mov    %dx,0x2(%rax)
ffffffff8100b5c2:	48 8b 45 e0          	mov    -0x20(%rbp),%rax
ffffffff8100b5c6:	48 8b 50 30          	mov    0x30(%rax),%rdx
ffffffff8100b5ca:	48 8b 45 e0          	mov    -0x20(%rbp),%rax
ffffffff8100b5ce:	0f b7 40 02          	movzwl 0x2(%rax),%eax
ffffffff8100b5d2:	0f b7 c0             	movzwl %ax,%eax
ffffffff8100b5d5:	48 c1 e0 03          	shl    $0x3,%rax
ffffffff8100b5d9:	48 01 d0             	add    %rdx,%rax
ffffffff8100b5dc:	0f b6 00             	movzbl (%rax),%eax
ffffffff8100b5df:	83 e0 01             	and    $0x1,%eax
ffffffff8100b5e2:	84 c0                	test   %al,%al
ffffffff8100b5e4:	75 7c                	jne    ffffffff8100b662 <pagemgr_alloc_pages_cb+0x280>
ffffffff8100b5e6:	48 8b 45 f8          	mov    -0x8(%rbp),%rax
ffffffff8100b5ea:	48 c1 e0 0c          	shl    $0xc,%rax
ffffffff8100b5ee:	48 89 c1             	mov    %rax,%rcx
ffffffff8100b5f1:	48 8b 45 e0          	mov    -0x20(%rbp),%rax
ffffffff8100b5f5:	48 8b 50 30          	mov    0x30(%rax),%rdx
ffffffff8100b5f9:	48 8b 45 e0          	mov    -0x20(%rbp),%rax
ffffffff8100b5fd:	0f b7 40 02          	movzwl 0x2(%rax),%eax
ffffffff8100b601:	0f b7 c0             	movzwl %ax,%eax
ffffffff8100b604:	48 c1 e0 03          	shl    $0x3,%rax
ffffffff8100b608:	48 01 d0             	add    %rdx,%rax
ffffffff8100b60b:	48 8b 55 d8          	mov    -0x28(%rbp),%rdx
ffffffff8100b60f:	48 01 ca             	add    %rcx,%rdx
ffffffff8100b612:	48 89 10             	mov    %rdx,(%rax)
ffffffff8100b615:	48 8b 45 e0          	mov    -0x20(%rbp),%rax
ffffffff8100b619:	48 8b 50 30          	mov    0x30(%rax),%rdx
ffffffff8100b61d:	48 8b 45 e0          	mov    -0x20(%rbp),%rax
ffffffff8100b621:	0f b7 40 02          	movzwl 0x2(%rax),%eax
ffffffff8100b625:	0f b7 c0             	movzwl %ax,%eax
ffffffff8100b628:	48 c1 e0 03          	shl    $0x3,%rax
ffffffff8100b62c:	48 01 d0             	add    %rdx,%rax
ffffffff8100b62f:	0f b6 10             	movzbl (%rax),%edx
ffffffff8100b632:	83 ca 02             	or     $0x2,%edx
ffffffff8100b635:	88 10                	mov    %dl,(%rax)
ffffffff8100b637:	48 8b 45 e0          	mov    -0x20(%rbp),%rax
ffffffff8100b63b:	48 8b 50 30          	mov    0x30(%rax),%rdx
ffffffff8100b63f:	48 8b 45 e0          	mov    -0x20(%rbp),%rax
ffffffff8100b643:	0f b7 40 02          	movzwl 0x2(%rax),%eax
ffffffff8100b647:	0f b7 c0             	movzwl %ax,%eax
ffffffff8100b64a:	48 c1 e0 03          	shl    $0x3,%rax
ffffffff8100b64e:	48 01 d0             	add    %rdx,%rax
ffffffff8100b651:	0f b6 10             	movzbl (%rax),%edx
ffffffff8100b654:	83 ca 01             	or     $0x1,%edx
ffffffff8100b657:	88 10                	mov    %dl,(%rax)
ffffffff8100b659:	48 83 45 f8 01       	addq   $0x1,-0x8(%rbp)
ffffffff8100b65e:	c6 45 f7 01          	movb   $0x1,-0x9(%rbp)
ffffffff8100b662:	48 8b 45 e0          	mov    -0x20(%rbp),%rax
ffffffff8100b666:	48 8b 50 30          	mov    0x30(%rax),%rdx
ffffffff8100b66a:	48 8b 45 e0          	mov    -0x20(%rbp),%rax
ffffffff8100b66e:	0f b7 40 02          	movzwl 0x2(%rax),%eax
ffffffff8100b672:	0f b7 c0             	movzwl %ax,%eax
ffffffff8100b675:	48 c1 e0 03          	shl    $0x3,%rax
ffffffff8100b679:	48 01 d0             	add    %rdx,%rax
ffffffff8100b67c:	48 8b 00             	mov    (%rax),%rax
ffffffff8100b67f:	48 ba 00 f0 ff ff ff 	movabs $0x7ffffffffffff000,%rdx
ffffffff8100b686:	ff ff 7f 
ffffffff8100b689:	48 21 d0             	and    %rdx,%rax
ffffffff8100b68c:	be 03 00 00 00       	mov    $0x3,%esi
ffffffff8100b691:	48 89 c7             	mov    %rax,%rdi
ffffffff8100b694:	e8 c9 fb ff ff       	callq  ffffffff8100b262 <pagemgr_temp_map>
ffffffff8100b699:	48 89 c2             	mov    %rax,%rdx
ffffffff8100b69c:	48 8b 45 e0          	mov    -0x20(%rbp),%rax
ffffffff8100b6a0:	48 89 50 38          	mov    %rdx,0x38(%rax)
ffffffff8100b6a4:	80 7d f7 00          	cmpb   $0x0,-0x9(%rbp)
ffffffff8100b6a8:	74 23                	je     ffffffff8100b6cd <pagemgr_alloc_pages_cb+0x2eb>
ffffffff8100b6aa:	48 8b 45 e0          	mov    -0x20(%rbp),%rax
ffffffff8100b6ae:	48 8b 40 38          	mov    0x38(%rax),%rax
ffffffff8100b6b2:	ba 00 10 00 00       	mov    $0x1000,%edx
ffffffff8100b6b7:	be 00 00 00 00       	mov    $0x0,%esi
ffffffff8100b6bc:	48 89 c7             	mov    %rax,%rdi
ffffffff8100b6bf:	e8 f6 f0 ff ff       	callq  ffffffff8100a7ba <memset>
ffffffff8100b6c4:	c6 45 f7 00          	movb   $0x0,-0x9(%rbp)
ffffffff8100b6c8:	e9 78 02 00 00       	jmpq   ffffffff8100b945 <pagemgr_alloc_pages_cb+0x563>
ffffffff8100b6cd:	48 8b 45 e0          	mov    -0x20(%rbp),%rax
ffffffff8100b6d1:	48 8b 40 38          	mov    0x38(%rax),%rax
ffffffff8100b6d5:	48 85 c0             	test   %rax,%rax
ffffffff8100b6d8:	0f 84 43 01 00 00    	je     ffffffff8100b821 <pagemgr_alloc_pages_cb+0x43f>
ffffffff8100b6de:	48 8b 45 e0          	mov    -0x20(%rbp),%rax
ffffffff8100b6e2:	0f b7 40 04          	movzwl 0x4(%rax),%eax
ffffffff8100b6e6:	0f b7 c0             	movzwl %ax,%eax
ffffffff8100b6e9:	48 8b 55 e8          	mov    -0x18(%rbp),%rdx
ffffffff8100b6ed:	48 c1 ea 1e          	shr    $0x1e,%rdx
ffffffff8100b6f1:	81 e2 ff 01 00 00    	and    $0x1ff,%edx
ffffffff8100b6f7:	48 39 d0             	cmp    %rdx,%rax
ffffffff8100b6fa:	0f 84 21 01 00 00    	je     ffffffff8100b821 <pagemgr_alloc_pages_cb+0x43f>
ffffffff8100b700:	48 8b 45 e8          	mov    -0x18(%rbp),%rax
ffffffff8100b704:	48 c1 e8 1e          	shr    $0x1e,%rax
ffffffff8100b708:	66 25 ff 01          	and    $0x1ff,%ax
ffffffff8100b70c:	89 c2                	mov    %eax,%edx
ffffffff8100b70e:	48 8b 45 e0          	mov    -0x20(%rbp),%rax
ffffffff8100b712:	66 89 50 04          	mov    %dx,0x4(%rax)
ffffffff8100b716:	48 8b 45 e0          	mov    -0x20(%rbp),%rax
ffffffff8100b71a:	48 8b 50 38          	mov    0x38(%rax),%rdx
ffffffff8100b71e:	48 8b 45 e0          	mov    -0x20(%rbp),%rax
ffffffff8100b722:	0f b7 40 04          	movzwl 0x4(%rax),%eax
ffffffff8100b726:	0f b7 c0             	movzwl %ax,%eax
ffffffff8100b729:	48 c1 e0 03          	shl    $0x3,%rax
ffffffff8100b72d:	48 01 d0             	add    %rdx,%rax
ffffffff8100b730:	0f b6 00             	movzbl (%rax),%eax
ffffffff8100b733:	83 e0 01             	and    $0x1,%eax
ffffffff8100b736:	84 c0                	test   %al,%al
ffffffff8100b738:	75 7c                	jne    ffffffff8100b7b6 <pagemgr_alloc_pages_cb+0x3d4>
ffffffff8100b73a:	48 8b 45 f8          	mov    -0x8(%rbp),%rax
ffffffff8100b73e:	48 c1 e0 0c          	shl    $0xc,%rax
ffffffff8100b742:	48 89 c1             	mov    %rax,%rcx
ffffffff8100b745:	48 8b 45 e0          	mov    -0x20(%rbp),%rax
ffffffff8100b749:	48 8b 50 38          	mov    0x38(%rax),%rdx
ffffffff8100b74d:	48 8b 45 e0          	mov    -0x20(%rbp),%rax
ffffffff8100b751:	0f b7 40 04          	movzwl 0x4(%rax),%eax
ffffffff8100b755:	0f b7 c0             	movzwl %ax,%eax
ffffffff8100b758:	48 c1 e0 03          	shl    $0x3,%rax
ffffffff8100b75c:	48 01 d0             	add    %rdx,%rax
ffffffff8100b75f:	48 8b 55 d8          	mov    -0x28(%rbp),%rdx
ffffffff8100b763:	48 01 ca             	add    %rcx,%rdx
ffffffff8100b766:	48 89 10             	mov    %rdx,(%rax)
ffffffff8100b769:	48 8b 45 e0          	mov    -0x20(%rbp),%rax
ffffffff8100b76d:	48 8b 50 38          	mov    0x38(%rax),%rdx
ffffffff8100b771:	48 8b 45 e0          	mov    -0x20(%rbp),%rax
ffffffff8100b775:	0f b7 40 04          	movzwl 0x4(%rax),%eax
ffffffff8100b779:	0f b7 c0             	movzwl %ax,%eax
ffffffff8100b77c:	48 c1 e0 03          	shl    $0x3,%rax
ffffffff8100b780:	48 01 d0             	add    %rdx,%rax
ffffffff8100b783:	0f b6 10             	movzbl (%rax),%edx
ffffffff8100b786:	83 ca 02             	or     $0x2,%edx
ffffffff8100b789:	88 10                	mov    %dl,(%rax)
ffffffff8100b78b:	48 8b 45 e0          	mov    -0x20(%rbp),%rax
ffffffff8100b78f:	48 8b 50 38          	mov    0x38(%rax),%rdx
ffffffff8100b793:	48 8b 45 e0          	mov    -0x20(%rbp),%rax
ffffffff8100b797:	0f b7 40 04          	movzwl 0x4(%rax),%eax
ffffffff8100b79b:	0f b7 c0             	movzwl %ax,%eax
ffffffff8100b79e:	48 c1 e0 03          	shl    $0x3,%rax
ffffffff8100b7a2:	48 01 d0             	add    %rdx,%rax
ffffffff8100b7a5:	0f b6 10             	movzbl (%rax),%edx
ffffffff8100b7a8:	83 ca 01             	or     $0x1,%edx
ffffffff8100b7ab:	88 10                	mov    %dl,(%rax)
ffffffff8100b7ad:	48 83 45 f8 01       	addq   $0x1,-0x8(%rbp)
ffffffff8100b7b2:	c6 45 f7 01          	movb   $0x1,-0x9(%rbp)
ffffffff8100b7b6:	48 8b 45 e0          	mov    -0x20(%rbp),%rax
ffffffff8100b7ba:	48 8b 50 38          	mov    0x38(%rax),%rdx
ffffffff8100b7be:	48 8b 45 e0          	mov    -0x20(%rbp),%rax
ffffffff8100b7c2:	0f b7 40 04          	movzwl 0x4(%rax),%eax
ffffffff8100b7c6:	0f b7 c0             	movzwl %ax,%eax
ffffffff8100b7c9:	48 c1 e0 03          	shl    $0x3,%rax
ffffffff8100b7cd:	48 01 d0             	add    %rdx,%rax
ffffffff8100b7d0:	48 8b 00             	mov    (%rax),%rax
ffffffff8100b7d3:	48 ba 00 f0 ff ff ff 	movabs $0x7ffffffffffff000,%rdx
ffffffff8100b7da:	ff ff 7f 
ffffffff8100b7dd:	48 21 d0             	and    %rdx,%rax
ffffffff8100b7e0:	be 04 00 00 00       	mov    $0x4,%esi
ffffffff8100b7e5:	48 89 c7             	mov    %rax,%rdi
ffffffff8100b7e8:	e8 75 fa ff ff       	callq  ffffffff8100b262 <pagemgr_temp_map>
ffffffff8100b7ed:	48 89 c2             	mov    %rax,%rdx
ffffffff8100b7f0:	48 8b 45 e0          	mov    -0x20(%rbp),%rax
ffffffff8100b7f4:	48 89 50 40          	mov    %rdx,0x40(%rax)
ffffffff8100b7f8:	80 7d f7 00          	cmpb   $0x0,-0x9(%rbp)
ffffffff8100b7fc:	74 23                	je     ffffffff8100b821 <pagemgr_alloc_pages_cb+0x43f>
ffffffff8100b7fe:	48 8b 45 e0          	mov    -0x20(%rbp),%rax
ffffffff8100b802:	48 8b 40 40          	mov    0x40(%rax),%rax
ffffffff8100b806:	ba 00 10 00 00       	mov    $0x1000,%edx
ffffffff8100b80b:	be 00 00 00 00       	mov    $0x0,%esi
ffffffff8100b810:	48 89 c7             	mov    %rax,%rdi
ffffffff8100b813:	e8 a2 ef ff ff       	callq  ffffffff8100a7ba <memset>
ffffffff8100b818:	c6 45 f7 00          	movb   $0x0,-0x9(%rbp)
ffffffff8100b81c:	e9 24 01 00 00       	jmpq   ffffffff8100b945 <pagemgr_alloc_pages_cb+0x563>
ffffffff8100b821:	48 8b 45 e0          	mov    -0x20(%rbp),%rax
ffffffff8100b825:	48 8b 40 40          	mov    0x40(%rax),%rax
ffffffff8100b829:	48 85 c0             	test   %rax,%rax
ffffffff8100b82c:	0f 84 fc 00 00 00    	je     ffffffff8100b92e <pagemgr_alloc_pages_cb+0x54c>
ffffffff8100b832:	48 8b 45 e0          	mov    -0x20(%rbp),%rax
ffffffff8100b836:	0f b7 40 06          	movzwl 0x6(%rax),%eax
ffffffff8100b83a:	0f b7 c0             	movzwl %ax,%eax
ffffffff8100b83d:	48 8b 55 e8          	mov    -0x18(%rbp),%rdx
ffffffff8100b841:	48 c1 ea 15          	shr    $0x15,%rdx
ffffffff8100b845:	81 e2 ff 01 00 00    	and    $0x1ff,%edx
ffffffff8100b84b:	48 39 d0             	cmp    %rdx,%rax
ffffffff8100b84e:	0f 84 da 00 00 00    	je     ffffffff8100b92e <pagemgr_alloc_pages_cb+0x54c>
ffffffff8100b854:	48 8b 45 e8          	mov    -0x18(%rbp),%rax
ffffffff8100b858:	48 c1 e8 15          	shr    $0x15,%rax
ffffffff8100b85c:	66 25 ff 01          	and    $0x1ff,%ax
ffffffff8100b860:	89 c2                	mov    %eax,%edx
ffffffff8100b862:	48 8b 45 e0          	mov    -0x20(%rbp),%rax
ffffffff8100b866:	66 89 50 06          	mov    %dx,0x6(%rax)
ffffffff8100b86a:	48 8b 45 e0          	mov    -0x20(%rbp),%rax
ffffffff8100b86e:	48 8b 50 40          	mov    0x40(%rax),%rdx
ffffffff8100b872:	48 8b 45 e0          	mov    -0x20(%rbp),%rax
ffffffff8100b876:	0f b7 40 06          	movzwl 0x6(%rax),%eax
ffffffff8100b87a:	0f b7 c0             	movzwl %ax,%eax
ffffffff8100b87d:	48 c1 e0 03          	shl    $0x3,%rax
ffffffff8100b881:	48 01 d0             	add    %rdx,%rax
ffffffff8100b884:	0f b6 00             	movzbl (%rax),%eax
ffffffff8100b887:	83 e0 01             	and    $0x1,%eax
ffffffff8100b88a:	84 c0                	test   %al,%al
ffffffff8100b88c:	75 7c                	jne    ffffffff8100b90a <pagemgr_alloc_pages_cb+0x528>
ffffffff8100b88e:	48 8b 45 f8          	mov    -0x8(%rbp),%rax
ffffffff8100b892:	48 c1 e0 0c          	shl    $0xc,%rax
ffffffff8100b896:	48 89 c1             	mov    %rax,%rcx
ffffffff8100b899:	48 8b 45 e0          	mov    -0x20(%rbp),%rax
ffffffff8100b89d:	48 8b 50 40          	mov    0x40(%rax),%rdx
ffffffff8100b8a1:	48 8b 45 e0          	mov    -0x20(%rbp),%rax
ffffffff8100b8a5:	0f b7 40 06          	movzwl 0x6(%rax),%eax
ffffffff8100b8a9:	0f b7 c0             	movzwl %ax,%eax
ffffffff8100b8ac:	48 c1 e0 03          	shl    $0x3,%rax
ffffffff8100b8b0:	48 01 d0             	add    %rdx,%rax
ffffffff8100b8b3:	48 8b 55 d8          	mov    -0x28(%rbp),%rdx
ffffffff8100b8b7:	48 01 ca             	add    %rcx,%rdx
ffffffff8100b8ba:	48 89 10             	mov    %rdx,(%rax)
ffffffff8100b8bd:	48 8b 45 e0          	mov    -0x20(%rbp),%rax
ffffffff8100b8c1:	48 8b 50 40          	mov    0x40(%rax),%rdx
ffffffff8100b8c5:	48 8b 45 e0          	mov    -0x20(%rbp),%rax
ffffffff8100b8c9:	0f b7 40 06          	movzwl 0x6(%rax),%eax
ffffffff8100b8cd:	0f b7 c0             	movzwl %ax,%eax
ffffffff8100b8d0:	48 c1 e0 03          	shl    $0x3,%rax
ffffffff8100b8d4:	48 01 d0             	add    %rdx,%rax
ffffffff8100b8d7:	0f b6 10             	movzbl (%rax),%edx
ffffffff8100b8da:	83 ca 02             	or     $0x2,%edx
ffffffff8100b8dd:	88 10                	mov    %dl,(%rax)
ffffffff8100b8df:	48 8b 45 e0          	mov    -0x20(%rbp),%rax
ffffffff8100b8e3:	48 8b 50 40          	mov    0x40(%rax),%rdx
ffffffff8100b8e7:	48 8b 45 e0          	mov    -0x20(%rbp),%rax
ffffffff8100b8eb:	0f b7 40 06          	movzwl 0x6(%rax),%eax
ffffffff8100b8ef:	0f b7 c0             	movzwl %ax,%eax
ffffffff8100b8f2:	48 c1 e0 03          	shl    $0x3,%rax
ffffffff8100b8f6:	48 01 d0             	add    %rdx,%rax
ffffffff8100b8f9:	0f b6 10             	movzbl (%rax),%edx
ffffffff8100b8fc:	83 ca 01             	or     $0x1,%edx
ffffffff8100b8ff:	88 10                	mov    %dl,(%rax)
ffffffff8100b901:	48 83 45 f8 01       	addq   $0x1,-0x8(%rbp)
ffffffff8100b906:	c6 45 f7 01          	movb   $0x1,-0x9(%rbp)
ffffffff8100b90a:	80 7d f7 00          	cmpb   $0x0,-0x9(%rbp)
ffffffff8100b90e:	74 1e                	je     ffffffff8100b92e <pagemgr_alloc_pages_cb+0x54c>
ffffffff8100b910:	48 8b 45 e0          	mov    -0x20(%rbp),%rax
ffffffff8100b914:	48 8b 40 48          	mov    0x48(%rax),%rax
ffffffff8100b918:	ba 00 10 00 00       	mov    $0x1000,%edx
ffffffff8100b91d:	be 00 00 00 00       	mov    $0x0,%esi
ffffffff8100b922:	48 89 c7             	mov    %rax,%rdi
ffffffff8100b925:	e8 90 ee ff ff       	callq  ffffffff8100a7ba <memset>
ffffffff8100b92a:	c6 45 f7 00          	movb   $0x0,-0x9(%rbp)
ffffffff8100b92e:	48 8b 45 e0          	mov    -0x20(%rbp),%rax
ffffffff8100b932:	48 8b 40 20          	mov    0x20(%rax),%rax
ffffffff8100b936:	48 8d 90 00 10 00 00 	lea    0x1000(%rax),%rdx
ffffffff8100b93d:	48 8b 45 e0          	mov    -0x20(%rbp),%rax
ffffffff8100b941:	48 89 50 20          	mov    %rdx,0x20(%rax)
ffffffff8100b945:	48 8b 45 f8          	mov    -0x8(%rbp),%rax
ffffffff8100b949:	48 3b 45 d0          	cmp    -0x30(%rbp),%rax
ffffffff8100b94d:	73 19                	jae    ffffffff8100b968 <pagemgr_alloc_pages_cb+0x586>
ffffffff8100b94f:	48 8b 45 e0          	mov    -0x20(%rbp),%rax
ffffffff8100b953:	48 8b 50 20          	mov    0x20(%rax),%rdx
ffffffff8100b957:	48 8b 45 e0          	mov    -0x20(%rbp),%rax
ffffffff8100b95b:	48 8b 40 18          	mov    0x18(%rax),%rax
ffffffff8100b95f:	48 39 c2             	cmp    %rax,%rdx
ffffffff8100b962:	0f 82 af fa ff ff    	jb     ffffffff8100b417 <pagemgr_alloc_pages_cb+0x35>
ffffffff8100b968:	48 8b 45 f8          	mov    -0x8(%rbp),%rax
ffffffff8100b96c:	c9                   	leaveq 
ffffffff8100b96d:	c3                   	retq   

ffffffff8100b96e <pagemgr_check_page_path>:
ffffffff8100b96e:	55                   	push   %rbp
ffffffff8100b96f:	48 89 e5             	mov    %rsp,%rbp
ffffffff8100b972:	48 83 ec 20          	sub    $0x20,%rsp
ffffffff8100b976:	48 89 7d e8          	mov    %rdi,-0x18(%rbp)
ffffffff8100b97a:	48 c7 45 f8 00 00 00 	movq   $0x0,-0x8(%rbp)
ffffffff8100b981:	00 
ffffffff8100b982:	e9 90 02 00 00       	jmpq   ffffffff8100bc17 <pagemgr_check_page_path+0x2a9>
ffffffff8100b987:	48 8b 45 e8          	mov    -0x18(%rbp),%rax
ffffffff8100b98b:	48 8b 50 10          	mov    0x10(%rax),%rdx
ffffffff8100b98f:	48 8b 45 e8          	mov    -0x18(%rbp),%rax
ffffffff8100b993:	48 8b 40 20          	mov    0x20(%rax),%rax
ffffffff8100b997:	48 01 d0             	add    %rdx,%rax
ffffffff8100b99a:	48 89 45 f8          	mov    %rax,-0x8(%rbp)
ffffffff8100b99e:	0f b6 05 2b 58 01 00 	movzbl 0x1582b(%rip),%eax        # ffffffff810211d0 <page_manager+0x10>
ffffffff8100b9a5:	84 c0                	test   %al,%al
ffffffff8100b9a7:	0f 84 a4 00 00 00    	je     ffffffff8100ba51 <pagemgr_check_page_path+0xe3>
ffffffff8100b9ad:	48 8b 45 e8          	mov    -0x18(%rbp),%rax
ffffffff8100b9b1:	0f b7 00             	movzwl (%rax),%eax
ffffffff8100b9b4:	0f b7 c0             	movzwl %ax,%eax
ffffffff8100b9b7:	48 8b 55 f8          	mov    -0x8(%rbp),%rdx
ffffffff8100b9bb:	48 c1 ea 2f          	shr    $0x2f,%rdx
ffffffff8100b9bf:	81 e2 ff 01 00 00    	and    $0x1ff,%edx
ffffffff8100b9c5:	48 39 d0             	cmp    %rdx,%rax
ffffffff8100b9c8:	0f 84 83 00 00 00    	je     ffffffff8100ba51 <pagemgr_check_page_path+0xe3>
ffffffff8100b9ce:	48 8b 45 f8          	mov    -0x8(%rbp),%rax
ffffffff8100b9d2:	48 c1 e8 2f          	shr    $0x2f,%rax
ffffffff8100b9d6:	66 25 ff 01          	and    $0x1ff,%ax
ffffffff8100b9da:	89 c2                	mov    %eax,%edx
ffffffff8100b9dc:	48 8b 45 e8          	mov    -0x18(%rbp),%rax
ffffffff8100b9e0:	66 89 10             	mov    %dx,(%rax)
ffffffff8100b9e3:	48 8b 45 e8          	mov    -0x18(%rbp),%rax
ffffffff8100b9e7:	48 8b 50 28          	mov    0x28(%rax),%rdx
ffffffff8100b9eb:	48 8b 45 e8          	mov    -0x18(%rbp),%rax
ffffffff8100b9ef:	0f b7 00             	movzwl (%rax),%eax
ffffffff8100b9f2:	0f b7 c0             	movzwl %ax,%eax
ffffffff8100b9f5:	48 c1 e0 03          	shl    $0x3,%rax
ffffffff8100b9f9:	48 01 d0             	add    %rdx,%rax
ffffffff8100b9fc:	0f b6 00             	movzbl (%rax),%eax
ffffffff8100b9ff:	83 e0 01             	and    $0x1,%eax
ffffffff8100ba02:	84 c0                	test   %al,%al
ffffffff8100ba04:	75 0a                	jne    ffffffff8100ba10 <pagemgr_check_page_path+0xa2>
ffffffff8100ba06:	b8 01 00 00 00       	mov    $0x1,%eax
ffffffff8100ba0b:	e9 25 02 00 00       	jmpq   ffffffff8100bc35 <pagemgr_check_page_path+0x2c7>
ffffffff8100ba10:	48 8b 45 e8          	mov    -0x18(%rbp),%rax
ffffffff8100ba14:	48 8b 50 28          	mov    0x28(%rax),%rdx
ffffffff8100ba18:	48 8b 45 e8          	mov    -0x18(%rbp),%rax
ffffffff8100ba1c:	0f b7 00             	movzwl (%rax),%eax
ffffffff8100ba1f:	0f b7 c0             	movzwl %ax,%eax
ffffffff8100ba22:	48 c1 e0 03          	shl    $0x3,%rax
ffffffff8100ba26:	48 01 d0             	add    %rdx,%rax
ffffffff8100ba29:	48 8b 00             	mov    (%rax),%rax
ffffffff8100ba2c:	48 ba 00 f0 ff ff ff 	movabs $0x7ffffffffffff000,%rdx
ffffffff8100ba33:	ff ff 7f 
ffffffff8100ba36:	48 21 d0             	and    %rdx,%rax
ffffffff8100ba39:	be 02 00 00 00       	mov    $0x2,%esi
ffffffff8100ba3e:	48 89 c7             	mov    %rax,%rdi
ffffffff8100ba41:	e8 1c f8 ff ff       	callq  ffffffff8100b262 <pagemgr_temp_map>
ffffffff8100ba46:	48 89 c2             	mov    %rax,%rdx
ffffffff8100ba49:	48 8b 45 e8          	mov    -0x18(%rbp),%rax
ffffffff8100ba4d:	48 89 50 30          	mov    %rdx,0x30(%rax)
ffffffff8100ba51:	48 8b 45 e8          	mov    -0x18(%rbp),%rax
ffffffff8100ba55:	0f b7 40 02          	movzwl 0x2(%rax),%eax
ffffffff8100ba59:	0f b7 c0             	movzwl %ax,%eax
ffffffff8100ba5c:	48 8b 55 f8          	mov    -0x8(%rbp),%rdx
ffffffff8100ba60:	48 c1 ea 27          	shr    $0x27,%rdx
ffffffff8100ba64:	81 e2 ff 01 00 00    	and    $0x1ff,%edx
ffffffff8100ba6a:	48 39 d0             	cmp    %rdx,%rax
ffffffff8100ba6d:	0f 84 86 00 00 00    	je     ffffffff8100baf9 <pagemgr_check_page_path+0x18b>
ffffffff8100ba73:	48 8b 45 f8          	mov    -0x8(%rbp),%rax
ffffffff8100ba77:	48 c1 e8 27          	shr    $0x27,%rax
ffffffff8100ba7b:	66 25 ff 01          	and    $0x1ff,%ax
ffffffff8100ba7f:	89 c2                	mov    %eax,%edx
ffffffff8100ba81:	48 8b 45 e8          	mov    -0x18(%rbp),%rax
ffffffff8100ba85:	66 89 50 02          	mov    %dx,0x2(%rax)
ffffffff8100ba89:	48 8b 45 e8          	mov    -0x18(%rbp),%rax
ffffffff8100ba8d:	48 8b 50 30          	mov    0x30(%rax),%rdx
ffffffff8100ba91:	48 8b 45 e8          	mov    -0x18(%rbp),%rax
ffffffff8100ba95:	0f b7 40 02          	movzwl 0x2(%rax),%eax
ffffffff8100ba99:	0f b7 c0             	movzwl %ax,%eax
ffffffff8100ba9c:	48 c1 e0 03          	shl    $0x3,%rax
ffffffff8100baa0:	48 01 d0             	add    %rdx,%rax
ffffffff8100baa3:	0f b6 00             	movzbl (%rax),%eax
ffffffff8100baa6:	83 e0 01             	and    $0x1,%eax
ffffffff8100baa9:	84 c0                	test   %al,%al
ffffffff8100baab:	75 0a                	jne    ffffffff8100bab7 <pagemgr_check_page_path+0x149>
ffffffff8100baad:	b8 01 00 00 00       	mov    $0x1,%eax
ffffffff8100bab2:	e9 7e 01 00 00       	jmpq   ffffffff8100bc35 <pagemgr_check_page_path+0x2c7>
ffffffff8100bab7:	48 8b 45 e8          	mov    -0x18(%rbp),%rax
ffffffff8100babb:	48 8b 50 30          	mov    0x30(%rax),%rdx
ffffffff8100babf:	48 8b 45 e8          	mov    -0x18(%rbp),%rax
ffffffff8100bac3:	0f b7 40 02          	movzwl 0x2(%rax),%eax
ffffffff8100bac7:	0f b7 c0             	movzwl %ax,%eax
ffffffff8100baca:	48 c1 e0 03          	shl    $0x3,%rax
ffffffff8100bace:	48 01 d0             	add    %rdx,%rax
ffffffff8100bad1:	48 8b 00             	mov    (%rax),%rax
ffffffff8100bad4:	48 ba 00 f0 ff ff ff 	movabs $0x7ffffffffffff000,%rdx
ffffffff8100badb:	ff ff 7f 
ffffffff8100bade:	48 21 d0             	and    %rdx,%rax
ffffffff8100bae1:	be 03 00 00 00       	mov    $0x3,%esi
ffffffff8100bae6:	48 89 c7             	mov    %rax,%rdi
ffffffff8100bae9:	e8 74 f7 ff ff       	callq  ffffffff8100b262 <pagemgr_temp_map>
ffffffff8100baee:	48 89 c2             	mov    %rax,%rdx
ffffffff8100baf1:	48 8b 45 e8          	mov    -0x18(%rbp),%rax
ffffffff8100baf5:	48 89 50 38          	mov    %rdx,0x38(%rax)
ffffffff8100baf9:	48 8b 45 e8          	mov    -0x18(%rbp),%rax
ffffffff8100bafd:	0f b7 40 04          	movzwl 0x4(%rax),%eax
ffffffff8100bb01:	0f b7 c0             	movzwl %ax,%eax
ffffffff8100bb04:	48 8b 55 f8          	mov    -0x8(%rbp),%rdx
ffffffff8100bb08:	48 c1 ea 1e          	shr    $0x1e,%rdx
ffffffff8100bb0c:	81 e2 ff 01 00 00    	and    $0x1ff,%edx
ffffffff8100bb12:	48 39 d0             	cmp    %rdx,%rax
ffffffff8100bb15:	0f 84 86 00 00 00    	je     ffffffff8100bba1 <pagemgr_check_page_path+0x233>
ffffffff8100bb1b:	48 8b 45 f8          	mov    -0x8(%rbp),%rax
ffffffff8100bb1f:	48 c1 e8 1e          	shr    $0x1e,%rax
ffffffff8100bb23:	66 25 ff 01          	and    $0x1ff,%ax
ffffffff8100bb27:	89 c2                	mov    %eax,%edx
ffffffff8100bb29:	48 8b 45 e8          	mov    -0x18(%rbp),%rax
ffffffff8100bb2d:	66 89 50 04          	mov    %dx,0x4(%rax)
ffffffff8100bb31:	48 8b 45 e8          	mov    -0x18(%rbp),%rax
ffffffff8100bb35:	48 8b 50 38          	mov    0x38(%rax),%rdx
ffffffff8100bb39:	48 8b 45 e8          	mov    -0x18(%rbp),%rax
ffffffff8100bb3d:	0f b7 40 04          	movzwl 0x4(%rax),%eax
ffffffff8100bb41:	0f b7 c0             	movzwl %ax,%eax
ffffffff8100bb44:	48 c1 e0 03          	shl    $0x3,%rax
ffffffff8100bb48:	48 01 d0             	add    %rdx,%rax
ffffffff8100bb4b:	0f b6 00             	movzbl (%rax),%eax
ffffffff8100bb4e:	83 e0 01             	and    $0x1,%eax
ffffffff8100bb51:	84 c0                	test   %al,%al
ffffffff8100bb53:	75 0a                	jne    ffffffff8100bb5f <pagemgr_check_page_path+0x1f1>
ffffffff8100bb55:	b8 01 00 00 00       	mov    $0x1,%eax
ffffffff8100bb5a:	e9 d6 00 00 00       	jmpq   ffffffff8100bc35 <pagemgr_check_page_path+0x2c7>
ffffffff8100bb5f:	48 8b 45 e8          	mov    -0x18(%rbp),%rax
ffffffff8100bb63:	48 8b 50 38          	mov    0x38(%rax),%rdx
ffffffff8100bb67:	48 8b 45 e8          	mov    -0x18(%rbp),%rax
ffffffff8100bb6b:	0f b7 40 04          	movzwl 0x4(%rax),%eax
ffffffff8100bb6f:	0f b7 c0             	movzwl %ax,%eax
ffffffff8100bb72:	48 c1 e0 03          	shl    $0x3,%rax
ffffffff8100bb76:	48 01 d0             	add    %rdx,%rax
ffffffff8100bb79:	48 8b 00             	mov    (%rax),%rax
ffffffff8100bb7c:	48 ba 00 f0 ff ff ff 	movabs $0x7ffffffffffff000,%rdx
ffffffff8100bb83:	ff ff 7f 
ffffffff8100bb86:	48 21 d0             	and    %rdx,%rax
ffffffff8100bb89:	be 04 00 00 00       	mov    $0x4,%esi
ffffffff8100bb8e:	48 89 c7             	mov    %rax,%rdi
ffffffff8100bb91:	e8 cc f6 ff ff       	callq  ffffffff8100b262 <pagemgr_temp_map>
ffffffff8100bb96:	48 89 c2             	mov    %rax,%rdx
ffffffff8100bb99:	48 8b 45 e8          	mov    -0x18(%rbp),%rax
ffffffff8100bb9d:	48 89 50 40          	mov    %rdx,0x40(%rax)
ffffffff8100bba1:	48 8b 45 e8          	mov    -0x18(%rbp),%rax
ffffffff8100bba5:	0f b7 40 06          	movzwl 0x6(%rax),%eax
ffffffff8100bba9:	0f b7 c0             	movzwl %ax,%eax
ffffffff8100bbac:	48 8b 55 f8          	mov    -0x8(%rbp),%rdx
ffffffff8100bbb0:	48 c1 ea 15          	shr    $0x15,%rdx
ffffffff8100bbb4:	81 e2 ff 01 00 00    	and    $0x1ff,%edx
ffffffff8100bbba:	48 39 d0             	cmp    %rdx,%rax
ffffffff8100bbbd:	74 41                	je     ffffffff8100bc00 <pagemgr_check_page_path+0x292>
ffffffff8100bbbf:	48 8b 45 f8          	mov    -0x8(%rbp),%rax
ffffffff8100bbc3:	48 c1 e8 15          	shr    $0x15,%rax
ffffffff8100bbc7:	66 25 ff 01          	and    $0x1ff,%ax
ffffffff8100bbcb:	89 c2                	mov    %eax,%edx
ffffffff8100bbcd:	48 8b 45 e8          	mov    -0x18(%rbp),%rax
ffffffff8100bbd1:	66 89 50 06          	mov    %dx,0x6(%rax)
ffffffff8100bbd5:	48 8b 45 e8          	mov    -0x18(%rbp),%rax
ffffffff8100bbd9:	48 8b 50 40          	mov    0x40(%rax),%rdx
ffffffff8100bbdd:	48 8b 45 e8          	mov    -0x18(%rbp),%rax
ffffffff8100bbe1:	0f b7 40 06          	movzwl 0x6(%rax),%eax
ffffffff8100bbe5:	0f b7 c0             	movzwl %ax,%eax
ffffffff8100bbe8:	48 c1 e0 03          	shl    $0x3,%rax
ffffffff8100bbec:	48 01 d0             	add    %rdx,%rax
ffffffff8100bbef:	0f b6 00             	movzbl (%rax),%eax
ffffffff8100bbf2:	83 e0 01             	and    $0x1,%eax
ffffffff8100bbf5:	84 c0                	test   %al,%al
ffffffff8100bbf7:	75 07                	jne    ffffffff8100bc00 <pagemgr_check_page_path+0x292>
ffffffff8100bbf9:	b8 01 00 00 00       	mov    $0x1,%eax
ffffffff8100bbfe:	eb 35                	jmp    ffffffff8100bc35 <pagemgr_check_page_path+0x2c7>
ffffffff8100bc00:	48 8b 45 e8          	mov    -0x18(%rbp),%rax
ffffffff8100bc04:	48 8b 40 20          	mov    0x20(%rax),%rax
ffffffff8100bc08:	48 8d 90 00 10 00 00 	lea    0x1000(%rax),%rdx
ffffffff8100bc0f:	48 8b 45 e8          	mov    -0x18(%rbp),%rax
ffffffff8100bc13:	48 89 50 20          	mov    %rdx,0x20(%rax)
ffffffff8100bc17:	48 8b 45 e8          	mov    -0x18(%rbp),%rax
ffffffff8100bc1b:	48 8b 50 20          	mov    0x20(%rax),%rdx
ffffffff8100bc1f:	48 8b 45 e8          	mov    -0x18(%rbp),%rax
ffffffff8100bc23:	48 8b 40 18          	mov    0x18(%rax),%rax
ffffffff8100bc27:	48 39 c2             	cmp    %rax,%rdx
ffffffff8100bc2a:	0f 82 57 fd ff ff    	jb     ffffffff8100b987 <pagemgr_check_page_path+0x19>
ffffffff8100bc30:	b8 00 00 00 00       	mov    $0x0,%eax
ffffffff8100bc35:	c9                   	leaveq 
ffffffff8100bc36:	c3                   	retq   

ffffffff8100bc37 <pagemgr_alloc_or_map_cb>:
ffffffff8100bc37:	55                   	push   %rbp
ffffffff8100bc38:	48 89 e5             	mov    %rsp,%rbp
ffffffff8100bc3b:	48 83 ec 40          	sub    $0x40,%rsp
ffffffff8100bc3f:	48 89 7d d8          	mov    %rdi,-0x28(%rbp)
ffffffff8100bc43:	48 89 75 d0          	mov    %rsi,-0x30(%rbp)
ffffffff8100bc47:	48 89 55 c8          	mov    %rdx,-0x38(%rbp)
ffffffff8100bc4b:	48 8b 45 c8          	mov    -0x38(%rbp),%rax
ffffffff8100bc4f:	48 89 45 f0          	mov    %rax,-0x10(%rbp)
ffffffff8100bc53:	48 c7 45 f8 00 00 00 	movq   $0x0,-0x8(%rbp)
ffffffff8100bc5a:	00 
ffffffff8100bc5b:	48 c7 45 e8 00 00 00 	movq   $0x0,-0x18(%rbp)
ffffffff8100bc62:	00 
ffffffff8100bc63:	e9 e0 02 00 00       	jmpq   ffffffff8100bf48 <pagemgr_alloc_or_map_cb+0x311>
ffffffff8100bc68:	48 8b 45 f0          	mov    -0x10(%rbp),%rax
ffffffff8100bc6c:	48 8b 50 10          	mov    0x10(%rax),%rdx
ffffffff8100bc70:	48 8b 45 f0          	mov    -0x10(%rbp),%rax
ffffffff8100bc74:	48 8b 40 20          	mov    0x20(%rax),%rax
ffffffff8100bc78:	48 01 d0             	add    %rdx,%rax
ffffffff8100bc7b:	48 89 45 e8          	mov    %rax,-0x18(%rbp)
ffffffff8100bc7f:	0f b6 05 4a 55 01 00 	movzbl 0x1554a(%rip),%eax        # ffffffff810211d0 <page_manager+0x10>
ffffffff8100bc86:	84 c0                	test   %al,%al
ffffffff8100bc88:	74 73                	je     ffffffff8100bcfd <pagemgr_alloc_or_map_cb+0xc6>
ffffffff8100bc8a:	48 8b 45 f0          	mov    -0x10(%rbp),%rax
ffffffff8100bc8e:	0f b7 00             	movzwl (%rax),%eax
ffffffff8100bc91:	0f b7 c0             	movzwl %ax,%eax
ffffffff8100bc94:	48 8b 55 e8          	mov    -0x18(%rbp),%rdx
ffffffff8100bc98:	48 c1 ea 2f          	shr    $0x2f,%rdx
ffffffff8100bc9c:	81 e2 ff 01 00 00    	and    $0x1ff,%edx
ffffffff8100bca2:	48 39 d0             	cmp    %rdx,%rax
ffffffff8100bca5:	74 56                	je     ffffffff8100bcfd <pagemgr_alloc_or_map_cb+0xc6>
ffffffff8100bca7:	48 8b 45 e8          	mov    -0x18(%rbp),%rax
ffffffff8100bcab:	48 c1 e8 2f          	shr    $0x2f,%rax
ffffffff8100bcaf:	66 25 ff 01          	and    $0x1ff,%ax
ffffffff8100bcb3:	89 c2                	mov    %eax,%edx
ffffffff8100bcb5:	48 8b 45 f0          	mov    -0x10(%rbp),%rax
ffffffff8100bcb9:	66 89 10             	mov    %dx,(%rax)
ffffffff8100bcbc:	48 8b 45 f0          	mov    -0x10(%rbp),%rax
ffffffff8100bcc0:	48 8b 50 28          	mov    0x28(%rax),%rdx
ffffffff8100bcc4:	48 8b 45 f0          	mov    -0x10(%rbp),%rax
ffffffff8100bcc8:	0f b7 00             	movzwl (%rax),%eax
ffffffff8100bccb:	0f b7 c0             	movzwl %ax,%eax
ffffffff8100bcce:	48 c1 e0 03          	shl    $0x3,%rax
ffffffff8100bcd2:	48 01 d0             	add    %rdx,%rax
ffffffff8100bcd5:	48 8b 00             	mov    (%rax),%rax
ffffffff8100bcd8:	48 ba 00 f0 ff ff ff 	movabs $0x7ffffffffffff000,%rdx
ffffffff8100bcdf:	ff ff 7f 
ffffffff8100bce2:	48 21 d0             	and    %rdx,%rax
ffffffff8100bce5:	be 02 00 00 00       	mov    $0x2,%esi
ffffffff8100bcea:	48 89 c7             	mov    %rax,%rdi
ffffffff8100bced:	e8 70 f5 ff ff       	callq  ffffffff8100b262 <pagemgr_temp_map>
ffffffff8100bcf2:	48 89 c2             	mov    %rax,%rdx
ffffffff8100bcf5:	48 8b 45 f0          	mov    -0x10(%rbp),%rax
ffffffff8100bcf9:	48 89 50 30          	mov    %rdx,0x30(%rax)
ffffffff8100bcfd:	48 8b 45 f0          	mov    -0x10(%rbp),%rax
ffffffff8100bd01:	0f b7 40 02          	movzwl 0x2(%rax),%eax
ffffffff8100bd05:	0f b7 c0             	movzwl %ax,%eax
ffffffff8100bd08:	48 8b 55 e8          	mov    -0x18(%rbp),%rdx
ffffffff8100bd0c:	48 c1 ea 27          	shr    $0x27,%rdx
ffffffff8100bd10:	81 e2 ff 01 00 00    	and    $0x1ff,%edx
ffffffff8100bd16:	48 39 d0             	cmp    %rdx,%rax
ffffffff8100bd19:	74 58                	je     ffffffff8100bd73 <pagemgr_alloc_or_map_cb+0x13c>
ffffffff8100bd1b:	48 8b 45 e8          	mov    -0x18(%rbp),%rax
ffffffff8100bd1f:	48 c1 e8 27          	shr    $0x27,%rax
ffffffff8100bd23:	66 25 ff 01          	and    $0x1ff,%ax
ffffffff8100bd27:	89 c2                	mov    %eax,%edx
ffffffff8100bd29:	48 8b 45 f0          	mov    -0x10(%rbp),%rax
ffffffff8100bd2d:	66 89 50 02          	mov    %dx,0x2(%rax)
ffffffff8100bd31:	48 8b 45 f0          	mov    -0x10(%rbp),%rax
ffffffff8100bd35:	48 8b 50 30          	mov    0x30(%rax),%rdx
ffffffff8100bd39:	48 8b 45 f0          	mov    -0x10(%rbp),%rax
ffffffff8100bd3d:	0f b7 40 02          	movzwl 0x2(%rax),%eax
ffffffff8100bd41:	0f b7 c0             	movzwl %ax,%eax
ffffffff8100bd44:	48 c1 e0 03          	shl    $0x3,%rax
ffffffff8100bd48:	48 01 d0             	add    %rdx,%rax
ffffffff8100bd4b:	48 8b 00             	mov    (%rax),%rax
ffffffff8100bd4e:	48 ba 00 f0 ff ff ff 	movabs $0x7ffffffffffff000,%rdx
ffffffff8100bd55:	ff ff 7f 
ffffffff8100bd58:	48 21 d0             	and    %rdx,%rax
ffffffff8100bd5b:	be 03 00 00 00       	mov    $0x3,%esi
ffffffff8100bd60:	48 89 c7             	mov    %rax,%rdi
ffffffff8100bd63:	e8 fa f4 ff ff       	callq  ffffffff8100b262 <pagemgr_temp_map>
ffffffff8100bd68:	48 89 c2             	mov    %rax,%rdx
ffffffff8100bd6b:	48 8b 45 f0          	mov    -0x10(%rbp),%rax
ffffffff8100bd6f:	48 89 50 38          	mov    %rdx,0x38(%rax)
ffffffff8100bd73:	48 8b 45 f0          	mov    -0x10(%rbp),%rax
ffffffff8100bd77:	0f b7 40 04          	movzwl 0x4(%rax),%eax
ffffffff8100bd7b:	0f b7 c0             	movzwl %ax,%eax
ffffffff8100bd7e:	48 8b 55 e8          	mov    -0x18(%rbp),%rdx
ffffffff8100bd82:	48 c1 ea 1e          	shr    $0x1e,%rdx
ffffffff8100bd86:	81 e2 ff 01 00 00    	and    $0x1ff,%edx
ffffffff8100bd8c:	48 39 d0             	cmp    %rdx,%rax
ffffffff8100bd8f:	74 58                	je     ffffffff8100bde9 <pagemgr_alloc_or_map_cb+0x1b2>
ffffffff8100bd91:	48 8b 45 e8          	mov    -0x18(%rbp),%rax
ffffffff8100bd95:	48 c1 e8 1e          	shr    $0x1e,%rax
ffffffff8100bd99:	66 25 ff 01          	and    $0x1ff,%ax
ffffffff8100bd9d:	89 c2                	mov    %eax,%edx
ffffffff8100bd9f:	48 8b 45 f0          	mov    -0x10(%rbp),%rax
ffffffff8100bda3:	66 89 50 04          	mov    %dx,0x4(%rax)
ffffffff8100bda7:	48 8b 45 f0          	mov    -0x10(%rbp),%rax
ffffffff8100bdab:	48 8b 50 38          	mov    0x38(%rax),%rdx
ffffffff8100bdaf:	48 8b 45 f0          	mov    -0x10(%rbp),%rax
ffffffff8100bdb3:	0f b7 40 04          	movzwl 0x4(%rax),%eax
ffffffff8100bdb7:	0f b7 c0             	movzwl %ax,%eax
ffffffff8100bdba:	48 c1 e0 03          	shl    $0x3,%rax
ffffffff8100bdbe:	48 01 d0             	add    %rdx,%rax
ffffffff8100bdc1:	48 8b 00             	mov    (%rax),%rax
ffffffff8100bdc4:	48 ba 00 f0 ff ff ff 	movabs $0x7ffffffffffff000,%rdx
ffffffff8100bdcb:	ff ff 7f 
ffffffff8100bdce:	48 21 d0             	and    %rdx,%rax
ffffffff8100bdd1:	be 04 00 00 00       	mov    $0x4,%esi
ffffffff8100bdd6:	48 89 c7             	mov    %rax,%rdi
ffffffff8100bdd9:	e8 84 f4 ff ff       	callq  ffffffff8100b262 <pagemgr_temp_map>
ffffffff8100bdde:	48 89 c2             	mov    %rax,%rdx
ffffffff8100bde1:	48 8b 45 f0          	mov    -0x10(%rbp),%rax
ffffffff8100bde5:	48 89 50 40          	mov    %rdx,0x40(%rax)
ffffffff8100bde9:	48 8b 45 f0          	mov    -0x10(%rbp),%rax
ffffffff8100bded:	0f b7 40 06          	movzwl 0x6(%rax),%eax
ffffffff8100bdf1:	0f b7 c0             	movzwl %ax,%eax
ffffffff8100bdf4:	48 8b 55 e8          	mov    -0x18(%rbp),%rdx
ffffffff8100bdf8:	48 c1 ea 15          	shr    $0x15,%rdx
ffffffff8100bdfc:	81 e2 ff 01 00 00    	and    $0x1ff,%edx
ffffffff8100be02:	48 39 d0             	cmp    %rdx,%rax
ffffffff8100be05:	74 58                	je     ffffffff8100be5f <pagemgr_alloc_or_map_cb+0x228>
ffffffff8100be07:	48 8b 45 e8          	mov    -0x18(%rbp),%rax
ffffffff8100be0b:	48 c1 e8 15          	shr    $0x15,%rax
ffffffff8100be0f:	66 25 ff 01          	and    $0x1ff,%ax
ffffffff8100be13:	89 c2                	mov    %eax,%edx
ffffffff8100be15:	48 8b 45 f0          	mov    -0x10(%rbp),%rax
ffffffff8100be19:	66 89 50 06          	mov    %dx,0x6(%rax)
ffffffff8100be1d:	48 8b 45 f0          	mov    -0x10(%rbp),%rax
ffffffff8100be21:	48 8b 50 40          	mov    0x40(%rax),%rdx
ffffffff8100be25:	48 8b 45 f0          	mov    -0x10(%rbp),%rax
ffffffff8100be29:	0f b7 40 06          	movzwl 0x6(%rax),%eax
ffffffff8100be2d:	0f b7 c0             	movzwl %ax,%eax
ffffffff8100be30:	48 c1 e0 03          	shl    $0x3,%rax
ffffffff8100be34:	48 01 d0             	add    %rdx,%rax
ffffffff8100be37:	48 8b 00             	mov    (%rax),%rax
ffffffff8100be3a:	48 ba 00 f0 ff ff ff 	movabs $0x7ffffffffffff000,%rdx
ffffffff8100be41:	ff ff 7f 
ffffffff8100be44:	48 21 d0             	and    %rdx,%rax
ffffffff8100be47:	be 05 00 00 00       	mov    $0x5,%esi
ffffffff8100be4c:	48 89 c7             	mov    %rax,%rdi
ffffffff8100be4f:	e8 0e f4 ff ff       	callq  ffffffff8100b262 <pagemgr_temp_map>
ffffffff8100be54:	48 89 c2             	mov    %rax,%rdx
ffffffff8100be57:	48 8b 45 f0          	mov    -0x10(%rbp),%rax
ffffffff8100be5b:	48 89 50 48          	mov    %rdx,0x48(%rax)
ffffffff8100be5f:	48 8b 45 e8          	mov    -0x18(%rbp),%rax
ffffffff8100be63:	48 c1 e8 0c          	shr    $0xc,%rax
ffffffff8100be67:	66 25 ff 01          	and    $0x1ff,%ax
ffffffff8100be6b:	89 c2                	mov    %eax,%edx
ffffffff8100be6d:	48 8b 45 f0          	mov    -0x10(%rbp),%rax
ffffffff8100be71:	66 89 50 08          	mov    %dx,0x8(%rax)
ffffffff8100be75:	48 8b 45 f0          	mov    -0x10(%rbp),%rax
ffffffff8100be79:	48 8b 50 48          	mov    0x48(%rax),%rdx
ffffffff8100be7d:	48 8b 45 f0          	mov    -0x10(%rbp),%rax
ffffffff8100be81:	0f b7 40 08          	movzwl 0x8(%rax),%eax
ffffffff8100be85:	0f b7 c0             	movzwl %ax,%eax
ffffffff8100be88:	48 c1 e0 03          	shl    $0x3,%rax
ffffffff8100be8c:	48 01 d0             	add    %rdx,%rax
ffffffff8100be8f:	0f b6 00             	movzbl (%rax),%eax
ffffffff8100be92:	83 e0 01             	and    $0x1,%eax
ffffffff8100be95:	84 c0                	test   %al,%al
ffffffff8100be97:	75 51                	jne    ffffffff8100beea <pagemgr_alloc_or_map_cb+0x2b3>
ffffffff8100be99:	48 8b 45 f8          	mov    -0x8(%rbp),%rax
ffffffff8100be9d:	48 c1 e0 0c          	shl    $0xc,%rax
ffffffff8100bea1:	48 89 c1             	mov    %rax,%rcx
ffffffff8100bea4:	48 8b 45 f0          	mov    -0x10(%rbp),%rax
ffffffff8100bea8:	48 8b 50 48          	mov    0x48(%rax),%rdx
ffffffff8100beac:	48 8b 45 f0          	mov    -0x10(%rbp),%rax
ffffffff8100beb0:	0f b7 40 08          	movzwl 0x8(%rax),%eax
ffffffff8100beb4:	0f b7 c0             	movzwl %ax,%eax
ffffffff8100beb7:	48 c1 e0 03          	shl    $0x3,%rax
ffffffff8100bebb:	48 01 d0             	add    %rdx,%rax
ffffffff8100bebe:	48 8b 55 d8          	mov    -0x28(%rbp),%rdx
ffffffff8100bec2:	48 01 ca             	add    %rcx,%rdx
ffffffff8100bec5:	48 89 10             	mov    %rdx,(%rax)
ffffffff8100bec8:	48 8b 45 f0          	mov    -0x10(%rbp),%rax
ffffffff8100becc:	48 8b 50 48          	mov    0x48(%rax),%rdx
ffffffff8100bed0:	48 8b 45 f0          	mov    -0x10(%rbp),%rax
ffffffff8100bed4:	0f b7 40 08          	movzwl 0x8(%rax),%eax
ffffffff8100bed8:	0f b7 c0             	movzwl %ax,%eax
ffffffff8100bedb:	48 c1 e0 03          	shl    $0x3,%rax
ffffffff8100bedf:	48 01 d0             	add    %rdx,%rax
ffffffff8100bee2:	0f b6 10             	movzbl (%rax),%edx
ffffffff8100bee5:	83 ca 01             	or     $0x1,%edx
ffffffff8100bee8:	88 10                	mov    %dl,(%rax)
ffffffff8100beea:	48 8b 45 f0          	mov    -0x10(%rbp),%rax
ffffffff8100beee:	8b 40 50             	mov    0x50(%rax),%eax
ffffffff8100bef1:	48 8b 55 f0          	mov    -0x10(%rbp),%rdx
ffffffff8100bef5:	48 8b 4a 48          	mov    0x48(%rdx),%rcx
ffffffff8100bef9:	48 8b 55 f0          	mov    -0x10(%rbp),%rdx
ffffffff8100befd:	0f b7 52 08          	movzwl 0x8(%rdx),%edx
ffffffff8100bf01:	0f b7 d2             	movzwl %dx,%edx
ffffffff8100bf04:	48 c1 e2 03          	shl    $0x3,%rdx
ffffffff8100bf08:	48 01 ca             	add    %rcx,%rdx
ffffffff8100bf0b:	89 c6                	mov    %eax,%esi
ffffffff8100bf0d:	48 89 d7             	mov    %rdx,%rdi
ffffffff8100bf10:	e8 2b eb ff ff       	callq  ffffffff8100aa40 <pagemgr_attr_translate>
ffffffff8100bf15:	85 c0                	test   %eax,%eax
ffffffff8100bf17:	74 07                	je     ffffffff8100bf20 <pagemgr_alloc_or_map_cb+0x2e9>
ffffffff8100bf19:	b8 00 00 00 00       	mov    $0x0,%eax
ffffffff8100bf1e:	eb 4f                	jmp    ffffffff8100bf6f <pagemgr_alloc_or_map_cb+0x338>
ffffffff8100bf20:	48 8b 45 e8          	mov    -0x18(%rbp),%rax
ffffffff8100bf24:	48 89 c7             	mov    %rax,%rdi
ffffffff8100bf27:	e8 9b f4 ff ff       	callq  ffffffff8100b3c7 <pagemgr_invalidate>
ffffffff8100bf2c:	48 8b 45 f0          	mov    -0x10(%rbp),%rax
ffffffff8100bf30:	48 8b 40 20          	mov    0x20(%rax),%rax
ffffffff8100bf34:	48 8d 90 00 10 00 00 	lea    0x1000(%rax),%rdx
ffffffff8100bf3b:	48 8b 45 f0          	mov    -0x10(%rbp),%rax
ffffffff8100bf3f:	48 89 50 20          	mov    %rdx,0x20(%rax)
ffffffff8100bf43:	48 83 45 f8 01       	addq   $0x1,-0x8(%rbp)
ffffffff8100bf48:	48 8b 45 f8          	mov    -0x8(%rbp),%rax
ffffffff8100bf4c:	48 3b 45 d0          	cmp    -0x30(%rbp),%rax
ffffffff8100bf50:	73 19                	jae    ffffffff8100bf6b <pagemgr_alloc_or_map_cb+0x334>
ffffffff8100bf52:	48 8b 45 f0          	mov    -0x10(%rbp),%rax
ffffffff8100bf56:	48 8b 50 20          	mov    0x20(%rax),%rdx
ffffffff8100bf5a:	48 8b 45 f0          	mov    -0x10(%rbp),%rax
ffffffff8100bf5e:	48 8b 40 18          	mov    0x18(%rax),%rax
ffffffff8100bf62:	48 39 c2             	cmp    %rax,%rdx
ffffffff8100bf65:	0f 82 fd fc ff ff    	jb     ffffffff8100bc68 <pagemgr_alloc_or_map_cb+0x31>
ffffffff8100bf6b:	48 8b 45 f8          	mov    -0x8(%rbp),%rax
ffffffff8100bf6f:	c9                   	leaveq 
ffffffff8100bf70:	c3                   	retq   

ffffffff8100bf71 <pagemgr_free_or_unmap_cb>:
ffffffff8100bf71:	55                   	push   %rbp
ffffffff8100bf72:	48 89 e5             	mov    %rsp,%rbp
ffffffff8100bf75:	48 83 ec 40          	sub    $0x40,%rsp
ffffffff8100bf79:	48 89 7d d8          	mov    %rdi,-0x28(%rbp)
ffffffff8100bf7d:	48 89 75 d0          	mov    %rsi,-0x30(%rbp)
ffffffff8100bf81:	48 89 55 c8          	mov    %rdx,-0x38(%rbp)
ffffffff8100bf85:	48 8b 45 c8          	mov    -0x38(%rbp),%rax
ffffffff8100bf89:	48 89 45 f8          	mov    %rax,-0x8(%rbp)
ffffffff8100bf8d:	48 c7 45 f0 00 00 00 	movq   $0x0,-0x10(%rbp)
ffffffff8100bf94:	00 
ffffffff8100bf95:	48 c7 45 e8 00 00 00 	movq   $0x0,-0x18(%rbp)
ffffffff8100bf9c:	00 
ffffffff8100bf9d:	48 c7 45 e0 00 00 00 	movq   $0x0,-0x20(%rbp)
ffffffff8100bfa4:	00 
ffffffff8100bfa5:	e9 0f 03 00 00       	jmpq   ffffffff8100c2b9 <pagemgr_free_or_unmap_cb+0x348>
ffffffff8100bfaa:	48 8b 45 f8          	mov    -0x8(%rbp),%rax
ffffffff8100bfae:	48 8b 50 10          	mov    0x10(%rax),%rdx
ffffffff8100bfb2:	48 8b 45 f8          	mov    -0x8(%rbp),%rax
ffffffff8100bfb6:	48 8b 40 20          	mov    0x20(%rax),%rax
ffffffff8100bfba:	48 01 d0             	add    %rdx,%rax
ffffffff8100bfbd:	48 89 45 e0          	mov    %rax,-0x20(%rbp)
ffffffff8100bfc1:	0f b6 05 08 52 01 00 	movzbl 0x15208(%rip),%eax        # ffffffff810211d0 <page_manager+0x10>
ffffffff8100bfc8:	84 c0                	test   %al,%al
ffffffff8100bfca:	74 73                	je     ffffffff8100c03f <pagemgr_free_or_unmap_cb+0xce>
ffffffff8100bfcc:	48 8b 45 f8          	mov    -0x8(%rbp),%rax
ffffffff8100bfd0:	0f b7 00             	movzwl (%rax),%eax
ffffffff8100bfd3:	0f b7 c0             	movzwl %ax,%eax
ffffffff8100bfd6:	48 8b 55 e0          	mov    -0x20(%rbp),%rdx
ffffffff8100bfda:	48 c1 ea 2f          	shr    $0x2f,%rdx
ffffffff8100bfde:	81 e2 ff 01 00 00    	and    $0x1ff,%edx
ffffffff8100bfe4:	48 39 d0             	cmp    %rdx,%rax
ffffffff8100bfe7:	74 56                	je     ffffffff8100c03f <pagemgr_free_or_unmap_cb+0xce>
ffffffff8100bfe9:	48 8b 45 e0          	mov    -0x20(%rbp),%rax
ffffffff8100bfed:	48 c1 e8 2f          	shr    $0x2f,%rax
ffffffff8100bff1:	66 25 ff 01          	and    $0x1ff,%ax
ffffffff8100bff5:	89 c2                	mov    %eax,%edx
ffffffff8100bff7:	48 8b 45 f8          	mov    -0x8(%rbp),%rax
ffffffff8100bffb:	66 89 10             	mov    %dx,(%rax)
ffffffff8100bffe:	48 8b 45 f8          	mov    -0x8(%rbp),%rax
ffffffff8100c002:	48 8b 50 28          	mov    0x28(%rax),%rdx
ffffffff8100c006:	48 8b 45 f8          	mov    -0x8(%rbp),%rax
ffffffff8100c00a:	0f b7 00             	movzwl (%rax),%eax
ffffffff8100c00d:	0f b7 c0             	movzwl %ax,%eax
ffffffff8100c010:	48 c1 e0 03          	shl    $0x3,%rax
ffffffff8100c014:	48 01 d0             	add    %rdx,%rax
ffffffff8100c017:	48 8b 00             	mov    (%rax),%rax
ffffffff8100c01a:	48 ba 00 f0 ff ff ff 	movabs $0x7ffffffffffff000,%rdx
ffffffff8100c021:	ff ff 7f 
ffffffff8100c024:	48 21 d0             	and    %rdx,%rax
ffffffff8100c027:	be 02 00 00 00       	mov    $0x2,%esi
ffffffff8100c02c:	48 89 c7             	mov    %rax,%rdi
ffffffff8100c02f:	e8 2e f2 ff ff       	callq  ffffffff8100b262 <pagemgr_temp_map>
ffffffff8100c034:	48 89 c2             	mov    %rax,%rdx
ffffffff8100c037:	48 8b 45 f8          	mov    -0x8(%rbp),%rax
ffffffff8100c03b:	48 89 50 30          	mov    %rdx,0x30(%rax)
ffffffff8100c03f:	48 8b 45 f8          	mov    -0x8(%rbp),%rax
ffffffff8100c043:	0f b7 40 02          	movzwl 0x2(%rax),%eax
ffffffff8100c047:	0f b7 c0             	movzwl %ax,%eax
ffffffff8100c04a:	48 8b 55 e0          	mov    -0x20(%rbp),%rdx
ffffffff8100c04e:	48 c1 ea 27          	shr    $0x27,%rdx
ffffffff8100c052:	81 e2 ff 01 00 00    	and    $0x1ff,%edx
ffffffff8100c058:	48 39 d0             	cmp    %rdx,%rax
ffffffff8100c05b:	74 58                	je     ffffffff8100c0b5 <pagemgr_free_or_unmap_cb+0x144>
ffffffff8100c05d:	48 8b 45 e0          	mov    -0x20(%rbp),%rax
ffffffff8100c061:	48 c1 e8 27          	shr    $0x27,%rax
ffffffff8100c065:	66 25 ff 01          	and    $0x1ff,%ax
ffffffff8100c069:	89 c2                	mov    %eax,%edx
ffffffff8100c06b:	48 8b 45 f8          	mov    -0x8(%rbp),%rax
ffffffff8100c06f:	66 89 50 02          	mov    %dx,0x2(%rax)
ffffffff8100c073:	48 8b 45 f8          	mov    -0x8(%rbp),%rax
ffffffff8100c077:	48 8b 50 30          	mov    0x30(%rax),%rdx
ffffffff8100c07b:	48 8b 45 f8          	mov    -0x8(%rbp),%rax
ffffffff8100c07f:	0f b7 40 02          	movzwl 0x2(%rax),%eax
ffffffff8100c083:	0f b7 c0             	movzwl %ax,%eax
ffffffff8100c086:	48 c1 e0 03          	shl    $0x3,%rax
ffffffff8100c08a:	48 01 d0             	add    %rdx,%rax
ffffffff8100c08d:	48 8b 00             	mov    (%rax),%rax
ffffffff8100c090:	48 ba 00 f0 ff ff ff 	movabs $0x7ffffffffffff000,%rdx
ffffffff8100c097:	ff ff 7f 
ffffffff8100c09a:	48 21 d0             	and    %rdx,%rax
ffffffff8100c09d:	be 03 00 00 00       	mov    $0x3,%esi
ffffffff8100c0a2:	48 89 c7             	mov    %rax,%rdi
ffffffff8100c0a5:	e8 b8 f1 ff ff       	callq  ffffffff8100b262 <pagemgr_temp_map>
ffffffff8100c0aa:	48 89 c2             	mov    %rax,%rdx
ffffffff8100c0ad:	48 8b 45 f8          	mov    -0x8(%rbp),%rax
ffffffff8100c0b1:	48 89 50 38          	mov    %rdx,0x38(%rax)
ffffffff8100c0b5:	48 8b 45 f8          	mov    -0x8(%rbp),%rax
ffffffff8100c0b9:	0f b7 40 04          	movzwl 0x4(%rax),%eax
ffffffff8100c0bd:	0f b7 c0             	movzwl %ax,%eax
ffffffff8100c0c0:	48 8b 55 e0          	mov    -0x20(%rbp),%rdx
ffffffff8100c0c4:	48 c1 ea 1e          	shr    $0x1e,%rdx
ffffffff8100c0c8:	81 e2 ff 01 00 00    	and    $0x1ff,%edx
ffffffff8100c0ce:	48 39 d0             	cmp    %rdx,%rax
ffffffff8100c0d1:	74 58                	je     ffffffff8100c12b <pagemgr_free_or_unmap_cb+0x1ba>
ffffffff8100c0d3:	48 8b 45 e0          	mov    -0x20(%rbp),%rax
ffffffff8100c0d7:	48 c1 e8 1e          	shr    $0x1e,%rax
ffffffff8100c0db:	66 25 ff 01          	and    $0x1ff,%ax
ffffffff8100c0df:	89 c2                	mov    %eax,%edx
ffffffff8100c0e1:	48 8b 45 f8          	mov    -0x8(%rbp),%rax
ffffffff8100c0e5:	66 89 50 04          	mov    %dx,0x4(%rax)
ffffffff8100c0e9:	48 8b 45 f8          	mov    -0x8(%rbp),%rax
ffffffff8100c0ed:	48 8b 50 38          	mov    0x38(%rax),%rdx
ffffffff8100c0f1:	48 8b 45 f8          	mov    -0x8(%rbp),%rax
ffffffff8100c0f5:	0f b7 40 04          	movzwl 0x4(%rax),%eax
ffffffff8100c0f9:	0f b7 c0             	movzwl %ax,%eax
ffffffff8100c0fc:	48 c1 e0 03          	shl    $0x3,%rax
ffffffff8100c100:	48 01 d0             	add    %rdx,%rax
ffffffff8100c103:	48 8b 00             	mov    (%rax),%rax
ffffffff8100c106:	48 ba 00 f0 ff ff ff 	movabs $0x7ffffffffffff000,%rdx
ffffffff8100c10d:	ff ff 7f 
ffffffff8100c110:	48 21 d0             	and    %rdx,%rax
ffffffff8100c113:	be 04 00 00 00       	mov    $0x4,%esi
ffffffff8100c118:	48 89 c7             	mov    %rax,%rdi
ffffffff8100c11b:	e8 42 f1 ff ff       	callq  ffffffff8100b262 <pagemgr_temp_map>
ffffffff8100c120:	48 89 c2             	mov    %rax,%rdx
ffffffff8100c123:	48 8b 45 f8          	mov    -0x8(%rbp),%rax
ffffffff8100c127:	48 89 50 40          	mov    %rdx,0x40(%rax)
ffffffff8100c12b:	48 8b 45 f8          	mov    -0x8(%rbp),%rax
ffffffff8100c12f:	0f b7 40 06          	movzwl 0x6(%rax),%eax
ffffffff8100c133:	0f b7 c0             	movzwl %ax,%eax
ffffffff8100c136:	48 8b 55 e0          	mov    -0x20(%rbp),%rdx
ffffffff8100c13a:	48 c1 ea 15          	shr    $0x15,%rdx
ffffffff8100c13e:	81 e2 ff 01 00 00    	and    $0x1ff,%edx
ffffffff8100c144:	48 39 d0             	cmp    %rdx,%rax
ffffffff8100c147:	74 58                	je     ffffffff8100c1a1 <pagemgr_free_or_unmap_cb+0x230>
ffffffff8100c149:	48 8b 45 e0          	mov    -0x20(%rbp),%rax
ffffffff8100c14d:	48 c1 e8 15          	shr    $0x15,%rax
ffffffff8100c151:	66 25 ff 01          	and    $0x1ff,%ax
ffffffff8100c155:	89 c2                	mov    %eax,%edx
ffffffff8100c157:	48 8b 45 f8          	mov    -0x8(%rbp),%rax
ffffffff8100c15b:	66 89 50 06          	mov    %dx,0x6(%rax)
ffffffff8100c15f:	48 8b 45 f8          	mov    -0x8(%rbp),%rax
ffffffff8100c163:	48 8b 50 40          	mov    0x40(%rax),%rdx
ffffffff8100c167:	48 8b 45 f8          	mov    -0x8(%rbp),%rax
ffffffff8100c16b:	0f b7 40 06          	movzwl 0x6(%rax),%eax
ffffffff8100c16f:	0f b7 c0             	movzwl %ax,%eax
ffffffff8100c172:	48 c1 e0 03          	shl    $0x3,%rax
ffffffff8100c176:	48 01 d0             	add    %rdx,%rax
ffffffff8100c179:	48 8b 00             	mov    (%rax),%rax
ffffffff8100c17c:	48 ba 00 f0 ff ff ff 	movabs $0x7ffffffffffff000,%rdx
ffffffff8100c183:	ff ff 7f 
ffffffff8100c186:	48 21 d0             	and    %rdx,%rax
ffffffff8100c189:	be 05 00 00 00       	mov    $0x5,%esi
ffffffff8100c18e:	48 89 c7             	mov    %rax,%rdi
ffffffff8100c191:	e8 cc f0 ff ff       	callq  ffffffff8100b262 <pagemgr_temp_map>
ffffffff8100c196:	48 89 c2             	mov    %rax,%rdx
ffffffff8100c199:	48 8b 45 f8          	mov    -0x8(%rbp),%rax
ffffffff8100c19d:	48 89 50 48          	mov    %rdx,0x48(%rax)
ffffffff8100c1a1:	48 8b 45 e0          	mov    -0x20(%rbp),%rax
ffffffff8100c1a5:	48 c1 e8 0c          	shr    $0xc,%rax
ffffffff8100c1a9:	66 25 ff 01          	and    $0x1ff,%ax
ffffffff8100c1ad:	89 c2                	mov    %eax,%edx
ffffffff8100c1af:	48 8b 45 f8          	mov    -0x8(%rbp),%rax
ffffffff8100c1b3:	66 89 50 08          	mov    %dx,0x8(%rax)
ffffffff8100c1b7:	48 8b 45 f8          	mov    -0x8(%rbp),%rax
ffffffff8100c1bb:	48 8b 40 20          	mov    0x20(%rax),%rax
ffffffff8100c1bf:	48 8d 90 00 10 00 00 	lea    0x1000(%rax),%rdx
ffffffff8100c1c6:	48 8b 45 f8          	mov    -0x8(%rbp),%rax
ffffffff8100c1ca:	48 89 50 20          	mov    %rdx,0x20(%rax)
ffffffff8100c1ce:	48 8b 45 f8          	mov    -0x8(%rbp),%rax
ffffffff8100c1d2:	48 8b 50 48          	mov    0x48(%rax),%rdx
ffffffff8100c1d6:	48 8b 45 f8          	mov    -0x8(%rbp),%rax
ffffffff8100c1da:	0f b7 40 08          	movzwl 0x8(%rax),%eax
ffffffff8100c1de:	0f b7 c0             	movzwl %ax,%eax
ffffffff8100c1e1:	48 c1 e0 03          	shl    $0x3,%rax
ffffffff8100c1e5:	48 01 d0             	add    %rdx,%rax
ffffffff8100c1e8:	48 8b 00             	mov    (%rax),%rax
ffffffff8100c1eb:	48 85 c0             	test   %rax,%rax
ffffffff8100c1ee:	0f 84 90 00 00 00    	je     ffffffff8100c284 <pagemgr_free_or_unmap_cb+0x313>
ffffffff8100c1f4:	48 8b 45 f8          	mov    -0x8(%rbp),%rax
ffffffff8100c1f8:	48 8b 50 48          	mov    0x48(%rax),%rdx
ffffffff8100c1fc:	48 8b 45 f8          	mov    -0x8(%rbp),%rax
ffffffff8100c200:	0f b7 40 08          	movzwl 0x8(%rax),%eax
ffffffff8100c204:	0f b7 c0             	movzwl %ax,%eax
ffffffff8100c207:	48 c1 e0 03          	shl    $0x3,%rax
ffffffff8100c20b:	48 01 d0             	add    %rdx,%rax
ffffffff8100c20e:	48 8b 00             	mov    (%rax),%rax
ffffffff8100c211:	48 ba 00 f0 ff ff ff 	movabs $0x7ffffffffffff000,%rdx
ffffffff8100c218:	ff ff 7f 
ffffffff8100c21b:	48 21 d0             	and    %rdx,%rax
ffffffff8100c21e:	48 89 45 f0          	mov    %rax,-0x10(%rbp)
ffffffff8100c222:	48 c7 45 e8 01 00 00 	movq   $0x1,-0x18(%rbp)
ffffffff8100c229:	00 
ffffffff8100c22a:	48 8b 45 f8          	mov    -0x8(%rbp),%rax
ffffffff8100c22e:	48 8b 50 48          	mov    0x48(%rax),%rdx
ffffffff8100c232:	48 8b 45 f8          	mov    -0x8(%rbp),%rax
ffffffff8100c236:	0f b7 40 08          	movzwl 0x8(%rax),%eax
ffffffff8100c23a:	0f b7 c0             	movzwl %ax,%eax
ffffffff8100c23d:	48 c1 e0 03          	shl    $0x3,%rax
ffffffff8100c241:	48 01 d0             	add    %rdx,%rax
ffffffff8100c244:	48 c7 00 00 00 00 00 	movq   $0x0,(%rax)
ffffffff8100c24b:	48 8b 45 d8          	mov    -0x28(%rbp),%rax
ffffffff8100c24f:	48 8b 55 f0          	mov    -0x10(%rbp),%rdx
ffffffff8100c253:	48 89 10             	mov    %rdx,(%rax)
ffffffff8100c256:	48 8b 45 d0          	mov    -0x30(%rbp),%rax
ffffffff8100c25a:	48 8b 55 e8          	mov    -0x18(%rbp),%rdx
ffffffff8100c25e:	48 89 10             	mov    %rdx,(%rax)
ffffffff8100c261:	48 c7 45 e8 00 00 00 	movq   $0x0,-0x18(%rbp)
ffffffff8100c268:	00 
ffffffff8100c269:	48 c7 45 f0 00 00 00 	movq   $0x0,-0x10(%rbp)
ffffffff8100c270:	00 
ffffffff8100c271:	48 8b 45 e0          	mov    -0x20(%rbp),%rax
ffffffff8100c275:	48 89 c7             	mov    %rax,%rdi
ffffffff8100c278:	e8 4a f1 ff ff       	callq  ffffffff8100b3c7 <pagemgr_invalidate>
ffffffff8100c27d:	b8 01 00 00 00       	mov    $0x1,%eax
ffffffff8100c282:	eb 53                	jmp    ffffffff8100c2d7 <pagemgr_free_or_unmap_cb+0x366>
ffffffff8100c284:	48 8b 45 f8          	mov    -0x8(%rbp),%rax
ffffffff8100c288:	48 8b 50 48          	mov    0x48(%rax),%rdx
ffffffff8100c28c:	48 8b 45 f8          	mov    -0x8(%rbp),%rax
ffffffff8100c290:	0f b7 40 08          	movzwl 0x8(%rax),%eax
ffffffff8100c294:	0f b7 c0             	movzwl %ax,%eax
ffffffff8100c297:	48 c1 e0 03          	shl    $0x3,%rax
ffffffff8100c29b:	48 01 d0             	add    %rdx,%rax
ffffffff8100c29e:	48 8b 10             	mov    (%rax),%rdx
ffffffff8100c2a1:	48 8b 45 e0          	mov    -0x20(%rbp),%rax
ffffffff8100c2a5:	48 89 c6             	mov    %rax,%rsi
ffffffff8100c2a8:	48 c7 c7 c6 e4 00 81 	mov    $0xffffffff8100e4c6,%rdi
ffffffff8100c2af:	b8 00 00 00 00       	mov    $0x0,%eax
ffffffff8100c2b4:	e8 1c ae ff ff       	callq  ffffffff810070d5 <kprintf>
ffffffff8100c2b9:	48 8b 45 f8          	mov    -0x8(%rbp),%rax
ffffffff8100c2bd:	48 8b 50 20          	mov    0x20(%rax),%rdx
ffffffff8100c2c1:	48 8b 45 f8          	mov    -0x8(%rbp),%rax
ffffffff8100c2c5:	48 8b 40 18          	mov    0x18(%rax),%rax
ffffffff8100c2c9:	48 39 c2             	cmp    %rax,%rdx
ffffffff8100c2cc:	0f 82 d8 fc ff ff    	jb     ffffffff8100bfaa <pagemgr_free_or_unmap_cb+0x39>
ffffffff8100c2d2:	b8 00 00 00 00       	mov    $0x0,%eax
ffffffff8100c2d7:	c9                   	leaveq 
ffffffff8100c2d8:	c3                   	retq   

ffffffff8100c2d9 <pagemgr_build_page_path>:
ffffffff8100c2d9:	55                   	push   %rbp
ffffffff8100c2da:	48 89 e5             	mov    %rsp,%rbp
ffffffff8100c2dd:	48 83 ec 20          	sub    $0x20,%rsp
ffffffff8100c2e1:	48 89 7d e8          	mov    %rdi,-0x18(%rbp)
ffffffff8100c2e5:	c7 45 fc 00 00 00 00 	movl   $0x0,-0x4(%rbp)
ffffffff8100c2ec:	48 8b 45 e8          	mov    -0x18(%rbp),%rax
ffffffff8100c2f0:	66 c7 00 ff ff       	movw   $0xffff,(%rax)
ffffffff8100c2f5:	48 8b 45 e8          	mov    -0x18(%rbp),%rax
ffffffff8100c2f9:	66 c7 40 02 ff ff    	movw   $0xffff,0x2(%rax)
ffffffff8100c2ff:	48 8b 45 e8          	mov    -0x18(%rbp),%rax
ffffffff8100c303:	66 c7 40 04 ff ff    	movw   $0xffff,0x4(%rax)
ffffffff8100c309:	48 8b 45 e8          	mov    -0x18(%rbp),%rax
ffffffff8100c30d:	66 c7 40 06 ff ff    	movw   $0xffff,0x6(%rax)
ffffffff8100c313:	48 8b 45 e8          	mov    -0x18(%rbp),%rax
ffffffff8100c317:	48 c7 40 20 00 00 00 	movq   $0x0,0x20(%rax)
ffffffff8100c31e:	00 
ffffffff8100c31f:	48 8b 45 e8          	mov    -0x18(%rbp),%rax
ffffffff8100c323:	48 c7 40 38 00 00 00 	movq   $0x0,0x38(%rax)
ffffffff8100c32a:	00 
ffffffff8100c32b:	48 8b 45 e8          	mov    -0x18(%rbp),%rax
ffffffff8100c32f:	48 c7 40 40 00 00 00 	movq   $0x0,0x40(%rax)
ffffffff8100c336:	00 
ffffffff8100c337:	48 8b 45 e8          	mov    -0x18(%rbp),%rax
ffffffff8100c33b:	48 c7 40 48 00 00 00 	movq   $0x0,0x48(%rax)
ffffffff8100c342:	00 
ffffffff8100c343:	48 8b 45 e8          	mov    -0x18(%rbp),%rax
ffffffff8100c347:	48 89 c7             	mov    %rax,%rdi
ffffffff8100c34a:	e8 1f f6 ff ff       	callq  ffffffff8100b96e <pagemgr_check_page_path>
ffffffff8100c34f:	89 45 fc             	mov    %eax,-0x4(%rbp)
ffffffff8100c352:	83 7d fc 00          	cmpl   $0x0,-0x4(%rbp)
ffffffff8100c356:	75 0a                	jne    ffffffff8100c362 <pagemgr_build_page_path+0x89>
ffffffff8100c358:	b8 00 00 00 00       	mov    $0x0,%eax
ffffffff8100c35d:	e9 fd 00 00 00       	jmpq   ffffffff8100c45f <pagemgr_build_page_path+0x186>
ffffffff8100c362:	48 8b 45 e8          	mov    -0x18(%rbp),%rax
ffffffff8100c366:	66 c7 00 ff ff       	movw   $0xffff,(%rax)
ffffffff8100c36b:	48 8b 45 e8          	mov    -0x18(%rbp),%rax
ffffffff8100c36f:	66 c7 40 02 ff ff    	movw   $0xffff,0x2(%rax)
ffffffff8100c375:	48 8b 45 e8          	mov    -0x18(%rbp),%rax
ffffffff8100c379:	66 c7 40 04 ff ff    	movw   $0xffff,0x4(%rax)
ffffffff8100c37f:	48 8b 45 e8          	mov    -0x18(%rbp),%rax
ffffffff8100c383:	66 c7 40 06 ff ff    	movw   $0xffff,0x6(%rax)
ffffffff8100c389:	48 8b 45 e8          	mov    -0x18(%rbp),%rax
ffffffff8100c38d:	48 c7 40 20 00 00 00 	movq   $0x0,0x20(%rax)
ffffffff8100c394:	00 
ffffffff8100c395:	48 8b 45 e8          	mov    -0x18(%rbp),%rax
ffffffff8100c399:	48 c7 40 38 00 00 00 	movq   $0x0,0x38(%rax)
ffffffff8100c3a0:	00 
ffffffff8100c3a1:	48 8b 45 e8          	mov    -0x18(%rbp),%rax
ffffffff8100c3a5:	48 c7 40 40 00 00 00 	movq   $0x0,0x40(%rax)
ffffffff8100c3ac:	00 
ffffffff8100c3ad:	48 8b 45 e8          	mov    -0x18(%rbp),%rax
ffffffff8100c3b1:	48 c7 40 48 00 00 00 	movq   $0x0,0x48(%rax)
ffffffff8100c3b8:	00 
ffffffff8100c3b9:	48 8b 05 48 4e 01 00 	mov    0x14e48(%rip),%rax        # ffffffff81021208 <physmm>
ffffffff8100c3c0:	4c 8b 00             	mov    (%rax),%r8
ffffffff8100c3c3:	48 8b 45 e8          	mov    -0x18(%rbp),%rax
ffffffff8100c3c7:	48 89 c1             	mov    %rax,%rcx
ffffffff8100c3ca:	48 c7 c2 e2 b3 00 81 	mov    $0xffffffff8100b3e2,%rdx
ffffffff8100c3d1:	be 10 00 00 00       	mov    $0x10,%esi
ffffffff8100c3d6:	bf 00 00 00 00       	mov    $0x0,%edi
ffffffff8100c3db:	41 ff d0             	callq  *%r8
ffffffff8100c3de:	89 45 fc             	mov    %eax,-0x4(%rbp)
ffffffff8100c3e1:	83 7d fc ff          	cmpl   $0xffffffff,-0x4(%rbp)
ffffffff8100c3e5:	74 15                	je     ffffffff8100c3fc <pagemgr_build_page_path+0x123>
ffffffff8100c3e7:	48 8b 45 e8          	mov    -0x18(%rbp),%rax
ffffffff8100c3eb:	48 8b 50 18          	mov    0x18(%rax),%rdx
ffffffff8100c3ef:	48 8b 45 e8          	mov    -0x18(%rbp),%rax
ffffffff8100c3f3:	48 8b 40 20          	mov    0x20(%rax),%rax
ffffffff8100c3f7:	48 39 c2             	cmp    %rax,%rdx
ffffffff8100c3fa:	76 07                	jbe    ffffffff8100c403 <pagemgr_build_page_path+0x12a>
ffffffff8100c3fc:	b8 ff ff ff ff       	mov    $0xffffffff,%eax
ffffffff8100c401:	eb 5c                	jmp    ffffffff8100c45f <pagemgr_build_page_path+0x186>
ffffffff8100c403:	48 8b 45 e8          	mov    -0x18(%rbp),%rax
ffffffff8100c407:	66 c7 00 ff ff       	movw   $0xffff,(%rax)
ffffffff8100c40c:	48 8b 45 e8          	mov    -0x18(%rbp),%rax
ffffffff8100c410:	66 c7 40 02 ff ff    	movw   $0xffff,0x2(%rax)
ffffffff8100c416:	48 8b 45 e8          	mov    -0x18(%rbp),%rax
ffffffff8100c41a:	66 c7 40 04 ff ff    	movw   $0xffff,0x4(%rax)
ffffffff8100c420:	48 8b 45 e8          	mov    -0x18(%rbp),%rax
ffffffff8100c424:	66 c7 40 06 ff ff    	movw   $0xffff,0x6(%rax)
ffffffff8100c42a:	48 8b 45 e8          	mov    -0x18(%rbp),%rax
ffffffff8100c42e:	48 c7 40 20 00 00 00 	movq   $0x0,0x20(%rax)
ffffffff8100c435:	00 
ffffffff8100c436:	48 8b 45 e8          	mov    -0x18(%rbp),%rax
ffffffff8100c43a:	48 c7 40 38 00 00 00 	movq   $0x0,0x38(%rax)
ffffffff8100c441:	00 
ffffffff8100c442:	48 8b 45 e8          	mov    -0x18(%rbp),%rax
ffffffff8100c446:	48 c7 40 40 00 00 00 	movq   $0x0,0x40(%rax)
ffffffff8100c44d:	00 
ffffffff8100c44e:	48 8b 45 e8          	mov    -0x18(%rbp),%rax
ffffffff8100c452:	48 c7 40 48 00 00 00 	movq   $0x0,0x48(%rax)
ffffffff8100c459:	00 
ffffffff8100c45a:	b8 00 00 00 00       	mov    $0x0,%eax
ffffffff8100c45f:	c9                   	leaveq 
ffffffff8100c460:	c3                   	retq   

ffffffff8100c461 <pagemgr_map>:
ffffffff8100c461:	55                   	push   %rbp
ffffffff8100c462:	48 89 e5             	mov    %rsp,%rbp
ffffffff8100c465:	48 81 ec 90 00 00 00 	sub    $0x90,%rsp
ffffffff8100c46c:	48 89 7d 88          	mov    %rdi,-0x78(%rbp)
ffffffff8100c470:	48 89 75 80          	mov    %rsi,-0x80(%rbp)
ffffffff8100c474:	48 89 95 78 ff ff ff 	mov    %rdx,-0x88(%rbp)
ffffffff8100c47b:	89 8d 74 ff ff ff    	mov    %ecx,-0x8c(%rbp)
ffffffff8100c481:	c7 45 fc 00 00 00 00 	movl   $0x0,-0x4(%rbp)
ffffffff8100c488:	48 c7 45 f0 00 00 00 	movq   $0x0,-0x10(%rbp)
ffffffff8100c48f:	00 
ffffffff8100c490:	48 8d 45 98          	lea    -0x68(%rbp),%rax
ffffffff8100c494:	ba 58 00 00 00       	mov    $0x58,%edx
ffffffff8100c499:	be 00 00 00 00       	mov    $0x0,%esi
ffffffff8100c49e:	48 89 c7             	mov    %rax,%rdi
ffffffff8100c4a1:	e8 14 e3 ff ff       	callq  ffffffff8100a7ba <memset>
ffffffff8100c4a6:	48 8b 45 88          	mov    -0x78(%rbp),%rax
ffffffff8100c4aa:	48 89 45 a8          	mov    %rax,-0x58(%rbp)
ffffffff8100c4ae:	48 8b 85 78 ff ff ff 	mov    -0x88(%rbp),%rax
ffffffff8100c4b5:	48 89 45 b0          	mov    %rax,-0x50(%rbp)
ffffffff8100c4b9:	8b 85 74 ff ff ff    	mov    -0x8c(%rbp),%eax
ffffffff8100c4bf:	89 45 e8             	mov    %eax,-0x18(%rbp)
ffffffff8100c4c2:	0f b6 05 07 4d 01 00 	movzbl 0x14d07(%rip),%eax        # ffffffff810211d0 <page_manager+0x10>
ffffffff8100c4c9:	84 c0                	test   %al,%al
ffffffff8100c4cb:	74 27                	je     ffffffff8100c4f4 <pagemgr_map+0x93>
ffffffff8100c4cd:	48 8b 05 ec 4c 01 00 	mov    0x14cec(%rip),%rax        # ffffffff810211c0 <page_manager>
ffffffff8100c4d4:	48 ba 00 f0 ff ff ff 	movabs $0x7ffffffffffff000,%rdx
ffffffff8100c4db:	ff ff 7f 
ffffffff8100c4de:	48 21 d0             	and    %rdx,%rax
ffffffff8100c4e1:	be 01 00 00 00       	mov    $0x1,%esi
ffffffff8100c4e6:	48 89 c7             	mov    %rax,%rdi
ffffffff8100c4e9:	e8 74 ed ff ff       	callq  ffffffff8100b262 <pagemgr_temp_map>
ffffffff8100c4ee:	48 89 45 c0          	mov    %rax,-0x40(%rbp)
ffffffff8100c4f2:	eb 25                	jmp    ffffffff8100c519 <pagemgr_map+0xb8>
ffffffff8100c4f4:	48 8b 05 c5 4c 01 00 	mov    0x14cc5(%rip),%rax        # ffffffff810211c0 <page_manager>
ffffffff8100c4fb:	48 ba 00 f0 ff ff ff 	movabs $0x7ffffffffffff000,%rdx
ffffffff8100c502:	ff ff 7f 
ffffffff8100c505:	48 21 d0             	and    %rdx,%rax
ffffffff8100c508:	be 02 00 00 00       	mov    $0x2,%esi
ffffffff8100c50d:	48 89 c7             	mov    %rax,%rdi
ffffffff8100c510:	e8 4d ed ff ff       	callq  ffffffff8100b262 <pagemgr_temp_map>
ffffffff8100c515:	48 89 45 c8          	mov    %rax,-0x38(%rbp)
ffffffff8100c519:	48 c7 c7 d4 11 02 81 	mov    $0xffffffff810211d4,%rdi
ffffffff8100c520:	e8 76 6b ff ff       	callq  ffffffff8100309b <spinlock_lock_interrupt>
ffffffff8100c525:	48 8d 45 98          	lea    -0x68(%rbp),%rax
ffffffff8100c529:	48 89 c7             	mov    %rax,%rdi
ffffffff8100c52c:	e8 a8 fd ff ff       	callq  ffffffff8100c2d9 <pagemgr_build_page_path>
ffffffff8100c531:	85 c0                	test   %eax,%eax
ffffffff8100c533:	79 13                	jns    ffffffff8100c548 <pagemgr_map+0xe7>
ffffffff8100c535:	48 c7 c7 d4 11 02 81 	mov    $0xffffffff810211d4,%rdi
ffffffff8100c53c:	e8 69 6b ff ff       	callq  ffffffff810030aa <spinlock_unlock_interrupt>
ffffffff8100c541:	b8 00 00 00 00       	mov    $0x0,%eax
ffffffff8100c546:	eb 6e                	jmp    ffffffff8100c5b6 <pagemgr_map+0x155>
ffffffff8100c548:	66 c7 45 98 ff ff    	movw   $0xffff,-0x68(%rbp)
ffffffff8100c54e:	66 c7 45 9a ff ff    	movw   $0xffff,-0x66(%rbp)
ffffffff8100c554:	66 c7 45 9c ff ff    	movw   $0xffff,-0x64(%rbp)
ffffffff8100c55a:	66 c7 45 9e ff ff    	movw   $0xffff,-0x62(%rbp)
ffffffff8100c560:	48 c7 45 b8 00 00 00 	movq   $0x0,-0x48(%rbp)
ffffffff8100c567:	00 
ffffffff8100c568:	48 c7 45 d0 00 00 00 	movq   $0x0,-0x30(%rbp)
ffffffff8100c56f:	00 
ffffffff8100c570:	48 c7 45 d8 00 00 00 	movq   $0x0,-0x28(%rbp)
ffffffff8100c577:	00 
ffffffff8100c578:	48 c7 45 e0 00 00 00 	movq   $0x0,-0x20(%rbp)
ffffffff8100c57f:	00 
ffffffff8100c580:	48 8b 85 78 ff ff ff 	mov    -0x88(%rbp),%rax
ffffffff8100c587:	48 c1 e8 0c          	shr    $0xc,%rax
ffffffff8100c58b:	48 89 45 f0          	mov    %rax,-0x10(%rbp)
ffffffff8100c58f:	48 8d 55 98          	lea    -0x68(%rbp),%rdx
ffffffff8100c593:	48 8b 4d f0          	mov    -0x10(%rbp),%rcx
ffffffff8100c597:	48 8b 45 80          	mov    -0x80(%rbp),%rax
ffffffff8100c59b:	48 89 ce             	mov    %rcx,%rsi
ffffffff8100c59e:	48 89 c7             	mov    %rax,%rdi
ffffffff8100c5a1:	e8 91 f6 ff ff       	callq  ffffffff8100bc37 <pagemgr_alloc_or_map_cb>
ffffffff8100c5a6:	48 c7 c7 d4 11 02 81 	mov    $0xffffffff810211d4,%rdi
ffffffff8100c5ad:	e8 f8 6a ff ff       	callq  ffffffff810030aa <spinlock_unlock_interrupt>
ffffffff8100c5b2:	48 8b 45 88          	mov    -0x78(%rbp),%rax
ffffffff8100c5b6:	c9                   	leaveq 
ffffffff8100c5b7:	c3                   	retq   

ffffffff8100c5b8 <pagemgr_alloc>:
ffffffff8100c5b8:	55                   	push   %rbp
ffffffff8100c5b9:	48 89 e5             	mov    %rsp,%rbp
ffffffff8100c5bc:	48 81 ec 90 00 00 00 	sub    $0x90,%rsp
ffffffff8100c5c3:	48 89 7d 88          	mov    %rdi,-0x78(%rbp)
ffffffff8100c5c7:	48 89 75 80          	mov    %rsi,-0x80(%rbp)
ffffffff8100c5cb:	89 95 7c ff ff ff    	mov    %edx,-0x84(%rbp)
ffffffff8100c5d1:	48 c7 45 f8 00 00 00 	movq   $0x0,-0x8(%rbp)
ffffffff8100c5d8:	00 
ffffffff8100c5d9:	c7 45 f4 00 00 00 00 	movl   $0x0,-0xc(%rbp)
ffffffff8100c5e0:	48 8d 45 98          	lea    -0x68(%rbp),%rax
ffffffff8100c5e4:	ba 58 00 00 00       	mov    $0x58,%edx
ffffffff8100c5e9:	be 00 00 00 00       	mov    $0x0,%esi
ffffffff8100c5ee:	48 89 c7             	mov    %rax,%rdi
ffffffff8100c5f1:	e8 c4 e1 ff ff       	callq  ffffffff8100a7ba <memset>
ffffffff8100c5f6:	48 8b 45 88          	mov    -0x78(%rbp),%rax
ffffffff8100c5fa:	48 89 45 a8          	mov    %rax,-0x58(%rbp)
ffffffff8100c5fe:	48 8b 45 80          	mov    -0x80(%rbp),%rax
ffffffff8100c602:	48 89 45 b0          	mov    %rax,-0x50(%rbp)
ffffffff8100c606:	8b 85 7c ff ff ff    	mov    -0x84(%rbp),%eax
ffffffff8100c60c:	89 45 e8             	mov    %eax,-0x18(%rbp)
ffffffff8100c60f:	0f b6 05 ba 4b 01 00 	movzbl 0x14bba(%rip),%eax        # ffffffff810211d0 <page_manager+0x10>
ffffffff8100c616:	84 c0                	test   %al,%al
ffffffff8100c618:	74 27                	je     ffffffff8100c641 <pagemgr_alloc+0x89>
ffffffff8100c61a:	48 8b 05 9f 4b 01 00 	mov    0x14b9f(%rip),%rax        # ffffffff810211c0 <page_manager>
ffffffff8100c621:	48 ba 00 f0 ff ff ff 	movabs $0x7ffffffffffff000,%rdx
ffffffff8100c628:	ff ff 7f 
ffffffff8100c62b:	48 21 d0             	and    %rdx,%rax
ffffffff8100c62e:	be 01 00 00 00       	mov    $0x1,%esi
ffffffff8100c633:	48 89 c7             	mov    %rax,%rdi
ffffffff8100c636:	e8 27 ec ff ff       	callq  ffffffff8100b262 <pagemgr_temp_map>
ffffffff8100c63b:	48 89 45 c0          	mov    %rax,-0x40(%rbp)
ffffffff8100c63f:	eb 25                	jmp    ffffffff8100c666 <pagemgr_alloc+0xae>
ffffffff8100c641:	48 8b 05 78 4b 01 00 	mov    0x14b78(%rip),%rax        # ffffffff810211c0 <page_manager>
ffffffff8100c648:	48 ba 00 f0 ff ff ff 	movabs $0x7ffffffffffff000,%rdx
ffffffff8100c64f:	ff ff 7f 
ffffffff8100c652:	48 21 d0             	and    %rdx,%rax
ffffffff8100c655:	be 02 00 00 00       	mov    $0x2,%esi
ffffffff8100c65a:	48 89 c7             	mov    %rax,%rdi
ffffffff8100c65d:	e8 00 ec ff ff       	callq  ffffffff8100b262 <pagemgr_temp_map>
ffffffff8100c662:	48 89 45 c8          	mov    %rax,-0x38(%rbp)
ffffffff8100c666:	48 c7 c7 d4 11 02 81 	mov    $0xffffffff810211d4,%rdi
ffffffff8100c66d:	e8 29 6a ff ff       	callq  ffffffff8100309b <spinlock_lock_interrupt>
ffffffff8100c672:	48 8d 45 98          	lea    -0x68(%rbp),%rax
ffffffff8100c676:	48 89 c7             	mov    %rax,%rdi
ffffffff8100c679:	e8 5b fc ff ff       	callq  ffffffff8100c2d9 <pagemgr_build_page_path>
ffffffff8100c67e:	89 45 f4             	mov    %eax,-0xc(%rbp)
ffffffff8100c681:	83 7d f4 00          	cmpl   $0x0,-0xc(%rbp)
ffffffff8100c685:	79 16                	jns    ffffffff8100c69d <pagemgr_alloc+0xe5>
ffffffff8100c687:	48 c7 c7 d4 11 02 81 	mov    $0xffffffff810211d4,%rdi
ffffffff8100c68e:	e8 17 6a ff ff       	callq  ffffffff810030aa <spinlock_unlock_interrupt>
ffffffff8100c693:	b8 00 00 00 00       	mov    $0x0,%eax
ffffffff8100c698:	e9 aa 00 00 00       	jmpq   ffffffff8100c747 <pagemgr_alloc+0x18f>
ffffffff8100c69d:	66 c7 45 98 ff ff    	movw   $0xffff,-0x68(%rbp)
ffffffff8100c6a3:	66 c7 45 9a ff ff    	movw   $0xffff,-0x66(%rbp)
ffffffff8100c6a9:	66 c7 45 9c ff ff    	movw   $0xffff,-0x64(%rbp)
ffffffff8100c6af:	66 c7 45 9e ff ff    	movw   $0xffff,-0x62(%rbp)
ffffffff8100c6b5:	48 c7 45 b8 00 00 00 	movq   $0x0,-0x48(%rbp)
ffffffff8100c6bc:	00 
ffffffff8100c6bd:	48 c7 45 d0 00 00 00 	movq   $0x0,-0x30(%rbp)
ffffffff8100c6c4:	00 
ffffffff8100c6c5:	48 c7 45 d8 00 00 00 	movq   $0x0,-0x28(%rbp)
ffffffff8100c6cc:	00 
ffffffff8100c6cd:	48 c7 45 e0 00 00 00 	movq   $0x0,-0x20(%rbp)
ffffffff8100c6d4:	00 
ffffffff8100c6d5:	48 8b 45 80          	mov    -0x80(%rbp),%rax
ffffffff8100c6d9:	48 c1 e8 0c          	shr    $0xc,%rax
ffffffff8100c6dd:	48 89 45 f8          	mov    %rax,-0x8(%rbp)
ffffffff8100c6e1:	48 8b 05 20 4b 01 00 	mov    0x14b20(%rip),%rax        # ffffffff81021208 <physmm>
ffffffff8100c6e8:	4c 8b 00             	mov    (%rax),%r8
ffffffff8100c6eb:	48 8d 55 98          	lea    -0x68(%rbp),%rdx
ffffffff8100c6ef:	48 8b 45 f8          	mov    -0x8(%rbp),%rax
ffffffff8100c6f3:	48 89 d1             	mov    %rdx,%rcx
ffffffff8100c6f6:	48 c7 c2 37 bc 00 81 	mov    $0xffffffff8100bc37,%rdx
ffffffff8100c6fd:	be 00 00 00 00       	mov    $0x0,%esi
ffffffff8100c702:	48 89 c7             	mov    %rax,%rdi
ffffffff8100c705:	41 ff d0             	callq  *%r8
ffffffff8100c708:	89 45 f4             	mov    %eax,-0xc(%rbp)
ffffffff8100c70b:	83 7d f4 00          	cmpl   $0x0,-0xc(%rbp)
ffffffff8100c70f:	79 26                	jns    ffffffff8100c737 <pagemgr_alloc+0x17f>
ffffffff8100c711:	48 c7 c7 d4 11 02 81 	mov    $0xffffffff810211d4,%rdi
ffffffff8100c718:	e8 8d 69 ff ff       	callq  ffffffff810030aa <spinlock_unlock_interrupt>
ffffffff8100c71d:	48 8b 55 b8          	mov    -0x48(%rbp),%rdx
ffffffff8100c721:	48 8b 45 88          	mov    -0x78(%rbp),%rax
ffffffff8100c725:	48 89 d6             	mov    %rdx,%rsi
ffffffff8100c728:	48 89 c7             	mov    %rax,%rdi
ffffffff8100c72b:	e8 6a 01 00 00       	callq  ffffffff8100c89a <pagemgr_free>
ffffffff8100c730:	b8 00 00 00 00       	mov    $0x0,%eax
ffffffff8100c735:	eb 10                	jmp    ffffffff8100c747 <pagemgr_alloc+0x18f>
ffffffff8100c737:	48 c7 c7 d4 11 02 81 	mov    $0xffffffff810211d4,%rdi
ffffffff8100c73e:	e8 67 69 ff ff       	callq  ffffffff810030aa <spinlock_unlock_interrupt>
ffffffff8100c743:	48 8b 45 88          	mov    -0x78(%rbp),%rax
ffffffff8100c747:	c9                   	leaveq 
ffffffff8100c748:	c3                   	retq   

ffffffff8100c749 <pagemgr_attr_change>:
ffffffff8100c749:	55                   	push   %rbp
ffffffff8100c74a:	48 89 e5             	mov    %rsp,%rbp
ffffffff8100c74d:	48 81 ec 90 00 00 00 	sub    $0x90,%rsp
ffffffff8100c754:	48 89 7d 88          	mov    %rdi,-0x78(%rbp)
ffffffff8100c758:	48 89 75 80          	mov    %rsi,-0x80(%rbp)
ffffffff8100c75c:	89 95 7c ff ff ff    	mov    %edx,-0x84(%rbp)
ffffffff8100c762:	48 c7 45 f8 00 00 00 	movq   $0x0,-0x8(%rbp)
ffffffff8100c769:	00 
ffffffff8100c76a:	48 c7 45 f0 00 00 00 	movq   $0x0,-0x10(%rbp)
ffffffff8100c771:	00 
ffffffff8100c772:	48 8d 45 98          	lea    -0x68(%rbp),%rax
ffffffff8100c776:	ba 58 00 00 00       	mov    $0x58,%edx
ffffffff8100c77b:	be 00 00 00 00       	mov    $0x0,%esi
ffffffff8100c780:	48 89 c7             	mov    %rax,%rdi
ffffffff8100c783:	e8 32 e0 ff ff       	callq  ffffffff8100a7ba <memset>
ffffffff8100c788:	48 8b 45 88          	mov    -0x78(%rbp),%rax
ffffffff8100c78c:	48 89 45 a8          	mov    %rax,-0x58(%rbp)
ffffffff8100c790:	48 8b 45 80          	mov    -0x80(%rbp),%rax
ffffffff8100c794:	48 89 45 b0          	mov    %rax,-0x50(%rbp)
ffffffff8100c798:	8b 85 7c ff ff ff    	mov    -0x84(%rbp),%eax
ffffffff8100c79e:	89 45 e8             	mov    %eax,-0x18(%rbp)
ffffffff8100c7a1:	c6 45 ec 01          	movb   $0x1,-0x14(%rbp)
ffffffff8100c7a5:	48 8b 45 80          	mov    -0x80(%rbp),%rax
ffffffff8100c7a9:	48 c1 e8 0c          	shr    $0xc,%rax
ffffffff8100c7ad:	48 89 45 f8          	mov    %rax,-0x8(%rbp)
ffffffff8100c7b1:	0f b6 05 18 4a 01 00 	movzbl 0x14a18(%rip),%eax        # ffffffff810211d0 <page_manager+0x10>
ffffffff8100c7b8:	84 c0                	test   %al,%al
ffffffff8100c7ba:	74 27                	je     ffffffff8100c7e3 <pagemgr_attr_change+0x9a>
ffffffff8100c7bc:	48 8b 05 fd 49 01 00 	mov    0x149fd(%rip),%rax        # ffffffff810211c0 <page_manager>
ffffffff8100c7c3:	48 ba 00 f0 ff ff ff 	movabs $0x7ffffffffffff000,%rdx
ffffffff8100c7ca:	ff ff 7f 
ffffffff8100c7cd:	48 21 d0             	and    %rdx,%rax
ffffffff8100c7d0:	be 01 00 00 00       	mov    $0x1,%esi
ffffffff8100c7d5:	48 89 c7             	mov    %rax,%rdi
ffffffff8100c7d8:	e8 85 ea ff ff       	callq  ffffffff8100b262 <pagemgr_temp_map>
ffffffff8100c7dd:	48 89 45 c0          	mov    %rax,-0x40(%rbp)
ffffffff8100c7e1:	eb 25                	jmp    ffffffff8100c808 <pagemgr_attr_change+0xbf>
ffffffff8100c7e3:	48 8b 05 d6 49 01 00 	mov    0x149d6(%rip),%rax        # ffffffff810211c0 <page_manager>
ffffffff8100c7ea:	48 ba 00 f0 ff ff ff 	movabs $0x7ffffffffffff000,%rdx
ffffffff8100c7f1:	ff ff 7f 
ffffffff8100c7f4:	48 21 d0             	and    %rdx,%rax
ffffffff8100c7f7:	be 02 00 00 00       	mov    $0x2,%esi
ffffffff8100c7fc:	48 89 c7             	mov    %rax,%rdi
ffffffff8100c7ff:	e8 5e ea ff ff       	callq  ffffffff8100b262 <pagemgr_temp_map>
ffffffff8100c804:	48 89 45 c8          	mov    %rax,-0x38(%rbp)
ffffffff8100c808:	66 c7 45 98 ff ff    	movw   $0xffff,-0x68(%rbp)
ffffffff8100c80e:	66 c7 45 9a ff ff    	movw   $0xffff,-0x66(%rbp)
ffffffff8100c814:	66 c7 45 9c ff ff    	movw   $0xffff,-0x64(%rbp)
ffffffff8100c81a:	66 c7 45 9e ff ff    	movw   $0xffff,-0x62(%rbp)
ffffffff8100c820:	48 c7 45 b8 00 00 00 	movq   $0x0,-0x48(%rbp)
ffffffff8100c827:	00 
ffffffff8100c828:	48 c7 45 d0 00 00 00 	movq   $0x0,-0x30(%rbp)
ffffffff8100c82f:	00 
ffffffff8100c830:	48 c7 45 d8 00 00 00 	movq   $0x0,-0x28(%rbp)
ffffffff8100c837:	00 
ffffffff8100c838:	48 c7 45 e0 00 00 00 	movq   $0x0,-0x20(%rbp)
ffffffff8100c83f:	00 
ffffffff8100c840:	48 c7 c7 d4 11 02 81 	mov    $0xffffffff810211d4,%rdi
ffffffff8100c847:	e8 4f 68 ff ff       	callq  ffffffff8100309b <spinlock_lock_interrupt>
ffffffff8100c84c:	48 8d 55 98          	lea    -0x68(%rbp),%rdx
ffffffff8100c850:	48 8b 45 f8          	mov    -0x8(%rbp),%rax
ffffffff8100c854:	48 89 c6             	mov    %rax,%rsi
ffffffff8100c857:	bf 00 00 00 00       	mov    $0x0,%edi
ffffffff8100c85c:	e8 d6 f3 ff ff       	callq  ffffffff8100bc37 <pagemgr_alloc_or_map_cb>
ffffffff8100c861:	48 39 45 f8          	cmp    %rax,-0x8(%rbp)
ffffffff8100c865:	0f 94 c0             	sete   %al
ffffffff8100c868:	0f b6 c0             	movzbl %al,%eax
ffffffff8100c86b:	48 89 45 f0          	mov    %rax,-0x10(%rbp)
ffffffff8100c86f:	48 83 7d f0 00       	cmpq   $0x0,-0x10(%rbp)
ffffffff8100c874:	74 07                	je     ffffffff8100c87d <pagemgr_attr_change+0x134>
ffffffff8100c876:	b8 00 00 00 00       	mov    $0x0,%eax
ffffffff8100c87b:	eb 07                	jmp    ffffffff8100c884 <pagemgr_attr_change+0x13b>
ffffffff8100c87d:	48 c7 c0 ff ff ff ff 	mov    $0xffffffffffffffff,%rax
ffffffff8100c884:	48 89 45 f0          	mov    %rax,-0x10(%rbp)
ffffffff8100c888:	48 c7 c7 d4 11 02 81 	mov    $0xffffffff810211d4,%rdi
ffffffff8100c88f:	e8 16 68 ff ff       	callq  ffffffff810030aa <spinlock_unlock_interrupt>
ffffffff8100c894:	48 8b 45 f0          	mov    -0x10(%rbp),%rax
ffffffff8100c898:	c9                   	leaveq 
ffffffff8100c899:	c3                   	retq   

ffffffff8100c89a <pagemgr_free>:
ffffffff8100c89a:	55                   	push   %rbp
ffffffff8100c89b:	48 89 e5             	mov    %rsp,%rbp
ffffffff8100c89e:	48 83 ec 70          	sub    $0x70,%rsp
ffffffff8100c8a2:	48 89 7d 98          	mov    %rdi,-0x68(%rbp)
ffffffff8100c8a6:	48 89 75 90          	mov    %rsi,-0x70(%rbp)
ffffffff8100c8aa:	c7 45 fc 00 00 00 00 	movl   $0x0,-0x4(%rbp)
ffffffff8100c8b1:	48 8d 45 a0          	lea    -0x60(%rbp),%rax
ffffffff8100c8b5:	ba 58 00 00 00       	mov    $0x58,%edx
ffffffff8100c8ba:	be 00 00 00 00       	mov    $0x0,%esi
ffffffff8100c8bf:	48 89 c7             	mov    %rax,%rdi
ffffffff8100c8c2:	e8 f3 de ff ff       	callq  ffffffff8100a7ba <memset>
ffffffff8100c8c7:	48 8b 45 98          	mov    -0x68(%rbp),%rax
ffffffff8100c8cb:	48 89 45 b0          	mov    %rax,-0x50(%rbp)
ffffffff8100c8cf:	48 8b 45 90          	mov    -0x70(%rbp),%rax
ffffffff8100c8d3:	48 89 45 b8          	mov    %rax,-0x48(%rbp)
ffffffff8100c8d7:	0f b6 05 f2 48 01 00 	movzbl 0x148f2(%rip),%eax        # ffffffff810211d0 <page_manager+0x10>
ffffffff8100c8de:	84 c0                	test   %al,%al
ffffffff8100c8e0:	74 27                	je     ffffffff8100c909 <pagemgr_free+0x6f>
ffffffff8100c8e2:	48 8b 05 d7 48 01 00 	mov    0x148d7(%rip),%rax        # ffffffff810211c0 <page_manager>
ffffffff8100c8e9:	48 ba 00 f0 ff ff ff 	movabs $0x7ffffffffffff000,%rdx
ffffffff8100c8f0:	ff ff 7f 
ffffffff8100c8f3:	48 21 d0             	and    %rdx,%rax
ffffffff8100c8f6:	be 01 00 00 00       	mov    $0x1,%esi
ffffffff8100c8fb:	48 89 c7             	mov    %rax,%rdi
ffffffff8100c8fe:	e8 5f e9 ff ff       	callq  ffffffff8100b262 <pagemgr_temp_map>
ffffffff8100c903:	48 89 45 c8          	mov    %rax,-0x38(%rbp)
ffffffff8100c907:	eb 25                	jmp    ffffffff8100c92e <pagemgr_free+0x94>
ffffffff8100c909:	48 8b 05 b0 48 01 00 	mov    0x148b0(%rip),%rax        # ffffffff810211c0 <page_manager>
ffffffff8100c910:	48 ba 00 f0 ff ff ff 	movabs $0x7ffffffffffff000,%rdx
ffffffff8100c917:	ff ff 7f 
ffffffff8100c91a:	48 21 d0             	and    %rdx,%rax
ffffffff8100c91d:	be 02 00 00 00       	mov    $0x2,%esi
ffffffff8100c922:	48 89 c7             	mov    %rax,%rdi
ffffffff8100c925:	e8 38 e9 ff ff       	callq  ffffffff8100b262 <pagemgr_temp_map>
ffffffff8100c92a:	48 89 45 d0          	mov    %rax,-0x30(%rbp)
ffffffff8100c92e:	66 c7 45 a0 ff ff    	movw   $0xffff,-0x60(%rbp)
ffffffff8100c934:	66 c7 45 a2 ff ff    	movw   $0xffff,-0x5e(%rbp)
ffffffff8100c93a:	66 c7 45 a4 ff ff    	movw   $0xffff,-0x5c(%rbp)
ffffffff8100c940:	66 c7 45 a6 ff ff    	movw   $0xffff,-0x5a(%rbp)
ffffffff8100c946:	48 c7 45 c0 00 00 00 	movq   $0x0,-0x40(%rbp)
ffffffff8100c94d:	00 
ffffffff8100c94e:	48 c7 45 d8 00 00 00 	movq   $0x0,-0x28(%rbp)
ffffffff8100c955:	00 
ffffffff8100c956:	48 c7 45 e0 00 00 00 	movq   $0x0,-0x20(%rbp)
ffffffff8100c95d:	00 
ffffffff8100c95e:	48 c7 45 e8 00 00 00 	movq   $0x0,-0x18(%rbp)
ffffffff8100c965:	00 
ffffffff8100c966:	48 c7 c7 d4 11 02 81 	mov    $0xffffffff810211d4,%rdi
ffffffff8100c96d:	e8 29 67 ff ff       	callq  ffffffff8100309b <spinlock_lock_interrupt>
ffffffff8100c972:	48 8d 45 a0          	lea    -0x60(%rbp),%rax
ffffffff8100c976:	48 89 c7             	mov    %rax,%rdi
ffffffff8100c979:	e8 f0 ef ff ff       	callq  ffffffff8100b96e <pagemgr_check_page_path>
ffffffff8100c97e:	89 45 fc             	mov    %eax,-0x4(%rbp)
ffffffff8100c981:	83 7d fc 00          	cmpl   $0x0,-0x4(%rbp)
ffffffff8100c985:	74 13                	je     ffffffff8100c99a <pagemgr_free+0x100>
ffffffff8100c987:	48 c7 c7 d4 11 02 81 	mov    $0xffffffff810211d4,%rdi
ffffffff8100c98e:	e8 17 67 ff ff       	callq  ffffffff810030aa <spinlock_unlock_interrupt>
ffffffff8100c993:	b8 ff ff ff ff       	mov    $0xffffffff,%eax
ffffffff8100c998:	eb 64                	jmp    ffffffff8100c9fe <pagemgr_free+0x164>
ffffffff8100c99a:	66 c7 45 a0 ff ff    	movw   $0xffff,-0x60(%rbp)
ffffffff8100c9a0:	66 c7 45 a2 ff ff    	movw   $0xffff,-0x5e(%rbp)
ffffffff8100c9a6:	66 c7 45 a4 ff ff    	movw   $0xffff,-0x5c(%rbp)
ffffffff8100c9ac:	66 c7 45 a6 ff ff    	movw   $0xffff,-0x5a(%rbp)
ffffffff8100c9b2:	48 c7 45 c0 00 00 00 	movq   $0x0,-0x40(%rbp)
ffffffff8100c9b9:	00 
ffffffff8100c9ba:	48 c7 45 d8 00 00 00 	movq   $0x0,-0x28(%rbp)
ffffffff8100c9c1:	00 
ffffffff8100c9c2:	48 c7 45 e0 00 00 00 	movq   $0x0,-0x20(%rbp)
ffffffff8100c9c9:	00 
ffffffff8100c9ca:	48 c7 45 e8 00 00 00 	movq   $0x0,-0x18(%rbp)
ffffffff8100c9d1:	00 
ffffffff8100c9d2:	48 8b 05 2f 48 01 00 	mov    0x1482f(%rip),%rax        # ffffffff81021208 <physmm>
ffffffff8100c9d9:	48 8b 50 08          	mov    0x8(%rax),%rdx
ffffffff8100c9dd:	48 8d 45 a0          	lea    -0x60(%rbp),%rax
ffffffff8100c9e1:	48 89 c6             	mov    %rax,%rsi
ffffffff8100c9e4:	48 c7 c7 71 bf 00 81 	mov    $0xffffffff8100bf71,%rdi
ffffffff8100c9eb:	ff d2                	callq  *%rdx
ffffffff8100c9ed:	48 c7 c7 d4 11 02 81 	mov    $0xffffffff810211d4,%rdi
ffffffff8100c9f4:	e8 b1 66 ff ff       	callq  ffffffff810030aa <spinlock_unlock_interrupt>
ffffffff8100c9f9:	b8 00 00 00 00       	mov    $0x0,%eax
ffffffff8100c9fe:	c9                   	leaveq 
ffffffff8100c9ff:	c3                   	retq   

ffffffff8100ca00 <pagemgr_unmap>:
ffffffff8100ca00:	55                   	push   %rbp
ffffffff8100ca01:	48 89 e5             	mov    %rsp,%rbp
ffffffff8100ca04:	48 83 c4 80          	add    $0xffffffffffffff80,%rsp
ffffffff8100ca08:	48 89 7d 88          	mov    %rdi,-0x78(%rbp)
ffffffff8100ca0c:	48 89 75 80          	mov    %rsi,-0x80(%rbp)
ffffffff8100ca10:	c7 45 fc 00 00 00 00 	movl   $0x0,-0x4(%rbp)
ffffffff8100ca17:	48 c7 45 98 00 00 00 	movq   $0x0,-0x68(%rbp)
ffffffff8100ca1e:	00 
ffffffff8100ca1f:	48 c7 45 90 00 00 00 	movq   $0x0,-0x70(%rbp)
ffffffff8100ca26:	00 
ffffffff8100ca27:	48 8d 45 a0          	lea    -0x60(%rbp),%rax
ffffffff8100ca2b:	ba 58 00 00 00       	mov    $0x58,%edx
ffffffff8100ca30:	be 00 00 00 00       	mov    $0x0,%esi
ffffffff8100ca35:	48 89 c7             	mov    %rax,%rdi
ffffffff8100ca38:	e8 7d dd ff ff       	callq  ffffffff8100a7ba <memset>
ffffffff8100ca3d:	48 8b 45 88          	mov    -0x78(%rbp),%rax
ffffffff8100ca41:	48 89 45 b0          	mov    %rax,-0x50(%rbp)
ffffffff8100ca45:	48 8b 45 80          	mov    -0x80(%rbp),%rax
ffffffff8100ca49:	48 89 45 b8          	mov    %rax,-0x48(%rbp)
ffffffff8100ca4d:	0f b6 05 7c 47 01 00 	movzbl 0x1477c(%rip),%eax        # ffffffff810211d0 <page_manager+0x10>
ffffffff8100ca54:	84 c0                	test   %al,%al
ffffffff8100ca56:	74 27                	je     ffffffff8100ca7f <pagemgr_unmap+0x7f>
ffffffff8100ca58:	48 8b 05 61 47 01 00 	mov    0x14761(%rip),%rax        # ffffffff810211c0 <page_manager>
ffffffff8100ca5f:	48 ba 00 f0 ff ff ff 	movabs $0x7ffffffffffff000,%rdx
ffffffff8100ca66:	ff ff 7f 
ffffffff8100ca69:	48 21 d0             	and    %rdx,%rax
ffffffff8100ca6c:	be 01 00 00 00       	mov    $0x1,%esi
ffffffff8100ca71:	48 89 c7             	mov    %rax,%rdi
ffffffff8100ca74:	e8 e9 e7 ff ff       	callq  ffffffff8100b262 <pagemgr_temp_map>
ffffffff8100ca79:	48 89 45 c8          	mov    %rax,-0x38(%rbp)
ffffffff8100ca7d:	eb 25                	jmp    ffffffff8100caa4 <pagemgr_unmap+0xa4>
ffffffff8100ca7f:	48 8b 05 3a 47 01 00 	mov    0x1473a(%rip),%rax        # ffffffff810211c0 <page_manager>
ffffffff8100ca86:	48 ba 00 f0 ff ff ff 	movabs $0x7ffffffffffff000,%rdx
ffffffff8100ca8d:	ff ff 7f 
ffffffff8100ca90:	48 21 d0             	and    %rdx,%rax
ffffffff8100ca93:	be 02 00 00 00       	mov    $0x2,%esi
ffffffff8100ca98:	48 89 c7             	mov    %rax,%rdi
ffffffff8100ca9b:	e8 c2 e7 ff ff       	callq  ffffffff8100b262 <pagemgr_temp_map>
ffffffff8100caa0:	48 89 45 d0          	mov    %rax,-0x30(%rbp)
ffffffff8100caa4:	48 c7 c7 d4 11 02 81 	mov    $0xffffffff810211d4,%rdi
ffffffff8100caab:	e8 eb 65 ff ff       	callq  ffffffff8100309b <spinlock_lock_interrupt>
ffffffff8100cab0:	66 c7 45 a0 ff ff    	movw   $0xffff,-0x60(%rbp)
ffffffff8100cab6:	66 c7 45 a2 ff ff    	movw   $0xffff,-0x5e(%rbp)
ffffffff8100cabc:	66 c7 45 a4 ff ff    	movw   $0xffff,-0x5c(%rbp)
ffffffff8100cac2:	66 c7 45 a6 ff ff    	movw   $0xffff,-0x5a(%rbp)
ffffffff8100cac8:	48 c7 45 c0 00 00 00 	movq   $0x0,-0x40(%rbp)
ffffffff8100cacf:	00 
ffffffff8100cad0:	48 c7 45 d8 00 00 00 	movq   $0x0,-0x28(%rbp)
ffffffff8100cad7:	00 
ffffffff8100cad8:	48 c7 45 e0 00 00 00 	movq   $0x0,-0x20(%rbp)
ffffffff8100cadf:	00 
ffffffff8100cae0:	48 c7 45 e8 00 00 00 	movq   $0x0,-0x18(%rbp)
ffffffff8100cae7:	00 
ffffffff8100cae8:	48 8d 45 a0          	lea    -0x60(%rbp),%rax
ffffffff8100caec:	48 89 c7             	mov    %rax,%rdi
ffffffff8100caef:	e8 7a ee ff ff       	callq  ffffffff8100b96e <pagemgr_check_page_path>
ffffffff8100caf4:	89 45 fc             	mov    %eax,-0x4(%rbp)
ffffffff8100caf7:	83 7d fc 00          	cmpl   $0x0,-0x4(%rbp)
ffffffff8100cafb:	74 13                	je     ffffffff8100cb10 <pagemgr_unmap+0x110>
ffffffff8100cafd:	48 c7 c7 d4 11 02 81 	mov    $0xffffffff810211d4,%rdi
ffffffff8100cb04:	e8 a1 65 ff ff       	callq  ffffffff810030aa <spinlock_unlock_interrupt>
ffffffff8100cb09:	b8 ff ff ff ff       	mov    $0xffffffff,%eax
ffffffff8100cb0e:	eb 65                	jmp    ffffffff8100cb75 <pagemgr_unmap+0x175>
ffffffff8100cb10:	66 c7 45 a0 ff ff    	movw   $0xffff,-0x60(%rbp)
ffffffff8100cb16:	66 c7 45 a2 ff ff    	movw   $0xffff,-0x5e(%rbp)
ffffffff8100cb1c:	66 c7 45 a4 ff ff    	movw   $0xffff,-0x5c(%rbp)
ffffffff8100cb22:	66 c7 45 a6 ff ff    	movw   $0xffff,-0x5a(%rbp)
ffffffff8100cb28:	48 c7 45 c0 00 00 00 	movq   $0x0,-0x40(%rbp)
ffffffff8100cb2f:	00 
ffffffff8100cb30:	48 c7 45 d8 00 00 00 	movq   $0x0,-0x28(%rbp)
ffffffff8100cb37:	00 
ffffffff8100cb38:	48 c7 45 e0 00 00 00 	movq   $0x0,-0x20(%rbp)
ffffffff8100cb3f:	00 
ffffffff8100cb40:	48 c7 45 e8 00 00 00 	movq   $0x0,-0x18(%rbp)
ffffffff8100cb47:	00 
ffffffff8100cb48:	90                   	nop
ffffffff8100cb49:	48 8d 55 a0          	lea    -0x60(%rbp),%rdx
ffffffff8100cb4d:	48 8d 4d 90          	lea    -0x70(%rbp),%rcx
ffffffff8100cb51:	48 8d 45 98          	lea    -0x68(%rbp),%rax
ffffffff8100cb55:	48 89 ce             	mov    %rcx,%rsi
ffffffff8100cb58:	48 89 c7             	mov    %rax,%rdi
ffffffff8100cb5b:	e8 11 f4 ff ff       	callq  ffffffff8100bf71 <pagemgr_free_or_unmap_cb>
ffffffff8100cb60:	85 c0                	test   %eax,%eax
ffffffff8100cb62:	75 e5                	jne    ffffffff8100cb49 <pagemgr_unmap+0x149>
ffffffff8100cb64:	48 c7 c7 d4 11 02 81 	mov    $0xffffffff810211d4,%rdi
ffffffff8100cb6b:	e8 3a 65 ff ff       	callq  ffffffff810030aa <spinlock_unlock_interrupt>
ffffffff8100cb70:	b8 00 00 00 00       	mov    $0x0,%eax
ffffffff8100cb75:	c9                   	leaveq 
ffffffff8100cb76:	c3                   	retq   

ffffffff8100cb77 <pagemgr_verify_pages>:
ffffffff8100cb77:	55                   	push   %rbp
ffffffff8100cb78:	48 89 e5             	mov    %rsp,%rbp
ffffffff8100cb7b:	48 83 ec 70          	sub    $0x70,%rsp
ffffffff8100cb7f:	48 89 7d 98          	mov    %rdi,-0x68(%rbp)
ffffffff8100cb83:	48 89 75 90          	mov    %rsi,-0x70(%rbp)
ffffffff8100cb87:	48 8d 45 a8          	lea    -0x58(%rbp),%rax
ffffffff8100cb8b:	ba 58 00 00 00       	mov    $0x58,%edx
ffffffff8100cb90:	be 00 00 00 00       	mov    $0x0,%esi
ffffffff8100cb95:	48 89 c7             	mov    %rax,%rdi
ffffffff8100cb98:	e8 1d dc ff ff       	callq  ffffffff8100a7ba <memset>
ffffffff8100cb9d:	48 8b 45 98          	mov    -0x68(%rbp),%rax
ffffffff8100cba1:	48 89 45 b8          	mov    %rax,-0x48(%rbp)
ffffffff8100cba5:	48 8b 45 90          	mov    -0x70(%rbp),%rax
ffffffff8100cba9:	48 89 45 c0          	mov    %rax,-0x40(%rbp)
ffffffff8100cbad:	c6 45 fc 01          	movb   $0x1,-0x4(%rbp)
ffffffff8100cbb1:	0f b6 05 18 46 01 00 	movzbl 0x14618(%rip),%eax        # ffffffff810211d0 <page_manager+0x10>
ffffffff8100cbb8:	84 c0                	test   %al,%al
ffffffff8100cbba:	74 27                	je     ffffffff8100cbe3 <pagemgr_verify_pages+0x6c>
ffffffff8100cbbc:	48 8b 05 fd 45 01 00 	mov    0x145fd(%rip),%rax        # ffffffff810211c0 <page_manager>
ffffffff8100cbc3:	48 ba 00 f0 ff ff ff 	movabs $0x7ffffffffffff000,%rdx
ffffffff8100cbca:	ff ff 7f 
ffffffff8100cbcd:	48 21 d0             	and    %rdx,%rax
ffffffff8100cbd0:	be 01 00 00 00       	mov    $0x1,%esi
ffffffff8100cbd5:	48 89 c7             	mov    %rax,%rdi
ffffffff8100cbd8:	e8 85 e6 ff ff       	callq  ffffffff8100b262 <pagemgr_temp_map>
ffffffff8100cbdd:	48 89 45 d0          	mov    %rax,-0x30(%rbp)
ffffffff8100cbe1:	eb 25                	jmp    ffffffff8100cc08 <pagemgr_verify_pages+0x91>
ffffffff8100cbe3:	48 8b 05 d6 45 01 00 	mov    0x145d6(%rip),%rax        # ffffffff810211c0 <page_manager>
ffffffff8100cbea:	48 ba 00 f0 ff ff ff 	movabs $0x7ffffffffffff000,%rdx
ffffffff8100cbf1:	ff ff 7f 
ffffffff8100cbf4:	48 21 d0             	and    %rdx,%rax
ffffffff8100cbf7:	be 02 00 00 00       	mov    $0x2,%esi
ffffffff8100cbfc:	48 89 c7             	mov    %rax,%rdi
ffffffff8100cbff:	e8 5e e6 ff ff       	callq  ffffffff8100b262 <pagemgr_temp_map>
ffffffff8100cc04:	48 89 45 d8          	mov    %rax,-0x28(%rbp)
ffffffff8100cc08:	66 c7 45 a8 ff ff    	movw   $0xffff,-0x58(%rbp)
ffffffff8100cc0e:	66 c7 45 aa ff ff    	movw   $0xffff,-0x56(%rbp)
ffffffff8100cc14:	66 c7 45 ac ff ff    	movw   $0xffff,-0x54(%rbp)
ffffffff8100cc1a:	66 c7 45 ae ff ff    	movw   $0xffff,-0x52(%rbp)
ffffffff8100cc20:	48 c7 45 c8 00 00 00 	movq   $0x0,-0x38(%rbp)
ffffffff8100cc27:	00 
ffffffff8100cc28:	48 c7 45 e0 00 00 00 	movq   $0x0,-0x20(%rbp)
ffffffff8100cc2f:	00 
ffffffff8100cc30:	48 c7 45 e8 00 00 00 	movq   $0x0,-0x18(%rbp)
ffffffff8100cc37:	00 
ffffffff8100cc38:	48 c7 45 f0 00 00 00 	movq   $0x0,-0x10(%rbp)
ffffffff8100cc3f:	00 
ffffffff8100cc40:	48 8d 45 a8          	lea    -0x58(%rbp),%rax
ffffffff8100cc44:	48 89 c7             	mov    %rax,%rdi
ffffffff8100cc47:	e8 22 ed ff ff       	callq  ffffffff8100b96e <pagemgr_check_page_path>
ffffffff8100cc4c:	90                   	nop
ffffffff8100cc4d:	c9                   	leaveq 
ffffffff8100cc4e:	c3                   	retq   

ffffffff8100cc4f <pagemgr_get>:
ffffffff8100cc4f:	55                   	push   %rbp
ffffffff8100cc50:	48 89 e5             	mov    %rsp,%rbp
ffffffff8100cc53:	48 c7 c0 e0 11 02 81 	mov    $0xffffffff810211e0,%rax
ffffffff8100cc5a:	5d                   	pop    %rbp
ffffffff8100cc5b:	c3                   	retq   

ffffffff8100cc5c <pagemgr_page_fault_handler>:
ffffffff8100cc5c:	55                   	push   %rbp
ffffffff8100cc5d:	48 89 e5             	mov    %rsp,%rbp
ffffffff8100cc60:	48 83 ec 20          	sub    $0x20,%rsp
ffffffff8100cc64:	48 89 7d e8          	mov    %rdi,-0x18(%rbp)
ffffffff8100cc68:	48 89 75 e0          	mov    %rsi,-0x20(%rbp)
ffffffff8100cc6c:	b8 00 00 00 00       	mov    $0x0,%eax
ffffffff8100cc71:	e8 60 da ff ff       	callq  ffffffff8100a6d6 <read_cr2>
ffffffff8100cc76:	48 89 45 f8          	mov    %rax,-0x8(%rbp)
ffffffff8100cc7a:	48 8b 55 e0          	mov    -0x20(%rbp),%rdx
ffffffff8100cc7e:	48 8b 45 f8          	mov    -0x8(%rbp),%rax
ffffffff8100cc82:	48 89 c6             	mov    %rax,%rsi
ffffffff8100cc85:	48 c7 c7 e3 e4 00 81 	mov    $0xffffffff8100e4e3,%rdi
ffffffff8100cc8c:	b8 00 00 00 00       	mov    $0x0,%eax
ffffffff8100cc91:	e8 3f a4 ff ff       	callq  ffffffff810070d5 <kprintf>
ffffffff8100cc96:	b8 00 00 00 00       	mov    $0x0,%eax
ffffffff8100cc9b:	c9                   	leaveq 
ffffffff8100cc9c:	c3                   	retq   
ffffffff8100cc9d:	0f 1f 00             	nopl   (%rax)

ffffffff8100cca0 <has_pml5>:
ffffffff8100cca0:	48 31 c0             	xor    %rax,%rax
ffffffff8100cca3:	48 31 c9             	xor    %rcx,%rcx
ffffffff8100cca6:	b8 07 00 00 00       	mov    $0x7,%eax
ffffffff8100ccab:	0f a2                	cpuid  
ffffffff8100ccad:	81 e1 00 00 01 00    	and    $0x10000,%ecx
ffffffff8100ccb3:	c1 e9 10             	shr    $0x10,%ecx
ffffffff8100ccb6:	48 31 c0             	xor    %rax,%rax
ffffffff8100ccb9:	89 c8                	mov    %ecx,%eax
ffffffff8100ccbb:	c3                   	retq   

ffffffff8100ccbc <has_nx>:
ffffffff8100ccbc:	48 31 c0             	xor    %rax,%rax
ffffffff8100ccbf:	b8 01 00 00 80       	mov    $0x80000001,%eax
ffffffff8100ccc4:	0f a2                	cpuid  
ffffffff8100ccc6:	81 e2 00 00 10 00    	and    $0x100000,%edx
ffffffff8100cccc:	c1 ea 14             	shr    $0x14,%edx
ffffffff8100cccf:	48 31 c0             	xor    %rax,%rax
ffffffff8100ccd2:	89 d0                	mov    %edx,%eax
ffffffff8100ccd4:	c3                   	retq   

ffffffff8100ccd5 <enable_nx>:
ffffffff8100ccd5:	b9 80 00 00 c0       	mov    $0xc0000080,%ecx
ffffffff8100ccda:	0f 32                	rdmsr  
ffffffff8100ccdc:	0d 00 08 00 00       	or     $0x800,%eax
ffffffff8100cce1:	0f 30                	wrmsr  
ffffffff8100cce3:	c3                   	retq   

ffffffff8100cce4 <max_linear_address>:
ffffffff8100cce4:	48 31 c0             	xor    %rax,%rax
ffffffff8100cce7:	b8 08 00 00 80       	mov    $0x80000008,%eax
ffffffff8100ccec:	0f a2                	cpuid  
ffffffff8100ccee:	25 00 ff 00 00       	and    $0xff00,%eax
ffffffff8100ccf3:	c1 e8 08             	shr    $0x8,%eax
ffffffff8100ccf6:	c3                   	retq   

ffffffff8100ccf7 <max_physical_address>:
ffffffff8100ccf7:	48 31 c0             	xor    %rax,%rax
ffffffff8100ccfa:	b8 08 00 00 80       	mov    $0x80000008,%eax
ffffffff8100ccff:	0f a2                	cpuid  
ffffffff8100cd01:	25 ff 00 00 00       	and    $0xff,%eax
ffffffff8100cd06:	c3                   	retq   

ffffffff8100cd07 <read_lapic_base>:
ffffffff8100cd07:	b9 1b 00 00 00       	mov    $0x1b,%ecx
ffffffff8100cd0c:	0f 32                	rdmsr  
ffffffff8100cd0e:	c3                   	retq   

ffffffff8100cd0f <write_lapic_base>:
ffffffff8100cd0f:	b9 1b 00 00 00       	mov    $0x1b,%ecx
ffffffff8100cd14:	89 f8                	mov    %edi,%eax
ffffffff8100cd16:	0f 30                	wrmsr  
ffffffff8100cd18:	c3                   	retq   

ffffffff8100cd19 <disable_pic>:
ffffffff8100cd19:	b0 ff                	mov    $0xff,%al
ffffffff8100cd1b:	e6 a1                	out    %al,$0xa1
ffffffff8100cd1d:	e6 21                	out    %al,$0x21
ffffffff8100cd1f:	c3                   	retq   

ffffffff8100cd20 <enable_pml5>:
ffffffff8100cd20:	0f 20 e0             	mov    %cr4,%rax
ffffffff8100cd23:	0d 00 10 00 00       	or     $0x1000,%eax
ffffffff8100cd28:	0f 22 e0             	mov    %rax,%cr4
ffffffff8100cd2b:	c3                   	retq   

ffffffff8100cd2c <enable_wp>:
ffffffff8100cd2c:	0f 20 c0             	mov    %cr0,%rax
ffffffff8100cd2f:	0d 00 00 01 00       	or     $0x10000,%eax
ffffffff8100cd34:	0f 22 c0             	mov    %rax,%cr0
ffffffff8100cd37:	c3                   	retq   

ffffffff8100cd38 <linked_list_init>:
ffffffff8100cd38:	55                   	push   %rbp
ffffffff8100cd39:	48 89 e5             	mov    %rsp,%rbp
ffffffff8100cd3c:	48 83 ec 08          	sub    $0x8,%rsp
ffffffff8100cd40:	48 89 7d f8          	mov    %rdi,-0x8(%rbp)
ffffffff8100cd44:	48 83 7d f8 00       	cmpq   $0x0,-0x8(%rbp)
ffffffff8100cd49:	75 07                	jne    ffffffff8100cd52 <linked_list_init+0x1a>
ffffffff8100cd4b:	b8 ff ff ff ff       	mov    $0xffffffff,%eax
ffffffff8100cd50:	eb 28                	jmp    ffffffff8100cd7a <linked_list_init+0x42>
ffffffff8100cd52:	48 8b 45 f8          	mov    -0x8(%rbp),%rax
ffffffff8100cd56:	48 c7 40 10 00 00 00 	movq   $0x0,0x10(%rax)
ffffffff8100cd5d:	00 
ffffffff8100cd5e:	48 8b 45 f8          	mov    -0x8(%rbp),%rax
ffffffff8100cd62:	48 c7 40 08 00 00 00 	movq   $0x0,0x8(%rax)
ffffffff8100cd69:	00 
ffffffff8100cd6a:	48 8b 45 f8          	mov    -0x8(%rbp),%rax
ffffffff8100cd6e:	48 c7 00 00 00 00 00 	movq   $0x0,(%rax)
ffffffff8100cd75:	b8 00 00 00 00       	mov    $0x0,%eax
ffffffff8100cd7a:	c9                   	leaveq 
ffffffff8100cd7b:	c3                   	retq   

ffffffff8100cd7c <linked_list_add_head>:
ffffffff8100cd7c:	55                   	push   %rbp
ffffffff8100cd7d:	48 89 e5             	mov    %rsp,%rbp
ffffffff8100cd80:	48 83 ec 10          	sub    $0x10,%rsp
ffffffff8100cd84:	48 89 7d f8          	mov    %rdi,-0x8(%rbp)
ffffffff8100cd88:	48 89 75 f0          	mov    %rsi,-0x10(%rbp)
ffffffff8100cd8c:	48 8b 45 f8          	mov    -0x8(%rbp),%rax
ffffffff8100cd90:	48 8b 40 08          	mov    0x8(%rax),%rax
ffffffff8100cd94:	48 85 c0             	test   %rax,%rax
ffffffff8100cd97:	75 42                	jne    ffffffff8100cddb <linked_list_add_head+0x5f>
ffffffff8100cd99:	48 8b 45 f8          	mov    -0x8(%rbp),%rax
ffffffff8100cd9d:	48 8b 40 10          	mov    0x10(%rax),%rax
ffffffff8100cda1:	48 85 c0             	test   %rax,%rax
ffffffff8100cda4:	75 35                	jne    ffffffff8100cddb <linked_list_add_head+0x5f>
ffffffff8100cda6:	48 8b 45 f8          	mov    -0x8(%rbp),%rax
ffffffff8100cdaa:	48 8b 55 f0          	mov    -0x10(%rbp),%rdx
ffffffff8100cdae:	48 89 50 08          	mov    %rdx,0x8(%rax)
ffffffff8100cdb2:	48 8b 45 f8          	mov    -0x8(%rbp),%rax
ffffffff8100cdb6:	48 8b 50 08          	mov    0x8(%rax),%rdx
ffffffff8100cdba:	48 8b 45 f8          	mov    -0x8(%rbp),%rax
ffffffff8100cdbe:	48 89 50 10          	mov    %rdx,0x10(%rax)
ffffffff8100cdc2:	48 8b 45 f0          	mov    -0x10(%rbp),%rax
ffffffff8100cdc6:	48 c7 40 08 00 00 00 	movq   $0x0,0x8(%rax)
ffffffff8100cdcd:	00 
ffffffff8100cdce:	48 8b 45 f0          	mov    -0x10(%rbp),%rax
ffffffff8100cdd2:	48 c7 00 00 00 00 00 	movq   $0x0,(%rax)
ffffffff8100cdd9:	eb 36                	jmp    ffffffff8100ce11 <linked_list_add_head+0x95>
ffffffff8100cddb:	48 8b 45 f8          	mov    -0x8(%rbp),%rax
ffffffff8100cddf:	48 8b 50 10          	mov    0x10(%rax),%rdx
ffffffff8100cde3:	48 8b 45 f0          	mov    -0x10(%rbp),%rax
ffffffff8100cde7:	48 89 50 08          	mov    %rdx,0x8(%rax)
ffffffff8100cdeb:	48 8b 45 f0          	mov    -0x10(%rbp),%rax
ffffffff8100cdef:	48 8b 40 08          	mov    0x8(%rax),%rax
ffffffff8100cdf3:	48 8b 55 f0          	mov    -0x10(%rbp),%rdx
ffffffff8100cdf7:	48 89 10             	mov    %rdx,(%rax)
ffffffff8100cdfa:	48 8b 45 f0          	mov    -0x10(%rbp),%rax
ffffffff8100cdfe:	48 c7 00 00 00 00 00 	movq   $0x0,(%rax)
ffffffff8100ce05:	48 8b 45 f8          	mov    -0x8(%rbp),%rax
ffffffff8100ce09:	48 8b 55 f0          	mov    -0x10(%rbp),%rdx
ffffffff8100ce0d:	48 89 50 10          	mov    %rdx,0x10(%rax)
ffffffff8100ce11:	48 8b 45 f8          	mov    -0x8(%rbp),%rax
ffffffff8100ce15:	48 8b 00             	mov    (%rax),%rax
ffffffff8100ce18:	48 8d 50 01          	lea    0x1(%rax),%rdx
ffffffff8100ce1c:	48 8b 45 f8          	mov    -0x8(%rbp),%rax
ffffffff8100ce20:	48 89 10             	mov    %rdx,(%rax)
ffffffff8100ce23:	b8 00 00 00 00       	mov    $0x0,%eax
ffffffff8100ce28:	c9                   	leaveq 
ffffffff8100ce29:	c3                   	retq   

ffffffff8100ce2a <linked_list_add_tail>:
ffffffff8100ce2a:	55                   	push   %rbp
ffffffff8100ce2b:	48 89 e5             	mov    %rsp,%rbp
ffffffff8100ce2e:	48 83 ec 10          	sub    $0x10,%rsp
ffffffff8100ce32:	48 89 7d f8          	mov    %rdi,-0x8(%rbp)
ffffffff8100ce36:	48 89 75 f0          	mov    %rsi,-0x10(%rbp)
ffffffff8100ce3a:	48 8b 45 f8          	mov    -0x8(%rbp),%rax
ffffffff8100ce3e:	48 8b 40 10          	mov    0x10(%rax),%rax
ffffffff8100ce42:	48 85 c0             	test   %rax,%rax
ffffffff8100ce45:	75 42                	jne    ffffffff8100ce89 <linked_list_add_tail+0x5f>
ffffffff8100ce47:	48 8b 45 f8          	mov    -0x8(%rbp),%rax
ffffffff8100ce4b:	48 8b 40 08          	mov    0x8(%rax),%rax
ffffffff8100ce4f:	48 85 c0             	test   %rax,%rax
ffffffff8100ce52:	75 35                	jne    ffffffff8100ce89 <linked_list_add_tail+0x5f>
ffffffff8100ce54:	48 8b 45 f8          	mov    -0x8(%rbp),%rax
ffffffff8100ce58:	48 8b 55 f0          	mov    -0x10(%rbp),%rdx
ffffffff8100ce5c:	48 89 50 08          	mov    %rdx,0x8(%rax)
ffffffff8100ce60:	48 8b 45 f8          	mov    -0x8(%rbp),%rax
ffffffff8100ce64:	48 8b 50 08          	mov    0x8(%rax),%rdx
ffffffff8100ce68:	48 8b 45 f8          	mov    -0x8(%rbp),%rax
ffffffff8100ce6c:	48 89 50 10          	mov    %rdx,0x10(%rax)
ffffffff8100ce70:	48 8b 45 f0          	mov    -0x10(%rbp),%rax
ffffffff8100ce74:	48 c7 40 08 00 00 00 	movq   $0x0,0x8(%rax)
ffffffff8100ce7b:	00 
ffffffff8100ce7c:	48 8b 45 f0          	mov    -0x10(%rbp),%rax
ffffffff8100ce80:	48 c7 00 00 00 00 00 	movq   $0x0,(%rax)
ffffffff8100ce87:	eb 36                	jmp    ffffffff8100cebf <linked_list_add_tail+0x95>
ffffffff8100ce89:	48 8b 45 f0          	mov    -0x10(%rbp),%rax
ffffffff8100ce8d:	48 c7 40 08 00 00 00 	movq   $0x0,0x8(%rax)
ffffffff8100ce94:	00 
ffffffff8100ce95:	48 8b 45 f8          	mov    -0x8(%rbp),%rax
ffffffff8100ce99:	48 8b 50 08          	mov    0x8(%rax),%rdx
ffffffff8100ce9d:	48 8b 45 f0          	mov    -0x10(%rbp),%rax
ffffffff8100cea1:	48 89 10             	mov    %rdx,(%rax)
ffffffff8100cea4:	48 8b 45 f0          	mov    -0x10(%rbp),%rax
ffffffff8100cea8:	48 8b 00             	mov    (%rax),%rax
ffffffff8100ceab:	48 8b 55 f0          	mov    -0x10(%rbp),%rdx
ffffffff8100ceaf:	48 89 50 08          	mov    %rdx,0x8(%rax)
ffffffff8100ceb3:	48 8b 45 f8          	mov    -0x8(%rbp),%rax
ffffffff8100ceb7:	48 8b 55 f0          	mov    -0x10(%rbp),%rdx
ffffffff8100cebb:	48 89 50 08          	mov    %rdx,0x8(%rax)
ffffffff8100cebf:	48 8b 45 f8          	mov    -0x8(%rbp),%rax
ffffffff8100cec3:	48 8b 00             	mov    (%rax),%rax
ffffffff8100cec6:	48 8d 50 01          	lea    0x1(%rax),%rdx
ffffffff8100ceca:	48 8b 45 f8          	mov    -0x8(%rbp),%rax
ffffffff8100cece:	48 89 10             	mov    %rdx,(%rax)
ffffffff8100ced1:	b8 00 00 00 00       	mov    $0x0,%eax
ffffffff8100ced6:	c9                   	leaveq 
ffffffff8100ced7:	c3                   	retq   

ffffffff8100ced8 <linked_list_remove>:
ffffffff8100ced8:	55                   	push   %rbp
ffffffff8100ced9:	48 89 e5             	mov    %rsp,%rbp
ffffffff8100cedc:	48 83 ec 10          	sub    $0x10,%rsp
ffffffff8100cee0:	48 89 7d f8          	mov    %rdi,-0x8(%rbp)
ffffffff8100cee4:	48 89 75 f0          	mov    %rsi,-0x10(%rbp)
ffffffff8100cee8:	48 8b 45 f0          	mov    -0x10(%rbp),%rax
ffffffff8100ceec:	48 8b 00             	mov    (%rax),%rax
ffffffff8100ceef:	48 85 c0             	test   %rax,%rax
ffffffff8100cef2:	75 11                	jne    ffffffff8100cf05 <linked_list_remove+0x2d>
ffffffff8100cef4:	48 8b 45 f0          	mov    -0x10(%rbp),%rax
ffffffff8100cef8:	48 8b 10             	mov    (%rax),%rdx
ffffffff8100cefb:	48 8b 45 f8          	mov    -0x8(%rbp),%rax
ffffffff8100ceff:	48 89 50 08          	mov    %rdx,0x8(%rax)
ffffffff8100cf03:	eb 13                	jmp    ffffffff8100cf18 <linked_list_remove+0x40>
ffffffff8100cf05:	48 8b 45 f0          	mov    -0x10(%rbp),%rax
ffffffff8100cf09:	48 8b 00             	mov    (%rax),%rax
ffffffff8100cf0c:	48 8b 55 f0          	mov    -0x10(%rbp),%rdx
ffffffff8100cf10:	48 8b 52 08          	mov    0x8(%rdx),%rdx
ffffffff8100cf14:	48 89 50 08          	mov    %rdx,0x8(%rax)
ffffffff8100cf18:	48 8b 45 f0          	mov    -0x10(%rbp),%rax
ffffffff8100cf1c:	48 8b 40 08          	mov    0x8(%rax),%rax
ffffffff8100cf20:	48 85 c0             	test   %rax,%rax
ffffffff8100cf23:	75 12                	jne    ffffffff8100cf37 <linked_list_remove+0x5f>
ffffffff8100cf25:	48 8b 45 f0          	mov    -0x10(%rbp),%rax
ffffffff8100cf29:	48 8b 50 08          	mov    0x8(%rax),%rdx
ffffffff8100cf2d:	48 8b 45 f8          	mov    -0x8(%rbp),%rax
ffffffff8100cf31:	48 89 50 10          	mov    %rdx,0x10(%rax)
ffffffff8100cf35:	eb 12                	jmp    ffffffff8100cf49 <linked_list_remove+0x71>
ffffffff8100cf37:	48 8b 45 f0          	mov    -0x10(%rbp),%rax
ffffffff8100cf3b:	48 8b 40 08          	mov    0x8(%rax),%rax
ffffffff8100cf3f:	48 8b 55 f0          	mov    -0x10(%rbp),%rdx
ffffffff8100cf43:	48 8b 12             	mov    (%rdx),%rdx
ffffffff8100cf46:	48 89 10             	mov    %rdx,(%rax)
ffffffff8100cf49:	48 8b 45 f8          	mov    -0x8(%rbp),%rax
ffffffff8100cf4d:	48 8b 00             	mov    (%rax),%rax
ffffffff8100cf50:	48 8d 50 ff          	lea    -0x1(%rax),%rdx
ffffffff8100cf54:	48 8b 45 f8          	mov    -0x8(%rbp),%rax
ffffffff8100cf58:	48 89 10             	mov    %rdx,(%rax)
ffffffff8100cf5b:	90                   	nop
ffffffff8100cf5c:	c9                   	leaveq 
ffffffff8100cf5d:	c3                   	retq   

ffffffff8100cf5e <linked_list_first>:
ffffffff8100cf5e:	55                   	push   %rbp
ffffffff8100cf5f:	48 89 e5             	mov    %rsp,%rbp
ffffffff8100cf62:	48 83 ec 08          	sub    $0x8,%rsp
ffffffff8100cf66:	48 89 7d f8          	mov    %rdi,-0x8(%rbp)
ffffffff8100cf6a:	48 8b 45 f8          	mov    -0x8(%rbp),%rax
ffffffff8100cf6e:	48 8b 40 10          	mov    0x10(%rax),%rax
ffffffff8100cf72:	c9                   	leaveq 
ffffffff8100cf73:	c3                   	retq   

ffffffff8100cf74 <linked_list_next>:
ffffffff8100cf74:	55                   	push   %rbp
ffffffff8100cf75:	48 89 e5             	mov    %rsp,%rbp
ffffffff8100cf78:	48 83 ec 08          	sub    $0x8,%rsp
ffffffff8100cf7c:	48 89 7d f8          	mov    %rdi,-0x8(%rbp)
ffffffff8100cf80:	48 8b 45 f8          	mov    -0x8(%rbp),%rax
ffffffff8100cf84:	48 8b 40 08          	mov    0x8(%rax),%rax
ffffffff8100cf88:	c9                   	leaveq 
ffffffff8100cf89:	c3                   	retq   

ffffffff8100cf8a <linked_list_last>:
ffffffff8100cf8a:	55                   	push   %rbp
ffffffff8100cf8b:	48 89 e5             	mov    %rsp,%rbp
ffffffff8100cf8e:	48 83 ec 08          	sub    $0x8,%rsp
ffffffff8100cf92:	48 89 7d f8          	mov    %rdi,-0x8(%rbp)
ffffffff8100cf96:	48 8b 45 f8          	mov    -0x8(%rbp),%rax
ffffffff8100cf9a:	48 8b 40 08          	mov    0x8(%rax),%rax
ffffffff8100cf9e:	c9                   	leaveq 
ffffffff8100cf9f:	c3                   	retq   

ffffffff8100cfa0 <linked_list_prev>:
ffffffff8100cfa0:	55                   	push   %rbp
ffffffff8100cfa1:	48 89 e5             	mov    %rsp,%rbp
ffffffff8100cfa4:	48 83 ec 08          	sub    $0x8,%rsp
ffffffff8100cfa8:	48 89 7d f8          	mov    %rdi,-0x8(%rbp)
ffffffff8100cfac:	48 8b 45 f8          	mov    -0x8(%rbp),%rax
ffffffff8100cfb0:	48 8b 00             	mov    (%rax),%rax
ffffffff8100cfb3:	c9                   	leaveq 
ffffffff8100cfb4:	c3                   	retq   

ffffffff8100cfb5 <linked_list_count>:
ffffffff8100cfb5:	55                   	push   %rbp
ffffffff8100cfb6:	48 89 e5             	mov    %rsp,%rbp
ffffffff8100cfb9:	48 83 ec 08          	sub    $0x8,%rsp
ffffffff8100cfbd:	48 89 7d f8          	mov    %rdi,-0x8(%rbp)
ffffffff8100cfc1:	48 8b 45 f8          	mov    -0x8(%rbp),%rax
ffffffff8100cfc5:	48 8b 00             	mov    (%rax),%rax
ffffffff8100cfc8:	c9                   	leaveq 
ffffffff8100cfc9:	c3                   	retq   

ffffffff8100cfca <liballoc_memset>:
ffffffff8100cfca:	55                   	push   %rbp
ffffffff8100cfcb:	48 89 e5             	mov    %rsp,%rbp
ffffffff8100cfce:	48 83 ec 28          	sub    $0x28,%rsp
ffffffff8100cfd2:	48 89 7d e8          	mov    %rdi,-0x18(%rbp)
ffffffff8100cfd6:	89 75 e4             	mov    %esi,-0x1c(%rbp)
ffffffff8100cfd9:	48 89 55 d8          	mov    %rdx,-0x28(%rbp)
ffffffff8100cfdd:	c7 45 fc 00 00 00 00 	movl   $0x0,-0x4(%rbp)
ffffffff8100cfe4:	eb 13                	jmp    ffffffff8100cff9 <liballoc_memset+0x2f>
ffffffff8100cfe6:	8b 55 fc             	mov    -0x4(%rbp),%edx
ffffffff8100cfe9:	48 8b 45 e8          	mov    -0x18(%rbp),%rax
ffffffff8100cfed:	48 01 d0             	add    %rdx,%rax
ffffffff8100cff0:	8b 55 e4             	mov    -0x1c(%rbp),%edx
ffffffff8100cff3:	88 10                	mov    %dl,(%rax)
ffffffff8100cff5:	83 45 fc 01          	addl   $0x1,-0x4(%rbp)
ffffffff8100cff9:	8b 45 fc             	mov    -0x4(%rbp),%eax
ffffffff8100cffc:	48 39 45 d8          	cmp    %rax,-0x28(%rbp)
ffffffff8100d000:	77 e4                	ja     ffffffff8100cfe6 <liballoc_memset+0x1c>
ffffffff8100d002:	48 8b 45 e8          	mov    -0x18(%rbp),%rax
ffffffff8100d006:	c9                   	leaveq 
ffffffff8100d007:	c3                   	retq   

ffffffff8100d008 <liballoc_memcpy>:
ffffffff8100d008:	55                   	push   %rbp
ffffffff8100d009:	48 89 e5             	mov    %rsp,%rbp
ffffffff8100d00c:	48 83 ec 38          	sub    $0x38,%rsp
ffffffff8100d010:	48 89 7d d8          	mov    %rdi,-0x28(%rbp)
ffffffff8100d014:	48 89 75 d0          	mov    %rsi,-0x30(%rbp)
ffffffff8100d018:	48 89 55 c8          	mov    %rdx,-0x38(%rbp)
ffffffff8100d01c:	48 8b 45 d8          	mov    -0x28(%rbp),%rax
ffffffff8100d020:	48 89 45 e8          	mov    %rax,-0x18(%rbp)
ffffffff8100d024:	48 8b 45 d0          	mov    -0x30(%rbp),%rax
ffffffff8100d028:	48 89 45 e0          	mov    %rax,-0x20(%rbp)
ffffffff8100d02c:	eb 21                	jmp    ffffffff8100d04f <liballoc_memcpy+0x47>
ffffffff8100d02e:	48 8b 55 e0          	mov    -0x20(%rbp),%rdx
ffffffff8100d032:	48 8d 42 04          	lea    0x4(%rdx),%rax
ffffffff8100d036:	48 89 45 e0          	mov    %rax,-0x20(%rbp)
ffffffff8100d03a:	48 8b 45 e8          	mov    -0x18(%rbp),%rax
ffffffff8100d03e:	48 8d 48 04          	lea    0x4(%rax),%rcx
ffffffff8100d042:	48 89 4d e8          	mov    %rcx,-0x18(%rbp)
ffffffff8100d046:	8b 12                	mov    (%rdx),%edx
ffffffff8100d048:	89 10                	mov    %edx,(%rax)
ffffffff8100d04a:	48 83 6d c8 04       	subq   $0x4,-0x38(%rbp)
ffffffff8100d04f:	48 83 7d c8 03       	cmpq   $0x3,-0x38(%rbp)
ffffffff8100d054:	77 d8                	ja     ffffffff8100d02e <liballoc_memcpy+0x26>
ffffffff8100d056:	48 8b 45 e8          	mov    -0x18(%rbp),%rax
ffffffff8100d05a:	48 89 45 f8          	mov    %rax,-0x8(%rbp)
ffffffff8100d05e:	48 8b 45 e0          	mov    -0x20(%rbp),%rax
ffffffff8100d062:	48 89 45 f0          	mov    %rax,-0x10(%rbp)
ffffffff8100d066:	eb 22                	jmp    ffffffff8100d08a <liballoc_memcpy+0x82>
ffffffff8100d068:	48 8b 55 f0          	mov    -0x10(%rbp),%rdx
ffffffff8100d06c:	48 8d 42 01          	lea    0x1(%rdx),%rax
ffffffff8100d070:	48 89 45 f0          	mov    %rax,-0x10(%rbp)
ffffffff8100d074:	48 8b 45 f8          	mov    -0x8(%rbp),%rax
ffffffff8100d078:	48 8d 48 01          	lea    0x1(%rax),%rcx
ffffffff8100d07c:	48 89 4d f8          	mov    %rcx,-0x8(%rbp)
ffffffff8100d080:	0f b6 12             	movzbl (%rdx),%edx
ffffffff8100d083:	88 10                	mov    %dl,(%rax)
ffffffff8100d085:	48 83 6d c8 01       	subq   $0x1,-0x38(%rbp)
ffffffff8100d08a:	48 83 7d c8 00       	cmpq   $0x0,-0x38(%rbp)
ffffffff8100d08f:	75 d7                	jne    ffffffff8100d068 <liballoc_memcpy+0x60>
ffffffff8100d091:	48 8b 45 d8          	mov    -0x28(%rbp),%rax
ffffffff8100d095:	c9                   	leaveq 
ffffffff8100d096:	c3                   	retq   

ffffffff8100d097 <allocate_new_page>:
ffffffff8100d097:	55                   	push   %rbp
ffffffff8100d098:	48 89 e5             	mov    %rsp,%rbp
ffffffff8100d09b:	48 83 ec 20          	sub    $0x20,%rsp
ffffffff8100d09f:	48 89 7d e8          	mov    %rdi,-0x18(%rbp)
ffffffff8100d0a3:	48 8b 45 e8          	mov    -0x18(%rbp),%rax
ffffffff8100d0a7:	48 05 00 00 03 00    	add    $0x30000,%rax
ffffffff8100d0ad:	48 89 45 f8          	mov    %rax,-0x8(%rbp)
ffffffff8100d0b1:	48 81 45 f8 00 00 03 	addq   $0x30000,-0x8(%rbp)
ffffffff8100d0b8:	00 
ffffffff8100d0b9:	48 8b 0d 58 1f 00 00 	mov    0x1f58(%rip),%rcx        # ffffffff8100f018 <l_pageSize>
ffffffff8100d0c0:	48 8b 45 f8          	mov    -0x8(%rbp),%rax
ffffffff8100d0c4:	ba 00 00 00 00       	mov    $0x0,%edx
ffffffff8100d0c9:	48 f7 f1             	div    %rcx
ffffffff8100d0cc:	48 89 d0             	mov    %rdx,%rax
ffffffff8100d0cf:	48 85 c0             	test   %rax,%rax
ffffffff8100d0d2:	75 19                	jne    ffffffff8100d0ed <allocate_new_page+0x56>
ffffffff8100d0d4:	48 8b 35 3d 1f 00 00 	mov    0x1f3d(%rip),%rsi        # ffffffff8100f018 <l_pageSize>
ffffffff8100d0db:	48 8b 45 f8          	mov    -0x8(%rbp),%rax
ffffffff8100d0df:	ba 00 00 00 00       	mov    $0x0,%edx
ffffffff8100d0e4:	48 f7 f6             	div    %rsi
ffffffff8100d0e7:	48 89 45 f8          	mov    %rax,-0x8(%rbp)
ffffffff8100d0eb:	eb 1b                	jmp    ffffffff8100d108 <allocate_new_page+0x71>
ffffffff8100d0ed:	48 8b 0d 24 1f 00 00 	mov    0x1f24(%rip),%rcx        # ffffffff8100f018 <l_pageSize>
ffffffff8100d0f4:	48 8b 45 f8          	mov    -0x8(%rbp),%rax
ffffffff8100d0f8:	ba 00 00 00 00       	mov    $0x0,%edx
ffffffff8100d0fd:	48 f7 f1             	div    %rcx
ffffffff8100d100:	48 83 c0 01          	add    $0x1,%rax
ffffffff8100d104:	48 89 45 f8          	mov    %rax,-0x8(%rbp)
ffffffff8100d108:	48 8b 05 11 1f 00 00 	mov    0x1f11(%rip),%rax        # ffffffff8100f020 <l_pageCount>
ffffffff8100d10f:	48 39 45 f8          	cmp    %rax,-0x8(%rbp)
ffffffff8100d113:	73 0b                	jae    ffffffff8100d120 <allocate_new_page+0x89>
ffffffff8100d115:	48 8b 05 04 1f 00 00 	mov    0x1f04(%rip),%rax        # ffffffff8100f020 <l_pageCount>
ffffffff8100d11c:	48 89 45 f8          	mov    %rax,-0x8(%rbp)
ffffffff8100d120:	48 8b 45 f8          	mov    -0x8(%rbp),%rax
ffffffff8100d124:	48 89 c7             	mov    %rax,%rdi
ffffffff8100d127:	e8 db 0c 00 00       	callq  ffffffff8100de07 <liballoc_alloc>
ffffffff8100d12c:	48 89 45 f0          	mov    %rax,-0x10(%rbp)
ffffffff8100d130:	48 83 7d f0 00       	cmpq   $0x0,-0x10(%rbp)
ffffffff8100d135:	75 19                	jne    ffffffff8100d150 <allocate_new_page+0xb9>
ffffffff8100d137:	48 8b 05 fa 40 01 00 	mov    0x140fa(%rip),%rax        # ffffffff81021238 <l_warningCount>
ffffffff8100d13e:	48 83 c0 01          	add    $0x1,%rax
ffffffff8100d142:	48 89 05 ef 40 01 00 	mov    %rax,0x140ef(%rip)        # ffffffff81021238 <l_warningCount>
ffffffff8100d149:	b8 00 00 00 00       	mov    $0x0,%eax
ffffffff8100d14e:	eb 6f                	jmp    ffffffff8100d1bf <allocate_new_page+0x128>
ffffffff8100d150:	48 8b 45 f0          	mov    -0x10(%rbp),%rax
ffffffff8100d154:	48 c7 00 00 00 00 00 	movq   $0x0,(%rax)
ffffffff8100d15b:	48 8b 45 f0          	mov    -0x10(%rbp),%rax
ffffffff8100d15f:	48 c7 40 08 00 00 00 	movq   $0x0,0x8(%rax)
ffffffff8100d166:	00 
ffffffff8100d167:	48 8b 45 f0          	mov    -0x10(%rbp),%rax
ffffffff8100d16b:	48 8b 55 f8          	mov    -0x8(%rbp),%rdx
ffffffff8100d16f:	48 89 50 10          	mov    %rdx,0x10(%rax)
ffffffff8100d173:	48 8b 05 9e 1e 00 00 	mov    0x1e9e(%rip),%rax        # ffffffff8100f018 <l_pageSize>
ffffffff8100d17a:	48 0f af 45 f8       	imul   -0x8(%rbp),%rax
ffffffff8100d17f:	48 89 c2             	mov    %rax,%rdx
ffffffff8100d182:	48 8b 45 f0          	mov    -0x10(%rbp),%rax
ffffffff8100d186:	48 89 50 18          	mov    %rdx,0x18(%rax)
ffffffff8100d18a:	48 8b 45 f0          	mov    -0x10(%rbp),%rax
ffffffff8100d18e:	48 c7 40 20 30 00 00 	movq   $0x30,0x20(%rax)
ffffffff8100d195:	00 
ffffffff8100d196:	48 8b 45 f0          	mov    -0x10(%rbp),%rax
ffffffff8100d19a:	48 c7 40 28 00 00 00 	movq   $0x0,0x28(%rax)
ffffffff8100d1a1:	00 
ffffffff8100d1a2:	48 8b 45 f0          	mov    -0x10(%rbp),%rax
ffffffff8100d1a6:	48 8b 50 18          	mov    0x18(%rax),%rdx
ffffffff8100d1aa:	48 8b 05 77 40 01 00 	mov    0x14077(%rip),%rax        # ffffffff81021228 <l_allocated>
ffffffff8100d1b1:	48 01 d0             	add    %rdx,%rax
ffffffff8100d1b4:	48 89 05 6d 40 01 00 	mov    %rax,0x1406d(%rip)        # ffffffff81021228 <l_allocated>
ffffffff8100d1bb:	48 8b 45 f0          	mov    -0x10(%rbp),%rax
ffffffff8100d1bf:	c9                   	leaveq 
ffffffff8100d1c0:	c3                   	retq   

ffffffff8100d1c1 <kmalloc>:
ffffffff8100d1c1:	55                   	push   %rbp
ffffffff8100d1c2:	48 89 e5             	mov    %rsp,%rbp
ffffffff8100d1c5:	48 83 ec 70          	sub    $0x70,%rsp
ffffffff8100d1c9:	48 89 7d 98          	mov    %rdi,-0x68(%rbp)
ffffffff8100d1cd:	c7 45 fc 00 00 00 00 	movl   $0x0,-0x4(%rbp)
ffffffff8100d1d4:	48 c7 45 f0 00 00 00 	movq   $0x0,-0x10(%rbp)
ffffffff8100d1db:	00 
ffffffff8100d1dc:	48 c7 45 e8 00 00 00 	movq   $0x0,-0x18(%rbp)
ffffffff8100d1e3:	00 
ffffffff8100d1e4:	48 8b 45 98          	mov    -0x68(%rbp),%rax
ffffffff8100d1e8:	48 89 45 b0          	mov    %rax,-0x50(%rbp)
ffffffff8100d1ec:	48 83 45 b0 20       	addq   $0x20,-0x50(%rbp)
ffffffff8100d1f1:	b8 00 00 00 00       	mov    $0x0,%eax
ffffffff8100d1f6:	e8 f6 0b 00 00       	callq  ffffffff8100ddf1 <liballoc_lock>
ffffffff8100d1fb:	48 83 7d b0 00       	cmpq   $0x0,-0x50(%rbp)
ffffffff8100d200:	75 2b                	jne    ffffffff8100d22d <kmalloc+0x6c>
ffffffff8100d202:	48 8b 05 2f 40 01 00 	mov    0x1402f(%rip),%rax        # ffffffff81021238 <l_warningCount>
ffffffff8100d209:	48 83 c0 01          	add    $0x1,%rax
ffffffff8100d20d:	48 89 05 24 40 01 00 	mov    %rax,0x14024(%rip)        # ffffffff81021238 <l_warningCount>
ffffffff8100d214:	b8 00 00 00 00       	mov    $0x0,%eax
ffffffff8100d219:	e8 de 0b 00 00       	callq  ffffffff8100ddfc <liballoc_unlock>
ffffffff8100d21e:	bf 01 00 00 00       	mov    $0x1,%edi
ffffffff8100d223:	e8 99 ff ff ff       	callq  ffffffff8100d1c1 <kmalloc>
ffffffff8100d228:	e9 4c 07 00 00       	jmpq   ffffffff8100d979 <kmalloc+0x7b8>
ffffffff8100d22d:	48 8b 05 e4 3f 01 00 	mov    0x13fe4(%rip),%rax        # ffffffff81021218 <l_memRoot>
ffffffff8100d234:	48 85 c0             	test   %rax,%rax
ffffffff8100d237:	75 33                	jne    ffffffff8100d26c <kmalloc+0xab>
ffffffff8100d239:	48 8b 45 b0          	mov    -0x50(%rbp),%rax
ffffffff8100d23d:	48 89 c7             	mov    %rax,%rdi
ffffffff8100d240:	e8 52 fe ff ff       	callq  ffffffff8100d097 <allocate_new_page>
ffffffff8100d245:	48 89 05 cc 3f 01 00 	mov    %rax,0x13fcc(%rip)        # ffffffff81021218 <l_memRoot>
ffffffff8100d24c:	48 8b 05 c5 3f 01 00 	mov    0x13fc5(%rip),%rax        # ffffffff81021218 <l_memRoot>
ffffffff8100d253:	48 85 c0             	test   %rax,%rax
ffffffff8100d256:	75 14                	jne    ffffffff8100d26c <kmalloc+0xab>
ffffffff8100d258:	b8 00 00 00 00       	mov    $0x0,%eax
ffffffff8100d25d:	e8 9a 0b 00 00       	callq  ffffffff8100ddfc <liballoc_unlock>
ffffffff8100d262:	b8 00 00 00 00       	mov    $0x0,%eax
ffffffff8100d267:	e9 0d 07 00 00       	jmpq   ffffffff8100d979 <kmalloc+0x7b8>
ffffffff8100d26c:	48 8b 05 a5 3f 01 00 	mov    0x13fa5(%rip),%rax        # ffffffff81021218 <l_memRoot>
ffffffff8100d273:	48 89 45 e0          	mov    %rax,-0x20(%rbp)
ffffffff8100d277:	c7 45 fc 00 00 00 00 	movl   $0x0,-0x4(%rbp)
ffffffff8100d27e:	48 8b 05 9b 3f 01 00 	mov    0x13f9b(%rip),%rax        # ffffffff81021220 <l_bestBet>
ffffffff8100d285:	48 85 c0             	test   %rax,%rax
ffffffff8100d288:	0f 84 cb 06 00 00    	je     ffffffff8100d959 <kmalloc+0x798>
ffffffff8100d28e:	48 8b 05 8b 3f 01 00 	mov    0x13f8b(%rip),%rax        # ffffffff81021220 <l_bestBet>
ffffffff8100d295:	48 8b 50 18          	mov    0x18(%rax),%rdx
ffffffff8100d299:	48 8b 05 80 3f 01 00 	mov    0x13f80(%rip),%rax        # ffffffff81021220 <l_bestBet>
ffffffff8100d2a0:	48 8b 40 20          	mov    0x20(%rax),%rax
ffffffff8100d2a4:	48 29 c2             	sub    %rax,%rdx
ffffffff8100d2a7:	48 89 d0             	mov    %rdx,%rax
ffffffff8100d2aa:	48 89 45 f0          	mov    %rax,-0x10(%rbp)
ffffffff8100d2ae:	48 8b 45 b0          	mov    -0x50(%rbp),%rax
ffffffff8100d2b2:	48 83 c0 30          	add    $0x30,%rax
ffffffff8100d2b6:	48 39 45 f0          	cmp    %rax,-0x10(%rbp)
ffffffff8100d2ba:	0f 86 99 06 00 00    	jbe    ffffffff8100d959 <kmalloc+0x798>
ffffffff8100d2c0:	48 8b 05 59 3f 01 00 	mov    0x13f59(%rip),%rax        # ffffffff81021220 <l_bestBet>
ffffffff8100d2c7:	48 89 45 e0          	mov    %rax,-0x20(%rbp)
ffffffff8100d2cb:	c7 45 fc 01 00 00 00 	movl   $0x1,-0x4(%rbp)
ffffffff8100d2d2:	e9 82 06 00 00       	jmpq   ffffffff8100d959 <kmalloc+0x798>
ffffffff8100d2d7:	48 8b 45 e0          	mov    -0x20(%rbp),%rax
ffffffff8100d2db:	48 8b 50 18          	mov    0x18(%rax),%rdx
ffffffff8100d2df:	48 8b 45 e0          	mov    -0x20(%rbp),%rax
ffffffff8100d2e3:	48 8b 40 20          	mov    0x20(%rax),%rax
ffffffff8100d2e7:	48 29 c2             	sub    %rax,%rdx
ffffffff8100d2ea:	48 89 d0             	mov    %rdx,%rax
ffffffff8100d2ed:	48 89 45 a8          	mov    %rax,-0x58(%rbp)
ffffffff8100d2f1:	48 8b 45 f0          	mov    -0x10(%rbp),%rax
ffffffff8100d2f5:	48 3b 45 a8          	cmp    -0x58(%rbp),%rax
ffffffff8100d2f9:	73 13                	jae    ffffffff8100d30e <kmalloc+0x14d>
ffffffff8100d2fb:	48 8b 45 e0          	mov    -0x20(%rbp),%rax
ffffffff8100d2ff:	48 89 05 1a 3f 01 00 	mov    %rax,0x13f1a(%rip)        # ffffffff81021220 <l_bestBet>
ffffffff8100d306:	48 8b 45 a8          	mov    -0x58(%rbp),%rax
ffffffff8100d30a:	48 89 45 f0          	mov    %rax,-0x10(%rbp)
ffffffff8100d30e:	48 8b 45 b0          	mov    -0x50(%rbp),%rax
ffffffff8100d312:	48 83 c0 30          	add    $0x30,%rax
ffffffff8100d316:	48 39 45 a8          	cmp    %rax,-0x58(%rbp)
ffffffff8100d31a:	73 7b                	jae    ffffffff8100d397 <kmalloc+0x1d6>
ffffffff8100d31c:	48 8b 45 e0          	mov    -0x20(%rbp),%rax
ffffffff8100d320:	48 8b 40 08          	mov    0x8(%rax),%rax
ffffffff8100d324:	48 85 c0             	test   %rax,%rax
ffffffff8100d327:	74 11                	je     ffffffff8100d33a <kmalloc+0x179>
ffffffff8100d329:	48 8b 45 e0          	mov    -0x20(%rbp),%rax
ffffffff8100d32d:	48 8b 40 08          	mov    0x8(%rax),%rax
ffffffff8100d331:	48 89 45 e0          	mov    %rax,-0x20(%rbp)
ffffffff8100d335:	e9 1f 06 00 00       	jmpq   ffffffff8100d959 <kmalloc+0x798>
ffffffff8100d33a:	83 7d fc 01          	cmpl   $0x1,-0x4(%rbp)
ffffffff8100d33e:	75 17                	jne    ffffffff8100d357 <kmalloc+0x196>
ffffffff8100d340:	48 8b 05 d1 3e 01 00 	mov    0x13ed1(%rip),%rax        # ffffffff81021218 <l_memRoot>
ffffffff8100d347:	48 89 45 e0          	mov    %rax,-0x20(%rbp)
ffffffff8100d34b:	c7 45 fc 00 00 00 00 	movl   $0x0,-0x4(%rbp)
ffffffff8100d352:	e9 02 06 00 00       	jmpq   ffffffff8100d959 <kmalloc+0x798>
ffffffff8100d357:	48 8b 45 b0          	mov    -0x50(%rbp),%rax
ffffffff8100d35b:	48 89 c7             	mov    %rax,%rdi
ffffffff8100d35e:	e8 34 fd ff ff       	callq  ffffffff8100d097 <allocate_new_page>
ffffffff8100d363:	48 8b 55 e0          	mov    -0x20(%rbp),%rdx
ffffffff8100d367:	48 89 42 08          	mov    %rax,0x8(%rdx)
ffffffff8100d36b:	48 8b 45 e0          	mov    -0x20(%rbp),%rax
ffffffff8100d36f:	48 8b 40 08          	mov    0x8(%rax),%rax
ffffffff8100d373:	48 85 c0             	test   %rax,%rax
ffffffff8100d376:	0f 84 ea 05 00 00    	je     ffffffff8100d966 <kmalloc+0x7a5>
ffffffff8100d37c:	48 8b 45 e0          	mov    -0x20(%rbp),%rax
ffffffff8100d380:	48 8b 40 08          	mov    0x8(%rax),%rax
ffffffff8100d384:	48 8b 55 e0          	mov    -0x20(%rbp),%rdx
ffffffff8100d388:	48 89 10             	mov    %rdx,(%rax)
ffffffff8100d38b:	48 8b 45 e0          	mov    -0x20(%rbp),%rax
ffffffff8100d38f:	48 8b 40 08          	mov    0x8(%rax),%rax
ffffffff8100d393:	48 89 45 e0          	mov    %rax,-0x20(%rbp)
ffffffff8100d397:	48 8b 45 e0          	mov    -0x20(%rbp),%rax
ffffffff8100d39b:	48 8b 40 28          	mov    0x28(%rax),%rax
ffffffff8100d39f:	48 85 c0             	test   %rax,%rax
ffffffff8100d3a2:	0f 85 11 01 00 00    	jne    ffffffff8100d4b9 <kmalloc+0x2f8>
ffffffff8100d3a8:	48 8b 45 e0          	mov    -0x20(%rbp),%rax
ffffffff8100d3ac:	48 83 c0 30          	add    $0x30,%rax
ffffffff8100d3b0:	48 89 c2             	mov    %rax,%rdx
ffffffff8100d3b3:	48 8b 45 e0          	mov    -0x20(%rbp),%rax
ffffffff8100d3b7:	48 89 50 28          	mov    %rdx,0x28(%rax)
ffffffff8100d3bb:	48 8b 45 e0          	mov    -0x20(%rbp),%rax
ffffffff8100d3bf:	48 8b 40 28          	mov    0x28(%rax),%rax
ffffffff8100d3c3:	b9 de c0 01 c0       	mov    $0xc001c0de,%ecx
ffffffff8100d3c8:	48 89 48 18          	mov    %rcx,0x18(%rax)
ffffffff8100d3cc:	48 8b 45 e0          	mov    -0x20(%rbp),%rax
ffffffff8100d3d0:	48 8b 40 28          	mov    0x28(%rax),%rax
ffffffff8100d3d4:	48 c7 00 00 00 00 00 	movq   $0x0,(%rax)
ffffffff8100d3db:	48 8b 45 e0          	mov    -0x20(%rbp),%rax
ffffffff8100d3df:	48 8b 40 28          	mov    0x28(%rax),%rax
ffffffff8100d3e3:	48 c7 40 08 00 00 00 	movq   $0x0,0x8(%rax)
ffffffff8100d3ea:	00 
ffffffff8100d3eb:	48 8b 45 e0          	mov    -0x20(%rbp),%rax
ffffffff8100d3ef:	48 8b 40 28          	mov    0x28(%rax),%rax
ffffffff8100d3f3:	48 8b 55 e0          	mov    -0x20(%rbp),%rdx
ffffffff8100d3f7:	48 89 50 10          	mov    %rdx,0x10(%rax)
ffffffff8100d3fb:	48 8b 45 e0          	mov    -0x20(%rbp),%rax
ffffffff8100d3ff:	48 8b 40 28          	mov    0x28(%rax),%rax
ffffffff8100d403:	48 8b 55 b0          	mov    -0x50(%rbp),%rdx
ffffffff8100d407:	48 89 50 20          	mov    %rdx,0x20(%rax)
ffffffff8100d40b:	48 8b 45 e0          	mov    -0x20(%rbp),%rax
ffffffff8100d40f:	48 8b 40 28          	mov    0x28(%rax),%rax
ffffffff8100d413:	48 8b 55 98          	mov    -0x68(%rbp),%rdx
ffffffff8100d417:	48 89 50 28          	mov    %rdx,0x28(%rax)
ffffffff8100d41b:	48 8b 45 e0          	mov    -0x20(%rbp),%rax
ffffffff8100d41f:	48 8b 50 20          	mov    0x20(%rax),%rdx
ffffffff8100d423:	48 8b 45 b0          	mov    -0x50(%rbp),%rax
ffffffff8100d427:	48 01 d0             	add    %rdx,%rax
ffffffff8100d42a:	48 8d 50 30          	lea    0x30(%rax),%rdx
ffffffff8100d42e:	48 8b 45 e0          	mov    -0x20(%rbp),%rax
ffffffff8100d432:	48 89 50 20          	mov    %rdx,0x20(%rax)
ffffffff8100d436:	48 8b 15 f3 3d 01 00 	mov    0x13df3(%rip),%rdx        # ffffffff81021230 <l_inuse>
ffffffff8100d43d:	48 8b 45 b0          	mov    -0x50(%rbp),%rax
ffffffff8100d441:	48 01 d0             	add    %rdx,%rax
ffffffff8100d444:	48 89 05 e5 3d 01 00 	mov    %rax,0x13de5(%rip)        # ffffffff81021230 <l_inuse>
ffffffff8100d44b:	48 8b 45 e0          	mov    -0x20(%rbp),%rax
ffffffff8100d44f:	48 8b 40 28          	mov    0x28(%rax),%rax
ffffffff8100d453:	48 83 c0 30          	add    $0x30,%rax
ffffffff8100d457:	48 89 45 e8          	mov    %rax,-0x18(%rbp)
ffffffff8100d45b:	48 8b 45 e8          	mov    -0x18(%rbp),%rax
ffffffff8100d45f:	48 83 c0 10          	add    $0x10,%rax
ffffffff8100d463:	48 89 45 e8          	mov    %rax,-0x18(%rbp)
ffffffff8100d467:	48 8b 45 e8          	mov    -0x18(%rbp),%rax
ffffffff8100d46b:	83 e0 0f             	and    $0xf,%eax
ffffffff8100d46e:	48 89 45 d0          	mov    %rax,-0x30(%rbp)
ffffffff8100d472:	48 83 7d d0 00       	cmpq   $0x0,-0x30(%rbp)
ffffffff8100d477:	74 1c                	je     ffffffff8100d495 <kmalloc+0x2d4>
ffffffff8100d479:	b8 10 00 00 00       	mov    $0x10,%eax
ffffffff8100d47e:	48 2b 45 d0          	sub    -0x30(%rbp),%rax
ffffffff8100d482:	48 89 45 d0          	mov    %rax,-0x30(%rbp)
ffffffff8100d486:	48 8b 55 e8          	mov    -0x18(%rbp),%rdx
ffffffff8100d48a:	48 8b 45 d0          	mov    -0x30(%rbp),%rax
ffffffff8100d48e:	48 01 d0             	add    %rdx,%rax
ffffffff8100d491:	48 89 45 e8          	mov    %rax,-0x18(%rbp)
ffffffff8100d495:	48 8b 45 d0          	mov    -0x30(%rbp),%rax
ffffffff8100d499:	8d 50 10             	lea    0x10(%rax),%edx
ffffffff8100d49c:	48 8b 45 e8          	mov    -0x18(%rbp),%rax
ffffffff8100d4a0:	48 83 e8 10          	sub    $0x10,%rax
ffffffff8100d4a4:	88 10                	mov    %dl,(%rax)
ffffffff8100d4a6:	b8 00 00 00 00       	mov    $0x0,%eax
ffffffff8100d4ab:	e8 4c 09 00 00       	callq  ffffffff8100ddfc <liballoc_unlock>
ffffffff8100d4b0:	48 8b 45 e8          	mov    -0x18(%rbp),%rax
ffffffff8100d4b4:	e9 c0 04 00 00       	jmpq   ffffffff8100d979 <kmalloc+0x7b8>
ffffffff8100d4b9:	48 8b 45 e0          	mov    -0x20(%rbp),%rax
ffffffff8100d4bd:	48 8b 40 28          	mov    0x28(%rax),%rax
ffffffff8100d4c1:	48 89 45 a8          	mov    %rax,-0x58(%rbp)
ffffffff8100d4c5:	48 8b 45 e0          	mov    -0x20(%rbp),%rax
ffffffff8100d4c9:	48 29 45 a8          	sub    %rax,-0x58(%rbp)
ffffffff8100d4cd:	48 83 6d a8 30       	subq   $0x30,-0x58(%rbp)
ffffffff8100d4d2:	48 8b 45 b0          	mov    -0x50(%rbp),%rax
ffffffff8100d4d6:	48 83 c0 30          	add    $0x30,%rax
ffffffff8100d4da:	48 39 45 a8          	cmp    %rax,-0x58(%rbp)
ffffffff8100d4de:	0f 82 2b 01 00 00    	jb     ffffffff8100d60f <kmalloc+0x44e>
ffffffff8100d4e4:	48 8b 45 e0          	mov    -0x20(%rbp),%rax
ffffffff8100d4e8:	48 8d 50 30          	lea    0x30(%rax),%rdx
ffffffff8100d4ec:	48 8b 45 e0          	mov    -0x20(%rbp),%rax
ffffffff8100d4f0:	48 8b 40 28          	mov    0x28(%rax),%rax
ffffffff8100d4f4:	48 89 10             	mov    %rdx,(%rax)
ffffffff8100d4f7:	48 8b 45 e0          	mov    -0x20(%rbp),%rax
ffffffff8100d4fb:	48 8b 40 28          	mov    0x28(%rax),%rax
ffffffff8100d4ff:	48 8b 00             	mov    (%rax),%rax
ffffffff8100d502:	48 8b 55 e0          	mov    -0x20(%rbp),%rdx
ffffffff8100d506:	48 8b 52 28          	mov    0x28(%rdx),%rdx
ffffffff8100d50a:	48 89 50 08          	mov    %rdx,0x8(%rax)
ffffffff8100d50e:	48 8b 45 e0          	mov    -0x20(%rbp),%rax
ffffffff8100d512:	48 8b 40 28          	mov    0x28(%rax),%rax
ffffffff8100d516:	48 8b 10             	mov    (%rax),%rdx
ffffffff8100d519:	48 8b 45 e0          	mov    -0x20(%rbp),%rax
ffffffff8100d51d:	48 89 50 28          	mov    %rdx,0x28(%rax)
ffffffff8100d521:	48 8b 45 e0          	mov    -0x20(%rbp),%rax
ffffffff8100d525:	48 8b 40 28          	mov    0x28(%rax),%rax
ffffffff8100d529:	be de c0 01 c0       	mov    $0xc001c0de,%esi
ffffffff8100d52e:	48 89 70 18          	mov    %rsi,0x18(%rax)
ffffffff8100d532:	48 8b 45 e0          	mov    -0x20(%rbp),%rax
ffffffff8100d536:	48 8b 40 28          	mov    0x28(%rax),%rax
ffffffff8100d53a:	48 c7 00 00 00 00 00 	movq   $0x0,(%rax)
ffffffff8100d541:	48 8b 45 e0          	mov    -0x20(%rbp),%rax
ffffffff8100d545:	48 8b 40 28          	mov    0x28(%rax),%rax
ffffffff8100d549:	48 8b 55 e0          	mov    -0x20(%rbp),%rdx
ffffffff8100d54d:	48 89 50 10          	mov    %rdx,0x10(%rax)
ffffffff8100d551:	48 8b 45 e0          	mov    -0x20(%rbp),%rax
ffffffff8100d555:	48 8b 40 28          	mov    0x28(%rax),%rax
ffffffff8100d559:	48 8b 55 b0          	mov    -0x50(%rbp),%rdx
ffffffff8100d55d:	48 89 50 20          	mov    %rdx,0x20(%rax)
ffffffff8100d561:	48 8b 45 e0          	mov    -0x20(%rbp),%rax
ffffffff8100d565:	48 8b 40 28          	mov    0x28(%rax),%rax
ffffffff8100d569:	48 8b 55 98          	mov    -0x68(%rbp),%rdx
ffffffff8100d56d:	48 89 50 28          	mov    %rdx,0x28(%rax)
ffffffff8100d571:	48 8b 45 e0          	mov    -0x20(%rbp),%rax
ffffffff8100d575:	48 8b 50 20          	mov    0x20(%rax),%rdx
ffffffff8100d579:	48 8b 45 b0          	mov    -0x50(%rbp),%rax
ffffffff8100d57d:	48 01 d0             	add    %rdx,%rax
ffffffff8100d580:	48 8d 50 30          	lea    0x30(%rax),%rdx
ffffffff8100d584:	48 8b 45 e0          	mov    -0x20(%rbp),%rax
ffffffff8100d588:	48 89 50 20          	mov    %rdx,0x20(%rax)
ffffffff8100d58c:	48 8b 15 9d 3c 01 00 	mov    0x13c9d(%rip),%rdx        # ffffffff81021230 <l_inuse>
ffffffff8100d593:	48 8b 45 b0          	mov    -0x50(%rbp),%rax
ffffffff8100d597:	48 01 d0             	add    %rdx,%rax
ffffffff8100d59a:	48 89 05 8f 3c 01 00 	mov    %rax,0x13c8f(%rip)        # ffffffff81021230 <l_inuse>
ffffffff8100d5a1:	48 8b 45 e0          	mov    -0x20(%rbp),%rax
ffffffff8100d5a5:	48 8b 40 28          	mov    0x28(%rax),%rax
ffffffff8100d5a9:	48 83 c0 30          	add    $0x30,%rax
ffffffff8100d5ad:	48 89 45 e8          	mov    %rax,-0x18(%rbp)
ffffffff8100d5b1:	48 8b 45 e8          	mov    -0x18(%rbp),%rax
ffffffff8100d5b5:	48 83 c0 10          	add    $0x10,%rax
ffffffff8100d5b9:	48 89 45 e8          	mov    %rax,-0x18(%rbp)
ffffffff8100d5bd:	48 8b 45 e8          	mov    -0x18(%rbp),%rax
ffffffff8100d5c1:	83 e0 0f             	and    $0xf,%eax
ffffffff8100d5c4:	48 89 45 c8          	mov    %rax,-0x38(%rbp)
ffffffff8100d5c8:	48 83 7d c8 00       	cmpq   $0x0,-0x38(%rbp)
ffffffff8100d5cd:	74 1c                	je     ffffffff8100d5eb <kmalloc+0x42a>
ffffffff8100d5cf:	b8 10 00 00 00       	mov    $0x10,%eax
ffffffff8100d5d4:	48 2b 45 c8          	sub    -0x38(%rbp),%rax
ffffffff8100d5d8:	48 89 45 c8          	mov    %rax,-0x38(%rbp)
ffffffff8100d5dc:	48 8b 55 e8          	mov    -0x18(%rbp),%rdx
ffffffff8100d5e0:	48 8b 45 c8          	mov    -0x38(%rbp),%rax
ffffffff8100d5e4:	48 01 d0             	add    %rdx,%rax
ffffffff8100d5e7:	48 89 45 e8          	mov    %rax,-0x18(%rbp)
ffffffff8100d5eb:	48 8b 45 c8          	mov    -0x38(%rbp),%rax
ffffffff8100d5ef:	8d 50 10             	lea    0x10(%rax),%edx
ffffffff8100d5f2:	48 8b 45 e8          	mov    -0x18(%rbp),%rax
ffffffff8100d5f6:	48 83 e8 10          	sub    $0x10,%rax
ffffffff8100d5fa:	88 10                	mov    %dl,(%rax)
ffffffff8100d5fc:	b8 00 00 00 00       	mov    $0x0,%eax
ffffffff8100d601:	e8 f6 07 00 00       	callq  ffffffff8100ddfc <liballoc_unlock>
ffffffff8100d606:	48 8b 45 e8          	mov    -0x18(%rbp),%rax
ffffffff8100d60a:	e9 6a 03 00 00       	jmpq   ffffffff8100d979 <kmalloc+0x7b8>
ffffffff8100d60f:	48 8b 45 e0          	mov    -0x20(%rbp),%rax
ffffffff8100d613:	48 8b 40 28          	mov    0x28(%rax),%rax
ffffffff8100d617:	48 89 45 d8          	mov    %rax,-0x28(%rbp)
ffffffff8100d61b:	e9 cb 02 00 00       	jmpq   ffffffff8100d8eb <kmalloc+0x72a>
ffffffff8100d620:	48 8b 45 d8          	mov    -0x28(%rbp),%rax
ffffffff8100d624:	48 8b 40 08          	mov    0x8(%rax),%rax
ffffffff8100d628:	48 85 c0             	test   %rax,%rax
ffffffff8100d62b:	0f 85 4e 01 00 00    	jne    ffffffff8100d77f <kmalloc+0x5be>
ffffffff8100d631:	48 8b 45 e0          	mov    -0x20(%rbp),%rax
ffffffff8100d635:	48 8b 50 18          	mov    0x18(%rax),%rdx
ffffffff8100d639:	48 8b 45 e0          	mov    -0x20(%rbp),%rax
ffffffff8100d63d:	48 01 d0             	add    %rdx,%rax
ffffffff8100d640:	48 89 45 a8          	mov    %rax,-0x58(%rbp)
ffffffff8100d644:	48 8b 45 d8          	mov    -0x28(%rbp),%rax
ffffffff8100d648:	48 29 45 a8          	sub    %rax,-0x58(%rbp)
ffffffff8100d64c:	48 83 6d a8 30       	subq   $0x30,-0x58(%rbp)
ffffffff8100d651:	48 8b 45 d8          	mov    -0x28(%rbp),%rax
ffffffff8100d655:	48 8b 40 20          	mov    0x20(%rax),%rax
ffffffff8100d659:	48 29 45 a8          	sub    %rax,-0x58(%rbp)
ffffffff8100d65d:	48 8b 45 b0          	mov    -0x50(%rbp),%rax
ffffffff8100d661:	48 83 c0 30          	add    $0x30,%rax
ffffffff8100d665:	48 39 45 a8          	cmp    %rax,-0x58(%rbp)
ffffffff8100d669:	0f 82 10 01 00 00    	jb     ffffffff8100d77f <kmalloc+0x5be>
ffffffff8100d66f:	48 8b 45 d8          	mov    -0x28(%rbp),%rax
ffffffff8100d673:	48 8b 50 20          	mov    0x20(%rax),%rdx
ffffffff8100d677:	48 8b 45 d8          	mov    -0x28(%rbp),%rax
ffffffff8100d67b:	48 01 d0             	add    %rdx,%rax
ffffffff8100d67e:	48 83 c0 30          	add    $0x30,%rax
ffffffff8100d682:	48 89 c2             	mov    %rax,%rdx
ffffffff8100d685:	48 8b 45 d8          	mov    -0x28(%rbp),%rax
ffffffff8100d689:	48 89 50 08          	mov    %rdx,0x8(%rax)
ffffffff8100d68d:	48 8b 45 d8          	mov    -0x28(%rbp),%rax
ffffffff8100d691:	48 8b 40 08          	mov    0x8(%rax),%rax
ffffffff8100d695:	48 8b 55 d8          	mov    -0x28(%rbp),%rdx
ffffffff8100d699:	48 89 10             	mov    %rdx,(%rax)
ffffffff8100d69c:	48 8b 45 d8          	mov    -0x28(%rbp),%rax
ffffffff8100d6a0:	48 8b 40 08          	mov    0x8(%rax),%rax
ffffffff8100d6a4:	48 89 45 d8          	mov    %rax,-0x28(%rbp)
ffffffff8100d6a8:	48 8b 45 d8          	mov    -0x28(%rbp),%rax
ffffffff8100d6ac:	48 c7 40 08 00 00 00 	movq   $0x0,0x8(%rax)
ffffffff8100d6b3:	00 
ffffffff8100d6b4:	48 8b 45 d8          	mov    -0x28(%rbp),%rax
ffffffff8100d6b8:	b9 de c0 01 c0       	mov    $0xc001c0de,%ecx
ffffffff8100d6bd:	48 89 48 18          	mov    %rcx,0x18(%rax)
ffffffff8100d6c1:	48 8b 45 d8          	mov    -0x28(%rbp),%rax
ffffffff8100d6c5:	48 8b 55 e0          	mov    -0x20(%rbp),%rdx
ffffffff8100d6c9:	48 89 50 10          	mov    %rdx,0x10(%rax)
ffffffff8100d6cd:	48 8b 45 d8          	mov    -0x28(%rbp),%rax
ffffffff8100d6d1:	48 8b 55 b0          	mov    -0x50(%rbp),%rdx
ffffffff8100d6d5:	48 89 50 20          	mov    %rdx,0x20(%rax)
ffffffff8100d6d9:	48 8b 45 d8          	mov    -0x28(%rbp),%rax
ffffffff8100d6dd:	48 8b 55 98          	mov    -0x68(%rbp),%rdx
ffffffff8100d6e1:	48 89 50 28          	mov    %rdx,0x28(%rax)
ffffffff8100d6e5:	48 8b 45 e0          	mov    -0x20(%rbp),%rax
ffffffff8100d6e9:	48 8b 50 20          	mov    0x20(%rax),%rdx
ffffffff8100d6ed:	48 8b 45 b0          	mov    -0x50(%rbp),%rax
ffffffff8100d6f1:	48 01 d0             	add    %rdx,%rax
ffffffff8100d6f4:	48 8d 50 30          	lea    0x30(%rax),%rdx
ffffffff8100d6f8:	48 8b 45 e0          	mov    -0x20(%rbp),%rax
ffffffff8100d6fc:	48 89 50 20          	mov    %rdx,0x20(%rax)
ffffffff8100d700:	48 8b 15 29 3b 01 00 	mov    0x13b29(%rip),%rdx        # ffffffff81021230 <l_inuse>
ffffffff8100d707:	48 8b 45 b0          	mov    -0x50(%rbp),%rax
ffffffff8100d70b:	48 01 d0             	add    %rdx,%rax
ffffffff8100d70e:	48 89 05 1b 3b 01 00 	mov    %rax,0x13b1b(%rip)        # ffffffff81021230 <l_inuse>
ffffffff8100d715:	48 8b 45 d8          	mov    -0x28(%rbp),%rax
ffffffff8100d719:	48 83 c0 30          	add    $0x30,%rax
ffffffff8100d71d:	48 89 45 e8          	mov    %rax,-0x18(%rbp)
ffffffff8100d721:	48 8b 45 e8          	mov    -0x18(%rbp),%rax
ffffffff8100d725:	48 83 c0 10          	add    $0x10,%rax
ffffffff8100d729:	48 89 45 e8          	mov    %rax,-0x18(%rbp)
ffffffff8100d72d:	48 8b 45 e8          	mov    -0x18(%rbp),%rax
ffffffff8100d731:	83 e0 0f             	and    $0xf,%eax
ffffffff8100d734:	48 89 45 c0          	mov    %rax,-0x40(%rbp)
ffffffff8100d738:	48 83 7d c0 00       	cmpq   $0x0,-0x40(%rbp)
ffffffff8100d73d:	74 1c                	je     ffffffff8100d75b <kmalloc+0x59a>
ffffffff8100d73f:	b8 10 00 00 00       	mov    $0x10,%eax
ffffffff8100d744:	48 2b 45 c0          	sub    -0x40(%rbp),%rax
ffffffff8100d748:	48 89 45 c0          	mov    %rax,-0x40(%rbp)
ffffffff8100d74c:	48 8b 55 e8          	mov    -0x18(%rbp),%rdx
ffffffff8100d750:	48 8b 45 c0          	mov    -0x40(%rbp),%rax
ffffffff8100d754:	48 01 d0             	add    %rdx,%rax
ffffffff8100d757:	48 89 45 e8          	mov    %rax,-0x18(%rbp)
ffffffff8100d75b:	48 8b 45 c0          	mov    -0x40(%rbp),%rax
ffffffff8100d75f:	8d 50 10             	lea    0x10(%rax),%edx
ffffffff8100d762:	48 8b 45 e8          	mov    -0x18(%rbp),%rax
ffffffff8100d766:	48 83 e8 10          	sub    $0x10,%rax
ffffffff8100d76a:	88 10                	mov    %dl,(%rax)
ffffffff8100d76c:	b8 00 00 00 00       	mov    $0x0,%eax
ffffffff8100d771:	e8 86 06 00 00       	callq  ffffffff8100ddfc <liballoc_unlock>
ffffffff8100d776:	48 8b 45 e8          	mov    -0x18(%rbp),%rax
ffffffff8100d77a:	e9 fa 01 00 00       	jmpq   ffffffff8100d979 <kmalloc+0x7b8>
ffffffff8100d77f:	48 8b 45 d8          	mov    -0x28(%rbp),%rax
ffffffff8100d783:	48 8b 40 08          	mov    0x8(%rax),%rax
ffffffff8100d787:	48 85 c0             	test   %rax,%rax
ffffffff8100d78a:	0f 84 4f 01 00 00    	je     ffffffff8100d8df <kmalloc+0x71e>
ffffffff8100d790:	48 8b 45 d8          	mov    -0x28(%rbp),%rax
ffffffff8100d794:	48 8b 40 08          	mov    0x8(%rax),%rax
ffffffff8100d798:	48 89 45 a8          	mov    %rax,-0x58(%rbp)
ffffffff8100d79c:	48 8b 45 d8          	mov    -0x28(%rbp),%rax
ffffffff8100d7a0:	48 29 45 a8          	sub    %rax,-0x58(%rbp)
ffffffff8100d7a4:	48 83 6d a8 30       	subq   $0x30,-0x58(%rbp)
ffffffff8100d7a9:	48 8b 45 d8          	mov    -0x28(%rbp),%rax
ffffffff8100d7ad:	48 8b 40 20          	mov    0x20(%rax),%rax
ffffffff8100d7b1:	48 29 45 a8          	sub    %rax,-0x58(%rbp)
ffffffff8100d7b5:	48 8b 45 b0          	mov    -0x50(%rbp),%rax
ffffffff8100d7b9:	48 83 c0 30          	add    $0x30,%rax
ffffffff8100d7bd:	48 39 45 a8          	cmp    %rax,-0x58(%rbp)
ffffffff8100d7c1:	0f 82 18 01 00 00    	jb     ffffffff8100d8df <kmalloc+0x71e>
ffffffff8100d7c7:	48 8b 45 d8          	mov    -0x28(%rbp),%rax
ffffffff8100d7cb:	48 8b 50 20          	mov    0x20(%rax),%rdx
ffffffff8100d7cf:	48 8b 45 d8          	mov    -0x28(%rbp),%rax
ffffffff8100d7d3:	48 01 d0             	add    %rdx,%rax
ffffffff8100d7d6:	48 83 c0 30          	add    $0x30,%rax
ffffffff8100d7da:	48 89 45 a0          	mov    %rax,-0x60(%rbp)
ffffffff8100d7de:	48 8b 45 a0          	mov    -0x60(%rbp),%rax
ffffffff8100d7e2:	be de c0 01 c0       	mov    $0xc001c0de,%esi
ffffffff8100d7e7:	48 89 70 18          	mov    %rsi,0x18(%rax)
ffffffff8100d7eb:	48 8b 45 d8          	mov    -0x28(%rbp),%rax
ffffffff8100d7ef:	48 8b 50 08          	mov    0x8(%rax),%rdx
ffffffff8100d7f3:	48 8b 45 a0          	mov    -0x60(%rbp),%rax
ffffffff8100d7f7:	48 89 50 08          	mov    %rdx,0x8(%rax)
ffffffff8100d7fb:	48 8b 45 a0          	mov    -0x60(%rbp),%rax
ffffffff8100d7ff:	48 8b 55 d8          	mov    -0x28(%rbp),%rdx
ffffffff8100d803:	48 89 10             	mov    %rdx,(%rax)
ffffffff8100d806:	48 8b 45 a0          	mov    -0x60(%rbp),%rax
ffffffff8100d80a:	48 8b 55 b0          	mov    -0x50(%rbp),%rdx
ffffffff8100d80e:	48 89 50 20          	mov    %rdx,0x20(%rax)
ffffffff8100d812:	48 8b 45 a0          	mov    -0x60(%rbp),%rax
ffffffff8100d816:	48 8b 55 98          	mov    -0x68(%rbp),%rdx
ffffffff8100d81a:	48 89 50 28          	mov    %rdx,0x28(%rax)
ffffffff8100d81e:	48 8b 45 a0          	mov    -0x60(%rbp),%rax
ffffffff8100d822:	48 8b 55 e0          	mov    -0x20(%rbp),%rdx
ffffffff8100d826:	48 89 50 10          	mov    %rdx,0x10(%rax)
ffffffff8100d82a:	48 8b 45 d8          	mov    -0x28(%rbp),%rax
ffffffff8100d82e:	48 8b 40 08          	mov    0x8(%rax),%rax
ffffffff8100d832:	48 8b 55 a0          	mov    -0x60(%rbp),%rdx
ffffffff8100d836:	48 89 10             	mov    %rdx,(%rax)
ffffffff8100d839:	48 8b 45 d8          	mov    -0x28(%rbp),%rax
ffffffff8100d83d:	48 8b 55 a0          	mov    -0x60(%rbp),%rdx
ffffffff8100d841:	48 89 50 08          	mov    %rdx,0x8(%rax)
ffffffff8100d845:	48 8b 45 e0          	mov    -0x20(%rbp),%rax
ffffffff8100d849:	48 8b 50 20          	mov    0x20(%rax),%rdx
ffffffff8100d84d:	48 8b 45 b0          	mov    -0x50(%rbp),%rax
ffffffff8100d851:	48 01 d0             	add    %rdx,%rax
ffffffff8100d854:	48 8d 50 30          	lea    0x30(%rax),%rdx
ffffffff8100d858:	48 8b 45 e0          	mov    -0x20(%rbp),%rax
ffffffff8100d85c:	48 89 50 20          	mov    %rdx,0x20(%rax)
ffffffff8100d860:	48 8b 15 c9 39 01 00 	mov    0x139c9(%rip),%rdx        # ffffffff81021230 <l_inuse>
ffffffff8100d867:	48 8b 45 b0          	mov    -0x50(%rbp),%rax
ffffffff8100d86b:	48 01 d0             	add    %rdx,%rax
ffffffff8100d86e:	48 89 05 bb 39 01 00 	mov    %rax,0x139bb(%rip)        # ffffffff81021230 <l_inuse>
ffffffff8100d875:	48 8b 45 a0          	mov    -0x60(%rbp),%rax
ffffffff8100d879:	48 83 c0 30          	add    $0x30,%rax
ffffffff8100d87d:	48 89 45 e8          	mov    %rax,-0x18(%rbp)
ffffffff8100d881:	48 8b 45 e8          	mov    -0x18(%rbp),%rax
ffffffff8100d885:	48 83 c0 10          	add    $0x10,%rax
ffffffff8100d889:	48 89 45 e8          	mov    %rax,-0x18(%rbp)
ffffffff8100d88d:	48 8b 45 e8          	mov    -0x18(%rbp),%rax
ffffffff8100d891:	83 e0 0f             	and    $0xf,%eax
ffffffff8100d894:	48 89 45 b8          	mov    %rax,-0x48(%rbp)
ffffffff8100d898:	48 83 7d b8 00       	cmpq   $0x0,-0x48(%rbp)
ffffffff8100d89d:	74 1c                	je     ffffffff8100d8bb <kmalloc+0x6fa>
ffffffff8100d89f:	b8 10 00 00 00       	mov    $0x10,%eax
ffffffff8100d8a4:	48 2b 45 b8          	sub    -0x48(%rbp),%rax
ffffffff8100d8a8:	48 89 45 b8          	mov    %rax,-0x48(%rbp)
ffffffff8100d8ac:	48 8b 55 e8          	mov    -0x18(%rbp),%rdx
ffffffff8100d8b0:	48 8b 45 b8          	mov    -0x48(%rbp),%rax
ffffffff8100d8b4:	48 01 d0             	add    %rdx,%rax
ffffffff8100d8b7:	48 89 45 e8          	mov    %rax,-0x18(%rbp)
ffffffff8100d8bb:	48 8b 45 b8          	mov    -0x48(%rbp),%rax
ffffffff8100d8bf:	8d 50 10             	lea    0x10(%rax),%edx
ffffffff8100d8c2:	48 8b 45 e8          	mov    -0x18(%rbp),%rax
ffffffff8100d8c6:	48 83 e8 10          	sub    $0x10,%rax
ffffffff8100d8ca:	88 10                	mov    %dl,(%rax)
ffffffff8100d8cc:	b8 00 00 00 00       	mov    $0x0,%eax
ffffffff8100d8d1:	e8 26 05 00 00       	callq  ffffffff8100ddfc <liballoc_unlock>
ffffffff8100d8d6:	48 8b 45 e8          	mov    -0x18(%rbp),%rax
ffffffff8100d8da:	e9 9a 00 00 00       	jmpq   ffffffff8100d979 <kmalloc+0x7b8>
ffffffff8100d8df:	48 8b 45 d8          	mov    -0x28(%rbp),%rax
ffffffff8100d8e3:	48 8b 40 08          	mov    0x8(%rax),%rax
ffffffff8100d8e7:	48 89 45 d8          	mov    %rax,-0x28(%rbp)
ffffffff8100d8eb:	48 83 7d d8 00       	cmpq   $0x0,-0x28(%rbp)
ffffffff8100d8f0:	0f 85 2a fd ff ff    	jne    ffffffff8100d620 <kmalloc+0x45f>
ffffffff8100d8f6:	48 8b 45 e0          	mov    -0x20(%rbp),%rax
ffffffff8100d8fa:	48 8b 40 08          	mov    0x8(%rax),%rax
ffffffff8100d8fe:	48 85 c0             	test   %rax,%rax
ffffffff8100d901:	75 4a                	jne    ffffffff8100d94d <kmalloc+0x78c>
ffffffff8100d903:	83 7d fc 01          	cmpl   $0x1,-0x4(%rbp)
ffffffff8100d907:	75 14                	jne    ffffffff8100d91d <kmalloc+0x75c>
ffffffff8100d909:	48 8b 05 08 39 01 00 	mov    0x13908(%rip),%rax        # ffffffff81021218 <l_memRoot>
ffffffff8100d910:	48 89 45 e0          	mov    %rax,-0x20(%rbp)
ffffffff8100d914:	c7 45 fc 00 00 00 00 	movl   $0x0,-0x4(%rbp)
ffffffff8100d91b:	eb 3c                	jmp    ffffffff8100d959 <kmalloc+0x798>
ffffffff8100d91d:	48 8b 45 b0          	mov    -0x50(%rbp),%rax
ffffffff8100d921:	48 89 c7             	mov    %rax,%rdi
ffffffff8100d924:	e8 6e f7 ff ff       	callq  ffffffff8100d097 <allocate_new_page>
ffffffff8100d929:	48 8b 55 e0          	mov    -0x20(%rbp),%rdx
ffffffff8100d92d:	48 89 42 08          	mov    %rax,0x8(%rdx)
ffffffff8100d931:	48 8b 45 e0          	mov    -0x20(%rbp),%rax
ffffffff8100d935:	48 8b 40 08          	mov    0x8(%rax),%rax
ffffffff8100d939:	48 85 c0             	test   %rax,%rax
ffffffff8100d93c:	74 2b                	je     ffffffff8100d969 <kmalloc+0x7a8>
ffffffff8100d93e:	48 8b 45 e0          	mov    -0x20(%rbp),%rax
ffffffff8100d942:	48 8b 40 08          	mov    0x8(%rax),%rax
ffffffff8100d946:	48 8b 55 e0          	mov    -0x20(%rbp),%rdx
ffffffff8100d94a:	48 89 10             	mov    %rdx,(%rax)
ffffffff8100d94d:	48 8b 45 e0          	mov    -0x20(%rbp),%rax
ffffffff8100d951:	48 8b 40 08          	mov    0x8(%rax),%rax
ffffffff8100d955:	48 89 45 e0          	mov    %rax,-0x20(%rbp)
ffffffff8100d959:	48 83 7d e0 00       	cmpq   $0x0,-0x20(%rbp)
ffffffff8100d95e:	0f 85 73 f9 ff ff    	jne    ffffffff8100d2d7 <kmalloc+0x116>
ffffffff8100d964:	eb 04                	jmp    ffffffff8100d96a <kmalloc+0x7a9>
ffffffff8100d966:	90                   	nop
ffffffff8100d967:	eb 01                	jmp    ffffffff8100d96a <kmalloc+0x7a9>
ffffffff8100d969:	90                   	nop
ffffffff8100d96a:	b8 00 00 00 00       	mov    $0x0,%eax
ffffffff8100d96f:	e8 88 04 00 00       	callq  ffffffff8100ddfc <liballoc_unlock>
ffffffff8100d974:	b8 00 00 00 00       	mov    $0x0,%eax
ffffffff8100d979:	c9                   	leaveq 
ffffffff8100d97a:	c3                   	retq   

ffffffff8100d97b <kfree>:
ffffffff8100d97b:	55                   	push   %rbp
ffffffff8100d97c:	48 89 e5             	mov    %rsp,%rbp
ffffffff8100d97f:	48 83 ec 40          	sub    $0x40,%rsp
ffffffff8100d983:	48 89 7d c8          	mov    %rdi,-0x38(%rbp)
ffffffff8100d987:	48 83 7d c8 00       	cmpq   $0x0,-0x38(%rbp)
ffffffff8100d98c:	75 12                	jne    ffffffff8100d9a0 <kfree+0x25>
ffffffff8100d98e:	48 8b 05 a3 38 01 00 	mov    0x138a3(%rip),%rax        # ffffffff81021238 <l_warningCount>
ffffffff8100d995:	48 83 c0 01          	add    $0x1,%rax
ffffffff8100d999:	48 89 05 98 38 01 00 	mov    %rax,0x13898(%rip)        # ffffffff81021238 <l_warningCount>
ffffffff8100d9a0:	48 8b 45 c8          	mov    -0x38(%rbp),%rax
ffffffff8100d9a4:	48 83 e8 10          	sub    $0x10,%rax
ffffffff8100d9a8:	0f b6 00             	movzbl (%rax),%eax
ffffffff8100d9ab:	48 0f be c0          	movsbq %al,%rax
ffffffff8100d9af:	48 89 45 f8          	mov    %rax,-0x8(%rbp)
ffffffff8100d9b3:	48 83 7d f8 1f       	cmpq   $0x1f,-0x8(%rbp)
ffffffff8100d9b8:	77 0c                	ja     ffffffff8100d9c6 <kfree+0x4b>
ffffffff8100d9ba:	48 8b 45 c8          	mov    -0x38(%rbp),%rax
ffffffff8100d9be:	48 2b 45 f8          	sub    -0x8(%rbp),%rax
ffffffff8100d9c2:	48 89 45 c8          	mov    %rax,-0x38(%rbp)
ffffffff8100d9c6:	b8 00 00 00 00       	mov    $0x0,%eax
ffffffff8100d9cb:	e8 21 04 00 00       	callq  ffffffff8100ddf1 <liballoc_lock>
ffffffff8100d9d0:	48 8b 45 c8          	mov    -0x38(%rbp),%rax
ffffffff8100d9d4:	48 83 e8 30          	sub    $0x30,%rax
ffffffff8100d9d8:	48 89 45 f0          	mov    %rax,-0x10(%rbp)
ffffffff8100d9dc:	48 8b 45 f0          	mov    -0x10(%rbp),%rax
ffffffff8100d9e0:	48 8b 40 18          	mov    0x18(%rax),%rax
ffffffff8100d9e4:	ba de c0 01 c0       	mov    $0xc001c0de,%edx
ffffffff8100d9e9:	48 39 d0             	cmp    %rdx,%rax
ffffffff8100d9ec:	74 68                	je     ffffffff8100da56 <kfree+0xdb>
ffffffff8100d9ee:	48 8b 05 4b 38 01 00 	mov    0x1384b(%rip),%rax        # ffffffff81021240 <l_errorCount>
ffffffff8100d9f5:	48 83 c0 01          	add    $0x1,%rax
ffffffff8100d9f9:	48 89 05 40 38 01 00 	mov    %rax,0x13840(%rip)        # ffffffff81021240 <l_errorCount>
ffffffff8100da00:	48 8b 45 f0          	mov    -0x10(%rbp),%rax
ffffffff8100da04:	48 8b 40 18          	mov    0x18(%rax),%rax
ffffffff8100da08:	25 ff ff ff 00       	and    $0xffffff,%eax
ffffffff8100da0d:	48 3d de c0 01 00    	cmp    $0x1c0de,%rax
ffffffff8100da13:	74 2a                	je     ffffffff8100da3f <kfree+0xc4>
ffffffff8100da15:	48 8b 45 f0          	mov    -0x10(%rbp),%rax
ffffffff8100da19:	48 8b 40 18          	mov    0x18(%rax),%rax
ffffffff8100da1d:	0f b7 c0             	movzwl %ax,%eax
ffffffff8100da20:	48 3d de c0 00 00    	cmp    $0xc0de,%rax
ffffffff8100da26:	74 17                	je     ffffffff8100da3f <kfree+0xc4>
ffffffff8100da28:	48 8b 45 f0          	mov    -0x10(%rbp),%rax
ffffffff8100da2c:	48 8b 40 18          	mov    0x18(%rax),%rax
ffffffff8100da30:	0f b6 c0             	movzbl %al,%eax
ffffffff8100da33:	48 3d de 00 00 00    	cmp    $0xde,%rax
ffffffff8100da39:	0f 85 e7 01 00 00    	jne    ffffffff8100dc26 <kfree+0x2ab>
ffffffff8100da3f:	48 8b 05 02 38 01 00 	mov    0x13802(%rip),%rax        # ffffffff81021248 <l_possibleOverruns>
ffffffff8100da46:	48 83 c0 01          	add    $0x1,%rax
ffffffff8100da4a:	48 89 05 f7 37 01 00 	mov    %rax,0x137f7(%rip)        # ffffffff81021248 <l_possibleOverruns>
ffffffff8100da51:	e9 d0 01 00 00       	jmpq   ffffffff8100dc26 <kfree+0x2ab>
ffffffff8100da56:	48 8b 45 f0          	mov    -0x10(%rbp),%rax
ffffffff8100da5a:	48 8b 40 10          	mov    0x10(%rax),%rax
ffffffff8100da5e:	48 89 45 e8          	mov    %rax,-0x18(%rbp)
ffffffff8100da62:	48 8b 15 c7 37 01 00 	mov    0x137c7(%rip),%rdx        # ffffffff81021230 <l_inuse>
ffffffff8100da69:	48 8b 45 f0          	mov    -0x10(%rbp),%rax
ffffffff8100da6d:	48 8b 40 20          	mov    0x20(%rax),%rax
ffffffff8100da71:	48 29 c2             	sub    %rax,%rdx
ffffffff8100da74:	48 89 d0             	mov    %rdx,%rax
ffffffff8100da77:	48 89 05 b2 37 01 00 	mov    %rax,0x137b2(%rip)        # ffffffff81021230 <l_inuse>
ffffffff8100da7e:	48 8b 45 e8          	mov    -0x18(%rbp),%rax
ffffffff8100da82:	48 8b 50 20          	mov    0x20(%rax),%rdx
ffffffff8100da86:	48 8b 45 f0          	mov    -0x10(%rbp),%rax
ffffffff8100da8a:	48 8b 40 20          	mov    0x20(%rax),%rax
ffffffff8100da8e:	48 29 c2             	sub    %rax,%rdx
ffffffff8100da91:	48 89 d0             	mov    %rdx,%rax
ffffffff8100da94:	48 8d 50 d0          	lea    -0x30(%rax),%rdx
ffffffff8100da98:	48 8b 45 e8          	mov    -0x18(%rbp),%rax
ffffffff8100da9c:	48 89 50 20          	mov    %rdx,0x20(%rax)
ffffffff8100daa0:	48 8b 45 f0          	mov    -0x10(%rbp),%rax
ffffffff8100daa4:	b9 ad de ad de       	mov    $0xdeaddead,%ecx
ffffffff8100daa9:	48 89 48 18          	mov    %rcx,0x18(%rax)
ffffffff8100daad:	48 8b 45 f0          	mov    -0x10(%rbp),%rax
ffffffff8100dab1:	48 8b 40 08          	mov    0x8(%rax),%rax
ffffffff8100dab5:	48 85 c0             	test   %rax,%rax
ffffffff8100dab8:	74 12                	je     ffffffff8100dacc <kfree+0x151>
ffffffff8100daba:	48 8b 45 f0          	mov    -0x10(%rbp),%rax
ffffffff8100dabe:	48 8b 40 08          	mov    0x8(%rax),%rax
ffffffff8100dac2:	48 8b 55 f0          	mov    -0x10(%rbp),%rdx
ffffffff8100dac6:	48 8b 12             	mov    (%rdx),%rdx
ffffffff8100dac9:	48 89 10             	mov    %rdx,(%rax)
ffffffff8100dacc:	48 8b 45 f0          	mov    -0x10(%rbp),%rax
ffffffff8100dad0:	48 8b 00             	mov    (%rax),%rax
ffffffff8100dad3:	48 85 c0             	test   %rax,%rax
ffffffff8100dad6:	74 13                	je     ffffffff8100daeb <kfree+0x170>
ffffffff8100dad8:	48 8b 45 f0          	mov    -0x10(%rbp),%rax
ffffffff8100dadc:	48 8b 00             	mov    (%rax),%rax
ffffffff8100dadf:	48 8b 55 f0          	mov    -0x10(%rbp),%rdx
ffffffff8100dae3:	48 8b 52 08          	mov    0x8(%rdx),%rdx
ffffffff8100dae7:	48 89 50 08          	mov    %rdx,0x8(%rax)
ffffffff8100daeb:	48 8b 45 f0          	mov    -0x10(%rbp),%rax
ffffffff8100daef:	48 8b 00             	mov    (%rax),%rax
ffffffff8100daf2:	48 85 c0             	test   %rax,%rax
ffffffff8100daf5:	75 10                	jne    ffffffff8100db07 <kfree+0x18c>
ffffffff8100daf7:	48 8b 45 f0          	mov    -0x10(%rbp),%rax
ffffffff8100dafb:	48 8b 50 08          	mov    0x8(%rax),%rdx
ffffffff8100daff:	48 8b 45 e8          	mov    -0x18(%rbp),%rax
ffffffff8100db03:	48 89 50 28          	mov    %rdx,0x28(%rax)
ffffffff8100db07:	48 8b 45 e8          	mov    -0x18(%rbp),%rax
ffffffff8100db0b:	48 8b 40 28          	mov    0x28(%rax),%rax
ffffffff8100db0f:	48 85 c0             	test   %rax,%rax
ffffffff8100db12:	0f 85 a7 00 00 00    	jne    ffffffff8100dbbf <kfree+0x244>
ffffffff8100db18:	48 8b 05 f9 36 01 00 	mov    0x136f9(%rip),%rax        # ffffffff81021218 <l_memRoot>
ffffffff8100db1f:	48 39 45 e8          	cmp    %rax,-0x18(%rbp)
ffffffff8100db23:	75 0f                	jne    ffffffff8100db34 <kfree+0x1b9>
ffffffff8100db25:	48 8b 45 e8          	mov    -0x18(%rbp),%rax
ffffffff8100db29:	48 8b 40 08          	mov    0x8(%rax),%rax
ffffffff8100db2d:	48 89 05 e4 36 01 00 	mov    %rax,0x136e4(%rip)        # ffffffff81021218 <l_memRoot>
ffffffff8100db34:	48 8b 05 e5 36 01 00 	mov    0x136e5(%rip),%rax        # ffffffff81021220 <l_bestBet>
ffffffff8100db3b:	48 39 45 e8          	cmp    %rax,-0x18(%rbp)
ffffffff8100db3f:	75 0b                	jne    ffffffff8100db4c <kfree+0x1d1>
ffffffff8100db41:	48 c7 05 d4 36 01 00 	movq   $0x0,0x136d4(%rip)        # ffffffff81021220 <l_bestBet>
ffffffff8100db48:	00 00 00 00 
ffffffff8100db4c:	48 8b 45 e8          	mov    -0x18(%rbp),%rax
ffffffff8100db50:	48 8b 00             	mov    (%rax),%rax
ffffffff8100db53:	48 85 c0             	test   %rax,%rax
ffffffff8100db56:	74 13                	je     ffffffff8100db6b <kfree+0x1f0>
ffffffff8100db58:	48 8b 45 e8          	mov    -0x18(%rbp),%rax
ffffffff8100db5c:	48 8b 00             	mov    (%rax),%rax
ffffffff8100db5f:	48 8b 55 e8          	mov    -0x18(%rbp),%rdx
ffffffff8100db63:	48 8b 52 08          	mov    0x8(%rdx),%rdx
ffffffff8100db67:	48 89 50 08          	mov    %rdx,0x8(%rax)
ffffffff8100db6b:	48 8b 45 e8          	mov    -0x18(%rbp),%rax
ffffffff8100db6f:	48 8b 40 08          	mov    0x8(%rax),%rax
ffffffff8100db73:	48 85 c0             	test   %rax,%rax
ffffffff8100db76:	74 12                	je     ffffffff8100db8a <kfree+0x20f>
ffffffff8100db78:	48 8b 45 e8          	mov    -0x18(%rbp),%rax
ffffffff8100db7c:	48 8b 40 08          	mov    0x8(%rax),%rax
ffffffff8100db80:	48 8b 55 e8          	mov    -0x18(%rbp),%rdx
ffffffff8100db84:	48 8b 12             	mov    (%rdx),%rdx
ffffffff8100db87:	48 89 10             	mov    %rdx,(%rax)
ffffffff8100db8a:	48 8b 15 97 36 01 00 	mov    0x13697(%rip),%rdx        # ffffffff81021228 <l_allocated>
ffffffff8100db91:	48 8b 45 e8          	mov    -0x18(%rbp),%rax
ffffffff8100db95:	48 8b 40 18          	mov    0x18(%rax),%rax
ffffffff8100db99:	48 29 c2             	sub    %rax,%rdx
ffffffff8100db9c:	48 89 d0             	mov    %rdx,%rax
ffffffff8100db9f:	48 89 05 82 36 01 00 	mov    %rax,0x13682(%rip)        # ffffffff81021228 <l_allocated>
ffffffff8100dba6:	48 8b 45 e8          	mov    -0x18(%rbp),%rax
ffffffff8100dbaa:	48 8b 50 10          	mov    0x10(%rax),%rdx
ffffffff8100dbae:	48 8b 45 e8          	mov    -0x18(%rbp),%rax
ffffffff8100dbb2:	48 89 d6             	mov    %rdx,%rsi
ffffffff8100dbb5:	48 89 c7             	mov    %rax,%rdi
ffffffff8100dbb8:	e8 92 02 00 00       	callq  ffffffff8100de4f <liballoc_free>
ffffffff8100dbbd:	eb 68                	jmp    ffffffff8100dc27 <kfree+0x2ac>
ffffffff8100dbbf:	48 8b 05 5a 36 01 00 	mov    0x1365a(%rip),%rax        # ffffffff81021220 <l_bestBet>
ffffffff8100dbc6:	48 85 c0             	test   %rax,%rax
ffffffff8100dbc9:	74 4f                	je     ffffffff8100dc1a <kfree+0x29f>
ffffffff8100dbcb:	48 8b 05 4e 36 01 00 	mov    0x1364e(%rip),%rax        # ffffffff81021220 <l_bestBet>
ffffffff8100dbd2:	48 8b 50 18          	mov    0x18(%rax),%rdx
ffffffff8100dbd6:	48 8b 05 43 36 01 00 	mov    0x13643(%rip),%rax        # ffffffff81021220 <l_bestBet>
ffffffff8100dbdd:	48 8b 40 20          	mov    0x20(%rax),%rax
ffffffff8100dbe1:	48 29 c2             	sub    %rax,%rdx
ffffffff8100dbe4:	48 89 d0             	mov    %rdx,%rax
ffffffff8100dbe7:	48 89 45 e0          	mov    %rax,-0x20(%rbp)
ffffffff8100dbeb:	48 8b 45 e8          	mov    -0x18(%rbp),%rax
ffffffff8100dbef:	48 8b 50 18          	mov    0x18(%rax),%rdx
ffffffff8100dbf3:	48 8b 45 e8          	mov    -0x18(%rbp),%rax
ffffffff8100dbf7:	48 8b 40 20          	mov    0x20(%rax),%rax
ffffffff8100dbfb:	48 29 c2             	sub    %rax,%rdx
ffffffff8100dbfe:	48 89 d0             	mov    %rdx,%rax
ffffffff8100dc01:	48 89 45 d8          	mov    %rax,-0x28(%rbp)
ffffffff8100dc05:	48 8b 45 d8          	mov    -0x28(%rbp),%rax
ffffffff8100dc09:	48 3b 45 e0          	cmp    -0x20(%rbp),%rax
ffffffff8100dc0d:	76 0b                	jbe    ffffffff8100dc1a <kfree+0x29f>
ffffffff8100dc0f:	48 8b 45 e8          	mov    -0x18(%rbp),%rax
ffffffff8100dc13:	48 89 05 06 36 01 00 	mov    %rax,0x13606(%rip)        # ffffffff81021220 <l_bestBet>
ffffffff8100dc1a:	b8 00 00 00 00       	mov    $0x0,%eax
ffffffff8100dc1f:	e8 d8 01 00 00       	callq  ffffffff8100ddfc <liballoc_unlock>
ffffffff8100dc24:	eb 01                	jmp    ffffffff8100dc27 <kfree+0x2ac>
ffffffff8100dc26:	90                   	nop
ffffffff8100dc27:	c9                   	leaveq 
ffffffff8100dc28:	c3                   	retq   

ffffffff8100dc29 <kcalloc>:
ffffffff8100dc29:	55                   	push   %rbp
ffffffff8100dc2a:	48 89 e5             	mov    %rsp,%rbp
ffffffff8100dc2d:	48 83 ec 20          	sub    $0x20,%rsp
ffffffff8100dc31:	48 89 7d e8          	mov    %rdi,-0x18(%rbp)
ffffffff8100dc35:	48 89 75 e0          	mov    %rsi,-0x20(%rbp)
ffffffff8100dc39:	48 8b 45 e8          	mov    -0x18(%rbp),%rax
ffffffff8100dc3d:	48 0f af 45 e0       	imul   -0x20(%rbp),%rax
ffffffff8100dc42:	48 89 45 f8          	mov    %rax,-0x8(%rbp)
ffffffff8100dc46:	48 8b 45 f8          	mov    -0x8(%rbp),%rax
ffffffff8100dc4a:	48 89 c7             	mov    %rax,%rdi
ffffffff8100dc4d:	e8 6f f5 ff ff       	callq  ffffffff8100d1c1 <kmalloc>
ffffffff8100dc52:	48 89 45 f0          	mov    %rax,-0x10(%rbp)
ffffffff8100dc56:	48 8b 55 f8          	mov    -0x8(%rbp),%rdx
ffffffff8100dc5a:	48 8b 45 f0          	mov    -0x10(%rbp),%rax
ffffffff8100dc5e:	be 00 00 00 00       	mov    $0x0,%esi
ffffffff8100dc63:	48 89 c7             	mov    %rax,%rdi
ffffffff8100dc66:	e8 5f f3 ff ff       	callq  ffffffff8100cfca <liballoc_memset>
ffffffff8100dc6b:	48 8b 45 f0          	mov    -0x10(%rbp),%rax
ffffffff8100dc6f:	c9                   	leaveq 
ffffffff8100dc70:	c3                   	retq   

ffffffff8100dc71 <krealloc>:
ffffffff8100dc71:	55                   	push   %rbp
ffffffff8100dc72:	48 89 e5             	mov    %rsp,%rbp
ffffffff8100dc75:	48 83 ec 30          	sub    $0x30,%rsp
ffffffff8100dc79:	48 89 7d d8          	mov    %rdi,-0x28(%rbp)
ffffffff8100dc7d:	48 89 75 d0          	mov    %rsi,-0x30(%rbp)
ffffffff8100dc81:	48 83 7d d0 00       	cmpq   $0x0,-0x30(%rbp)
ffffffff8100dc86:	75 16                	jne    ffffffff8100dc9e <krealloc+0x2d>
ffffffff8100dc88:	48 8b 45 d8          	mov    -0x28(%rbp),%rax
ffffffff8100dc8c:	48 89 c7             	mov    %rax,%rdi
ffffffff8100dc8f:	e8 e7 fc ff ff       	callq  ffffffff8100d97b <kfree>
ffffffff8100dc94:	b8 00 00 00 00       	mov    $0x0,%eax
ffffffff8100dc99:	e9 51 01 00 00       	jmpq   ffffffff8100ddef <krealloc+0x17e>
ffffffff8100dc9e:	48 83 7d d8 00       	cmpq   $0x0,-0x28(%rbp)
ffffffff8100dca3:	75 11                	jne    ffffffff8100dcb6 <krealloc+0x45>
ffffffff8100dca5:	48 8b 45 d0          	mov    -0x30(%rbp),%rax
ffffffff8100dca9:	48 89 c7             	mov    %rax,%rdi
ffffffff8100dcac:	e8 10 f5 ff ff       	callq  ffffffff8100d1c1 <kmalloc>
ffffffff8100dcb1:	e9 39 01 00 00       	jmpq   ffffffff8100ddef <krealloc+0x17e>
ffffffff8100dcb6:	48 8b 45 d8          	mov    -0x28(%rbp),%rax
ffffffff8100dcba:	48 89 45 f8          	mov    %rax,-0x8(%rbp)
ffffffff8100dcbe:	48 8b 45 f8          	mov    -0x8(%rbp),%rax
ffffffff8100dcc2:	48 83 e8 10          	sub    $0x10,%rax
ffffffff8100dcc6:	0f b6 00             	movzbl (%rax),%eax
ffffffff8100dcc9:	48 0f be c0          	movsbq %al,%rax
ffffffff8100dccd:	48 89 45 f0          	mov    %rax,-0x10(%rbp)
ffffffff8100dcd1:	48 83 7d f0 1f       	cmpq   $0x1f,-0x10(%rbp)
ffffffff8100dcd6:	77 0c                	ja     ffffffff8100dce4 <krealloc+0x73>
ffffffff8100dcd8:	48 8b 45 f8          	mov    -0x8(%rbp),%rax
ffffffff8100dcdc:	48 2b 45 f0          	sub    -0x10(%rbp),%rax
ffffffff8100dce0:	48 89 45 f8          	mov    %rax,-0x8(%rbp)
ffffffff8100dce4:	b8 00 00 00 00       	mov    $0x0,%eax
ffffffff8100dce9:	e8 03 01 00 00       	callq  ffffffff8100ddf1 <liballoc_lock>
ffffffff8100dcee:	48 8b 45 f8          	mov    -0x8(%rbp),%rax
ffffffff8100dcf2:	48 83 e8 30          	sub    $0x30,%rax
ffffffff8100dcf6:	48 89 45 e8          	mov    %rax,-0x18(%rbp)
ffffffff8100dcfa:	48 8b 45 e8          	mov    -0x18(%rbp),%rax
ffffffff8100dcfe:	48 8b 40 18          	mov    0x18(%rax),%rax
ffffffff8100dd02:	ba de c0 01 c0       	mov    $0xc001c0de,%edx
ffffffff8100dd07:	48 39 d0             	cmp    %rdx,%rax
ffffffff8100dd0a:	74 70                	je     ffffffff8100dd7c <krealloc+0x10b>
ffffffff8100dd0c:	48 8b 05 2d 35 01 00 	mov    0x1352d(%rip),%rax        # ffffffff81021240 <l_errorCount>
ffffffff8100dd13:	48 83 c0 01          	add    $0x1,%rax
ffffffff8100dd17:	48 89 05 22 35 01 00 	mov    %rax,0x13522(%rip)        # ffffffff81021240 <l_errorCount>
ffffffff8100dd1e:	48 8b 45 e8          	mov    -0x18(%rbp),%rax
ffffffff8100dd22:	48 8b 40 18          	mov    0x18(%rax),%rax
ffffffff8100dd26:	25 ff ff ff 00       	and    $0xffffff,%eax
ffffffff8100dd2b:	48 3d de c0 01 00    	cmp    $0x1c0de,%rax
ffffffff8100dd31:	74 26                	je     ffffffff8100dd59 <krealloc+0xe8>
ffffffff8100dd33:	48 8b 45 e8          	mov    -0x18(%rbp),%rax
ffffffff8100dd37:	48 8b 40 18          	mov    0x18(%rax),%rax
ffffffff8100dd3b:	0f b7 c0             	movzwl %ax,%eax
ffffffff8100dd3e:	48 3d de c0 00 00    	cmp    $0xc0de,%rax
ffffffff8100dd44:	74 13                	je     ffffffff8100dd59 <krealloc+0xe8>
ffffffff8100dd46:	48 8b 45 e8          	mov    -0x18(%rbp),%rax
ffffffff8100dd4a:	48 8b 40 18          	mov    0x18(%rax),%rax
ffffffff8100dd4e:	0f b6 c0             	movzbl %al,%eax
ffffffff8100dd51:	48 3d de 00 00 00    	cmp    $0xde,%rax
ffffffff8100dd57:	75 12                	jne    ffffffff8100dd6b <krealloc+0xfa>
ffffffff8100dd59:	48 8b 05 e8 34 01 00 	mov    0x134e8(%rip),%rax        # ffffffff81021248 <l_possibleOverruns>
ffffffff8100dd60:	48 83 c0 01          	add    $0x1,%rax
ffffffff8100dd64:	48 89 05 dd 34 01 00 	mov    %rax,0x134dd(%rip)        # ffffffff81021248 <l_possibleOverruns>
ffffffff8100dd6b:	b8 00 00 00 00       	mov    $0x0,%eax
ffffffff8100dd70:	e8 87 00 00 00       	callq  ffffffff8100ddfc <liballoc_unlock>
ffffffff8100dd75:	b8 00 00 00 00       	mov    $0x0,%eax
ffffffff8100dd7a:	eb 73                	jmp    ffffffff8100ddef <krealloc+0x17e>
ffffffff8100dd7c:	48 8b 45 e8          	mov    -0x18(%rbp),%rax
ffffffff8100dd80:	48 8b 40 28          	mov    0x28(%rax),%rax
ffffffff8100dd84:	48 89 45 e0          	mov    %rax,-0x20(%rbp)
ffffffff8100dd88:	48 8b 45 e0          	mov    -0x20(%rbp),%rax
ffffffff8100dd8c:	48 3b 45 d0          	cmp    -0x30(%rbp),%rax
ffffffff8100dd90:	72 1c                	jb     ffffffff8100ddae <krealloc+0x13d>
ffffffff8100dd92:	48 8b 45 e8          	mov    -0x18(%rbp),%rax
ffffffff8100dd96:	48 8b 55 d0          	mov    -0x30(%rbp),%rdx
ffffffff8100dd9a:	48 89 50 28          	mov    %rdx,0x28(%rax)
ffffffff8100dd9e:	b8 00 00 00 00       	mov    $0x0,%eax
ffffffff8100dda3:	e8 54 00 00 00       	callq  ffffffff8100ddfc <liballoc_unlock>
ffffffff8100dda8:	48 8b 45 d8          	mov    -0x28(%rbp),%rax
ffffffff8100ddac:	eb 41                	jmp    ffffffff8100ddef <krealloc+0x17e>
ffffffff8100ddae:	b8 00 00 00 00       	mov    $0x0,%eax
ffffffff8100ddb3:	e8 44 00 00 00       	callq  ffffffff8100ddfc <liballoc_unlock>
ffffffff8100ddb8:	48 8b 45 d0          	mov    -0x30(%rbp),%rax
ffffffff8100ddbc:	48 89 c7             	mov    %rax,%rdi
ffffffff8100ddbf:	e8 fd f3 ff ff       	callq  ffffffff8100d1c1 <kmalloc>
ffffffff8100ddc4:	48 89 45 f8          	mov    %rax,-0x8(%rbp)
ffffffff8100ddc8:	48 8b 55 e0          	mov    -0x20(%rbp),%rdx
ffffffff8100ddcc:	48 8b 4d d8          	mov    -0x28(%rbp),%rcx
ffffffff8100ddd0:	48 8b 45 f8          	mov    -0x8(%rbp),%rax
ffffffff8100ddd4:	48 89 ce             	mov    %rcx,%rsi
ffffffff8100ddd7:	48 89 c7             	mov    %rax,%rdi
ffffffff8100ddda:	e8 29 f2 ff ff       	callq  ffffffff8100d008 <liballoc_memcpy>
ffffffff8100dddf:	48 8b 45 d8          	mov    -0x28(%rbp),%rax
ffffffff8100dde3:	48 89 c7             	mov    %rax,%rdi
ffffffff8100dde6:	e8 90 fb ff ff       	callq  ffffffff8100d97b <kfree>
ffffffff8100ddeb:	48 8b 45 f8          	mov    -0x8(%rbp),%rax
ffffffff8100ddef:	c9                   	leaveq 
ffffffff8100ddf0:	c3                   	retq   

ffffffff8100ddf1 <liballoc_lock>:
ffffffff8100ddf1:	55                   	push   %rbp
ffffffff8100ddf2:	48 89 e5             	mov    %rsp,%rbp
ffffffff8100ddf5:	b8 00 00 00 00       	mov    $0x0,%eax
ffffffff8100ddfa:	5d                   	pop    %rbp
ffffffff8100ddfb:	c3                   	retq   

ffffffff8100ddfc <liballoc_unlock>:
ffffffff8100ddfc:	55                   	push   %rbp
ffffffff8100ddfd:	48 89 e5             	mov    %rsp,%rbp
ffffffff8100de00:	b8 00 00 00 00       	mov    $0x0,%eax
ffffffff8100de05:	5d                   	pop    %rbp
ffffffff8100de06:	c3                   	retq   

ffffffff8100de07 <liballoc_alloc>:
ffffffff8100de07:	55                   	push   %rbp
ffffffff8100de08:	48 89 e5             	mov    %rsp,%rbp
ffffffff8100de0b:	48 83 ec 20          	sub    $0x20,%rsp
ffffffff8100de0f:	48 89 7d e8          	mov    %rdi,-0x18(%rbp)
ffffffff8100de13:	48 8b 45 e8          	mov    -0x18(%rbp),%rax
ffffffff8100de17:	48 c1 e0 0c          	shl    $0xc,%rax
ffffffff8100de1b:	ba 01 00 00 00       	mov    $0x1,%edx
ffffffff8100de20:	48 89 c6             	mov    %rax,%rsi
ffffffff8100de23:	bf 00 00 00 00       	mov    $0x0,%edi
ffffffff8100de28:	e8 1c a6 ff ff       	callq  ffffffff81008449 <vmmgr_alloc>
ffffffff8100de2d:	48 89 45 f8          	mov    %rax,-0x8(%rbp)
ffffffff8100de31:	48 8b 05 d8 33 01 00 	mov    0x133d8(%rip),%rax        # ffffffff81021210 <pm>
ffffffff8100de38:	48 85 c0             	test   %rax,%rax
ffffffff8100de3b:	75 0c                	jne    ffffffff8100de49 <liballoc_alloc+0x42>
ffffffff8100de3d:	e8 0d ee ff ff       	callq  ffffffff8100cc4f <pagemgr_get>
ffffffff8100de42:	48 89 05 c7 33 01 00 	mov    %rax,0x133c7(%rip)        # ffffffff81021210 <pm>
ffffffff8100de49:	48 8b 45 f8          	mov    -0x8(%rbp),%rax
ffffffff8100de4d:	c9                   	leaveq 
ffffffff8100de4e:	c3                   	retq   

ffffffff8100de4f <liballoc_free>:
ffffffff8100de4f:	55                   	push   %rbp
ffffffff8100de50:	48 89 e5             	mov    %rsp,%rbp
ffffffff8100de53:	48 83 ec 10          	sub    $0x10,%rsp
ffffffff8100de57:	48 89 7d f8          	mov    %rdi,-0x8(%rbp)
ffffffff8100de5b:	48 89 75 f0          	mov    %rsi,-0x10(%rbp)
ffffffff8100de5f:	48 8b 05 aa 33 01 00 	mov    0x133aa(%rip),%rax        # ffffffff81021210 <pm>
ffffffff8100de66:	48 85 c0             	test   %rax,%rax
ffffffff8100de69:	75 0c                	jne    ffffffff8100de77 <liballoc_free+0x28>
ffffffff8100de6b:	e8 df ed ff ff       	callq  ffffffff8100cc4f <pagemgr_get>
ffffffff8100de70:	48 89 05 99 33 01 00 	mov    %rax,0x13399(%rip)        # ffffffff81021210 <pm>
ffffffff8100de77:	48 8b 45 f0          	mov    -0x10(%rbp),%rax
ffffffff8100de7b:	48 c1 e0 0c          	shl    $0xc,%rax
ffffffff8100de7f:	48 89 c2             	mov    %rax,%rdx
ffffffff8100de82:	48 8b 45 f8          	mov    -0x8(%rbp),%rax
ffffffff8100de86:	48 89 d6             	mov    %rdx,%rsi
ffffffff8100de89:	48 89 c7             	mov    %rax,%rdi
ffffffff8100de8c:	e8 fb a8 ff ff       	callq  ffffffff8100878c <vmmgr_free>
ffffffff8100de91:	c9                   	leaveq 
ffffffff8100de92:	c3                   	retq   
ffffffff8100de93:	66 2e 0f 1f 84 00 00 	nopw   %cs:0x0(%rax,%rax,1)
ffffffff8100de9a:	00 00 00 
ffffffff8100de9d:	66 2e 0f 1f 84 00 00 	nopw   %cs:0x0(%rax,%rax,1)
ffffffff8100dea4:	00 00 00 
ffffffff8100dea7:	66 2e 0f 1f 84 00 00 	nopw   %cs:0x0(%rax,%rax,1)
ffffffff8100deae:	00 00 00 
ffffffff8100deb1:	66 2e 0f 1f 84 00 00 	nopw   %cs:0x0(%rax,%rax,1)
ffffffff8100deb8:	00 00 00 
ffffffff8100debb:	66 2e 0f 1f 84 00 00 	nopw   %cs:0x0(%rax,%rax,1)
ffffffff8100dec2:	00 00 00 
ffffffff8100dec5:	66 2e 0f 1f 84 00 00 	nopw   %cs:0x0(%rax,%rax,1)
ffffffff8100decc:	00 00 00 
ffffffff8100decf:	66 2e 0f 1f 84 00 00 	nopw   %cs:0x0(%rax,%rax,1)
ffffffff8100ded6:	00 00 00 
ffffffff8100ded9:	66 2e 0f 1f 84 00 00 	nopw   %cs:0x0(%rax,%rax,1)
ffffffff8100dee0:	00 00 00 
ffffffff8100dee3:	66 2e 0f 1f 84 00 00 	nopw   %cs:0x0(%rax,%rax,1)
ffffffff8100deea:	00 00 00 
ffffffff8100deed:	66 2e 0f 1f 84 00 00 	nopw   %cs:0x0(%rax,%rax,1)
ffffffff8100def4:	00 00 00 
ffffffff8100def7:	66 2e 0f 1f 84 00 00 	nopw   %cs:0x0(%rax,%rax,1)
ffffffff8100defe:	00 00 00 
ffffffff8100df01:	66 2e 0f 1f 84 00 00 	nopw   %cs:0x0(%rax,%rax,1)
ffffffff8100df08:	00 00 00 
ffffffff8100df0b:	66 2e 0f 1f 84 00 00 	nopw   %cs:0x0(%rax,%rax,1)
ffffffff8100df12:	00 00 00 
ffffffff8100df15:	66 2e 0f 1f 84 00 00 	nopw   %cs:0x0(%rax,%rax,1)
ffffffff8100df1c:	00 00 00 
ffffffff8100df1f:	66 2e 0f 1f 84 00 00 	nopw   %cs:0x0(%rax,%rax,1)
ffffffff8100df26:	00 00 00 
ffffffff8100df29:	66 2e 0f 1f 84 00 00 	nopw   %cs:0x0(%rax,%rax,1)
ffffffff8100df30:	00 00 00 
ffffffff8100df33:	66 2e 0f 1f 84 00 00 	nopw   %cs:0x0(%rax,%rax,1)
ffffffff8100df3a:	00 00 00 
ffffffff8100df3d:	66 2e 0f 1f 84 00 00 	nopw   %cs:0x0(%rax,%rax,1)
ffffffff8100df44:	00 00 00 
ffffffff8100df47:	66 2e 0f 1f 84 00 00 	nopw   %cs:0x0(%rax,%rax,1)
ffffffff8100df4e:	00 00 00 
ffffffff8100df51:	66 2e 0f 1f 84 00 00 	nopw   %cs:0x0(%rax,%rax,1)
ffffffff8100df58:	00 00 00 
ffffffff8100df5b:	66 2e 0f 1f 84 00 00 	nopw   %cs:0x0(%rax,%rax,1)
ffffffff8100df62:	00 00 00 
ffffffff8100df65:	66 2e 0f 1f 84 00 00 	nopw   %cs:0x0(%rax,%rax,1)
ffffffff8100df6c:	00 00 00 
ffffffff8100df6f:	66 2e 0f 1f 84 00 00 	nopw   %cs:0x0(%rax,%rax,1)
ffffffff8100df76:	00 00 00 
ffffffff8100df79:	66 2e 0f 1f 84 00 00 	nopw   %cs:0x0(%rax,%rax,1)
ffffffff8100df80:	00 00 00 
ffffffff8100df83:	66 2e 0f 1f 84 00 00 	nopw   %cs:0x0(%rax,%rax,1)
ffffffff8100df8a:	00 00 00 
ffffffff8100df8d:	66 2e 0f 1f 84 00 00 	nopw   %cs:0x0(%rax,%rax,1)
ffffffff8100df94:	00 00 00 
ffffffff8100df97:	66 2e 0f 1f 84 00 00 	nopw   %cs:0x0(%rax,%rax,1)
ffffffff8100df9e:	00 00 00 
ffffffff8100dfa1:	66 2e 0f 1f 84 00 00 	nopw   %cs:0x0(%rax,%rax,1)
ffffffff8100dfa8:	00 00 00 
ffffffff8100dfab:	66 2e 0f 1f 84 00 00 	nopw   %cs:0x0(%rax,%rax,1)
ffffffff8100dfb2:	00 00 00 
ffffffff8100dfb5:	66 2e 0f 1f 84 00 00 	nopw   %cs:0x0(%rax,%rax,1)
ffffffff8100dfbc:	00 00 00 
ffffffff8100dfbf:	66 2e 0f 1f 84 00 00 	nopw   %cs:0x0(%rax,%rax,1)
ffffffff8100dfc6:	00 00 00 
ffffffff8100dfc9:	66 2e 0f 1f 84 00 00 	nopw   %cs:0x0(%rax,%rax,1)
ffffffff8100dfd0:	00 00 00 
ffffffff8100dfd3:	66 2e 0f 1f 84 00 00 	nopw   %cs:0x0(%rax,%rax,1)
ffffffff8100dfda:	00 00 00 
ffffffff8100dfdd:	66 2e 0f 1f 84 00 00 	nopw   %cs:0x0(%rax,%rax,1)
ffffffff8100dfe4:	00 00 00 
ffffffff8100dfe7:	66 2e 0f 1f 84 00 00 	nopw   %cs:0x0(%rax,%rax,1)
ffffffff8100dfee:	00 00 00 
ffffffff8100dff1:	66 2e 0f 1f 84 00 00 	nopw   %cs:0x0(%rax,%rax,1)
ffffffff8100dff8:	00 00 00 
ffffffff8100dffb:	0f 1f 44 00 00       	nopl   0x0(%rax,%rax,1)
