
test.bin:     file format elf64-x86-64


Disassembly of section .text:

ffffffff81003000 <idt_entry_add>:
ffffffff81003000:	55                   	push   %rbp
ffffffff81003001:	48 89 e5             	mov    %rsp,%rbp
ffffffff81003004:	48 83 ec 30          	sub    $0x30,%rsp
ffffffff81003008:	48 89 7d e8          	mov    %rdi,-0x18(%rbp)
ffffffff8100300c:	89 c8                	mov    %ecx,%eax
ffffffff8100300e:	4c 89 45 d0          	mov    %r8,-0x30(%rbp)
ffffffff81003012:	89 f1                	mov    %esi,%ecx
ffffffff81003014:	88 4d e4             	mov    %cl,-0x1c(%rbp)
ffffffff81003017:	88 55 e0             	mov    %dl,-0x20(%rbp)
ffffffff8100301a:	66 89 45 dc          	mov    %ax,-0x24(%rbp)
ffffffff8100301e:	48 c7 45 f8 00 00 00 	movq   $0x0,-0x8(%rbp)
ffffffff81003025:	00 
ffffffff81003026:	48 83 7d d0 00       	cmpq   $0x0,-0x30(%rbp)
ffffffff8100302b:	75 07                	jne    ffffffff81003034 <idt_entry_add+0x34>
ffffffff8100302d:	b8 ff ff ff ff       	mov    $0xffffffff,%eax
ffffffff81003032:	eb 4c                	jmp    ffffffff81003080 <idt_entry_add+0x80>
ffffffff81003034:	48 8b 45 e8          	mov    -0x18(%rbp),%rax
ffffffff81003038:	89 c2                	mov    %eax,%edx
ffffffff8100303a:	48 8b 45 d0          	mov    -0x30(%rbp),%rax
ffffffff8100303e:	66 89 10             	mov    %dx,(%rax)
ffffffff81003041:	48 8b 45 e8          	mov    -0x18(%rbp),%rax
ffffffff81003045:	48 c1 e8 10          	shr    $0x10,%rax
ffffffff81003049:	89 c2                	mov    %eax,%edx
ffffffff8100304b:	48 8b 45 d0          	mov    -0x30(%rbp),%rax
ffffffff8100304f:	66 89 50 06          	mov    %dx,0x6(%rax)
ffffffff81003053:	48 8b 45 e8          	mov    -0x18(%rbp),%rax
ffffffff81003057:	48 c1 e8 20          	shr    $0x20,%rax
ffffffff8100305b:	89 c2                	mov    %eax,%edx
ffffffff8100305d:	48 8b 45 d0          	mov    -0x30(%rbp),%rax
ffffffff81003061:	89 50 08             	mov    %edx,0x8(%rax)
ffffffff81003064:	48 8b 45 d0          	mov    -0x30(%rbp),%rax
ffffffff81003068:	0f b7 55 dc          	movzwl -0x24(%rbp),%edx
ffffffff8100306c:	66 89 50 02          	mov    %dx,0x2(%rax)
ffffffff81003070:	48 8b 45 d0          	mov    -0x30(%rbp),%rax
ffffffff81003074:	0f b6 55 e4          	movzbl -0x1c(%rbp),%edx
ffffffff81003078:	88 50 05             	mov    %dl,0x5(%rax)
ffffffff8100307b:	b8 00 00 00 00       	mov    $0x0,%eax
ffffffff81003080:	c9                   	leaveq 
ffffffff81003081:	c3                   	retq   

ffffffff81003082 <dummy_isr>:
ffffffff81003082:	55                   	push   %rbp
ffffffff81003083:	48 89 e5             	mov    %rsp,%rbp
ffffffff81003086:	41 53                	push   %r11
ffffffff81003088:	41 52                	push   %r10
ffffffff8100308a:	41 51                	push   %r9
ffffffff8100308c:	41 50                	push   %r8
ffffffff8100308e:	57                   	push   %rdi
ffffffff8100308f:	56                   	push   %rsi
ffffffff81003090:	51                   	push   %rcx
ffffffff81003091:	52                   	push   %rdx
ffffffff81003092:	50                   	push   %rax
ffffffff81003093:	48 83 ec 20          	sub    $0x20,%rsp
ffffffff81003097:	48 8d 45 10          	lea    0x10(%rbp),%rax
ffffffff8100309b:	48 89 45 a0          	mov    %rax,-0x60(%rbp)
ffffffff8100309f:	48 8b 45 08          	mov    0x8(%rbp),%rax
ffffffff810030a3:	48 89 45 98          	mov    %rax,-0x68(%rbp)
ffffffff810030a7:	b8 00 00 00 00       	mov    $0x0,%eax
ffffffff810030ac:	fc                   	cld    
ffffffff810030ad:	e8 f4 79 00 00       	callq  ffffffff8100aaa6 <read_cr2>
ffffffff810030b2:	48 98                	cltq   
ffffffff810030b4:	48 89 45 b0          	mov    %rax,-0x50(%rbp)
ffffffff810030b8:	48 8b 45 a0          	mov    -0x60(%rbp),%rax
ffffffff810030bc:	48 8b 00             	mov    (%rax),%rax
ffffffff810030bf:	48 8b 55 98          	mov    -0x68(%rbp),%rdx
ffffffff810030c3:	48 89 c6             	mov    %rax,%rsi
ffffffff810030c6:	48 c7 c7 00 d0 00 81 	mov    $0xffffffff8100d000,%rdi
ffffffff810030cd:	b8 00 00 00 00       	mov    $0x0,%eax
ffffffff810030d2:	e8 3f 4f 00 00       	callq  ffffffff81008016 <kprintf>
ffffffff810030d7:	90                   	nop
ffffffff810030d8:	48 83 c4 20          	add    $0x20,%rsp
ffffffff810030dc:	58                   	pop    %rax
ffffffff810030dd:	5a                   	pop    %rdx
ffffffff810030de:	59                   	pop    %rcx
ffffffff810030df:	5e                   	pop    %rsi
ffffffff810030e0:	5f                   	pop    %rdi
ffffffff810030e1:	41 58                	pop    %r8
ffffffff810030e3:	41 59                	pop    %r9
ffffffff810030e5:	41 5a                	pop    %r10
ffffffff810030e7:	41 5b                	pop    %r11
ffffffff810030e9:	5d                   	pop    %rbp
ffffffff810030ea:	48 83 c4 08          	add    $0x8,%rsp
ffffffff810030ee:	48 cf                	iretq  

ffffffff810030f0 <isr_init>:
ffffffff810030f0:	55                   	push   %rbp
ffffffff810030f1:	48 89 e5             	mov    %rsp,%rbp
ffffffff810030f4:	48 83 ec 20          	sub    $0x20,%rsp
ffffffff810030f8:	48 c7 45 f0 00 00 00 	movq   $0x0,-0x10(%rbp)
ffffffff810030ff:	00 
ffffffff81003100:	c7 45 ec 00 00 00 00 	movl   $0x0,-0x14(%rbp)
ffffffff81003107:	66 c7 45 fe 00 00    	movw   $0x0,-0x2(%rbp)
ffffffff8100310d:	66 c7 45 fc 00 00    	movw   $0x0,-0x4(%rbp)
ffffffff81003113:	48 c7 45 e0 00 00 00 	movq   $0x0,-0x20(%rbp)
ffffffff8100311a:	00 
ffffffff8100311b:	b8 00 00 00 00       	mov    $0x0,%eax
ffffffff81003120:	e8 fd 4a 00 00       	callq  ffffffff81007c22 <_cli>
ffffffff81003125:	ba 20 00 00 00       	mov    $0x20,%edx
ffffffff8100312a:	be 00 00 00 00       	mov    $0x0,%esi
ffffffff8100312f:	48 c7 c7 00 00 01 81 	mov    $0xffffffff81010000,%rdi
ffffffff81003136:	e8 4c 7a 00 00       	callq  ffffffff8100ab87 <memset>
ffffffff8100313b:	be 01 00 00 00       	mov    $0x1,%esi
ffffffff81003140:	bf 00 10 00 00       	mov    $0x1000,%edi
ffffffff81003145:	e8 21 5d 00 00       	callq  ffffffff81008e6b <vmmgr_alloc>
ffffffff8100314a:	48 89 05 af ce 00 00 	mov    %rax,0xceaf(%rip)        # ffffffff81010000 <_bss>
ffffffff81003151:	48 8b 05 a8 ce 00 00 	mov    0xcea8(%rip),%rax        # ffffffff81010000 <_bss>
ffffffff81003158:	48 85 c0             	test   %rax,%rax
ffffffff8100315b:	75 0a                	jne    ffffffff81003167 <isr_init+0x77>
ffffffff8100315d:	b8 ff ff ff ff       	mov    $0xffffffff,%eax
ffffffff81003162:	e9 d6 01 00 00       	jmpq   ffffffff8100333d <isr_init+0x24d>
ffffffff81003167:	be 01 00 00 00       	mov    $0x1,%esi
ffffffff8100316c:	bf 00 18 00 00       	mov    $0x1800,%edi
ffffffff81003171:	e8 f5 5c 00 00       	callq  ffffffff81008e6b <vmmgr_alloc>
ffffffff81003176:	48 89 05 9b ce 00 00 	mov    %rax,0xce9b(%rip)        # ffffffff81010018 <_bss+0x18>
ffffffff8100317d:	48 8b 05 94 ce 00 00 	mov    0xce94(%rip),%rax        # ffffffff81010018 <_bss+0x18>
ffffffff81003184:	48 85 c0             	test   %rax,%rax
ffffffff81003187:	75 0a                	jne    ffffffff81003193 <isr_init+0xa3>
ffffffff81003189:	b8 ff ff ff ff       	mov    $0xffffffff,%eax
ffffffff8100318e:	e9 aa 01 00 00       	jmpq   ffffffff8100333d <isr_init+0x24d>
ffffffff81003193:	48 8b 05 7e ce 00 00 	mov    0xce7e(%rip),%rax        # ffffffff81010018 <_bss+0x18>
ffffffff8100319a:	ba 00 18 00 00       	mov    $0x1800,%edx
ffffffff8100319f:	be 00 00 00 00       	mov    $0x0,%esi
ffffffff810031a4:	48 89 c7             	mov    %rax,%rdi
ffffffff810031a7:	e8 db 79 00 00       	callq  ffffffff8100ab87 <memset>
ffffffff810031ac:	48 8b 05 4d ce 00 00 	mov    0xce4d(%rip),%rax        # ffffffff81010000 <_bss>
ffffffff810031b3:	ba 00 10 00 00       	mov    $0x1000,%edx
ffffffff810031b8:	be 00 00 00 00       	mov    $0x0,%esi
ffffffff810031bd:	48 89 c7             	mov    %rax,%rdi
ffffffff810031c0:	e8 c2 79 00 00       	callq  ffffffff8100ab87 <memset>
ffffffff810031c5:	48 8b 05 34 ce 00 00 	mov    0xce34(%rip),%rax        # ffffffff81010000 <_bss>
ffffffff810031cc:	48 89 45 f0          	mov    %rax,-0x10(%rbp)
ffffffff810031d0:	66 c7 45 fa 00 00    	movw   $0x0,-0x6(%rbp)
ffffffff810031d6:	e9 2e 01 00 00       	jmpq   ffffffff81003309 <isr_init+0x219>
ffffffff810031db:	66 83 7d fa 14       	cmpw   $0x14,-0x6(%rbp)
ffffffff810031e0:	76 0b                	jbe    ffffffff810031ed <isr_init+0xfd>
ffffffff810031e2:	66 83 7d fa 1f       	cmpw   $0x1f,-0x6(%rbp)
ffffffff810031e7:	0f 86 10 01 00 00    	jbe    ffffffff810032fd <isr_init+0x20d>
ffffffff810031ed:	66 83 7d fa 0f       	cmpw   $0xf,-0x6(%rbp)
ffffffff810031f2:	0f 84 05 01 00 00    	je     ffffffff810032fd <isr_init+0x20d>
ffffffff810031f8:	66 83 7d fa 14       	cmpw   $0x14,-0x6(%rbp)
ffffffff810031fd:	0f 87 8e 00 00 00    	ja     ffffffff81003291 <isr_init+0x1a1>
ffffffff81003203:	0f b7 45 fa          	movzwl -0x6(%rbp),%eax
ffffffff81003207:	ba 00 7d 02 00       	mov    $0x27d00,%edx
ffffffff8100320c:	89 c1                	mov    %eax,%ecx
ffffffff8100320e:	d3 fa                	sar    %cl,%edx
ffffffff81003210:	89 d0                	mov    %edx,%eax
ffffffff81003212:	83 e0 01             	and    $0x1,%eax
ffffffff81003215:	85 c0                	test   %eax,%eax
ffffffff81003217:	74 3c                	je     ffffffff81003255 <isr_init+0x165>
ffffffff81003219:	48 c7 c2 22 7c 00 81 	mov    $0xffffffff81007c22,%rdx
ffffffff81003220:	48 c7 c0 e0 7b 00 81 	mov    $0xffffffff81007be0,%rax
ffffffff81003227:	48 29 c2             	sub    %rax,%rdx
ffffffff8100322a:	48 89 d0             	mov    %rdx,%rax
ffffffff8100322d:	89 45 ec             	mov    %eax,-0x14(%rbp)
ffffffff81003230:	0f b7 45 fc          	movzwl -0x4(%rbp),%eax
ffffffff81003234:	0f af 45 ec          	imul   -0x14(%rbp),%eax
ffffffff81003238:	89 c2                	mov    %eax,%edx
ffffffff8100323a:	48 c7 c0 54 7a 00 81 	mov    $0xffffffff81007a54,%rax
ffffffff81003241:	48 01 d0             	add    %rdx,%rax
ffffffff81003244:	48 89 45 e0          	mov    %rax,-0x20(%rbp)
ffffffff81003248:	0f b7 45 fc          	movzwl -0x4(%rbp),%eax
ffffffff8100324c:	83 c0 01             	add    $0x1,%eax
ffffffff8100324f:	66 89 45 fc          	mov    %ax,-0x4(%rbp)
ffffffff81003253:	eb 76                	jmp    ffffffff810032cb <isr_init+0x1db>
ffffffff81003255:	48 c7 c2 08 3e 00 81 	mov    $0xffffffff81003e08,%rdx
ffffffff8100325c:	48 c7 c0 c4 3d 00 81 	mov    $0xffffffff81003dc4,%rax
ffffffff81003263:	48 29 c2             	sub    %rax,%rdx
ffffffff81003266:	48 89 d0             	mov    %rdx,%rax
ffffffff81003269:	89 45 ec             	mov    %eax,-0x14(%rbp)
ffffffff8100326c:	0f b7 45 fe          	movzwl -0x2(%rbp),%eax
ffffffff81003270:	0f af 45 ec          	imul   -0x14(%rbp),%eax
ffffffff81003274:	89 c2                	mov    %eax,%edx
ffffffff81003276:	48 c7 c0 60 3b 00 81 	mov    $0xffffffff81003b60,%rax
ffffffff8100327d:	48 01 d0             	add    %rdx,%rax
ffffffff81003280:	48 89 45 e0          	mov    %rax,-0x20(%rbp)
ffffffff81003284:	0f b7 45 fe          	movzwl -0x2(%rbp),%eax
ffffffff81003288:	83 c0 01             	add    $0x1,%eax
ffffffff8100328b:	66 89 45 fe          	mov    %ax,-0x2(%rbp)
ffffffff8100328f:	eb 3a                	jmp    ffffffff810032cb <isr_init+0x1db>
ffffffff81003291:	48 c7 c2 08 3e 00 81 	mov    $0xffffffff81003e08,%rdx
ffffffff81003298:	48 c7 c0 c4 3d 00 81 	mov    $0xffffffff81003dc4,%rax
ffffffff8100329f:	48 29 c2             	sub    %rax,%rdx
ffffffff810032a2:	48 89 d0             	mov    %rdx,%rax
ffffffff810032a5:	89 45 ec             	mov    %eax,-0x14(%rbp)
ffffffff810032a8:	0f b7 45 fe          	movzwl -0x2(%rbp),%eax
ffffffff810032ac:	0f af 45 ec          	imul   -0x14(%rbp),%eax
ffffffff810032b0:	89 c2                	mov    %eax,%edx
ffffffff810032b2:	48 c7 c0 60 3b 00 81 	mov    $0xffffffff81003b60,%rax
ffffffff810032b9:	48 01 d0             	add    %rdx,%rax
ffffffff810032bc:	48 89 45 e0          	mov    %rax,-0x20(%rbp)
ffffffff810032c0:	0f b7 45 fe          	movzwl -0x2(%rbp),%eax
ffffffff810032c4:	83 c0 01             	add    $0x1,%eax
ffffffff810032c7:	66 89 45 fe          	mov    %ax,-0x2(%rbp)
ffffffff810032cb:	0f b7 45 fa          	movzwl -0x6(%rbp),%eax
ffffffff810032cf:	48 c1 e0 04          	shl    $0x4,%rax
ffffffff810032d3:	48 89 c2             	mov    %rax,%rdx
ffffffff810032d6:	48 8b 45 f0          	mov    -0x10(%rbp),%rax
ffffffff810032da:	48 01 d0             	add    %rdx,%rax
ffffffff810032dd:	48 c7 c7 82 30 00 81 	mov    $0xffffffff81003082,%rdi
ffffffff810032e4:	49 89 c0             	mov    %rax,%r8
ffffffff810032e7:	b9 08 00 00 00       	mov    $0x8,%ecx
ffffffff810032ec:	ba 00 00 00 00       	mov    $0x0,%edx
ffffffff810032f1:	be 8e 00 00 00       	mov    $0x8e,%esi
ffffffff810032f6:	e8 05 fd ff ff       	callq  ffffffff81003000 <idt_entry_add>
ffffffff810032fb:	eb 01                	jmp    ffffffff810032fe <isr_init+0x20e>
ffffffff810032fd:	90                   	nop
ffffffff810032fe:	0f b7 45 fa          	movzwl -0x6(%rbp),%eax
ffffffff81003302:	83 c0 01             	add    $0x1,%eax
ffffffff81003305:	66 89 45 fa          	mov    %ax,-0x6(%rbp)
ffffffff81003309:	66 81 7d fa ff 00    	cmpw   $0xff,-0x6(%rbp)
ffffffff8100330f:	0f 86 c6 fe ff ff    	jbe    ffffffff810031db <isr_init+0xeb>
ffffffff81003315:	48 8b 05 e4 cc 00 00 	mov    0xcce4(%rip),%rax        # ffffffff81010000 <_bss>
ffffffff8100331c:	48 89 05 e7 cc 00 00 	mov    %rax,0xcce7(%rip)        # ffffffff8101000a <_bss+0xa>
ffffffff81003323:	66 c7 05 dc cc 00 00 	movw   $0xfff,0xccdc(%rip)        # ffffffff81010008 <_bss+0x8>
ffffffff8100332a:	ff 0f 
ffffffff8100332c:	48 c7 c7 08 00 01 81 	mov    $0xffffffff81010008,%rdi
ffffffff81003333:	e8 ee 48 00 00       	callq  ffffffff81007c26 <_lidt>
ffffffff81003338:	b8 00 00 00 00       	mov    $0x0,%eax
ffffffff8100333d:	c9                   	leaveq 
ffffffff8100333e:	c3                   	retq   

ffffffff8100333f <isr_install>:
ffffffff8100333f:	55                   	push   %rbp
ffffffff81003340:	48 89 e5             	mov    %rsp,%rbp
ffffffff81003343:	48 83 ec 28          	sub    $0x28,%rsp
ffffffff81003347:	48 89 7d e8          	mov    %rdi,-0x18(%rbp)
ffffffff8100334b:	48 89 75 e0          	mov    %rsi,-0x20(%rbp)
ffffffff8100334f:	89 d0                	mov    %edx,%eax
ffffffff81003351:	66 89 45 dc          	mov    %ax,-0x24(%rbp)
ffffffff81003355:	48 c7 45 f0 00 00 00 	movq   $0x0,-0x10(%rbp)
ffffffff8100335c:	00 
ffffffff8100335d:	48 8b 05 b4 cc 00 00 	mov    0xccb4(%rip),%rax        # ffffffff81010018 <_bss+0x18>
ffffffff81003364:	48 89 45 f0          	mov    %rax,-0x10(%rbp)
ffffffff81003368:	66 c7 45 fe 00 00    	movw   $0x0,-0x2(%rbp)
ffffffff8100336e:	e9 9e 00 00 00       	jmpq   ffffffff81003411 <isr_install+0xd2>
ffffffff81003373:	0f b7 55 fe          	movzwl -0x2(%rbp),%edx
ffffffff81003377:	48 89 d0             	mov    %rdx,%rax
ffffffff8100337a:	48 01 c0             	add    %rax,%rax
ffffffff8100337d:	48 01 d0             	add    %rdx,%rax
ffffffff81003380:	48 c1 e0 03          	shl    $0x3,%rax
ffffffff81003384:	48 89 c2             	mov    %rax,%rdx
ffffffff81003387:	48 8b 45 f0          	mov    -0x10(%rbp),%rax
ffffffff8100338b:	48 01 d0             	add    %rdx,%rax
ffffffff8100338e:	48 8b 40 08          	mov    0x8(%rax),%rax
ffffffff81003392:	48 85 c0             	test   %rax,%rax
ffffffff81003395:	75 6f                	jne    ffffffff81003406 <isr_install+0xc7>
ffffffff81003397:	0f b7 55 fe          	movzwl -0x2(%rbp),%edx
ffffffff8100339b:	48 89 d0             	mov    %rdx,%rax
ffffffff8100339e:	48 01 c0             	add    %rax,%rax
ffffffff810033a1:	48 01 d0             	add    %rdx,%rax
ffffffff810033a4:	48 c1 e0 03          	shl    $0x3,%rax
ffffffff810033a8:	48 89 c2             	mov    %rax,%rdx
ffffffff810033ab:	48 8b 45 f0          	mov    -0x10(%rbp),%rax
ffffffff810033af:	48 01 c2             	add    %rax,%rdx
ffffffff810033b2:	48 8b 45 e8          	mov    -0x18(%rbp),%rax
ffffffff810033b6:	48 89 42 08          	mov    %rax,0x8(%rdx)
ffffffff810033ba:	0f b7 55 fe          	movzwl -0x2(%rbp),%edx
ffffffff810033be:	48 89 d0             	mov    %rdx,%rax
ffffffff810033c1:	48 01 c0             	add    %rax,%rax
ffffffff810033c4:	48 01 d0             	add    %rdx,%rax
ffffffff810033c7:	48 c1 e0 03          	shl    $0x3,%rax
ffffffff810033cb:	48 89 c2             	mov    %rax,%rdx
ffffffff810033ce:	48 8b 45 f0          	mov    -0x10(%rbp),%rax
ffffffff810033d2:	48 01 c2             	add    %rax,%rdx
ffffffff810033d5:	0f b7 45 dc          	movzwl -0x24(%rbp),%eax
ffffffff810033d9:	66 89 02             	mov    %ax,(%rdx)
ffffffff810033dc:	0f b7 55 fe          	movzwl -0x2(%rbp),%edx
ffffffff810033e0:	48 89 d0             	mov    %rdx,%rax
ffffffff810033e3:	48 01 c0             	add    %rax,%rax
ffffffff810033e6:	48 01 d0             	add    %rdx,%rax
ffffffff810033e9:	48 c1 e0 03          	shl    $0x3,%rax
ffffffff810033ed:	48 89 c2             	mov    %rax,%rdx
ffffffff810033f0:	48 8b 45 f0          	mov    -0x10(%rbp),%rax
ffffffff810033f4:	48 01 c2             	add    %rax,%rdx
ffffffff810033f7:	48 8b 45 e0          	mov    -0x20(%rbp),%rax
ffffffff810033fb:	48 89 42 10          	mov    %rax,0x10(%rdx)
ffffffff810033ff:	b8 00 00 00 00       	mov    $0x0,%eax
ffffffff81003404:	eb 1c                	jmp    ffffffff81003422 <isr_install+0xe3>
ffffffff81003406:	0f b7 45 fe          	movzwl -0x2(%rbp),%eax
ffffffff8100340a:	83 c0 01             	add    $0x1,%eax
ffffffff8100340d:	66 89 45 fe          	mov    %ax,-0x2(%rbp)
ffffffff81003411:	66 81 7d fe ff 00    	cmpw   $0xff,-0x2(%rbp)
ffffffff81003417:	0f 86 56 ff ff ff    	jbe    ffffffff81003373 <isr_install+0x34>
ffffffff8100341d:	b8 ff ff ff ff       	mov    $0xffffffff,%eax
ffffffff81003422:	c9                   	leaveq 
ffffffff81003423:	c3                   	retq   

ffffffff81003424 <isr_uninstall>:
ffffffff81003424:	55                   	push   %rbp
ffffffff81003425:	48 89 e5             	mov    %rsp,%rbp
ffffffff81003428:	48 83 ec 18          	sub    $0x18,%rsp
ffffffff8100342c:	48 89 7d e8          	mov    %rdi,-0x18(%rbp)
ffffffff81003430:	48 c7 45 f0 00 00 00 	movq   $0x0,-0x10(%rbp)
ffffffff81003437:	00 
ffffffff81003438:	48 8b 05 d9 cb 00 00 	mov    0xcbd9(%rip),%rax        # ffffffff81010018 <_bss+0x18>
ffffffff8100343f:	48 89 45 f0          	mov    %rax,-0x10(%rbp)
ffffffff81003443:	66 c7 45 fe 00 00    	movw   $0x0,-0x2(%rbp)
ffffffff81003449:	e9 96 00 00 00       	jmpq   ffffffff810034e4 <isr_uninstall+0xc0>
ffffffff8100344e:	0f b7 55 fe          	movzwl -0x2(%rbp),%edx
ffffffff81003452:	48 89 d0             	mov    %rdx,%rax
ffffffff81003455:	48 01 c0             	add    %rax,%rax
ffffffff81003458:	48 01 d0             	add    %rdx,%rax
ffffffff8100345b:	48 c1 e0 03          	shl    $0x3,%rax
ffffffff8100345f:	48 89 c2             	mov    %rax,%rdx
ffffffff81003462:	48 8b 45 f0          	mov    -0x10(%rbp),%rax
ffffffff81003466:	48 01 d0             	add    %rdx,%rax
ffffffff81003469:	48 8b 40 08          	mov    0x8(%rax),%rax
ffffffff8100346d:	48 39 45 e8          	cmp    %rax,-0x18(%rbp)
ffffffff81003471:	75 66                	jne    ffffffff810034d9 <isr_uninstall+0xb5>
ffffffff81003473:	0f b7 55 fe          	movzwl -0x2(%rbp),%edx
ffffffff81003477:	48 89 d0             	mov    %rdx,%rax
ffffffff8100347a:	48 01 c0             	add    %rax,%rax
ffffffff8100347d:	48 01 d0             	add    %rdx,%rax
ffffffff81003480:	48 c1 e0 03          	shl    $0x3,%rax
ffffffff81003484:	48 89 c2             	mov    %rax,%rdx
ffffffff81003487:	48 8b 45 f0          	mov    -0x10(%rbp),%rax
ffffffff8100348b:	48 01 d0             	add    %rdx,%rax
ffffffff8100348e:	48 c7 40 08 00 00 00 	movq   $0x0,0x8(%rax)
ffffffff81003495:	00 
ffffffff81003496:	0f b7 55 fe          	movzwl -0x2(%rbp),%edx
ffffffff8100349a:	48 89 d0             	mov    %rdx,%rax
ffffffff8100349d:	48 01 c0             	add    %rax,%rax
ffffffff810034a0:	48 01 d0             	add    %rdx,%rax
ffffffff810034a3:	48 c1 e0 03          	shl    $0x3,%rax
ffffffff810034a7:	48 89 c2             	mov    %rax,%rdx
ffffffff810034aa:	48 8b 45 f0          	mov    -0x10(%rbp),%rax
ffffffff810034ae:	48 01 d0             	add    %rdx,%rax
ffffffff810034b1:	66 c7 00 00 00       	movw   $0x0,(%rax)
ffffffff810034b6:	0f b7 55 fe          	movzwl -0x2(%rbp),%edx
ffffffff810034ba:	48 89 d0             	mov    %rdx,%rax
ffffffff810034bd:	48 01 c0             	add    %rax,%rax
ffffffff810034c0:	48 01 d0             	add    %rdx,%rax
ffffffff810034c3:	48 c1 e0 03          	shl    $0x3,%rax
ffffffff810034c7:	48 89 c2             	mov    %rax,%rdx
ffffffff810034ca:	48 8b 45 f0          	mov    -0x10(%rbp),%rax
ffffffff810034ce:	48 01 d0             	add    %rdx,%rax
ffffffff810034d1:	48 c7 40 10 00 00 00 	movq   $0x0,0x10(%rax)
ffffffff810034d8:	00 
ffffffff810034d9:	0f b7 45 fe          	movzwl -0x2(%rbp),%eax
ffffffff810034dd:	83 c0 01             	add    $0x1,%eax
ffffffff810034e0:	66 89 45 fe          	mov    %ax,-0x2(%rbp)
ffffffff810034e4:	66 81 7d fe ff 00    	cmpw   $0xff,-0x2(%rbp)
ffffffff810034ea:	0f 86 5e ff ff ff    	jbe    ffffffff8100344e <isr_uninstall+0x2a>
ffffffff810034f0:	b8 ff ff ff ff       	mov    $0xffffffff,%eax
ffffffff810034f5:	c9                   	leaveq 
ffffffff810034f6:	c3                   	retq   

ffffffff810034f7 <isr_dispatcher>:
ffffffff810034f7:	55                   	push   %rbp
ffffffff810034f8:	48 89 e5             	mov    %rsp,%rbp
ffffffff810034fb:	48 83 ec 20          	sub    $0x20,%rsp
ffffffff810034ff:	48 89 7d e8          	mov    %rdi,-0x18(%rbp)
ffffffff81003503:	48 89 75 e0          	mov    %rsi,-0x20(%rbp)
ffffffff81003507:	c7 45 f8 00 00 00 00 	movl   $0x0,-0x8(%rbp)
ffffffff8100350e:	48 c7 45 f0 00 00 00 	movq   $0x0,-0x10(%rbp)
ffffffff81003515:	00 
ffffffff81003516:	48 8b 45 e8          	mov    -0x18(%rbp),%rax
ffffffff8100351a:	48 89 c6             	mov    %rax,%rsi
ffffffff8100351d:	48 c7 c7 11 d0 00 81 	mov    $0xffffffff8100d011,%rdi
ffffffff81003524:	b8 00 00 00 00       	mov    $0x0,%eax
ffffffff81003529:	e8 e8 4a 00 00       	callq  ffffffff81008016 <kprintf>
ffffffff8100352e:	66 c7 45 fe 00 00    	movw   $0x0,-0x2(%rbp)
ffffffff81003534:	eb 6c                	jmp    ffffffff810035a2 <isr_dispatcher+0xab>
ffffffff81003536:	48 8b 0d db ca 00 00 	mov    0xcadb(%rip),%rcx        # ffffffff81010018 <_bss+0x18>
ffffffff8100353d:	0f b7 55 fe          	movzwl -0x2(%rbp),%edx
ffffffff81003541:	48 89 d0             	mov    %rdx,%rax
ffffffff81003544:	48 01 c0             	add    %rax,%rax
ffffffff81003547:	48 01 d0             	add    %rdx,%rax
ffffffff8100354a:	48 c1 e0 03          	shl    $0x3,%rax
ffffffff8100354e:	48 01 c8             	add    %rcx,%rax
ffffffff81003551:	48 89 45 f0          	mov    %rax,-0x10(%rbp)
ffffffff81003555:	48 8b 45 f0          	mov    -0x10(%rbp),%rax
ffffffff81003559:	0f b7 00             	movzwl (%rax),%eax
ffffffff8100355c:	0f b7 c0             	movzwl %ax,%eax
ffffffff8100355f:	48 39 45 e8          	cmp    %rax,-0x18(%rbp)
ffffffff81003563:	75 32                	jne    ffffffff81003597 <isr_dispatcher+0xa0>
ffffffff81003565:	48 8b 45 f0          	mov    -0x10(%rbp),%rax
ffffffff81003569:	48 8b 40 08          	mov    0x8(%rax),%rax
ffffffff8100356d:	48 85 c0             	test   %rax,%rax
ffffffff81003570:	74 25                	je     ffffffff81003597 <isr_dispatcher+0xa0>
ffffffff81003572:	48 8b 45 f0          	mov    -0x10(%rbp),%rax
ffffffff81003576:	48 8b 48 08          	mov    0x8(%rax),%rcx
ffffffff8100357a:	48 8b 45 f0          	mov    -0x10(%rbp),%rax
ffffffff8100357e:	48 8b 40 10          	mov    0x10(%rax),%rax
ffffffff81003582:	48 8b 55 e0          	mov    -0x20(%rbp),%rdx
ffffffff81003586:	48 89 d6             	mov    %rdx,%rsi
ffffffff81003589:	48 89 c7             	mov    %rax,%rdi
ffffffff8100358c:	ff d1                	callq  *%rcx
ffffffff8100358e:	89 45 f8             	mov    %eax,-0x8(%rbp)
ffffffff81003591:	83 7d f8 00          	cmpl   $0x0,-0x8(%rbp)
ffffffff81003595:	74 15                	je     ffffffff810035ac <isr_dispatcher+0xb5>
ffffffff81003597:	0f b7 45 fe          	movzwl -0x2(%rbp),%eax
ffffffff8100359b:	83 c0 01             	add    $0x1,%eax
ffffffff8100359e:	66 89 45 fe          	mov    %ax,-0x2(%rbp)
ffffffff810035a2:	66 81 7d fe ff 00    	cmpw   $0xff,-0x2(%rbp)
ffffffff810035a8:	76 8c                	jbe    ffffffff81003536 <isr_dispatcher+0x3f>
ffffffff810035aa:	eb 01                	jmp    ffffffff810035ad <isr_dispatcher+0xb6>
ffffffff810035ac:	90                   	nop
ffffffff810035ad:	48 8b 45 e8          	mov    -0x18(%rbp),%rax
ffffffff810035b1:	48 89 c6             	mov    %rax,%rsi
ffffffff810035b4:	48 c7 c7 1f d0 00 81 	mov    $0xffffffff8100d01f,%rdi
ffffffff810035bb:	b8 00 00 00 00       	mov    $0x0,%eax
ffffffff810035c0:	e8 51 4a 00 00       	callq  ffffffff81008016 <kprintf>
ffffffff810035c5:	90                   	nop
ffffffff810035c6:	c9                   	leaveq 
ffffffff810035c7:	c3                   	retq   

ffffffff810035c8 <lapic_init>:
ffffffff810035c8:	55                   	push   %rbp
ffffffff810035c9:	48 89 e5             	mov    %rsp,%rbp
ffffffff810035cc:	48 83 ec 10          	sub    $0x10,%rsp
ffffffff810035d0:	48 c7 45 f8 00 00 00 	movq   $0x0,-0x8(%rbp)
ffffffff810035d7:	00 
ffffffff810035d8:	e8 fa 8d 00 00       	callq  ffffffff8100c3d7 <read_lapic_base>
ffffffff810035dd:	48 25 00 f0 ff ff    	and    $0xfffffffffffff000,%rax
ffffffff810035e3:	48 89 05 4e ca 00 00 	mov    %rax,0xca4e(%rip)        # ffffffff81010038 <lapic_root+0x18>
ffffffff810035ea:	48 8b 05 47 ca 00 00 	mov    0xca47(%rip),%rax        # ffffffff81010038 <lapic_root+0x18>
ffffffff810035f1:	b9 0d 00 00 00       	mov    $0xd,%ecx
ffffffff810035f6:	ba 10 04 00 00       	mov    $0x410,%edx
ffffffff810035fb:	be 00 00 00 00       	mov    $0x0,%esi
ffffffff81003600:	48 89 c7             	mov    %rax,%rdi
ffffffff81003603:	e8 cf 55 00 00       	callq  ffffffff81008bd7 <vmmgr_map>
ffffffff81003608:	48 89 05 31 ca 00 00 	mov    %rax,0xca31(%rip)        # ffffffff81010040 <lapic_root+0x20>
ffffffff8100360f:	48 8b 05 22 ca 00 00 	mov    0xca22(%rip),%rax        # ffffffff81010038 <lapic_root+0x18>
ffffffff81003616:	48 89 c6             	mov    %rax,%rsi
ffffffff81003619:	48 c7 c7 40 d0 00 81 	mov    $0xffffffff8100d040,%rdi
ffffffff81003620:	b8 00 00 00 00       	mov    $0x0,%eax
ffffffff81003625:	e8 ec 49 00 00       	callq  ffffffff81008016 <kprintf>
ffffffff8100362a:	48 8b 05 0f ca 00 00 	mov    0xca0f(%rip),%rax        # ffffffff81010040 <lapic_root+0x20>
ffffffff81003631:	48 85 c0             	test   %rax,%rax
ffffffff81003634:	75 07                	jne    ffffffff8100363d <lapic_init+0x75>
ffffffff81003636:	b8 ff ff ff ff       	mov    $0xffffffff,%eax
ffffffff8100363b:	eb 6f                	jmp    ffffffff810036ac <lapic_init+0xe4>
ffffffff8100363d:	48 8b 05 fc c9 00 00 	mov    0xc9fc(%rip),%rax        # ffffffff81010040 <lapic_root+0x20>
ffffffff81003644:	48 89 45 f8          	mov    %rax,-0x8(%rbp)
ffffffff81003648:	48 8b 45 f8          	mov    -0x8(%rbp),%rax
ffffffff8100364c:	8b 80 f0 00 00 00    	mov    0xf0(%rax),%eax
ffffffff81003652:	80 e4 fe             	and    $0xfe,%ah
ffffffff81003655:	89 c2                	mov    %eax,%edx
ffffffff81003657:	48 8b 45 f8          	mov    -0x8(%rbp),%rax
ffffffff8100365b:	89 90 f0 00 00 00    	mov    %edx,0xf0(%rax)
ffffffff81003661:	ba f0 00 00 00       	mov    $0xf0,%edx
ffffffff81003666:	be 00 00 00 00       	mov    $0x0,%esi
ffffffff8100366b:	48 c7 c7 8d 37 00 81 	mov    $0xffffffff8100378d,%rdi
ffffffff81003672:	e8 c8 fc ff ff       	callq  ffffffff8100333f <isr_install>
ffffffff81003677:	ba 20 00 00 00       	mov    $0x20,%edx
ffffffff8100367c:	48 c7 c6 20 00 01 81 	mov    $0xffffffff81010020,%rsi
ffffffff81003683:	48 c7 c7 ae 36 00 81 	mov    $0xffffffff810036ae,%rdi
ffffffff8100368a:	e8 b0 fc ff ff       	callq  ffffffff8100333f <isr_install>
ffffffff8100368f:	48 8b 45 f8          	mov    -0x8(%rbp),%rax
ffffffff81003693:	c7 80 f0 00 00 00 f0 	movl   $0x1f0,0xf0(%rax)
ffffffff8100369a:	01 00 00 
ffffffff8100369d:	b8 00 00 00 00       	mov    $0x0,%eax
ffffffff810036a2:	e8 7d 45 00 00       	callq  ffffffff81007c24 <_sti>
ffffffff810036a7:	b8 00 00 00 00       	mov    $0x0,%eax
ffffffff810036ac:	c9                   	leaveq 
ffffffff810036ad:	c3                   	retq   

ffffffff810036ae <lapic_timer_isr>:
ffffffff810036ae:	55                   	push   %rbp
ffffffff810036af:	48 89 e5             	mov    %rsp,%rbp
ffffffff810036b2:	48 83 ec 20          	sub    $0x20,%rsp
ffffffff810036b6:	48 89 7d e8          	mov    %rdi,-0x18(%rbp)
ffffffff810036ba:	48 89 75 e0          	mov    %rsi,-0x20(%rbp)
ffffffff810036be:	48 8b 45 e8          	mov    -0x18(%rbp),%rax
ffffffff810036c2:	48 89 45 f8          	mov    %rax,-0x8(%rbp)
ffffffff810036c6:	48 c7 45 f0 00 00 00 	movq   $0x0,-0x10(%rbp)
ffffffff810036cd:	00 
ffffffff810036ce:	48 8b 45 f8          	mov    -0x8(%rbp),%rax
ffffffff810036d2:	48 8b 40 20          	mov    0x20(%rax),%rax
ffffffff810036d6:	48 89 45 f0          	mov    %rax,-0x10(%rbp)
ffffffff810036da:	48 c7 c6 70 d0 00 81 	mov    $0xffffffff8100d070,%rsi
ffffffff810036e1:	48 c7 c7 50 d0 00 81 	mov    $0xffffffff8100d050,%rdi
ffffffff810036e8:	b8 00 00 00 00       	mov    $0x0,%eax
ffffffff810036ed:	e8 24 49 00 00       	callq  ffffffff81008016 <kprintf>
ffffffff810036f2:	48 8b 45 f0          	mov    -0x10(%rbp),%rax
ffffffff810036f6:	c7 80 b0 00 00 00 01 	movl   $0x1,0xb0(%rax)
ffffffff810036fd:	00 00 00 
ffffffff81003700:	b8 00 00 00 00       	mov    $0x0,%eax
ffffffff81003705:	c9                   	leaveq 
ffffffff81003706:	c3                   	retq   

ffffffff81003707 <lapic_isr>:
ffffffff81003707:	55                   	push   %rbp
ffffffff81003708:	48 89 e5             	mov    %rsp,%rbp
ffffffff8100370b:	48 83 ec 30          	sub    $0x30,%rsp
ffffffff8100370f:	48 89 7d d8          	mov    %rdi,-0x28(%rbp)
ffffffff81003713:	48 89 75 d0          	mov    %rsi,-0x30(%rbp)
ffffffff81003717:	48 8b 45 d8          	mov    -0x28(%rbp),%rax
ffffffff8100371b:	48 89 45 f8          	mov    %rax,-0x8(%rbp)
ffffffff8100371f:	48 c7 45 f0 00 00 00 	movq   $0x0,-0x10(%rbp)
ffffffff81003726:	00 
ffffffff81003727:	e8 ab 8c 00 00       	callq  ffffffff8100c3d7 <read_lapic_base>
ffffffff8100372c:	48 25 00 f0 ff ff    	and    $0xfffffffffffff000,%rax
ffffffff81003732:	48 89 45 e8          	mov    %rax,-0x18(%rbp)
ffffffff81003736:	48 8b 45 f8          	mov    -0x8(%rbp),%rax
ffffffff8100373a:	48 8b 40 18          	mov    0x18(%rax),%rax
ffffffff8100373e:	48 39 45 e8          	cmp    %rax,-0x18(%rbp)
ffffffff81003742:	75 1c                	jne    ffffffff81003760 <lapic_isr+0x59>
ffffffff81003744:	48 8b 45 f8          	mov    -0x8(%rbp),%rax
ffffffff81003748:	48 8b 40 20          	mov    0x20(%rax),%rax
ffffffff8100374c:	48 89 45 f0          	mov    %rax,-0x10(%rbp)
ffffffff81003750:	48 8b 45 f0          	mov    -0x10(%rbp),%rax
ffffffff81003754:	8b 80 80 02 00 00    	mov    0x280(%rax),%eax
ffffffff8100375a:	85 c0                	test   %eax,%eax
ffffffff8100375c:	74 1a                	je     ffffffff81003778 <lapic_isr+0x71>
ffffffff8100375e:	eb 07                	jmp    ffffffff81003767 <lapic_isr+0x60>
ffffffff81003760:	b8 ff ff ff ff       	mov    $0xffffffff,%eax
ffffffff81003765:	eb 24                	jmp    ffffffff8100378b <lapic_isr+0x84>
ffffffff81003767:	48 c7 c7 54 d0 00 81 	mov    $0xffffffff8100d054,%rdi
ffffffff8100376e:	b8 00 00 00 00       	mov    $0x0,%eax
ffffffff81003773:	e8 9e 48 00 00       	callq  ffffffff81008016 <kprintf>
ffffffff81003778:	48 8b 45 f0          	mov    -0x10(%rbp),%rax
ffffffff8100377c:	c7 80 b0 00 00 00 01 	movl   $0x1,0xb0(%rax)
ffffffff81003783:	00 00 00 
ffffffff81003786:	b8 00 00 00 00       	mov    $0x0,%eax
ffffffff8100378b:	c9                   	leaveq 
ffffffff8100378c:	c3                   	retq   

ffffffff8100378d <lapic_spurious_isr>:
ffffffff8100378d:	55                   	push   %rbp
ffffffff8100378e:	48 89 e5             	mov    %rsp,%rbp
ffffffff81003791:	48 83 ec 10          	sub    $0x10,%rsp
ffffffff81003795:	48 89 7d f8          	mov    %rdi,-0x8(%rbp)
ffffffff81003799:	48 89 75 f0          	mov    %rsi,-0x10(%rbp)
ffffffff8100379d:	b8 00 00 00 00       	mov    $0x0,%eax
ffffffff810037a2:	c9                   	leaveq 
ffffffff810037a3:	c3                   	retq   

ffffffff810037a4 <apic_timer_start>:
ffffffff810037a4:	55                   	push   %rbp
ffffffff810037a5:	48 89 e5             	mov    %rsp,%rbp
ffffffff810037a8:	48 83 ec 18          	sub    $0x18,%rsp
ffffffff810037ac:	89 7d ec             	mov    %edi,-0x14(%rbp)
ffffffff810037af:	48 8b 05 8a c8 00 00 	mov    0xc88a(%rip),%rax        # ffffffff81010040 <lapic_root+0x20>
ffffffff810037b6:	48 89 45 f8          	mov    %rax,-0x8(%rbp)
ffffffff810037ba:	48 8b 45 f8          	mov    -0x8(%rbp),%rax
ffffffff810037be:	c7 80 20 03 00 00 20 	movl   $0x20020,0x320(%rax)
ffffffff810037c5:	00 02 00 
ffffffff810037c8:	48 8b 45 f8          	mov    -0x8(%rbp),%rax
ffffffff810037cc:	c7 80 f0 03 00 00 0a 	movl   $0xa,0x3f0(%rax)
ffffffff810037d3:	00 00 00 
ffffffff810037d6:	48 8b 45 f8          	mov    -0x8(%rbp),%rax
ffffffff810037da:	8b 55 ec             	mov    -0x14(%rbp),%edx
ffffffff810037dd:	89 90 80 03 00 00    	mov    %edx,0x380(%rax)
ffffffff810037e3:	90                   	nop
ffffffff810037e4:	c9                   	leaveq 
ffffffff810037e5:	c3                   	retq   

ffffffff810037e6 <apic_add_to_list>:
ffffffff810037e6:	55                   	push   %rbp
ffffffff810037e7:	48 89 e5             	mov    %rsp,%rbp
ffffffff810037ea:	90                   	nop
ffffffff810037eb:	5d                   	pop    %rbp
ffffffff810037ec:	c3                   	retq   

ffffffff810037ed <gdt_entry_encode>:
ffffffff810037ed:	55                   	push   %rbp
ffffffff810037ee:	48 89 e5             	mov    %rsp,%rbp
ffffffff810037f1:	48 83 ec 20          	sub    $0x20,%rsp
ffffffff810037f5:	48 89 7d f8          	mov    %rdi,-0x8(%rbp)
ffffffff810037f9:	89 75 f4             	mov    %esi,-0xc(%rbp)
ffffffff810037fc:	89 55 f0             	mov    %edx,-0x10(%rbp)
ffffffff810037ff:	48 89 4d e8          	mov    %rcx,-0x18(%rbp)
ffffffff81003803:	48 83 7d e8 00       	cmpq   $0x0,-0x18(%rbp)
ffffffff81003808:	75 0a                	jne    ffffffff81003814 <gdt_entry_encode+0x27>
ffffffff8100380a:	b8 ff ff ff ff       	mov    $0xffffffff,%eax
ffffffff8100380f:	e9 71 01 00 00       	jmpq   ffffffff81003985 <gdt_entry_encode+0x198>
ffffffff81003814:	48 8b 45 e8          	mov    -0x18(%rbp),%rax
ffffffff81003818:	ba 08 00 00 00       	mov    $0x8,%edx
ffffffff8100381d:	be 00 00 00 00       	mov    $0x0,%esi
ffffffff81003822:	48 89 c7             	mov    %rax,%rdi
ffffffff81003825:	e8 5d 73 00 00       	callq  ffffffff8100ab87 <memset>
ffffffff8100382a:	48 8b 45 f8          	mov    -0x8(%rbp),%rax
ffffffff8100382e:	48 c1 e8 18          	shr    $0x18,%rax
ffffffff81003832:	89 c2                	mov    %eax,%edx
ffffffff81003834:	48 8b 45 e8          	mov    -0x18(%rbp),%rax
ffffffff81003838:	88 50 07             	mov    %dl,0x7(%rax)
ffffffff8100383b:	48 8b 45 f8          	mov    -0x8(%rbp),%rax
ffffffff8100383f:	48 c1 e8 10          	shr    $0x10,%rax
ffffffff81003843:	89 c2                	mov    %eax,%edx
ffffffff81003845:	48 8b 45 e8          	mov    -0x18(%rbp),%rax
ffffffff81003849:	88 50 04             	mov    %dl,0x4(%rax)
ffffffff8100384c:	48 8b 45 f8          	mov    -0x8(%rbp),%rax
ffffffff81003850:	89 c2                	mov    %eax,%edx
ffffffff81003852:	48 8b 45 e8          	mov    -0x18(%rbp),%rax
ffffffff81003856:	66 89 50 02          	mov    %dx,0x2(%rax)
ffffffff8100385a:	8b 45 f0             	mov    -0x10(%rbp),%eax
ffffffff8100385d:	83 e0 0f             	and    $0xf,%eax
ffffffff81003860:	48 8b 55 e8          	mov    -0x18(%rbp),%rdx
ffffffff81003864:	83 e0 0f             	and    $0xf,%eax
ffffffff81003867:	89 c1                	mov    %eax,%ecx
ffffffff81003869:	0f b6 42 05          	movzbl 0x5(%rdx),%eax
ffffffff8100386d:	83 e0 f0             	and    $0xfffffff0,%eax
ffffffff81003870:	09 c8                	or     %ecx,%eax
ffffffff81003872:	88 42 05             	mov    %al,0x5(%rdx)
ffffffff81003875:	8b 45 f0             	mov    -0x10(%rbp),%eax
ffffffff81003878:	c1 e8 04             	shr    $0x4,%eax
ffffffff8100387b:	83 e0 01             	and    $0x1,%eax
ffffffff8100387e:	48 8b 55 e8          	mov    -0x18(%rbp),%rdx
ffffffff81003882:	83 e0 01             	and    $0x1,%eax
ffffffff81003885:	c1 e0 04             	shl    $0x4,%eax
ffffffff81003888:	89 c1                	mov    %eax,%ecx
ffffffff8100388a:	0f b6 42 05          	movzbl 0x5(%rdx),%eax
ffffffff8100388e:	83 e0 ef             	and    $0xffffffef,%eax
ffffffff81003891:	09 c8                	or     %ecx,%eax
ffffffff81003893:	88 42 05             	mov    %al,0x5(%rdx)
ffffffff81003896:	8b 45 f0             	mov    -0x10(%rbp),%eax
ffffffff81003899:	c1 e8 05             	shr    $0x5,%eax
ffffffff8100389c:	83 e0 03             	and    $0x3,%eax
ffffffff8100389f:	48 8b 55 e8          	mov    -0x18(%rbp),%rdx
ffffffff810038a3:	83 e0 03             	and    $0x3,%eax
ffffffff810038a6:	c1 e0 05             	shl    $0x5,%eax
ffffffff810038a9:	89 c1                	mov    %eax,%ecx
ffffffff810038ab:	0f b6 42 05          	movzbl 0x5(%rdx),%eax
ffffffff810038af:	83 e0 9f             	and    $0xffffff9f,%eax
ffffffff810038b2:	09 c8                	or     %ecx,%eax
ffffffff810038b4:	88 42 05             	mov    %al,0x5(%rdx)
ffffffff810038b7:	8b 45 f0             	mov    -0x10(%rbp),%eax
ffffffff810038ba:	c1 e8 07             	shr    $0x7,%eax
ffffffff810038bd:	83 e0 01             	and    $0x1,%eax
ffffffff810038c0:	48 8b 55 e8          	mov    -0x18(%rbp),%rdx
ffffffff810038c4:	c1 e0 07             	shl    $0x7,%eax
ffffffff810038c7:	89 c1                	mov    %eax,%ecx
ffffffff810038c9:	0f b6 42 05          	movzbl 0x5(%rdx),%eax
ffffffff810038cd:	83 e0 7f             	and    $0x7f,%eax
ffffffff810038d0:	09 c8                	or     %ecx,%eax
ffffffff810038d2:	88 42 05             	mov    %al,0x5(%rdx)
ffffffff810038d5:	8b 45 f0             	mov    -0x10(%rbp),%eax
ffffffff810038d8:	c1 e8 0c             	shr    $0xc,%eax
ffffffff810038db:	83 e0 01             	and    $0x1,%eax
ffffffff810038de:	48 8b 55 e8          	mov    -0x18(%rbp),%rdx
ffffffff810038e2:	83 e0 01             	and    $0x1,%eax
ffffffff810038e5:	c1 e0 04             	shl    $0x4,%eax
ffffffff810038e8:	89 c1                	mov    %eax,%ecx
ffffffff810038ea:	0f b6 42 06          	movzbl 0x6(%rdx),%eax
ffffffff810038ee:	83 e0 ef             	and    $0xffffffef,%eax
ffffffff810038f1:	09 c8                	or     %ecx,%eax
ffffffff810038f3:	88 42 06             	mov    %al,0x6(%rdx)
ffffffff810038f6:	8b 45 f0             	mov    -0x10(%rbp),%eax
ffffffff810038f9:	c1 e8 0d             	shr    $0xd,%eax
ffffffff810038fc:	83 e0 01             	and    $0x1,%eax
ffffffff810038ff:	48 8b 55 e8          	mov    -0x18(%rbp),%rdx
ffffffff81003903:	83 e0 01             	and    $0x1,%eax
ffffffff81003906:	c1 e0 05             	shl    $0x5,%eax
ffffffff81003909:	89 c1                	mov    %eax,%ecx
ffffffff8100390b:	0f b6 42 06          	movzbl 0x6(%rdx),%eax
ffffffff8100390f:	83 e0 df             	and    $0xffffffdf,%eax
ffffffff81003912:	09 c8                	or     %ecx,%eax
ffffffff81003914:	88 42 06             	mov    %al,0x6(%rdx)
ffffffff81003917:	8b 45 f0             	mov    -0x10(%rbp),%eax
ffffffff8100391a:	c1 e8 0e             	shr    $0xe,%eax
ffffffff8100391d:	83 e0 01             	and    $0x1,%eax
ffffffff81003920:	48 8b 55 e8          	mov    -0x18(%rbp),%rdx
ffffffff81003924:	83 e0 01             	and    $0x1,%eax
ffffffff81003927:	c1 e0 06             	shl    $0x6,%eax
ffffffff8100392a:	89 c1                	mov    %eax,%ecx
ffffffff8100392c:	0f b6 42 06          	movzbl 0x6(%rdx),%eax
ffffffff81003930:	83 e0 bf             	and    $0xffffffbf,%eax
ffffffff81003933:	09 c8                	or     %ecx,%eax
ffffffff81003935:	88 42 06             	mov    %al,0x6(%rdx)
ffffffff81003938:	8b 45 f0             	mov    -0x10(%rbp),%eax
ffffffff8100393b:	c1 e8 0f             	shr    $0xf,%eax
ffffffff8100393e:	83 e0 01             	and    $0x1,%eax
ffffffff81003941:	48 8b 55 e8          	mov    -0x18(%rbp),%rdx
ffffffff81003945:	c1 e0 07             	shl    $0x7,%eax
ffffffff81003948:	89 c1                	mov    %eax,%ecx
ffffffff8100394a:	0f b6 42 06          	movzbl 0x6(%rdx),%eax
ffffffff8100394e:	83 e0 7f             	and    $0x7f,%eax
ffffffff81003951:	09 c8                	or     %ecx,%eax
ffffffff81003953:	88 42 06             	mov    %al,0x6(%rdx)
ffffffff81003956:	8b 45 f4             	mov    -0xc(%rbp),%eax
ffffffff81003959:	89 c2                	mov    %eax,%edx
ffffffff8100395b:	48 8b 45 e8          	mov    -0x18(%rbp),%rax
ffffffff8100395f:	66 89 10             	mov    %dx,(%rax)
ffffffff81003962:	8b 45 f4             	mov    -0xc(%rbp),%eax
ffffffff81003965:	c1 e8 10             	shr    $0x10,%eax
ffffffff81003968:	83 e0 0f             	and    $0xf,%eax
ffffffff8100396b:	48 8b 55 e8          	mov    -0x18(%rbp),%rdx
ffffffff8100396f:	83 e0 0f             	and    $0xf,%eax
ffffffff81003972:	89 c1                	mov    %eax,%ecx
ffffffff81003974:	0f b6 42 06          	movzbl 0x6(%rdx),%eax
ffffffff81003978:	83 e0 f0             	and    $0xfffffff0,%eax
ffffffff8100397b:	09 c8                	or     %ecx,%eax
ffffffff8100397d:	88 42 06             	mov    %al,0x6(%rdx)
ffffffff81003980:	b8 00 00 00 00       	mov    $0x0,%eax
ffffffff81003985:	c9                   	leaveq 
ffffffff81003986:	c3                   	retq   

ffffffff81003987 <gdt_init>:
ffffffff81003987:	55                   	push   %rbp
ffffffff81003988:	48 89 e5             	mov    %rsp,%rbp
ffffffff8100398b:	48 83 ec 20          	sub    $0x20,%rsp
ffffffff8100398f:	c7 45 fc 00 00 00 00 	movl   $0x0,-0x4(%rbp)
ffffffff81003996:	48 c7 45 f0 00 00 00 	movq   $0x0,-0x10(%rbp)
ffffffff8100399d:	00 
ffffffff8100399e:	48 c7 45 e8 00 00 00 	movq   $0x0,-0x18(%rbp)
ffffffff810039a5:	00 
ffffffff810039a6:	ba 20 00 00 00       	mov    $0x20,%edx
ffffffff810039ab:	be 00 00 00 00       	mov    $0x0,%esi
ffffffff810039b0:	48 c7 c7 60 00 01 81 	mov    $0xffffffff81010060,%rdi
ffffffff810039b7:	e8 cb 71 00 00       	callq  ffffffff8100ab87 <memset>
ffffffff810039bc:	be 01 00 00 00       	mov    $0x1,%esi
ffffffff810039c1:	bf 00 00 01 00       	mov    $0x10000,%edi
ffffffff810039c6:	e8 a0 54 00 00       	callq  ffffffff81008e6b <vmmgr_alloc>
ffffffff810039cb:	48 89 05 8e c6 00 00 	mov    %rax,0xc68e(%rip)        # ffffffff81010060 <gdt_root>
ffffffff810039d2:	be 01 00 00 00       	mov    $0x1,%esi
ffffffff810039d7:	bf 68 00 00 00       	mov    $0x68,%edi
ffffffff810039dc:	e8 8a 54 00 00       	callq  ffffffff81008e6b <vmmgr_alloc>
ffffffff810039e1:	48 89 05 90 c6 00 00 	mov    %rax,0xc690(%rip)        # ffffffff81010078 <gdt_root+0x18>
ffffffff810039e8:	48 8b 05 71 c6 00 00 	mov    0xc671(%rip),%rax        # ffffffff81010060 <gdt_root>
ffffffff810039ef:	48 85 c0             	test   %rax,%rax
ffffffff810039f2:	74 0c                	je     ffffffff81003a00 <gdt_init+0x79>
ffffffff810039f4:	48 8b 05 7d c6 00 00 	mov    0xc67d(%rip),%rax        # ffffffff81010078 <gdt_root+0x18>
ffffffff810039fb:	48 85 c0             	test   %rax,%rax
ffffffff810039fe:	75 0a                	jne    ffffffff81003a0a <gdt_init+0x83>
ffffffff81003a00:	b8 ff ff ff ff       	mov    $0xffffffff,%eax
ffffffff81003a05:	e9 49 01 00 00       	jmpq   ffffffff81003b53 <gdt_init+0x1cc>
ffffffff81003a0a:	48 8b 05 4f c6 00 00 	mov    0xc64f(%rip),%rax        # ffffffff81010060 <gdt_root>
ffffffff81003a11:	48 89 45 f0          	mov    %rax,-0x10(%rbp)
ffffffff81003a15:	48 8b 05 5c c6 00 00 	mov    0xc65c(%rip),%rax        # ffffffff81010078 <gdt_root+0x18>
ffffffff81003a1c:	48 89 45 e8          	mov    %rax,-0x18(%rbp)
ffffffff81003a20:	48 8b 45 f0          	mov    -0x10(%rbp),%rax
ffffffff81003a24:	ba 00 00 01 00       	mov    $0x10000,%edx
ffffffff81003a29:	be 00 00 00 00       	mov    $0x0,%esi
ffffffff81003a2e:	48 89 c7             	mov    %rax,%rdi
ffffffff81003a31:	e8 51 71 00 00       	callq  ffffffff8100ab87 <memset>
ffffffff81003a36:	48 8b 45 e8          	mov    -0x18(%rbp),%rax
ffffffff81003a3a:	ba 68 00 00 00       	mov    $0x68,%edx
ffffffff81003a3f:	be 00 00 00 00       	mov    $0x0,%esi
ffffffff81003a44:	48 89 c7             	mov    %rax,%rdi
ffffffff81003a47:	e8 3b 71 00 00       	callq  ffffffff8100ab87 <memset>
ffffffff81003a4c:	c7 45 fc 9a a0 00 00 	movl   $0xa09a,-0x4(%rbp)
ffffffff81003a53:	48 8b 45 f0          	mov    -0x10(%rbp),%rax
ffffffff81003a57:	48 8d 50 08          	lea    0x8(%rax),%rdx
ffffffff81003a5b:	8b 45 fc             	mov    -0x4(%rbp),%eax
ffffffff81003a5e:	48 89 d1             	mov    %rdx,%rcx
ffffffff81003a61:	89 c2                	mov    %eax,%edx
ffffffff81003a63:	be ff ff ff ff       	mov    $0xffffffff,%esi
ffffffff81003a68:	bf 00 00 00 00       	mov    $0x0,%edi
ffffffff81003a6d:	e8 7b fd ff ff       	callq  ffffffff810037ed <gdt_entry_encode>
ffffffff81003a72:	c7 45 fc 92 80 00 00 	movl   $0x8092,-0x4(%rbp)
ffffffff81003a79:	48 8b 45 f0          	mov    -0x10(%rbp),%rax
ffffffff81003a7d:	48 8d 50 10          	lea    0x10(%rax),%rdx
ffffffff81003a81:	8b 45 fc             	mov    -0x4(%rbp),%eax
ffffffff81003a84:	48 89 d1             	mov    %rdx,%rcx
ffffffff81003a87:	89 c2                	mov    %eax,%edx
ffffffff81003a89:	be ff ff ff ff       	mov    $0xffffffff,%esi
ffffffff81003a8e:	bf 00 00 00 00       	mov    $0x0,%edi
ffffffff81003a93:	e8 55 fd ff ff       	callq  ffffffff810037ed <gdt_entry_encode>
ffffffff81003a98:	c7 45 fc fa a0 00 00 	movl   $0xa0fa,-0x4(%rbp)
ffffffff81003a9f:	48 8b 45 f0          	mov    -0x10(%rbp),%rax
ffffffff81003aa3:	48 8d 50 18          	lea    0x18(%rax),%rdx
ffffffff81003aa7:	8b 45 fc             	mov    -0x4(%rbp),%eax
ffffffff81003aaa:	48 89 d1             	mov    %rdx,%rcx
ffffffff81003aad:	89 c2                	mov    %eax,%edx
ffffffff81003aaf:	be ff ff ff ff       	mov    $0xffffffff,%esi
ffffffff81003ab4:	bf 00 00 00 00       	mov    $0x0,%edi
ffffffff81003ab9:	e8 2f fd ff ff       	callq  ffffffff810037ed <gdt_entry_encode>
ffffffff81003abe:	c7 45 fc f2 80 00 00 	movl   $0x80f2,-0x4(%rbp)
ffffffff81003ac5:	48 8b 45 f0          	mov    -0x10(%rbp),%rax
ffffffff81003ac9:	48 8d 50 20          	lea    0x20(%rax),%rdx
ffffffff81003acd:	8b 45 fc             	mov    -0x4(%rbp),%eax
ffffffff81003ad0:	48 89 d1             	mov    %rdx,%rcx
ffffffff81003ad3:	89 c2                	mov    %eax,%edx
ffffffff81003ad5:	be ff ff ff ff       	mov    $0xffffffff,%esi
ffffffff81003ada:	bf 00 00 00 00       	mov    $0x0,%edi
ffffffff81003adf:	e8 09 fd ff ff       	callq  ffffffff810037ed <gdt_entry_encode>
ffffffff81003ae4:	c7 45 fc 89 80 00 00 	movl   $0x8089,-0x4(%rbp)
ffffffff81003aeb:	48 8b 45 e8          	mov    -0x18(%rbp),%rax
ffffffff81003aef:	66 c7 40 66 08 00    	movw   $0x8,0x66(%rax)
ffffffff81003af5:	48 8b 45 f0          	mov    -0x10(%rbp),%rax
ffffffff81003af9:	48 8d 48 28          	lea    0x28(%rax),%rcx
ffffffff81003afd:	48 8b 45 e8          	mov    -0x18(%rbp),%rax
ffffffff81003b01:	8b 55 fc             	mov    -0x4(%rbp),%edx
ffffffff81003b04:	be 07 00 00 00       	mov    $0x7,%esi
ffffffff81003b09:	48 89 c7             	mov    %rax,%rdi
ffffffff81003b0c:	e8 dc fc ff ff       	callq  ffffffff810037ed <gdt_entry_encode>
ffffffff81003b11:	48 8b 55 e8          	mov    -0x18(%rbp),%rdx
ffffffff81003b15:	48 8b 45 f0          	mov    -0x10(%rbp),%rax
ffffffff81003b19:	48 83 c0 30          	add    $0x30,%rax
ffffffff81003b1d:	48 c1 ea 20          	shr    $0x20,%rdx
ffffffff81003b21:	48 89 10             	mov    %rdx,(%rax)
ffffffff81003b24:	48 8b 45 f0          	mov    -0x10(%rbp),%rax
ffffffff81003b28:	48 89 05 3b c5 00 00 	mov    %rax,0xc53b(%rip)        # ffffffff8101006a <gdt_root+0xa>
ffffffff81003b2f:	66 c7 05 30 c5 00 00 	movw   $0xffff,0xc530(%rip)        # ffffffff81010068 <gdt_root+0x8>
ffffffff81003b36:	ff ff 
ffffffff81003b38:	48 c7 c7 68 00 01 81 	mov    $0xffffffff81010068,%rdi
ffffffff81003b3f:	e8 e6 40 00 00       	callq  ffffffff81007c2a <_lgdt>
ffffffff81003b44:	bf 28 00 00 00       	mov    $0x28,%edi
ffffffff81003b49:	e8 e0 40 00 00       	callq  ffffffff81007c2e <_ltr>
ffffffff81003b4e:	b8 00 00 00 00       	mov    $0x0,%eax
ffffffff81003b53:	c9                   	leaveq 
ffffffff81003b54:	c3                   	retq   
ffffffff81003b55:	66 2e 0f 1f 84 00 00 	nopw   %cs:0x0(%rax,%rax,1)
ffffffff81003b5c:	00 00 00 
ffffffff81003b5f:	90                   	nop

ffffffff81003b60 <isr_no_ec_begin>:
ffffffff81003b60:	9c                   	pushfq 
ffffffff81003b61:	50                   	push   %rax
ffffffff81003b62:	53                   	push   %rbx
ffffffff81003b63:	51                   	push   %rcx
ffffffff81003b64:	52                   	push   %rdx
ffffffff81003b65:	56                   	push   %rsi
ffffffff81003b66:	57                   	push   %rdi
ffffffff81003b67:	54                   	push   %rsp
ffffffff81003b68:	55                   	push   %rbp
ffffffff81003b69:	41 50                	push   %r8
ffffffff81003b6b:	41 51                	push   %r9
ffffffff81003b6d:	41 52                	push   %r10
ffffffff81003b6f:	41 53                	push   %r11
ffffffff81003b71:	41 54                	push   %r12
ffffffff81003b73:	41 55                	push   %r13
ffffffff81003b75:	41 56                	push   %r14
ffffffff81003b77:	41 57                	push   %r15
ffffffff81003b79:	fc                   	cld    
ffffffff81003b7a:	bf 00 00 00 00       	mov    $0x0,%edi
ffffffff81003b7f:	be 00 00 00 00       	mov    $0x0,%esi
ffffffff81003b84:	e8 6e f9 ff ff       	callq  ffffffff810034f7 <isr_dispatcher>
ffffffff81003b89:	41 5f                	pop    %r15
ffffffff81003b8b:	41 5e                	pop    %r14
ffffffff81003b8d:	41 5d                	pop    %r13
ffffffff81003b8f:	41 5c                	pop    %r12
ffffffff81003b91:	41 5b                	pop    %r11
ffffffff81003b93:	41 5a                	pop    %r10
ffffffff81003b95:	41 59                	pop    %r9
ffffffff81003b97:	41 58                	pop    %r8
ffffffff81003b99:	5d                   	pop    %rbp
ffffffff81003b9a:	5c                   	pop    %rsp
ffffffff81003b9b:	5f                   	pop    %rdi
ffffffff81003b9c:	5e                   	pop    %rsi
ffffffff81003b9d:	5a                   	pop    %rdx
ffffffff81003b9e:	59                   	pop    %rcx
ffffffff81003b9f:	5b                   	pop    %rbx
ffffffff81003ba0:	58                   	pop    %rax
ffffffff81003ba1:	9d                   	popfq  
ffffffff81003ba2:	48 cf                	iretq  

ffffffff81003ba4 <isr_1>:
ffffffff81003ba4:	9c                   	pushfq 
ffffffff81003ba5:	50                   	push   %rax
ffffffff81003ba6:	53                   	push   %rbx
ffffffff81003ba7:	51                   	push   %rcx
ffffffff81003ba8:	52                   	push   %rdx
ffffffff81003ba9:	56                   	push   %rsi
ffffffff81003baa:	57                   	push   %rdi
ffffffff81003bab:	54                   	push   %rsp
ffffffff81003bac:	55                   	push   %rbp
ffffffff81003bad:	41 50                	push   %r8
ffffffff81003baf:	41 51                	push   %r9
ffffffff81003bb1:	41 52                	push   %r10
ffffffff81003bb3:	41 53                	push   %r11
ffffffff81003bb5:	41 54                	push   %r12
ffffffff81003bb7:	41 55                	push   %r13
ffffffff81003bb9:	41 56                	push   %r14
ffffffff81003bbb:	41 57                	push   %r15
ffffffff81003bbd:	fc                   	cld    
ffffffff81003bbe:	bf 01 00 00 00       	mov    $0x1,%edi
ffffffff81003bc3:	be 00 00 00 00       	mov    $0x0,%esi
ffffffff81003bc8:	e8 2a f9 ff ff       	callq  ffffffff810034f7 <isr_dispatcher>
ffffffff81003bcd:	41 5f                	pop    %r15
ffffffff81003bcf:	41 5e                	pop    %r14
ffffffff81003bd1:	41 5d                	pop    %r13
ffffffff81003bd3:	41 5c                	pop    %r12
ffffffff81003bd5:	41 5b                	pop    %r11
ffffffff81003bd7:	41 5a                	pop    %r10
ffffffff81003bd9:	41 59                	pop    %r9
ffffffff81003bdb:	41 58                	pop    %r8
ffffffff81003bdd:	5d                   	pop    %rbp
ffffffff81003bde:	5c                   	pop    %rsp
ffffffff81003bdf:	5f                   	pop    %rdi
ffffffff81003be0:	5e                   	pop    %rsi
ffffffff81003be1:	5a                   	pop    %rdx
ffffffff81003be2:	59                   	pop    %rcx
ffffffff81003be3:	5b                   	pop    %rbx
ffffffff81003be4:	58                   	pop    %rax
ffffffff81003be5:	9d                   	popfq  
ffffffff81003be6:	48 cf                	iretq  

ffffffff81003be8 <isr_2>:
ffffffff81003be8:	9c                   	pushfq 
ffffffff81003be9:	50                   	push   %rax
ffffffff81003bea:	53                   	push   %rbx
ffffffff81003beb:	51                   	push   %rcx
ffffffff81003bec:	52                   	push   %rdx
ffffffff81003bed:	56                   	push   %rsi
ffffffff81003bee:	57                   	push   %rdi
ffffffff81003bef:	54                   	push   %rsp
ffffffff81003bf0:	55                   	push   %rbp
ffffffff81003bf1:	41 50                	push   %r8
ffffffff81003bf3:	41 51                	push   %r9
ffffffff81003bf5:	41 52                	push   %r10
ffffffff81003bf7:	41 53                	push   %r11
ffffffff81003bf9:	41 54                	push   %r12
ffffffff81003bfb:	41 55                	push   %r13
ffffffff81003bfd:	41 56                	push   %r14
ffffffff81003bff:	41 57                	push   %r15
ffffffff81003c01:	fc                   	cld    
ffffffff81003c02:	bf 02 00 00 00       	mov    $0x2,%edi
ffffffff81003c07:	be 00 00 00 00       	mov    $0x0,%esi
ffffffff81003c0c:	e8 e6 f8 ff ff       	callq  ffffffff810034f7 <isr_dispatcher>
ffffffff81003c11:	41 5f                	pop    %r15
ffffffff81003c13:	41 5e                	pop    %r14
ffffffff81003c15:	41 5d                	pop    %r13
ffffffff81003c17:	41 5c                	pop    %r12
ffffffff81003c19:	41 5b                	pop    %r11
ffffffff81003c1b:	41 5a                	pop    %r10
ffffffff81003c1d:	41 59                	pop    %r9
ffffffff81003c1f:	41 58                	pop    %r8
ffffffff81003c21:	5d                   	pop    %rbp
ffffffff81003c22:	5c                   	pop    %rsp
ffffffff81003c23:	5f                   	pop    %rdi
ffffffff81003c24:	5e                   	pop    %rsi
ffffffff81003c25:	5a                   	pop    %rdx
ffffffff81003c26:	59                   	pop    %rcx
ffffffff81003c27:	5b                   	pop    %rbx
ffffffff81003c28:	58                   	pop    %rax
ffffffff81003c29:	9d                   	popfq  
ffffffff81003c2a:	48 cf                	iretq  

ffffffff81003c2c <isr_3>:
ffffffff81003c2c:	9c                   	pushfq 
ffffffff81003c2d:	50                   	push   %rax
ffffffff81003c2e:	53                   	push   %rbx
ffffffff81003c2f:	51                   	push   %rcx
ffffffff81003c30:	52                   	push   %rdx
ffffffff81003c31:	56                   	push   %rsi
ffffffff81003c32:	57                   	push   %rdi
ffffffff81003c33:	54                   	push   %rsp
ffffffff81003c34:	55                   	push   %rbp
ffffffff81003c35:	41 50                	push   %r8
ffffffff81003c37:	41 51                	push   %r9
ffffffff81003c39:	41 52                	push   %r10
ffffffff81003c3b:	41 53                	push   %r11
ffffffff81003c3d:	41 54                	push   %r12
ffffffff81003c3f:	41 55                	push   %r13
ffffffff81003c41:	41 56                	push   %r14
ffffffff81003c43:	41 57                	push   %r15
ffffffff81003c45:	fc                   	cld    
ffffffff81003c46:	bf 03 00 00 00       	mov    $0x3,%edi
ffffffff81003c4b:	be 00 00 00 00       	mov    $0x0,%esi
ffffffff81003c50:	e8 a2 f8 ff ff       	callq  ffffffff810034f7 <isr_dispatcher>
ffffffff81003c55:	41 5f                	pop    %r15
ffffffff81003c57:	41 5e                	pop    %r14
ffffffff81003c59:	41 5d                	pop    %r13
ffffffff81003c5b:	41 5c                	pop    %r12
ffffffff81003c5d:	41 5b                	pop    %r11
ffffffff81003c5f:	41 5a                	pop    %r10
ffffffff81003c61:	41 59                	pop    %r9
ffffffff81003c63:	41 58                	pop    %r8
ffffffff81003c65:	5d                   	pop    %rbp
ffffffff81003c66:	5c                   	pop    %rsp
ffffffff81003c67:	5f                   	pop    %rdi
ffffffff81003c68:	5e                   	pop    %rsi
ffffffff81003c69:	5a                   	pop    %rdx
ffffffff81003c6a:	59                   	pop    %rcx
ffffffff81003c6b:	5b                   	pop    %rbx
ffffffff81003c6c:	58                   	pop    %rax
ffffffff81003c6d:	9d                   	popfq  
ffffffff81003c6e:	48 cf                	iretq  

ffffffff81003c70 <isr_4>:
ffffffff81003c70:	9c                   	pushfq 
ffffffff81003c71:	50                   	push   %rax
ffffffff81003c72:	53                   	push   %rbx
ffffffff81003c73:	51                   	push   %rcx
ffffffff81003c74:	52                   	push   %rdx
ffffffff81003c75:	56                   	push   %rsi
ffffffff81003c76:	57                   	push   %rdi
ffffffff81003c77:	54                   	push   %rsp
ffffffff81003c78:	55                   	push   %rbp
ffffffff81003c79:	41 50                	push   %r8
ffffffff81003c7b:	41 51                	push   %r9
ffffffff81003c7d:	41 52                	push   %r10
ffffffff81003c7f:	41 53                	push   %r11
ffffffff81003c81:	41 54                	push   %r12
ffffffff81003c83:	41 55                	push   %r13
ffffffff81003c85:	41 56                	push   %r14
ffffffff81003c87:	41 57                	push   %r15
ffffffff81003c89:	fc                   	cld    
ffffffff81003c8a:	bf 04 00 00 00       	mov    $0x4,%edi
ffffffff81003c8f:	be 00 00 00 00       	mov    $0x0,%esi
ffffffff81003c94:	e8 5e f8 ff ff       	callq  ffffffff810034f7 <isr_dispatcher>
ffffffff81003c99:	41 5f                	pop    %r15
ffffffff81003c9b:	41 5e                	pop    %r14
ffffffff81003c9d:	41 5d                	pop    %r13
ffffffff81003c9f:	41 5c                	pop    %r12
ffffffff81003ca1:	41 5b                	pop    %r11
ffffffff81003ca3:	41 5a                	pop    %r10
ffffffff81003ca5:	41 59                	pop    %r9
ffffffff81003ca7:	41 58                	pop    %r8
ffffffff81003ca9:	5d                   	pop    %rbp
ffffffff81003caa:	5c                   	pop    %rsp
ffffffff81003cab:	5f                   	pop    %rdi
ffffffff81003cac:	5e                   	pop    %rsi
ffffffff81003cad:	5a                   	pop    %rdx
ffffffff81003cae:	59                   	pop    %rcx
ffffffff81003caf:	5b                   	pop    %rbx
ffffffff81003cb0:	58                   	pop    %rax
ffffffff81003cb1:	9d                   	popfq  
ffffffff81003cb2:	48 cf                	iretq  

ffffffff81003cb4 <isr_5>:
ffffffff81003cb4:	9c                   	pushfq 
ffffffff81003cb5:	50                   	push   %rax
ffffffff81003cb6:	53                   	push   %rbx
ffffffff81003cb7:	51                   	push   %rcx
ffffffff81003cb8:	52                   	push   %rdx
ffffffff81003cb9:	56                   	push   %rsi
ffffffff81003cba:	57                   	push   %rdi
ffffffff81003cbb:	54                   	push   %rsp
ffffffff81003cbc:	55                   	push   %rbp
ffffffff81003cbd:	41 50                	push   %r8
ffffffff81003cbf:	41 51                	push   %r9
ffffffff81003cc1:	41 52                	push   %r10
ffffffff81003cc3:	41 53                	push   %r11
ffffffff81003cc5:	41 54                	push   %r12
ffffffff81003cc7:	41 55                	push   %r13
ffffffff81003cc9:	41 56                	push   %r14
ffffffff81003ccb:	41 57                	push   %r15
ffffffff81003ccd:	fc                   	cld    
ffffffff81003cce:	bf 05 00 00 00       	mov    $0x5,%edi
ffffffff81003cd3:	be 00 00 00 00       	mov    $0x0,%esi
ffffffff81003cd8:	e8 1a f8 ff ff       	callq  ffffffff810034f7 <isr_dispatcher>
ffffffff81003cdd:	41 5f                	pop    %r15
ffffffff81003cdf:	41 5e                	pop    %r14
ffffffff81003ce1:	41 5d                	pop    %r13
ffffffff81003ce3:	41 5c                	pop    %r12
ffffffff81003ce5:	41 5b                	pop    %r11
ffffffff81003ce7:	41 5a                	pop    %r10
ffffffff81003ce9:	41 59                	pop    %r9
ffffffff81003ceb:	41 58                	pop    %r8
ffffffff81003ced:	5d                   	pop    %rbp
ffffffff81003cee:	5c                   	pop    %rsp
ffffffff81003cef:	5f                   	pop    %rdi
ffffffff81003cf0:	5e                   	pop    %rsi
ffffffff81003cf1:	5a                   	pop    %rdx
ffffffff81003cf2:	59                   	pop    %rcx
ffffffff81003cf3:	5b                   	pop    %rbx
ffffffff81003cf4:	58                   	pop    %rax
ffffffff81003cf5:	9d                   	popfq  
ffffffff81003cf6:	48 cf                	iretq  

ffffffff81003cf8 <isr_6>:
ffffffff81003cf8:	9c                   	pushfq 
ffffffff81003cf9:	50                   	push   %rax
ffffffff81003cfa:	53                   	push   %rbx
ffffffff81003cfb:	51                   	push   %rcx
ffffffff81003cfc:	52                   	push   %rdx
ffffffff81003cfd:	56                   	push   %rsi
ffffffff81003cfe:	57                   	push   %rdi
ffffffff81003cff:	54                   	push   %rsp
ffffffff81003d00:	55                   	push   %rbp
ffffffff81003d01:	41 50                	push   %r8
ffffffff81003d03:	41 51                	push   %r9
ffffffff81003d05:	41 52                	push   %r10
ffffffff81003d07:	41 53                	push   %r11
ffffffff81003d09:	41 54                	push   %r12
ffffffff81003d0b:	41 55                	push   %r13
ffffffff81003d0d:	41 56                	push   %r14
ffffffff81003d0f:	41 57                	push   %r15
ffffffff81003d11:	fc                   	cld    
ffffffff81003d12:	bf 06 00 00 00       	mov    $0x6,%edi
ffffffff81003d17:	be 00 00 00 00       	mov    $0x0,%esi
ffffffff81003d1c:	e8 d6 f7 ff ff       	callq  ffffffff810034f7 <isr_dispatcher>
ffffffff81003d21:	41 5f                	pop    %r15
ffffffff81003d23:	41 5e                	pop    %r14
ffffffff81003d25:	41 5d                	pop    %r13
ffffffff81003d27:	41 5c                	pop    %r12
ffffffff81003d29:	41 5b                	pop    %r11
ffffffff81003d2b:	41 5a                	pop    %r10
ffffffff81003d2d:	41 59                	pop    %r9
ffffffff81003d2f:	41 58                	pop    %r8
ffffffff81003d31:	5d                   	pop    %rbp
ffffffff81003d32:	5c                   	pop    %rsp
ffffffff81003d33:	5f                   	pop    %rdi
ffffffff81003d34:	5e                   	pop    %rsi
ffffffff81003d35:	5a                   	pop    %rdx
ffffffff81003d36:	59                   	pop    %rcx
ffffffff81003d37:	5b                   	pop    %rbx
ffffffff81003d38:	58                   	pop    %rax
ffffffff81003d39:	9d                   	popfq  
ffffffff81003d3a:	48 cf                	iretq  

ffffffff81003d3c <isr_7>:
ffffffff81003d3c:	9c                   	pushfq 
ffffffff81003d3d:	50                   	push   %rax
ffffffff81003d3e:	53                   	push   %rbx
ffffffff81003d3f:	51                   	push   %rcx
ffffffff81003d40:	52                   	push   %rdx
ffffffff81003d41:	56                   	push   %rsi
ffffffff81003d42:	57                   	push   %rdi
ffffffff81003d43:	54                   	push   %rsp
ffffffff81003d44:	55                   	push   %rbp
ffffffff81003d45:	41 50                	push   %r8
ffffffff81003d47:	41 51                	push   %r9
ffffffff81003d49:	41 52                	push   %r10
ffffffff81003d4b:	41 53                	push   %r11
ffffffff81003d4d:	41 54                	push   %r12
ffffffff81003d4f:	41 55                	push   %r13
ffffffff81003d51:	41 56                	push   %r14
ffffffff81003d53:	41 57                	push   %r15
ffffffff81003d55:	fc                   	cld    
ffffffff81003d56:	bf 07 00 00 00       	mov    $0x7,%edi
ffffffff81003d5b:	be 00 00 00 00       	mov    $0x0,%esi
ffffffff81003d60:	e8 92 f7 ff ff       	callq  ffffffff810034f7 <isr_dispatcher>
ffffffff81003d65:	41 5f                	pop    %r15
ffffffff81003d67:	41 5e                	pop    %r14
ffffffff81003d69:	41 5d                	pop    %r13
ffffffff81003d6b:	41 5c                	pop    %r12
ffffffff81003d6d:	41 5b                	pop    %r11
ffffffff81003d6f:	41 5a                	pop    %r10
ffffffff81003d71:	41 59                	pop    %r9
ffffffff81003d73:	41 58                	pop    %r8
ffffffff81003d75:	5d                   	pop    %rbp
ffffffff81003d76:	5c                   	pop    %rsp
ffffffff81003d77:	5f                   	pop    %rdi
ffffffff81003d78:	5e                   	pop    %rsi
ffffffff81003d79:	5a                   	pop    %rdx
ffffffff81003d7a:	59                   	pop    %rcx
ffffffff81003d7b:	5b                   	pop    %rbx
ffffffff81003d7c:	58                   	pop    %rax
ffffffff81003d7d:	9d                   	popfq  
ffffffff81003d7e:	48 cf                	iretq  

ffffffff81003d80 <isr_9>:
ffffffff81003d80:	9c                   	pushfq 
ffffffff81003d81:	50                   	push   %rax
ffffffff81003d82:	53                   	push   %rbx
ffffffff81003d83:	51                   	push   %rcx
ffffffff81003d84:	52                   	push   %rdx
ffffffff81003d85:	56                   	push   %rsi
ffffffff81003d86:	57                   	push   %rdi
ffffffff81003d87:	54                   	push   %rsp
ffffffff81003d88:	55                   	push   %rbp
ffffffff81003d89:	41 50                	push   %r8
ffffffff81003d8b:	41 51                	push   %r9
ffffffff81003d8d:	41 52                	push   %r10
ffffffff81003d8f:	41 53                	push   %r11
ffffffff81003d91:	41 54                	push   %r12
ffffffff81003d93:	41 55                	push   %r13
ffffffff81003d95:	41 56                	push   %r14
ffffffff81003d97:	41 57                	push   %r15
ffffffff81003d99:	fc                   	cld    
ffffffff81003d9a:	bf 09 00 00 00       	mov    $0x9,%edi
ffffffff81003d9f:	be 00 00 00 00       	mov    $0x0,%esi
ffffffff81003da4:	e8 4e f7 ff ff       	callq  ffffffff810034f7 <isr_dispatcher>
ffffffff81003da9:	41 5f                	pop    %r15
ffffffff81003dab:	41 5e                	pop    %r14
ffffffff81003dad:	41 5d                	pop    %r13
ffffffff81003daf:	41 5c                	pop    %r12
ffffffff81003db1:	41 5b                	pop    %r11
ffffffff81003db3:	41 5a                	pop    %r10
ffffffff81003db5:	41 59                	pop    %r9
ffffffff81003db7:	41 58                	pop    %r8
ffffffff81003db9:	5d                   	pop    %rbp
ffffffff81003dba:	5c                   	pop    %rsp
ffffffff81003dbb:	5f                   	pop    %rdi
ffffffff81003dbc:	5e                   	pop    %rsi
ffffffff81003dbd:	5a                   	pop    %rdx
ffffffff81003dbe:	59                   	pop    %rcx
ffffffff81003dbf:	5b                   	pop    %rbx
ffffffff81003dc0:	58                   	pop    %rax
ffffffff81003dc1:	9d                   	popfq  
ffffffff81003dc2:	48 cf                	iretq  

ffffffff81003dc4 <isr_no_ec_sz_start>:
ffffffff81003dc4:	9c                   	pushfq 
ffffffff81003dc5:	50                   	push   %rax
ffffffff81003dc6:	53                   	push   %rbx
ffffffff81003dc7:	51                   	push   %rcx
ffffffff81003dc8:	52                   	push   %rdx
ffffffff81003dc9:	56                   	push   %rsi
ffffffff81003dca:	57                   	push   %rdi
ffffffff81003dcb:	54                   	push   %rsp
ffffffff81003dcc:	55                   	push   %rbp
ffffffff81003dcd:	41 50                	push   %r8
ffffffff81003dcf:	41 51                	push   %r9
ffffffff81003dd1:	41 52                	push   %r10
ffffffff81003dd3:	41 53                	push   %r11
ffffffff81003dd5:	41 54                	push   %r12
ffffffff81003dd7:	41 55                	push   %r13
ffffffff81003dd9:	41 56                	push   %r14
ffffffff81003ddb:	41 57                	push   %r15
ffffffff81003ddd:	fc                   	cld    
ffffffff81003dde:	bf 10 00 00 00       	mov    $0x10,%edi
ffffffff81003de3:	be 00 00 00 00       	mov    $0x0,%esi
ffffffff81003de8:	e8 0a f7 ff ff       	callq  ffffffff810034f7 <isr_dispatcher>
ffffffff81003ded:	41 5f                	pop    %r15
ffffffff81003def:	41 5e                	pop    %r14
ffffffff81003df1:	41 5d                	pop    %r13
ffffffff81003df3:	41 5c                	pop    %r12
ffffffff81003df5:	41 5b                	pop    %r11
ffffffff81003df7:	41 5a                	pop    %r10
ffffffff81003df9:	41 59                	pop    %r9
ffffffff81003dfb:	41 58                	pop    %r8
ffffffff81003dfd:	5d                   	pop    %rbp
ffffffff81003dfe:	5c                   	pop    %rsp
ffffffff81003dff:	5f                   	pop    %rdi
ffffffff81003e00:	5e                   	pop    %rsi
ffffffff81003e01:	5a                   	pop    %rdx
ffffffff81003e02:	59                   	pop    %rcx
ffffffff81003e03:	5b                   	pop    %rbx
ffffffff81003e04:	58                   	pop    %rax
ffffffff81003e05:	9d                   	popfq  
ffffffff81003e06:	48 cf                	iretq  

ffffffff81003e08 <isr_no_ec_sz_end>:
ffffffff81003e08:	9c                   	pushfq 
ffffffff81003e09:	50                   	push   %rax
ffffffff81003e0a:	53                   	push   %rbx
ffffffff81003e0b:	51                   	push   %rcx
ffffffff81003e0c:	52                   	push   %rdx
ffffffff81003e0d:	56                   	push   %rsi
ffffffff81003e0e:	57                   	push   %rdi
ffffffff81003e0f:	54                   	push   %rsp
ffffffff81003e10:	55                   	push   %rbp
ffffffff81003e11:	41 50                	push   %r8
ffffffff81003e13:	41 51                	push   %r9
ffffffff81003e15:	41 52                	push   %r10
ffffffff81003e17:	41 53                	push   %r11
ffffffff81003e19:	41 54                	push   %r12
ffffffff81003e1b:	41 55                	push   %r13
ffffffff81003e1d:	41 56                	push   %r14
ffffffff81003e1f:	41 57                	push   %r15
ffffffff81003e21:	fc                   	cld    
ffffffff81003e22:	bf 12 00 00 00       	mov    $0x12,%edi
ffffffff81003e27:	be 00 00 00 00       	mov    $0x0,%esi
ffffffff81003e2c:	e8 c6 f6 ff ff       	callq  ffffffff810034f7 <isr_dispatcher>
ffffffff81003e31:	41 5f                	pop    %r15
ffffffff81003e33:	41 5e                	pop    %r14
ffffffff81003e35:	41 5d                	pop    %r13
ffffffff81003e37:	41 5c                	pop    %r12
ffffffff81003e39:	41 5b                	pop    %r11
ffffffff81003e3b:	41 5a                	pop    %r10
ffffffff81003e3d:	41 59                	pop    %r9
ffffffff81003e3f:	41 58                	pop    %r8
ffffffff81003e41:	5d                   	pop    %rbp
ffffffff81003e42:	5c                   	pop    %rsp
ffffffff81003e43:	5f                   	pop    %rdi
ffffffff81003e44:	5e                   	pop    %rsi
ffffffff81003e45:	5a                   	pop    %rdx
ffffffff81003e46:	59                   	pop    %rcx
ffffffff81003e47:	5b                   	pop    %rbx
ffffffff81003e48:	58                   	pop    %rax
ffffffff81003e49:	9d                   	popfq  
ffffffff81003e4a:	48 cf                	iretq  

ffffffff81003e4c <isr_19>:
ffffffff81003e4c:	9c                   	pushfq 
ffffffff81003e4d:	50                   	push   %rax
ffffffff81003e4e:	53                   	push   %rbx
ffffffff81003e4f:	51                   	push   %rcx
ffffffff81003e50:	52                   	push   %rdx
ffffffff81003e51:	56                   	push   %rsi
ffffffff81003e52:	57                   	push   %rdi
ffffffff81003e53:	54                   	push   %rsp
ffffffff81003e54:	55                   	push   %rbp
ffffffff81003e55:	41 50                	push   %r8
ffffffff81003e57:	41 51                	push   %r9
ffffffff81003e59:	41 52                	push   %r10
ffffffff81003e5b:	41 53                	push   %r11
ffffffff81003e5d:	41 54                	push   %r12
ffffffff81003e5f:	41 55                	push   %r13
ffffffff81003e61:	41 56                	push   %r14
ffffffff81003e63:	41 57                	push   %r15
ffffffff81003e65:	fc                   	cld    
ffffffff81003e66:	bf 13 00 00 00       	mov    $0x13,%edi
ffffffff81003e6b:	be 00 00 00 00       	mov    $0x0,%esi
ffffffff81003e70:	e8 82 f6 ff ff       	callq  ffffffff810034f7 <isr_dispatcher>
ffffffff81003e75:	41 5f                	pop    %r15
ffffffff81003e77:	41 5e                	pop    %r14
ffffffff81003e79:	41 5d                	pop    %r13
ffffffff81003e7b:	41 5c                	pop    %r12
ffffffff81003e7d:	41 5b                	pop    %r11
ffffffff81003e7f:	41 5a                	pop    %r10
ffffffff81003e81:	41 59                	pop    %r9
ffffffff81003e83:	41 58                	pop    %r8
ffffffff81003e85:	5d                   	pop    %rbp
ffffffff81003e86:	5c                   	pop    %rsp
ffffffff81003e87:	5f                   	pop    %rdi
ffffffff81003e88:	5e                   	pop    %rsi
ffffffff81003e89:	5a                   	pop    %rdx
ffffffff81003e8a:	59                   	pop    %rcx
ffffffff81003e8b:	5b                   	pop    %rbx
ffffffff81003e8c:	58                   	pop    %rax
ffffffff81003e8d:	9d                   	popfq  
ffffffff81003e8e:	48 cf                	iretq  

ffffffff81003e90 <isr_20>:
ffffffff81003e90:	9c                   	pushfq 
ffffffff81003e91:	50                   	push   %rax
ffffffff81003e92:	53                   	push   %rbx
ffffffff81003e93:	51                   	push   %rcx
ffffffff81003e94:	52                   	push   %rdx
ffffffff81003e95:	56                   	push   %rsi
ffffffff81003e96:	57                   	push   %rdi
ffffffff81003e97:	54                   	push   %rsp
ffffffff81003e98:	55                   	push   %rbp
ffffffff81003e99:	41 50                	push   %r8
ffffffff81003e9b:	41 51                	push   %r9
ffffffff81003e9d:	41 52                	push   %r10
ffffffff81003e9f:	41 53                	push   %r11
ffffffff81003ea1:	41 54                	push   %r12
ffffffff81003ea3:	41 55                	push   %r13
ffffffff81003ea5:	41 56                	push   %r14
ffffffff81003ea7:	41 57                	push   %r15
ffffffff81003ea9:	fc                   	cld    
ffffffff81003eaa:	bf 14 00 00 00       	mov    $0x14,%edi
ffffffff81003eaf:	be 00 00 00 00       	mov    $0x0,%esi
ffffffff81003eb4:	e8 3e f6 ff ff       	callq  ffffffff810034f7 <isr_dispatcher>
ffffffff81003eb9:	41 5f                	pop    %r15
ffffffff81003ebb:	41 5e                	pop    %r14
ffffffff81003ebd:	41 5d                	pop    %r13
ffffffff81003ebf:	41 5c                	pop    %r12
ffffffff81003ec1:	41 5b                	pop    %r11
ffffffff81003ec3:	41 5a                	pop    %r10
ffffffff81003ec5:	41 59                	pop    %r9
ffffffff81003ec7:	41 58                	pop    %r8
ffffffff81003ec9:	5d                   	pop    %rbp
ffffffff81003eca:	5c                   	pop    %rsp
ffffffff81003ecb:	5f                   	pop    %rdi
ffffffff81003ecc:	5e                   	pop    %rsi
ffffffff81003ecd:	5a                   	pop    %rdx
ffffffff81003ece:	59                   	pop    %rcx
ffffffff81003ecf:	5b                   	pop    %rbx
ffffffff81003ed0:	58                   	pop    %rax
ffffffff81003ed1:	9d                   	popfq  
ffffffff81003ed2:	48 cf                	iretq  

ffffffff81003ed4 <isr_32>:
ffffffff81003ed4:	9c                   	pushfq 
ffffffff81003ed5:	50                   	push   %rax
ffffffff81003ed6:	53                   	push   %rbx
ffffffff81003ed7:	51                   	push   %rcx
ffffffff81003ed8:	52                   	push   %rdx
ffffffff81003ed9:	56                   	push   %rsi
ffffffff81003eda:	57                   	push   %rdi
ffffffff81003edb:	54                   	push   %rsp
ffffffff81003edc:	55                   	push   %rbp
ffffffff81003edd:	41 50                	push   %r8
ffffffff81003edf:	41 51                	push   %r9
ffffffff81003ee1:	41 52                	push   %r10
ffffffff81003ee3:	41 53                	push   %r11
ffffffff81003ee5:	41 54                	push   %r12
ffffffff81003ee7:	41 55                	push   %r13
ffffffff81003ee9:	41 56                	push   %r14
ffffffff81003eeb:	41 57                	push   %r15
ffffffff81003eed:	fc                   	cld    
ffffffff81003eee:	bf 20 00 00 00       	mov    $0x20,%edi
ffffffff81003ef3:	be 00 00 00 00       	mov    $0x0,%esi
ffffffff81003ef8:	e8 fa f5 ff ff       	callq  ffffffff810034f7 <isr_dispatcher>
ffffffff81003efd:	41 5f                	pop    %r15
ffffffff81003eff:	41 5e                	pop    %r14
ffffffff81003f01:	41 5d                	pop    %r13
ffffffff81003f03:	41 5c                	pop    %r12
ffffffff81003f05:	41 5b                	pop    %r11
ffffffff81003f07:	41 5a                	pop    %r10
ffffffff81003f09:	41 59                	pop    %r9
ffffffff81003f0b:	41 58                	pop    %r8
ffffffff81003f0d:	5d                   	pop    %rbp
ffffffff81003f0e:	5c                   	pop    %rsp
ffffffff81003f0f:	5f                   	pop    %rdi
ffffffff81003f10:	5e                   	pop    %rsi
ffffffff81003f11:	5a                   	pop    %rdx
ffffffff81003f12:	59                   	pop    %rcx
ffffffff81003f13:	5b                   	pop    %rbx
ffffffff81003f14:	58                   	pop    %rax
ffffffff81003f15:	9d                   	popfq  
ffffffff81003f16:	48 cf                	iretq  

ffffffff81003f18 <isr_33>:
ffffffff81003f18:	9c                   	pushfq 
ffffffff81003f19:	50                   	push   %rax
ffffffff81003f1a:	53                   	push   %rbx
ffffffff81003f1b:	51                   	push   %rcx
ffffffff81003f1c:	52                   	push   %rdx
ffffffff81003f1d:	56                   	push   %rsi
ffffffff81003f1e:	57                   	push   %rdi
ffffffff81003f1f:	54                   	push   %rsp
ffffffff81003f20:	55                   	push   %rbp
ffffffff81003f21:	41 50                	push   %r8
ffffffff81003f23:	41 51                	push   %r9
ffffffff81003f25:	41 52                	push   %r10
ffffffff81003f27:	41 53                	push   %r11
ffffffff81003f29:	41 54                	push   %r12
ffffffff81003f2b:	41 55                	push   %r13
ffffffff81003f2d:	41 56                	push   %r14
ffffffff81003f2f:	41 57                	push   %r15
ffffffff81003f31:	fc                   	cld    
ffffffff81003f32:	bf 21 00 00 00       	mov    $0x21,%edi
ffffffff81003f37:	be 00 00 00 00       	mov    $0x0,%esi
ffffffff81003f3c:	e8 b6 f5 ff ff       	callq  ffffffff810034f7 <isr_dispatcher>
ffffffff81003f41:	41 5f                	pop    %r15
ffffffff81003f43:	41 5e                	pop    %r14
ffffffff81003f45:	41 5d                	pop    %r13
ffffffff81003f47:	41 5c                	pop    %r12
ffffffff81003f49:	41 5b                	pop    %r11
ffffffff81003f4b:	41 5a                	pop    %r10
ffffffff81003f4d:	41 59                	pop    %r9
ffffffff81003f4f:	41 58                	pop    %r8
ffffffff81003f51:	5d                   	pop    %rbp
ffffffff81003f52:	5c                   	pop    %rsp
ffffffff81003f53:	5f                   	pop    %rdi
ffffffff81003f54:	5e                   	pop    %rsi
ffffffff81003f55:	5a                   	pop    %rdx
ffffffff81003f56:	59                   	pop    %rcx
ffffffff81003f57:	5b                   	pop    %rbx
ffffffff81003f58:	58                   	pop    %rax
ffffffff81003f59:	9d                   	popfq  
ffffffff81003f5a:	48 cf                	iretq  

ffffffff81003f5c <isr_34>:
ffffffff81003f5c:	9c                   	pushfq 
ffffffff81003f5d:	50                   	push   %rax
ffffffff81003f5e:	53                   	push   %rbx
ffffffff81003f5f:	51                   	push   %rcx
ffffffff81003f60:	52                   	push   %rdx
ffffffff81003f61:	56                   	push   %rsi
ffffffff81003f62:	57                   	push   %rdi
ffffffff81003f63:	54                   	push   %rsp
ffffffff81003f64:	55                   	push   %rbp
ffffffff81003f65:	41 50                	push   %r8
ffffffff81003f67:	41 51                	push   %r9
ffffffff81003f69:	41 52                	push   %r10
ffffffff81003f6b:	41 53                	push   %r11
ffffffff81003f6d:	41 54                	push   %r12
ffffffff81003f6f:	41 55                	push   %r13
ffffffff81003f71:	41 56                	push   %r14
ffffffff81003f73:	41 57                	push   %r15
ffffffff81003f75:	fc                   	cld    
ffffffff81003f76:	bf 22 00 00 00       	mov    $0x22,%edi
ffffffff81003f7b:	be 00 00 00 00       	mov    $0x0,%esi
ffffffff81003f80:	e8 72 f5 ff ff       	callq  ffffffff810034f7 <isr_dispatcher>
ffffffff81003f85:	41 5f                	pop    %r15
ffffffff81003f87:	41 5e                	pop    %r14
ffffffff81003f89:	41 5d                	pop    %r13
ffffffff81003f8b:	41 5c                	pop    %r12
ffffffff81003f8d:	41 5b                	pop    %r11
ffffffff81003f8f:	41 5a                	pop    %r10
ffffffff81003f91:	41 59                	pop    %r9
ffffffff81003f93:	41 58                	pop    %r8
ffffffff81003f95:	5d                   	pop    %rbp
ffffffff81003f96:	5c                   	pop    %rsp
ffffffff81003f97:	5f                   	pop    %rdi
ffffffff81003f98:	5e                   	pop    %rsi
ffffffff81003f99:	5a                   	pop    %rdx
ffffffff81003f9a:	59                   	pop    %rcx
ffffffff81003f9b:	5b                   	pop    %rbx
ffffffff81003f9c:	58                   	pop    %rax
ffffffff81003f9d:	9d                   	popfq  
ffffffff81003f9e:	48 cf                	iretq  

ffffffff81003fa0 <isr_35>:
ffffffff81003fa0:	9c                   	pushfq 
ffffffff81003fa1:	50                   	push   %rax
ffffffff81003fa2:	53                   	push   %rbx
ffffffff81003fa3:	51                   	push   %rcx
ffffffff81003fa4:	52                   	push   %rdx
ffffffff81003fa5:	56                   	push   %rsi
ffffffff81003fa6:	57                   	push   %rdi
ffffffff81003fa7:	54                   	push   %rsp
ffffffff81003fa8:	55                   	push   %rbp
ffffffff81003fa9:	41 50                	push   %r8
ffffffff81003fab:	41 51                	push   %r9
ffffffff81003fad:	41 52                	push   %r10
ffffffff81003faf:	41 53                	push   %r11
ffffffff81003fb1:	41 54                	push   %r12
ffffffff81003fb3:	41 55                	push   %r13
ffffffff81003fb5:	41 56                	push   %r14
ffffffff81003fb7:	41 57                	push   %r15
ffffffff81003fb9:	fc                   	cld    
ffffffff81003fba:	bf 23 00 00 00       	mov    $0x23,%edi
ffffffff81003fbf:	be 00 00 00 00       	mov    $0x0,%esi
ffffffff81003fc4:	e8 2e f5 ff ff       	callq  ffffffff810034f7 <isr_dispatcher>
ffffffff81003fc9:	41 5f                	pop    %r15
ffffffff81003fcb:	41 5e                	pop    %r14
ffffffff81003fcd:	41 5d                	pop    %r13
ffffffff81003fcf:	41 5c                	pop    %r12
ffffffff81003fd1:	41 5b                	pop    %r11
ffffffff81003fd3:	41 5a                	pop    %r10
ffffffff81003fd5:	41 59                	pop    %r9
ffffffff81003fd7:	41 58                	pop    %r8
ffffffff81003fd9:	5d                   	pop    %rbp
ffffffff81003fda:	5c                   	pop    %rsp
ffffffff81003fdb:	5f                   	pop    %rdi
ffffffff81003fdc:	5e                   	pop    %rsi
ffffffff81003fdd:	5a                   	pop    %rdx
ffffffff81003fde:	59                   	pop    %rcx
ffffffff81003fdf:	5b                   	pop    %rbx
ffffffff81003fe0:	58                   	pop    %rax
ffffffff81003fe1:	9d                   	popfq  
ffffffff81003fe2:	48 cf                	iretq  

ffffffff81003fe4 <isr_36>:
ffffffff81003fe4:	9c                   	pushfq 
ffffffff81003fe5:	50                   	push   %rax
ffffffff81003fe6:	53                   	push   %rbx
ffffffff81003fe7:	51                   	push   %rcx
ffffffff81003fe8:	52                   	push   %rdx
ffffffff81003fe9:	56                   	push   %rsi
ffffffff81003fea:	57                   	push   %rdi
ffffffff81003feb:	54                   	push   %rsp
ffffffff81003fec:	55                   	push   %rbp
ffffffff81003fed:	41 50                	push   %r8
ffffffff81003fef:	41 51                	push   %r9
ffffffff81003ff1:	41 52                	push   %r10
ffffffff81003ff3:	41 53                	push   %r11
ffffffff81003ff5:	41 54                	push   %r12
ffffffff81003ff7:	41 55                	push   %r13
ffffffff81003ff9:	41 56                	push   %r14
ffffffff81003ffb:	41 57                	push   %r15
ffffffff81003ffd:	fc                   	cld    
ffffffff81003ffe:	bf 24 00 00 00       	mov    $0x24,%edi
ffffffff81004003:	be 00 00 00 00       	mov    $0x0,%esi
ffffffff81004008:	e8 ea f4 ff ff       	callq  ffffffff810034f7 <isr_dispatcher>
ffffffff8100400d:	41 5f                	pop    %r15
ffffffff8100400f:	41 5e                	pop    %r14
ffffffff81004011:	41 5d                	pop    %r13
ffffffff81004013:	41 5c                	pop    %r12
ffffffff81004015:	41 5b                	pop    %r11
ffffffff81004017:	41 5a                	pop    %r10
ffffffff81004019:	41 59                	pop    %r9
ffffffff8100401b:	41 58                	pop    %r8
ffffffff8100401d:	5d                   	pop    %rbp
ffffffff8100401e:	5c                   	pop    %rsp
ffffffff8100401f:	5f                   	pop    %rdi
ffffffff81004020:	5e                   	pop    %rsi
ffffffff81004021:	5a                   	pop    %rdx
ffffffff81004022:	59                   	pop    %rcx
ffffffff81004023:	5b                   	pop    %rbx
ffffffff81004024:	58                   	pop    %rax
ffffffff81004025:	9d                   	popfq  
ffffffff81004026:	48 cf                	iretq  

ffffffff81004028 <isr_37>:
ffffffff81004028:	9c                   	pushfq 
ffffffff81004029:	50                   	push   %rax
ffffffff8100402a:	53                   	push   %rbx
ffffffff8100402b:	51                   	push   %rcx
ffffffff8100402c:	52                   	push   %rdx
ffffffff8100402d:	56                   	push   %rsi
ffffffff8100402e:	57                   	push   %rdi
ffffffff8100402f:	54                   	push   %rsp
ffffffff81004030:	55                   	push   %rbp
ffffffff81004031:	41 50                	push   %r8
ffffffff81004033:	41 51                	push   %r9
ffffffff81004035:	41 52                	push   %r10
ffffffff81004037:	41 53                	push   %r11
ffffffff81004039:	41 54                	push   %r12
ffffffff8100403b:	41 55                	push   %r13
ffffffff8100403d:	41 56                	push   %r14
ffffffff8100403f:	41 57                	push   %r15
ffffffff81004041:	fc                   	cld    
ffffffff81004042:	bf 25 00 00 00       	mov    $0x25,%edi
ffffffff81004047:	be 00 00 00 00       	mov    $0x0,%esi
ffffffff8100404c:	e8 a6 f4 ff ff       	callq  ffffffff810034f7 <isr_dispatcher>
ffffffff81004051:	41 5f                	pop    %r15
ffffffff81004053:	41 5e                	pop    %r14
ffffffff81004055:	41 5d                	pop    %r13
ffffffff81004057:	41 5c                	pop    %r12
ffffffff81004059:	41 5b                	pop    %r11
ffffffff8100405b:	41 5a                	pop    %r10
ffffffff8100405d:	41 59                	pop    %r9
ffffffff8100405f:	41 58                	pop    %r8
ffffffff81004061:	5d                   	pop    %rbp
ffffffff81004062:	5c                   	pop    %rsp
ffffffff81004063:	5f                   	pop    %rdi
ffffffff81004064:	5e                   	pop    %rsi
ffffffff81004065:	5a                   	pop    %rdx
ffffffff81004066:	59                   	pop    %rcx
ffffffff81004067:	5b                   	pop    %rbx
ffffffff81004068:	58                   	pop    %rax
ffffffff81004069:	9d                   	popfq  
ffffffff8100406a:	48 cf                	iretq  

ffffffff8100406c <isr_38>:
ffffffff8100406c:	9c                   	pushfq 
ffffffff8100406d:	50                   	push   %rax
ffffffff8100406e:	53                   	push   %rbx
ffffffff8100406f:	51                   	push   %rcx
ffffffff81004070:	52                   	push   %rdx
ffffffff81004071:	56                   	push   %rsi
ffffffff81004072:	57                   	push   %rdi
ffffffff81004073:	54                   	push   %rsp
ffffffff81004074:	55                   	push   %rbp
ffffffff81004075:	41 50                	push   %r8
ffffffff81004077:	41 51                	push   %r9
ffffffff81004079:	41 52                	push   %r10
ffffffff8100407b:	41 53                	push   %r11
ffffffff8100407d:	41 54                	push   %r12
ffffffff8100407f:	41 55                	push   %r13
ffffffff81004081:	41 56                	push   %r14
ffffffff81004083:	41 57                	push   %r15
ffffffff81004085:	fc                   	cld    
ffffffff81004086:	bf 26 00 00 00       	mov    $0x26,%edi
ffffffff8100408b:	be 00 00 00 00       	mov    $0x0,%esi
ffffffff81004090:	e8 62 f4 ff ff       	callq  ffffffff810034f7 <isr_dispatcher>
ffffffff81004095:	41 5f                	pop    %r15
ffffffff81004097:	41 5e                	pop    %r14
ffffffff81004099:	41 5d                	pop    %r13
ffffffff8100409b:	41 5c                	pop    %r12
ffffffff8100409d:	41 5b                	pop    %r11
ffffffff8100409f:	41 5a                	pop    %r10
ffffffff810040a1:	41 59                	pop    %r9
ffffffff810040a3:	41 58                	pop    %r8
ffffffff810040a5:	5d                   	pop    %rbp
ffffffff810040a6:	5c                   	pop    %rsp
ffffffff810040a7:	5f                   	pop    %rdi
ffffffff810040a8:	5e                   	pop    %rsi
ffffffff810040a9:	5a                   	pop    %rdx
ffffffff810040aa:	59                   	pop    %rcx
ffffffff810040ab:	5b                   	pop    %rbx
ffffffff810040ac:	58                   	pop    %rax
ffffffff810040ad:	9d                   	popfq  
ffffffff810040ae:	48 cf                	iretq  

ffffffff810040b0 <isr_39>:
ffffffff810040b0:	9c                   	pushfq 
ffffffff810040b1:	50                   	push   %rax
ffffffff810040b2:	53                   	push   %rbx
ffffffff810040b3:	51                   	push   %rcx
ffffffff810040b4:	52                   	push   %rdx
ffffffff810040b5:	56                   	push   %rsi
ffffffff810040b6:	57                   	push   %rdi
ffffffff810040b7:	54                   	push   %rsp
ffffffff810040b8:	55                   	push   %rbp
ffffffff810040b9:	41 50                	push   %r8
ffffffff810040bb:	41 51                	push   %r9
ffffffff810040bd:	41 52                	push   %r10
ffffffff810040bf:	41 53                	push   %r11
ffffffff810040c1:	41 54                	push   %r12
ffffffff810040c3:	41 55                	push   %r13
ffffffff810040c5:	41 56                	push   %r14
ffffffff810040c7:	41 57                	push   %r15
ffffffff810040c9:	fc                   	cld    
ffffffff810040ca:	bf 27 00 00 00       	mov    $0x27,%edi
ffffffff810040cf:	be 00 00 00 00       	mov    $0x0,%esi
ffffffff810040d4:	e8 1e f4 ff ff       	callq  ffffffff810034f7 <isr_dispatcher>
ffffffff810040d9:	41 5f                	pop    %r15
ffffffff810040db:	41 5e                	pop    %r14
ffffffff810040dd:	41 5d                	pop    %r13
ffffffff810040df:	41 5c                	pop    %r12
ffffffff810040e1:	41 5b                	pop    %r11
ffffffff810040e3:	41 5a                	pop    %r10
ffffffff810040e5:	41 59                	pop    %r9
ffffffff810040e7:	41 58                	pop    %r8
ffffffff810040e9:	5d                   	pop    %rbp
ffffffff810040ea:	5c                   	pop    %rsp
ffffffff810040eb:	5f                   	pop    %rdi
ffffffff810040ec:	5e                   	pop    %rsi
ffffffff810040ed:	5a                   	pop    %rdx
ffffffff810040ee:	59                   	pop    %rcx
ffffffff810040ef:	5b                   	pop    %rbx
ffffffff810040f0:	58                   	pop    %rax
ffffffff810040f1:	9d                   	popfq  
ffffffff810040f2:	48 cf                	iretq  

ffffffff810040f4 <isr_40>:
ffffffff810040f4:	9c                   	pushfq 
ffffffff810040f5:	50                   	push   %rax
ffffffff810040f6:	53                   	push   %rbx
ffffffff810040f7:	51                   	push   %rcx
ffffffff810040f8:	52                   	push   %rdx
ffffffff810040f9:	56                   	push   %rsi
ffffffff810040fa:	57                   	push   %rdi
ffffffff810040fb:	54                   	push   %rsp
ffffffff810040fc:	55                   	push   %rbp
ffffffff810040fd:	41 50                	push   %r8
ffffffff810040ff:	41 51                	push   %r9
ffffffff81004101:	41 52                	push   %r10
ffffffff81004103:	41 53                	push   %r11
ffffffff81004105:	41 54                	push   %r12
ffffffff81004107:	41 55                	push   %r13
ffffffff81004109:	41 56                	push   %r14
ffffffff8100410b:	41 57                	push   %r15
ffffffff8100410d:	fc                   	cld    
ffffffff8100410e:	bf 28 00 00 00       	mov    $0x28,%edi
ffffffff81004113:	be 00 00 00 00       	mov    $0x0,%esi
ffffffff81004118:	e8 da f3 ff ff       	callq  ffffffff810034f7 <isr_dispatcher>
ffffffff8100411d:	41 5f                	pop    %r15
ffffffff8100411f:	41 5e                	pop    %r14
ffffffff81004121:	41 5d                	pop    %r13
ffffffff81004123:	41 5c                	pop    %r12
ffffffff81004125:	41 5b                	pop    %r11
ffffffff81004127:	41 5a                	pop    %r10
ffffffff81004129:	41 59                	pop    %r9
ffffffff8100412b:	41 58                	pop    %r8
ffffffff8100412d:	5d                   	pop    %rbp
ffffffff8100412e:	5c                   	pop    %rsp
ffffffff8100412f:	5f                   	pop    %rdi
ffffffff81004130:	5e                   	pop    %rsi
ffffffff81004131:	5a                   	pop    %rdx
ffffffff81004132:	59                   	pop    %rcx
ffffffff81004133:	5b                   	pop    %rbx
ffffffff81004134:	58                   	pop    %rax
ffffffff81004135:	9d                   	popfq  
ffffffff81004136:	48 cf                	iretq  

ffffffff81004138 <isr_41>:
ffffffff81004138:	9c                   	pushfq 
ffffffff81004139:	50                   	push   %rax
ffffffff8100413a:	53                   	push   %rbx
ffffffff8100413b:	51                   	push   %rcx
ffffffff8100413c:	52                   	push   %rdx
ffffffff8100413d:	56                   	push   %rsi
ffffffff8100413e:	57                   	push   %rdi
ffffffff8100413f:	54                   	push   %rsp
ffffffff81004140:	55                   	push   %rbp
ffffffff81004141:	41 50                	push   %r8
ffffffff81004143:	41 51                	push   %r9
ffffffff81004145:	41 52                	push   %r10
ffffffff81004147:	41 53                	push   %r11
ffffffff81004149:	41 54                	push   %r12
ffffffff8100414b:	41 55                	push   %r13
ffffffff8100414d:	41 56                	push   %r14
ffffffff8100414f:	41 57                	push   %r15
ffffffff81004151:	fc                   	cld    
ffffffff81004152:	bf 29 00 00 00       	mov    $0x29,%edi
ffffffff81004157:	be 00 00 00 00       	mov    $0x0,%esi
ffffffff8100415c:	e8 96 f3 ff ff       	callq  ffffffff810034f7 <isr_dispatcher>
ffffffff81004161:	41 5f                	pop    %r15
ffffffff81004163:	41 5e                	pop    %r14
ffffffff81004165:	41 5d                	pop    %r13
ffffffff81004167:	41 5c                	pop    %r12
ffffffff81004169:	41 5b                	pop    %r11
ffffffff8100416b:	41 5a                	pop    %r10
ffffffff8100416d:	41 59                	pop    %r9
ffffffff8100416f:	41 58                	pop    %r8
ffffffff81004171:	5d                   	pop    %rbp
ffffffff81004172:	5c                   	pop    %rsp
ffffffff81004173:	5f                   	pop    %rdi
ffffffff81004174:	5e                   	pop    %rsi
ffffffff81004175:	5a                   	pop    %rdx
ffffffff81004176:	59                   	pop    %rcx
ffffffff81004177:	5b                   	pop    %rbx
ffffffff81004178:	58                   	pop    %rax
ffffffff81004179:	9d                   	popfq  
ffffffff8100417a:	48 cf                	iretq  

ffffffff8100417c <isr_42>:
ffffffff8100417c:	9c                   	pushfq 
ffffffff8100417d:	50                   	push   %rax
ffffffff8100417e:	53                   	push   %rbx
ffffffff8100417f:	51                   	push   %rcx
ffffffff81004180:	52                   	push   %rdx
ffffffff81004181:	56                   	push   %rsi
ffffffff81004182:	57                   	push   %rdi
ffffffff81004183:	54                   	push   %rsp
ffffffff81004184:	55                   	push   %rbp
ffffffff81004185:	41 50                	push   %r8
ffffffff81004187:	41 51                	push   %r9
ffffffff81004189:	41 52                	push   %r10
ffffffff8100418b:	41 53                	push   %r11
ffffffff8100418d:	41 54                	push   %r12
ffffffff8100418f:	41 55                	push   %r13
ffffffff81004191:	41 56                	push   %r14
ffffffff81004193:	41 57                	push   %r15
ffffffff81004195:	fc                   	cld    
ffffffff81004196:	bf 2a 00 00 00       	mov    $0x2a,%edi
ffffffff8100419b:	be 00 00 00 00       	mov    $0x0,%esi
ffffffff810041a0:	e8 52 f3 ff ff       	callq  ffffffff810034f7 <isr_dispatcher>
ffffffff810041a5:	41 5f                	pop    %r15
ffffffff810041a7:	41 5e                	pop    %r14
ffffffff810041a9:	41 5d                	pop    %r13
ffffffff810041ab:	41 5c                	pop    %r12
ffffffff810041ad:	41 5b                	pop    %r11
ffffffff810041af:	41 5a                	pop    %r10
ffffffff810041b1:	41 59                	pop    %r9
ffffffff810041b3:	41 58                	pop    %r8
ffffffff810041b5:	5d                   	pop    %rbp
ffffffff810041b6:	5c                   	pop    %rsp
ffffffff810041b7:	5f                   	pop    %rdi
ffffffff810041b8:	5e                   	pop    %rsi
ffffffff810041b9:	5a                   	pop    %rdx
ffffffff810041ba:	59                   	pop    %rcx
ffffffff810041bb:	5b                   	pop    %rbx
ffffffff810041bc:	58                   	pop    %rax
ffffffff810041bd:	9d                   	popfq  
ffffffff810041be:	48 cf                	iretq  

ffffffff810041c0 <isr_43>:
ffffffff810041c0:	9c                   	pushfq 
ffffffff810041c1:	50                   	push   %rax
ffffffff810041c2:	53                   	push   %rbx
ffffffff810041c3:	51                   	push   %rcx
ffffffff810041c4:	52                   	push   %rdx
ffffffff810041c5:	56                   	push   %rsi
ffffffff810041c6:	57                   	push   %rdi
ffffffff810041c7:	54                   	push   %rsp
ffffffff810041c8:	55                   	push   %rbp
ffffffff810041c9:	41 50                	push   %r8
ffffffff810041cb:	41 51                	push   %r9
ffffffff810041cd:	41 52                	push   %r10
ffffffff810041cf:	41 53                	push   %r11
ffffffff810041d1:	41 54                	push   %r12
ffffffff810041d3:	41 55                	push   %r13
ffffffff810041d5:	41 56                	push   %r14
ffffffff810041d7:	41 57                	push   %r15
ffffffff810041d9:	fc                   	cld    
ffffffff810041da:	bf 2b 00 00 00       	mov    $0x2b,%edi
ffffffff810041df:	be 00 00 00 00       	mov    $0x0,%esi
ffffffff810041e4:	e8 0e f3 ff ff       	callq  ffffffff810034f7 <isr_dispatcher>
ffffffff810041e9:	41 5f                	pop    %r15
ffffffff810041eb:	41 5e                	pop    %r14
ffffffff810041ed:	41 5d                	pop    %r13
ffffffff810041ef:	41 5c                	pop    %r12
ffffffff810041f1:	41 5b                	pop    %r11
ffffffff810041f3:	41 5a                	pop    %r10
ffffffff810041f5:	41 59                	pop    %r9
ffffffff810041f7:	41 58                	pop    %r8
ffffffff810041f9:	5d                   	pop    %rbp
ffffffff810041fa:	5c                   	pop    %rsp
ffffffff810041fb:	5f                   	pop    %rdi
ffffffff810041fc:	5e                   	pop    %rsi
ffffffff810041fd:	5a                   	pop    %rdx
ffffffff810041fe:	59                   	pop    %rcx
ffffffff810041ff:	5b                   	pop    %rbx
ffffffff81004200:	58                   	pop    %rax
ffffffff81004201:	9d                   	popfq  
ffffffff81004202:	48 cf                	iretq  

ffffffff81004204 <isr_44>:
ffffffff81004204:	9c                   	pushfq 
ffffffff81004205:	50                   	push   %rax
ffffffff81004206:	53                   	push   %rbx
ffffffff81004207:	51                   	push   %rcx
ffffffff81004208:	52                   	push   %rdx
ffffffff81004209:	56                   	push   %rsi
ffffffff8100420a:	57                   	push   %rdi
ffffffff8100420b:	54                   	push   %rsp
ffffffff8100420c:	55                   	push   %rbp
ffffffff8100420d:	41 50                	push   %r8
ffffffff8100420f:	41 51                	push   %r9
ffffffff81004211:	41 52                	push   %r10
ffffffff81004213:	41 53                	push   %r11
ffffffff81004215:	41 54                	push   %r12
ffffffff81004217:	41 55                	push   %r13
ffffffff81004219:	41 56                	push   %r14
ffffffff8100421b:	41 57                	push   %r15
ffffffff8100421d:	fc                   	cld    
ffffffff8100421e:	bf 2c 00 00 00       	mov    $0x2c,%edi
ffffffff81004223:	be 00 00 00 00       	mov    $0x0,%esi
ffffffff81004228:	e8 ca f2 ff ff       	callq  ffffffff810034f7 <isr_dispatcher>
ffffffff8100422d:	41 5f                	pop    %r15
ffffffff8100422f:	41 5e                	pop    %r14
ffffffff81004231:	41 5d                	pop    %r13
ffffffff81004233:	41 5c                	pop    %r12
ffffffff81004235:	41 5b                	pop    %r11
ffffffff81004237:	41 5a                	pop    %r10
ffffffff81004239:	41 59                	pop    %r9
ffffffff8100423b:	41 58                	pop    %r8
ffffffff8100423d:	5d                   	pop    %rbp
ffffffff8100423e:	5c                   	pop    %rsp
ffffffff8100423f:	5f                   	pop    %rdi
ffffffff81004240:	5e                   	pop    %rsi
ffffffff81004241:	5a                   	pop    %rdx
ffffffff81004242:	59                   	pop    %rcx
ffffffff81004243:	5b                   	pop    %rbx
ffffffff81004244:	58                   	pop    %rax
ffffffff81004245:	9d                   	popfq  
ffffffff81004246:	48 cf                	iretq  

ffffffff81004248 <isr_45>:
ffffffff81004248:	9c                   	pushfq 
ffffffff81004249:	50                   	push   %rax
ffffffff8100424a:	53                   	push   %rbx
ffffffff8100424b:	51                   	push   %rcx
ffffffff8100424c:	52                   	push   %rdx
ffffffff8100424d:	56                   	push   %rsi
ffffffff8100424e:	57                   	push   %rdi
ffffffff8100424f:	54                   	push   %rsp
ffffffff81004250:	55                   	push   %rbp
ffffffff81004251:	41 50                	push   %r8
ffffffff81004253:	41 51                	push   %r9
ffffffff81004255:	41 52                	push   %r10
ffffffff81004257:	41 53                	push   %r11
ffffffff81004259:	41 54                	push   %r12
ffffffff8100425b:	41 55                	push   %r13
ffffffff8100425d:	41 56                	push   %r14
ffffffff8100425f:	41 57                	push   %r15
ffffffff81004261:	fc                   	cld    
ffffffff81004262:	bf 2d 00 00 00       	mov    $0x2d,%edi
ffffffff81004267:	be 00 00 00 00       	mov    $0x0,%esi
ffffffff8100426c:	e8 86 f2 ff ff       	callq  ffffffff810034f7 <isr_dispatcher>
ffffffff81004271:	41 5f                	pop    %r15
ffffffff81004273:	41 5e                	pop    %r14
ffffffff81004275:	41 5d                	pop    %r13
ffffffff81004277:	41 5c                	pop    %r12
ffffffff81004279:	41 5b                	pop    %r11
ffffffff8100427b:	41 5a                	pop    %r10
ffffffff8100427d:	41 59                	pop    %r9
ffffffff8100427f:	41 58                	pop    %r8
ffffffff81004281:	5d                   	pop    %rbp
ffffffff81004282:	5c                   	pop    %rsp
ffffffff81004283:	5f                   	pop    %rdi
ffffffff81004284:	5e                   	pop    %rsi
ffffffff81004285:	5a                   	pop    %rdx
ffffffff81004286:	59                   	pop    %rcx
ffffffff81004287:	5b                   	pop    %rbx
ffffffff81004288:	58                   	pop    %rax
ffffffff81004289:	9d                   	popfq  
ffffffff8100428a:	48 cf                	iretq  

ffffffff8100428c <isr_46>:
ffffffff8100428c:	9c                   	pushfq 
ffffffff8100428d:	50                   	push   %rax
ffffffff8100428e:	53                   	push   %rbx
ffffffff8100428f:	51                   	push   %rcx
ffffffff81004290:	52                   	push   %rdx
ffffffff81004291:	56                   	push   %rsi
ffffffff81004292:	57                   	push   %rdi
ffffffff81004293:	54                   	push   %rsp
ffffffff81004294:	55                   	push   %rbp
ffffffff81004295:	41 50                	push   %r8
ffffffff81004297:	41 51                	push   %r9
ffffffff81004299:	41 52                	push   %r10
ffffffff8100429b:	41 53                	push   %r11
ffffffff8100429d:	41 54                	push   %r12
ffffffff8100429f:	41 55                	push   %r13
ffffffff810042a1:	41 56                	push   %r14
ffffffff810042a3:	41 57                	push   %r15
ffffffff810042a5:	fc                   	cld    
ffffffff810042a6:	bf 2e 00 00 00       	mov    $0x2e,%edi
ffffffff810042ab:	be 00 00 00 00       	mov    $0x0,%esi
ffffffff810042b0:	e8 42 f2 ff ff       	callq  ffffffff810034f7 <isr_dispatcher>
ffffffff810042b5:	41 5f                	pop    %r15
ffffffff810042b7:	41 5e                	pop    %r14
ffffffff810042b9:	41 5d                	pop    %r13
ffffffff810042bb:	41 5c                	pop    %r12
ffffffff810042bd:	41 5b                	pop    %r11
ffffffff810042bf:	41 5a                	pop    %r10
ffffffff810042c1:	41 59                	pop    %r9
ffffffff810042c3:	41 58                	pop    %r8
ffffffff810042c5:	5d                   	pop    %rbp
ffffffff810042c6:	5c                   	pop    %rsp
ffffffff810042c7:	5f                   	pop    %rdi
ffffffff810042c8:	5e                   	pop    %rsi
ffffffff810042c9:	5a                   	pop    %rdx
ffffffff810042ca:	59                   	pop    %rcx
ffffffff810042cb:	5b                   	pop    %rbx
ffffffff810042cc:	58                   	pop    %rax
ffffffff810042cd:	9d                   	popfq  
ffffffff810042ce:	48 cf                	iretq  

ffffffff810042d0 <isr_47>:
ffffffff810042d0:	9c                   	pushfq 
ffffffff810042d1:	50                   	push   %rax
ffffffff810042d2:	53                   	push   %rbx
ffffffff810042d3:	51                   	push   %rcx
ffffffff810042d4:	52                   	push   %rdx
ffffffff810042d5:	56                   	push   %rsi
ffffffff810042d6:	57                   	push   %rdi
ffffffff810042d7:	54                   	push   %rsp
ffffffff810042d8:	55                   	push   %rbp
ffffffff810042d9:	41 50                	push   %r8
ffffffff810042db:	41 51                	push   %r9
ffffffff810042dd:	41 52                	push   %r10
ffffffff810042df:	41 53                	push   %r11
ffffffff810042e1:	41 54                	push   %r12
ffffffff810042e3:	41 55                	push   %r13
ffffffff810042e5:	41 56                	push   %r14
ffffffff810042e7:	41 57                	push   %r15
ffffffff810042e9:	fc                   	cld    
ffffffff810042ea:	bf 2f 00 00 00       	mov    $0x2f,%edi
ffffffff810042ef:	be 00 00 00 00       	mov    $0x0,%esi
ffffffff810042f4:	e8 fe f1 ff ff       	callq  ffffffff810034f7 <isr_dispatcher>
ffffffff810042f9:	41 5f                	pop    %r15
ffffffff810042fb:	41 5e                	pop    %r14
ffffffff810042fd:	41 5d                	pop    %r13
ffffffff810042ff:	41 5c                	pop    %r12
ffffffff81004301:	41 5b                	pop    %r11
ffffffff81004303:	41 5a                	pop    %r10
ffffffff81004305:	41 59                	pop    %r9
ffffffff81004307:	41 58                	pop    %r8
ffffffff81004309:	5d                   	pop    %rbp
ffffffff8100430a:	5c                   	pop    %rsp
ffffffff8100430b:	5f                   	pop    %rdi
ffffffff8100430c:	5e                   	pop    %rsi
ffffffff8100430d:	5a                   	pop    %rdx
ffffffff8100430e:	59                   	pop    %rcx
ffffffff8100430f:	5b                   	pop    %rbx
ffffffff81004310:	58                   	pop    %rax
ffffffff81004311:	9d                   	popfq  
ffffffff81004312:	48 cf                	iretq  

ffffffff81004314 <isr_48>:
ffffffff81004314:	9c                   	pushfq 
ffffffff81004315:	50                   	push   %rax
ffffffff81004316:	53                   	push   %rbx
ffffffff81004317:	51                   	push   %rcx
ffffffff81004318:	52                   	push   %rdx
ffffffff81004319:	56                   	push   %rsi
ffffffff8100431a:	57                   	push   %rdi
ffffffff8100431b:	54                   	push   %rsp
ffffffff8100431c:	55                   	push   %rbp
ffffffff8100431d:	41 50                	push   %r8
ffffffff8100431f:	41 51                	push   %r9
ffffffff81004321:	41 52                	push   %r10
ffffffff81004323:	41 53                	push   %r11
ffffffff81004325:	41 54                	push   %r12
ffffffff81004327:	41 55                	push   %r13
ffffffff81004329:	41 56                	push   %r14
ffffffff8100432b:	41 57                	push   %r15
ffffffff8100432d:	fc                   	cld    
ffffffff8100432e:	bf 30 00 00 00       	mov    $0x30,%edi
ffffffff81004333:	be 00 00 00 00       	mov    $0x0,%esi
ffffffff81004338:	e8 ba f1 ff ff       	callq  ffffffff810034f7 <isr_dispatcher>
ffffffff8100433d:	41 5f                	pop    %r15
ffffffff8100433f:	41 5e                	pop    %r14
ffffffff81004341:	41 5d                	pop    %r13
ffffffff81004343:	41 5c                	pop    %r12
ffffffff81004345:	41 5b                	pop    %r11
ffffffff81004347:	41 5a                	pop    %r10
ffffffff81004349:	41 59                	pop    %r9
ffffffff8100434b:	41 58                	pop    %r8
ffffffff8100434d:	5d                   	pop    %rbp
ffffffff8100434e:	5c                   	pop    %rsp
ffffffff8100434f:	5f                   	pop    %rdi
ffffffff81004350:	5e                   	pop    %rsi
ffffffff81004351:	5a                   	pop    %rdx
ffffffff81004352:	59                   	pop    %rcx
ffffffff81004353:	5b                   	pop    %rbx
ffffffff81004354:	58                   	pop    %rax
ffffffff81004355:	9d                   	popfq  
ffffffff81004356:	48 cf                	iretq  

ffffffff81004358 <isr_49>:
ffffffff81004358:	9c                   	pushfq 
ffffffff81004359:	50                   	push   %rax
ffffffff8100435a:	53                   	push   %rbx
ffffffff8100435b:	51                   	push   %rcx
ffffffff8100435c:	52                   	push   %rdx
ffffffff8100435d:	56                   	push   %rsi
ffffffff8100435e:	57                   	push   %rdi
ffffffff8100435f:	54                   	push   %rsp
ffffffff81004360:	55                   	push   %rbp
ffffffff81004361:	41 50                	push   %r8
ffffffff81004363:	41 51                	push   %r9
ffffffff81004365:	41 52                	push   %r10
ffffffff81004367:	41 53                	push   %r11
ffffffff81004369:	41 54                	push   %r12
ffffffff8100436b:	41 55                	push   %r13
ffffffff8100436d:	41 56                	push   %r14
ffffffff8100436f:	41 57                	push   %r15
ffffffff81004371:	fc                   	cld    
ffffffff81004372:	bf 31 00 00 00       	mov    $0x31,%edi
ffffffff81004377:	be 00 00 00 00       	mov    $0x0,%esi
ffffffff8100437c:	e8 76 f1 ff ff       	callq  ffffffff810034f7 <isr_dispatcher>
ffffffff81004381:	41 5f                	pop    %r15
ffffffff81004383:	41 5e                	pop    %r14
ffffffff81004385:	41 5d                	pop    %r13
ffffffff81004387:	41 5c                	pop    %r12
ffffffff81004389:	41 5b                	pop    %r11
ffffffff8100438b:	41 5a                	pop    %r10
ffffffff8100438d:	41 59                	pop    %r9
ffffffff8100438f:	41 58                	pop    %r8
ffffffff81004391:	5d                   	pop    %rbp
ffffffff81004392:	5c                   	pop    %rsp
ffffffff81004393:	5f                   	pop    %rdi
ffffffff81004394:	5e                   	pop    %rsi
ffffffff81004395:	5a                   	pop    %rdx
ffffffff81004396:	59                   	pop    %rcx
ffffffff81004397:	5b                   	pop    %rbx
ffffffff81004398:	58                   	pop    %rax
ffffffff81004399:	9d                   	popfq  
ffffffff8100439a:	48 cf                	iretq  

ffffffff8100439c <isr_50>:
ffffffff8100439c:	9c                   	pushfq 
ffffffff8100439d:	50                   	push   %rax
ffffffff8100439e:	53                   	push   %rbx
ffffffff8100439f:	51                   	push   %rcx
ffffffff810043a0:	52                   	push   %rdx
ffffffff810043a1:	56                   	push   %rsi
ffffffff810043a2:	57                   	push   %rdi
ffffffff810043a3:	54                   	push   %rsp
ffffffff810043a4:	55                   	push   %rbp
ffffffff810043a5:	41 50                	push   %r8
ffffffff810043a7:	41 51                	push   %r9
ffffffff810043a9:	41 52                	push   %r10
ffffffff810043ab:	41 53                	push   %r11
ffffffff810043ad:	41 54                	push   %r12
ffffffff810043af:	41 55                	push   %r13
ffffffff810043b1:	41 56                	push   %r14
ffffffff810043b3:	41 57                	push   %r15
ffffffff810043b5:	fc                   	cld    
ffffffff810043b6:	bf 32 00 00 00       	mov    $0x32,%edi
ffffffff810043bb:	be 00 00 00 00       	mov    $0x0,%esi
ffffffff810043c0:	e8 32 f1 ff ff       	callq  ffffffff810034f7 <isr_dispatcher>
ffffffff810043c5:	41 5f                	pop    %r15
ffffffff810043c7:	41 5e                	pop    %r14
ffffffff810043c9:	41 5d                	pop    %r13
ffffffff810043cb:	41 5c                	pop    %r12
ffffffff810043cd:	41 5b                	pop    %r11
ffffffff810043cf:	41 5a                	pop    %r10
ffffffff810043d1:	41 59                	pop    %r9
ffffffff810043d3:	41 58                	pop    %r8
ffffffff810043d5:	5d                   	pop    %rbp
ffffffff810043d6:	5c                   	pop    %rsp
ffffffff810043d7:	5f                   	pop    %rdi
ffffffff810043d8:	5e                   	pop    %rsi
ffffffff810043d9:	5a                   	pop    %rdx
ffffffff810043da:	59                   	pop    %rcx
ffffffff810043db:	5b                   	pop    %rbx
ffffffff810043dc:	58                   	pop    %rax
ffffffff810043dd:	9d                   	popfq  
ffffffff810043de:	48 cf                	iretq  

ffffffff810043e0 <isr_51>:
ffffffff810043e0:	9c                   	pushfq 
ffffffff810043e1:	50                   	push   %rax
ffffffff810043e2:	53                   	push   %rbx
ffffffff810043e3:	51                   	push   %rcx
ffffffff810043e4:	52                   	push   %rdx
ffffffff810043e5:	56                   	push   %rsi
ffffffff810043e6:	57                   	push   %rdi
ffffffff810043e7:	54                   	push   %rsp
ffffffff810043e8:	55                   	push   %rbp
ffffffff810043e9:	41 50                	push   %r8
ffffffff810043eb:	41 51                	push   %r9
ffffffff810043ed:	41 52                	push   %r10
ffffffff810043ef:	41 53                	push   %r11
ffffffff810043f1:	41 54                	push   %r12
ffffffff810043f3:	41 55                	push   %r13
ffffffff810043f5:	41 56                	push   %r14
ffffffff810043f7:	41 57                	push   %r15
ffffffff810043f9:	fc                   	cld    
ffffffff810043fa:	bf 33 00 00 00       	mov    $0x33,%edi
ffffffff810043ff:	be 00 00 00 00       	mov    $0x0,%esi
ffffffff81004404:	e8 ee f0 ff ff       	callq  ffffffff810034f7 <isr_dispatcher>
ffffffff81004409:	41 5f                	pop    %r15
ffffffff8100440b:	41 5e                	pop    %r14
ffffffff8100440d:	41 5d                	pop    %r13
ffffffff8100440f:	41 5c                	pop    %r12
ffffffff81004411:	41 5b                	pop    %r11
ffffffff81004413:	41 5a                	pop    %r10
ffffffff81004415:	41 59                	pop    %r9
ffffffff81004417:	41 58                	pop    %r8
ffffffff81004419:	5d                   	pop    %rbp
ffffffff8100441a:	5c                   	pop    %rsp
ffffffff8100441b:	5f                   	pop    %rdi
ffffffff8100441c:	5e                   	pop    %rsi
ffffffff8100441d:	5a                   	pop    %rdx
ffffffff8100441e:	59                   	pop    %rcx
ffffffff8100441f:	5b                   	pop    %rbx
ffffffff81004420:	58                   	pop    %rax
ffffffff81004421:	9d                   	popfq  
ffffffff81004422:	48 cf                	iretq  

ffffffff81004424 <isr_52>:
ffffffff81004424:	9c                   	pushfq 
ffffffff81004425:	50                   	push   %rax
ffffffff81004426:	53                   	push   %rbx
ffffffff81004427:	51                   	push   %rcx
ffffffff81004428:	52                   	push   %rdx
ffffffff81004429:	56                   	push   %rsi
ffffffff8100442a:	57                   	push   %rdi
ffffffff8100442b:	54                   	push   %rsp
ffffffff8100442c:	55                   	push   %rbp
ffffffff8100442d:	41 50                	push   %r8
ffffffff8100442f:	41 51                	push   %r9
ffffffff81004431:	41 52                	push   %r10
ffffffff81004433:	41 53                	push   %r11
ffffffff81004435:	41 54                	push   %r12
ffffffff81004437:	41 55                	push   %r13
ffffffff81004439:	41 56                	push   %r14
ffffffff8100443b:	41 57                	push   %r15
ffffffff8100443d:	fc                   	cld    
ffffffff8100443e:	bf 34 00 00 00       	mov    $0x34,%edi
ffffffff81004443:	be 00 00 00 00       	mov    $0x0,%esi
ffffffff81004448:	e8 aa f0 ff ff       	callq  ffffffff810034f7 <isr_dispatcher>
ffffffff8100444d:	41 5f                	pop    %r15
ffffffff8100444f:	41 5e                	pop    %r14
ffffffff81004451:	41 5d                	pop    %r13
ffffffff81004453:	41 5c                	pop    %r12
ffffffff81004455:	41 5b                	pop    %r11
ffffffff81004457:	41 5a                	pop    %r10
ffffffff81004459:	41 59                	pop    %r9
ffffffff8100445b:	41 58                	pop    %r8
ffffffff8100445d:	5d                   	pop    %rbp
ffffffff8100445e:	5c                   	pop    %rsp
ffffffff8100445f:	5f                   	pop    %rdi
ffffffff81004460:	5e                   	pop    %rsi
ffffffff81004461:	5a                   	pop    %rdx
ffffffff81004462:	59                   	pop    %rcx
ffffffff81004463:	5b                   	pop    %rbx
ffffffff81004464:	58                   	pop    %rax
ffffffff81004465:	9d                   	popfq  
ffffffff81004466:	48 cf                	iretq  

ffffffff81004468 <isr_53>:
ffffffff81004468:	9c                   	pushfq 
ffffffff81004469:	50                   	push   %rax
ffffffff8100446a:	53                   	push   %rbx
ffffffff8100446b:	51                   	push   %rcx
ffffffff8100446c:	52                   	push   %rdx
ffffffff8100446d:	56                   	push   %rsi
ffffffff8100446e:	57                   	push   %rdi
ffffffff8100446f:	54                   	push   %rsp
ffffffff81004470:	55                   	push   %rbp
ffffffff81004471:	41 50                	push   %r8
ffffffff81004473:	41 51                	push   %r9
ffffffff81004475:	41 52                	push   %r10
ffffffff81004477:	41 53                	push   %r11
ffffffff81004479:	41 54                	push   %r12
ffffffff8100447b:	41 55                	push   %r13
ffffffff8100447d:	41 56                	push   %r14
ffffffff8100447f:	41 57                	push   %r15
ffffffff81004481:	fc                   	cld    
ffffffff81004482:	bf 35 00 00 00       	mov    $0x35,%edi
ffffffff81004487:	be 00 00 00 00       	mov    $0x0,%esi
ffffffff8100448c:	e8 66 f0 ff ff       	callq  ffffffff810034f7 <isr_dispatcher>
ffffffff81004491:	41 5f                	pop    %r15
ffffffff81004493:	41 5e                	pop    %r14
ffffffff81004495:	41 5d                	pop    %r13
ffffffff81004497:	41 5c                	pop    %r12
ffffffff81004499:	41 5b                	pop    %r11
ffffffff8100449b:	41 5a                	pop    %r10
ffffffff8100449d:	41 59                	pop    %r9
ffffffff8100449f:	41 58                	pop    %r8
ffffffff810044a1:	5d                   	pop    %rbp
ffffffff810044a2:	5c                   	pop    %rsp
ffffffff810044a3:	5f                   	pop    %rdi
ffffffff810044a4:	5e                   	pop    %rsi
ffffffff810044a5:	5a                   	pop    %rdx
ffffffff810044a6:	59                   	pop    %rcx
ffffffff810044a7:	5b                   	pop    %rbx
ffffffff810044a8:	58                   	pop    %rax
ffffffff810044a9:	9d                   	popfq  
ffffffff810044aa:	48 cf                	iretq  

ffffffff810044ac <isr_54>:
ffffffff810044ac:	9c                   	pushfq 
ffffffff810044ad:	50                   	push   %rax
ffffffff810044ae:	53                   	push   %rbx
ffffffff810044af:	51                   	push   %rcx
ffffffff810044b0:	52                   	push   %rdx
ffffffff810044b1:	56                   	push   %rsi
ffffffff810044b2:	57                   	push   %rdi
ffffffff810044b3:	54                   	push   %rsp
ffffffff810044b4:	55                   	push   %rbp
ffffffff810044b5:	41 50                	push   %r8
ffffffff810044b7:	41 51                	push   %r9
ffffffff810044b9:	41 52                	push   %r10
ffffffff810044bb:	41 53                	push   %r11
ffffffff810044bd:	41 54                	push   %r12
ffffffff810044bf:	41 55                	push   %r13
ffffffff810044c1:	41 56                	push   %r14
ffffffff810044c3:	41 57                	push   %r15
ffffffff810044c5:	fc                   	cld    
ffffffff810044c6:	bf 36 00 00 00       	mov    $0x36,%edi
ffffffff810044cb:	be 00 00 00 00       	mov    $0x0,%esi
ffffffff810044d0:	e8 22 f0 ff ff       	callq  ffffffff810034f7 <isr_dispatcher>
ffffffff810044d5:	41 5f                	pop    %r15
ffffffff810044d7:	41 5e                	pop    %r14
ffffffff810044d9:	41 5d                	pop    %r13
ffffffff810044db:	41 5c                	pop    %r12
ffffffff810044dd:	41 5b                	pop    %r11
ffffffff810044df:	41 5a                	pop    %r10
ffffffff810044e1:	41 59                	pop    %r9
ffffffff810044e3:	41 58                	pop    %r8
ffffffff810044e5:	5d                   	pop    %rbp
ffffffff810044e6:	5c                   	pop    %rsp
ffffffff810044e7:	5f                   	pop    %rdi
ffffffff810044e8:	5e                   	pop    %rsi
ffffffff810044e9:	5a                   	pop    %rdx
ffffffff810044ea:	59                   	pop    %rcx
ffffffff810044eb:	5b                   	pop    %rbx
ffffffff810044ec:	58                   	pop    %rax
ffffffff810044ed:	9d                   	popfq  
ffffffff810044ee:	48 cf                	iretq  

ffffffff810044f0 <isr_55>:
ffffffff810044f0:	9c                   	pushfq 
ffffffff810044f1:	50                   	push   %rax
ffffffff810044f2:	53                   	push   %rbx
ffffffff810044f3:	51                   	push   %rcx
ffffffff810044f4:	52                   	push   %rdx
ffffffff810044f5:	56                   	push   %rsi
ffffffff810044f6:	57                   	push   %rdi
ffffffff810044f7:	54                   	push   %rsp
ffffffff810044f8:	55                   	push   %rbp
ffffffff810044f9:	41 50                	push   %r8
ffffffff810044fb:	41 51                	push   %r9
ffffffff810044fd:	41 52                	push   %r10
ffffffff810044ff:	41 53                	push   %r11
ffffffff81004501:	41 54                	push   %r12
ffffffff81004503:	41 55                	push   %r13
ffffffff81004505:	41 56                	push   %r14
ffffffff81004507:	41 57                	push   %r15
ffffffff81004509:	fc                   	cld    
ffffffff8100450a:	bf 37 00 00 00       	mov    $0x37,%edi
ffffffff8100450f:	be 00 00 00 00       	mov    $0x0,%esi
ffffffff81004514:	e8 de ef ff ff       	callq  ffffffff810034f7 <isr_dispatcher>
ffffffff81004519:	41 5f                	pop    %r15
ffffffff8100451b:	41 5e                	pop    %r14
ffffffff8100451d:	41 5d                	pop    %r13
ffffffff8100451f:	41 5c                	pop    %r12
ffffffff81004521:	41 5b                	pop    %r11
ffffffff81004523:	41 5a                	pop    %r10
ffffffff81004525:	41 59                	pop    %r9
ffffffff81004527:	41 58                	pop    %r8
ffffffff81004529:	5d                   	pop    %rbp
ffffffff8100452a:	5c                   	pop    %rsp
ffffffff8100452b:	5f                   	pop    %rdi
ffffffff8100452c:	5e                   	pop    %rsi
ffffffff8100452d:	5a                   	pop    %rdx
ffffffff8100452e:	59                   	pop    %rcx
ffffffff8100452f:	5b                   	pop    %rbx
ffffffff81004530:	58                   	pop    %rax
ffffffff81004531:	9d                   	popfq  
ffffffff81004532:	48 cf                	iretq  

ffffffff81004534 <isr_56>:
ffffffff81004534:	9c                   	pushfq 
ffffffff81004535:	50                   	push   %rax
ffffffff81004536:	53                   	push   %rbx
ffffffff81004537:	51                   	push   %rcx
ffffffff81004538:	52                   	push   %rdx
ffffffff81004539:	56                   	push   %rsi
ffffffff8100453a:	57                   	push   %rdi
ffffffff8100453b:	54                   	push   %rsp
ffffffff8100453c:	55                   	push   %rbp
ffffffff8100453d:	41 50                	push   %r8
ffffffff8100453f:	41 51                	push   %r9
ffffffff81004541:	41 52                	push   %r10
ffffffff81004543:	41 53                	push   %r11
ffffffff81004545:	41 54                	push   %r12
ffffffff81004547:	41 55                	push   %r13
ffffffff81004549:	41 56                	push   %r14
ffffffff8100454b:	41 57                	push   %r15
ffffffff8100454d:	fc                   	cld    
ffffffff8100454e:	bf 38 00 00 00       	mov    $0x38,%edi
ffffffff81004553:	be 00 00 00 00       	mov    $0x0,%esi
ffffffff81004558:	e8 9a ef ff ff       	callq  ffffffff810034f7 <isr_dispatcher>
ffffffff8100455d:	41 5f                	pop    %r15
ffffffff8100455f:	41 5e                	pop    %r14
ffffffff81004561:	41 5d                	pop    %r13
ffffffff81004563:	41 5c                	pop    %r12
ffffffff81004565:	41 5b                	pop    %r11
ffffffff81004567:	41 5a                	pop    %r10
ffffffff81004569:	41 59                	pop    %r9
ffffffff8100456b:	41 58                	pop    %r8
ffffffff8100456d:	5d                   	pop    %rbp
ffffffff8100456e:	5c                   	pop    %rsp
ffffffff8100456f:	5f                   	pop    %rdi
ffffffff81004570:	5e                   	pop    %rsi
ffffffff81004571:	5a                   	pop    %rdx
ffffffff81004572:	59                   	pop    %rcx
ffffffff81004573:	5b                   	pop    %rbx
ffffffff81004574:	58                   	pop    %rax
ffffffff81004575:	9d                   	popfq  
ffffffff81004576:	48 cf                	iretq  

ffffffff81004578 <isr_57>:
ffffffff81004578:	9c                   	pushfq 
ffffffff81004579:	50                   	push   %rax
ffffffff8100457a:	53                   	push   %rbx
ffffffff8100457b:	51                   	push   %rcx
ffffffff8100457c:	52                   	push   %rdx
ffffffff8100457d:	56                   	push   %rsi
ffffffff8100457e:	57                   	push   %rdi
ffffffff8100457f:	54                   	push   %rsp
ffffffff81004580:	55                   	push   %rbp
ffffffff81004581:	41 50                	push   %r8
ffffffff81004583:	41 51                	push   %r9
ffffffff81004585:	41 52                	push   %r10
ffffffff81004587:	41 53                	push   %r11
ffffffff81004589:	41 54                	push   %r12
ffffffff8100458b:	41 55                	push   %r13
ffffffff8100458d:	41 56                	push   %r14
ffffffff8100458f:	41 57                	push   %r15
ffffffff81004591:	fc                   	cld    
ffffffff81004592:	bf 39 00 00 00       	mov    $0x39,%edi
ffffffff81004597:	be 00 00 00 00       	mov    $0x0,%esi
ffffffff8100459c:	e8 56 ef ff ff       	callq  ffffffff810034f7 <isr_dispatcher>
ffffffff810045a1:	41 5f                	pop    %r15
ffffffff810045a3:	41 5e                	pop    %r14
ffffffff810045a5:	41 5d                	pop    %r13
ffffffff810045a7:	41 5c                	pop    %r12
ffffffff810045a9:	41 5b                	pop    %r11
ffffffff810045ab:	41 5a                	pop    %r10
ffffffff810045ad:	41 59                	pop    %r9
ffffffff810045af:	41 58                	pop    %r8
ffffffff810045b1:	5d                   	pop    %rbp
ffffffff810045b2:	5c                   	pop    %rsp
ffffffff810045b3:	5f                   	pop    %rdi
ffffffff810045b4:	5e                   	pop    %rsi
ffffffff810045b5:	5a                   	pop    %rdx
ffffffff810045b6:	59                   	pop    %rcx
ffffffff810045b7:	5b                   	pop    %rbx
ffffffff810045b8:	58                   	pop    %rax
ffffffff810045b9:	9d                   	popfq  
ffffffff810045ba:	48 cf                	iretq  

ffffffff810045bc <isr_58>:
ffffffff810045bc:	9c                   	pushfq 
ffffffff810045bd:	50                   	push   %rax
ffffffff810045be:	53                   	push   %rbx
ffffffff810045bf:	51                   	push   %rcx
ffffffff810045c0:	52                   	push   %rdx
ffffffff810045c1:	56                   	push   %rsi
ffffffff810045c2:	57                   	push   %rdi
ffffffff810045c3:	54                   	push   %rsp
ffffffff810045c4:	55                   	push   %rbp
ffffffff810045c5:	41 50                	push   %r8
ffffffff810045c7:	41 51                	push   %r9
ffffffff810045c9:	41 52                	push   %r10
ffffffff810045cb:	41 53                	push   %r11
ffffffff810045cd:	41 54                	push   %r12
ffffffff810045cf:	41 55                	push   %r13
ffffffff810045d1:	41 56                	push   %r14
ffffffff810045d3:	41 57                	push   %r15
ffffffff810045d5:	fc                   	cld    
ffffffff810045d6:	bf 3a 00 00 00       	mov    $0x3a,%edi
ffffffff810045db:	be 00 00 00 00       	mov    $0x0,%esi
ffffffff810045e0:	e8 12 ef ff ff       	callq  ffffffff810034f7 <isr_dispatcher>
ffffffff810045e5:	41 5f                	pop    %r15
ffffffff810045e7:	41 5e                	pop    %r14
ffffffff810045e9:	41 5d                	pop    %r13
ffffffff810045eb:	41 5c                	pop    %r12
ffffffff810045ed:	41 5b                	pop    %r11
ffffffff810045ef:	41 5a                	pop    %r10
ffffffff810045f1:	41 59                	pop    %r9
ffffffff810045f3:	41 58                	pop    %r8
ffffffff810045f5:	5d                   	pop    %rbp
ffffffff810045f6:	5c                   	pop    %rsp
ffffffff810045f7:	5f                   	pop    %rdi
ffffffff810045f8:	5e                   	pop    %rsi
ffffffff810045f9:	5a                   	pop    %rdx
ffffffff810045fa:	59                   	pop    %rcx
ffffffff810045fb:	5b                   	pop    %rbx
ffffffff810045fc:	58                   	pop    %rax
ffffffff810045fd:	9d                   	popfq  
ffffffff810045fe:	48 cf                	iretq  

ffffffff81004600 <isr_59>:
ffffffff81004600:	9c                   	pushfq 
ffffffff81004601:	50                   	push   %rax
ffffffff81004602:	53                   	push   %rbx
ffffffff81004603:	51                   	push   %rcx
ffffffff81004604:	52                   	push   %rdx
ffffffff81004605:	56                   	push   %rsi
ffffffff81004606:	57                   	push   %rdi
ffffffff81004607:	54                   	push   %rsp
ffffffff81004608:	55                   	push   %rbp
ffffffff81004609:	41 50                	push   %r8
ffffffff8100460b:	41 51                	push   %r9
ffffffff8100460d:	41 52                	push   %r10
ffffffff8100460f:	41 53                	push   %r11
ffffffff81004611:	41 54                	push   %r12
ffffffff81004613:	41 55                	push   %r13
ffffffff81004615:	41 56                	push   %r14
ffffffff81004617:	41 57                	push   %r15
ffffffff81004619:	fc                   	cld    
ffffffff8100461a:	bf 3b 00 00 00       	mov    $0x3b,%edi
ffffffff8100461f:	be 00 00 00 00       	mov    $0x0,%esi
ffffffff81004624:	e8 ce ee ff ff       	callq  ffffffff810034f7 <isr_dispatcher>
ffffffff81004629:	41 5f                	pop    %r15
ffffffff8100462b:	41 5e                	pop    %r14
ffffffff8100462d:	41 5d                	pop    %r13
ffffffff8100462f:	41 5c                	pop    %r12
ffffffff81004631:	41 5b                	pop    %r11
ffffffff81004633:	41 5a                	pop    %r10
ffffffff81004635:	41 59                	pop    %r9
ffffffff81004637:	41 58                	pop    %r8
ffffffff81004639:	5d                   	pop    %rbp
ffffffff8100463a:	5c                   	pop    %rsp
ffffffff8100463b:	5f                   	pop    %rdi
ffffffff8100463c:	5e                   	pop    %rsi
ffffffff8100463d:	5a                   	pop    %rdx
ffffffff8100463e:	59                   	pop    %rcx
ffffffff8100463f:	5b                   	pop    %rbx
ffffffff81004640:	58                   	pop    %rax
ffffffff81004641:	9d                   	popfq  
ffffffff81004642:	48 cf                	iretq  

ffffffff81004644 <isr_60>:
ffffffff81004644:	9c                   	pushfq 
ffffffff81004645:	50                   	push   %rax
ffffffff81004646:	53                   	push   %rbx
ffffffff81004647:	51                   	push   %rcx
ffffffff81004648:	52                   	push   %rdx
ffffffff81004649:	56                   	push   %rsi
ffffffff8100464a:	57                   	push   %rdi
ffffffff8100464b:	54                   	push   %rsp
ffffffff8100464c:	55                   	push   %rbp
ffffffff8100464d:	41 50                	push   %r8
ffffffff8100464f:	41 51                	push   %r9
ffffffff81004651:	41 52                	push   %r10
ffffffff81004653:	41 53                	push   %r11
ffffffff81004655:	41 54                	push   %r12
ffffffff81004657:	41 55                	push   %r13
ffffffff81004659:	41 56                	push   %r14
ffffffff8100465b:	41 57                	push   %r15
ffffffff8100465d:	fc                   	cld    
ffffffff8100465e:	bf 3c 00 00 00       	mov    $0x3c,%edi
ffffffff81004663:	be 00 00 00 00       	mov    $0x0,%esi
ffffffff81004668:	e8 8a ee ff ff       	callq  ffffffff810034f7 <isr_dispatcher>
ffffffff8100466d:	41 5f                	pop    %r15
ffffffff8100466f:	41 5e                	pop    %r14
ffffffff81004671:	41 5d                	pop    %r13
ffffffff81004673:	41 5c                	pop    %r12
ffffffff81004675:	41 5b                	pop    %r11
ffffffff81004677:	41 5a                	pop    %r10
ffffffff81004679:	41 59                	pop    %r9
ffffffff8100467b:	41 58                	pop    %r8
ffffffff8100467d:	5d                   	pop    %rbp
ffffffff8100467e:	5c                   	pop    %rsp
ffffffff8100467f:	5f                   	pop    %rdi
ffffffff81004680:	5e                   	pop    %rsi
ffffffff81004681:	5a                   	pop    %rdx
ffffffff81004682:	59                   	pop    %rcx
ffffffff81004683:	5b                   	pop    %rbx
ffffffff81004684:	58                   	pop    %rax
ffffffff81004685:	9d                   	popfq  
ffffffff81004686:	48 cf                	iretq  

ffffffff81004688 <isr_61>:
ffffffff81004688:	9c                   	pushfq 
ffffffff81004689:	50                   	push   %rax
ffffffff8100468a:	53                   	push   %rbx
ffffffff8100468b:	51                   	push   %rcx
ffffffff8100468c:	52                   	push   %rdx
ffffffff8100468d:	56                   	push   %rsi
ffffffff8100468e:	57                   	push   %rdi
ffffffff8100468f:	54                   	push   %rsp
ffffffff81004690:	55                   	push   %rbp
ffffffff81004691:	41 50                	push   %r8
ffffffff81004693:	41 51                	push   %r9
ffffffff81004695:	41 52                	push   %r10
ffffffff81004697:	41 53                	push   %r11
ffffffff81004699:	41 54                	push   %r12
ffffffff8100469b:	41 55                	push   %r13
ffffffff8100469d:	41 56                	push   %r14
ffffffff8100469f:	41 57                	push   %r15
ffffffff810046a1:	fc                   	cld    
ffffffff810046a2:	bf 3d 00 00 00       	mov    $0x3d,%edi
ffffffff810046a7:	be 00 00 00 00       	mov    $0x0,%esi
ffffffff810046ac:	e8 46 ee ff ff       	callq  ffffffff810034f7 <isr_dispatcher>
ffffffff810046b1:	41 5f                	pop    %r15
ffffffff810046b3:	41 5e                	pop    %r14
ffffffff810046b5:	41 5d                	pop    %r13
ffffffff810046b7:	41 5c                	pop    %r12
ffffffff810046b9:	41 5b                	pop    %r11
ffffffff810046bb:	41 5a                	pop    %r10
ffffffff810046bd:	41 59                	pop    %r9
ffffffff810046bf:	41 58                	pop    %r8
ffffffff810046c1:	5d                   	pop    %rbp
ffffffff810046c2:	5c                   	pop    %rsp
ffffffff810046c3:	5f                   	pop    %rdi
ffffffff810046c4:	5e                   	pop    %rsi
ffffffff810046c5:	5a                   	pop    %rdx
ffffffff810046c6:	59                   	pop    %rcx
ffffffff810046c7:	5b                   	pop    %rbx
ffffffff810046c8:	58                   	pop    %rax
ffffffff810046c9:	9d                   	popfq  
ffffffff810046ca:	48 cf                	iretq  

ffffffff810046cc <isr_62>:
ffffffff810046cc:	9c                   	pushfq 
ffffffff810046cd:	50                   	push   %rax
ffffffff810046ce:	53                   	push   %rbx
ffffffff810046cf:	51                   	push   %rcx
ffffffff810046d0:	52                   	push   %rdx
ffffffff810046d1:	56                   	push   %rsi
ffffffff810046d2:	57                   	push   %rdi
ffffffff810046d3:	54                   	push   %rsp
ffffffff810046d4:	55                   	push   %rbp
ffffffff810046d5:	41 50                	push   %r8
ffffffff810046d7:	41 51                	push   %r9
ffffffff810046d9:	41 52                	push   %r10
ffffffff810046db:	41 53                	push   %r11
ffffffff810046dd:	41 54                	push   %r12
ffffffff810046df:	41 55                	push   %r13
ffffffff810046e1:	41 56                	push   %r14
ffffffff810046e3:	41 57                	push   %r15
ffffffff810046e5:	fc                   	cld    
ffffffff810046e6:	bf 3e 00 00 00       	mov    $0x3e,%edi
ffffffff810046eb:	be 00 00 00 00       	mov    $0x0,%esi
ffffffff810046f0:	e8 02 ee ff ff       	callq  ffffffff810034f7 <isr_dispatcher>
ffffffff810046f5:	41 5f                	pop    %r15
ffffffff810046f7:	41 5e                	pop    %r14
ffffffff810046f9:	41 5d                	pop    %r13
ffffffff810046fb:	41 5c                	pop    %r12
ffffffff810046fd:	41 5b                	pop    %r11
ffffffff810046ff:	41 5a                	pop    %r10
ffffffff81004701:	41 59                	pop    %r9
ffffffff81004703:	41 58                	pop    %r8
ffffffff81004705:	5d                   	pop    %rbp
ffffffff81004706:	5c                   	pop    %rsp
ffffffff81004707:	5f                   	pop    %rdi
ffffffff81004708:	5e                   	pop    %rsi
ffffffff81004709:	5a                   	pop    %rdx
ffffffff8100470a:	59                   	pop    %rcx
ffffffff8100470b:	5b                   	pop    %rbx
ffffffff8100470c:	58                   	pop    %rax
ffffffff8100470d:	9d                   	popfq  
ffffffff8100470e:	48 cf                	iretq  

ffffffff81004710 <isr_63>:
ffffffff81004710:	9c                   	pushfq 
ffffffff81004711:	50                   	push   %rax
ffffffff81004712:	53                   	push   %rbx
ffffffff81004713:	51                   	push   %rcx
ffffffff81004714:	52                   	push   %rdx
ffffffff81004715:	56                   	push   %rsi
ffffffff81004716:	57                   	push   %rdi
ffffffff81004717:	54                   	push   %rsp
ffffffff81004718:	55                   	push   %rbp
ffffffff81004719:	41 50                	push   %r8
ffffffff8100471b:	41 51                	push   %r9
ffffffff8100471d:	41 52                	push   %r10
ffffffff8100471f:	41 53                	push   %r11
ffffffff81004721:	41 54                	push   %r12
ffffffff81004723:	41 55                	push   %r13
ffffffff81004725:	41 56                	push   %r14
ffffffff81004727:	41 57                	push   %r15
ffffffff81004729:	fc                   	cld    
ffffffff8100472a:	bf 3f 00 00 00       	mov    $0x3f,%edi
ffffffff8100472f:	be 00 00 00 00       	mov    $0x0,%esi
ffffffff81004734:	e8 be ed ff ff       	callq  ffffffff810034f7 <isr_dispatcher>
ffffffff81004739:	41 5f                	pop    %r15
ffffffff8100473b:	41 5e                	pop    %r14
ffffffff8100473d:	41 5d                	pop    %r13
ffffffff8100473f:	41 5c                	pop    %r12
ffffffff81004741:	41 5b                	pop    %r11
ffffffff81004743:	41 5a                	pop    %r10
ffffffff81004745:	41 59                	pop    %r9
ffffffff81004747:	41 58                	pop    %r8
ffffffff81004749:	5d                   	pop    %rbp
ffffffff8100474a:	5c                   	pop    %rsp
ffffffff8100474b:	5f                   	pop    %rdi
ffffffff8100474c:	5e                   	pop    %rsi
ffffffff8100474d:	5a                   	pop    %rdx
ffffffff8100474e:	59                   	pop    %rcx
ffffffff8100474f:	5b                   	pop    %rbx
ffffffff81004750:	58                   	pop    %rax
ffffffff81004751:	9d                   	popfq  
ffffffff81004752:	48 cf                	iretq  

ffffffff81004754 <isr_64>:
ffffffff81004754:	9c                   	pushfq 
ffffffff81004755:	50                   	push   %rax
ffffffff81004756:	53                   	push   %rbx
ffffffff81004757:	51                   	push   %rcx
ffffffff81004758:	52                   	push   %rdx
ffffffff81004759:	56                   	push   %rsi
ffffffff8100475a:	57                   	push   %rdi
ffffffff8100475b:	54                   	push   %rsp
ffffffff8100475c:	55                   	push   %rbp
ffffffff8100475d:	41 50                	push   %r8
ffffffff8100475f:	41 51                	push   %r9
ffffffff81004761:	41 52                	push   %r10
ffffffff81004763:	41 53                	push   %r11
ffffffff81004765:	41 54                	push   %r12
ffffffff81004767:	41 55                	push   %r13
ffffffff81004769:	41 56                	push   %r14
ffffffff8100476b:	41 57                	push   %r15
ffffffff8100476d:	fc                   	cld    
ffffffff8100476e:	bf 40 00 00 00       	mov    $0x40,%edi
ffffffff81004773:	be 00 00 00 00       	mov    $0x0,%esi
ffffffff81004778:	e8 7a ed ff ff       	callq  ffffffff810034f7 <isr_dispatcher>
ffffffff8100477d:	41 5f                	pop    %r15
ffffffff8100477f:	41 5e                	pop    %r14
ffffffff81004781:	41 5d                	pop    %r13
ffffffff81004783:	41 5c                	pop    %r12
ffffffff81004785:	41 5b                	pop    %r11
ffffffff81004787:	41 5a                	pop    %r10
ffffffff81004789:	41 59                	pop    %r9
ffffffff8100478b:	41 58                	pop    %r8
ffffffff8100478d:	5d                   	pop    %rbp
ffffffff8100478e:	5c                   	pop    %rsp
ffffffff8100478f:	5f                   	pop    %rdi
ffffffff81004790:	5e                   	pop    %rsi
ffffffff81004791:	5a                   	pop    %rdx
ffffffff81004792:	59                   	pop    %rcx
ffffffff81004793:	5b                   	pop    %rbx
ffffffff81004794:	58                   	pop    %rax
ffffffff81004795:	9d                   	popfq  
ffffffff81004796:	48 cf                	iretq  

ffffffff81004798 <isr_65>:
ffffffff81004798:	9c                   	pushfq 
ffffffff81004799:	50                   	push   %rax
ffffffff8100479a:	53                   	push   %rbx
ffffffff8100479b:	51                   	push   %rcx
ffffffff8100479c:	52                   	push   %rdx
ffffffff8100479d:	56                   	push   %rsi
ffffffff8100479e:	57                   	push   %rdi
ffffffff8100479f:	54                   	push   %rsp
ffffffff810047a0:	55                   	push   %rbp
ffffffff810047a1:	41 50                	push   %r8
ffffffff810047a3:	41 51                	push   %r9
ffffffff810047a5:	41 52                	push   %r10
ffffffff810047a7:	41 53                	push   %r11
ffffffff810047a9:	41 54                	push   %r12
ffffffff810047ab:	41 55                	push   %r13
ffffffff810047ad:	41 56                	push   %r14
ffffffff810047af:	41 57                	push   %r15
ffffffff810047b1:	fc                   	cld    
ffffffff810047b2:	bf 41 00 00 00       	mov    $0x41,%edi
ffffffff810047b7:	be 00 00 00 00       	mov    $0x0,%esi
ffffffff810047bc:	e8 36 ed ff ff       	callq  ffffffff810034f7 <isr_dispatcher>
ffffffff810047c1:	41 5f                	pop    %r15
ffffffff810047c3:	41 5e                	pop    %r14
ffffffff810047c5:	41 5d                	pop    %r13
ffffffff810047c7:	41 5c                	pop    %r12
ffffffff810047c9:	41 5b                	pop    %r11
ffffffff810047cb:	41 5a                	pop    %r10
ffffffff810047cd:	41 59                	pop    %r9
ffffffff810047cf:	41 58                	pop    %r8
ffffffff810047d1:	5d                   	pop    %rbp
ffffffff810047d2:	5c                   	pop    %rsp
ffffffff810047d3:	5f                   	pop    %rdi
ffffffff810047d4:	5e                   	pop    %rsi
ffffffff810047d5:	5a                   	pop    %rdx
ffffffff810047d6:	59                   	pop    %rcx
ffffffff810047d7:	5b                   	pop    %rbx
ffffffff810047d8:	58                   	pop    %rax
ffffffff810047d9:	9d                   	popfq  
ffffffff810047da:	48 cf                	iretq  

ffffffff810047dc <isr_66>:
ffffffff810047dc:	9c                   	pushfq 
ffffffff810047dd:	50                   	push   %rax
ffffffff810047de:	53                   	push   %rbx
ffffffff810047df:	51                   	push   %rcx
ffffffff810047e0:	52                   	push   %rdx
ffffffff810047e1:	56                   	push   %rsi
ffffffff810047e2:	57                   	push   %rdi
ffffffff810047e3:	54                   	push   %rsp
ffffffff810047e4:	55                   	push   %rbp
ffffffff810047e5:	41 50                	push   %r8
ffffffff810047e7:	41 51                	push   %r9
ffffffff810047e9:	41 52                	push   %r10
ffffffff810047eb:	41 53                	push   %r11
ffffffff810047ed:	41 54                	push   %r12
ffffffff810047ef:	41 55                	push   %r13
ffffffff810047f1:	41 56                	push   %r14
ffffffff810047f3:	41 57                	push   %r15
ffffffff810047f5:	fc                   	cld    
ffffffff810047f6:	bf 42 00 00 00       	mov    $0x42,%edi
ffffffff810047fb:	be 00 00 00 00       	mov    $0x0,%esi
ffffffff81004800:	e8 f2 ec ff ff       	callq  ffffffff810034f7 <isr_dispatcher>
ffffffff81004805:	41 5f                	pop    %r15
ffffffff81004807:	41 5e                	pop    %r14
ffffffff81004809:	41 5d                	pop    %r13
ffffffff8100480b:	41 5c                	pop    %r12
ffffffff8100480d:	41 5b                	pop    %r11
ffffffff8100480f:	41 5a                	pop    %r10
ffffffff81004811:	41 59                	pop    %r9
ffffffff81004813:	41 58                	pop    %r8
ffffffff81004815:	5d                   	pop    %rbp
ffffffff81004816:	5c                   	pop    %rsp
ffffffff81004817:	5f                   	pop    %rdi
ffffffff81004818:	5e                   	pop    %rsi
ffffffff81004819:	5a                   	pop    %rdx
ffffffff8100481a:	59                   	pop    %rcx
ffffffff8100481b:	5b                   	pop    %rbx
ffffffff8100481c:	58                   	pop    %rax
ffffffff8100481d:	9d                   	popfq  
ffffffff8100481e:	48 cf                	iretq  

ffffffff81004820 <isr_67>:
ffffffff81004820:	9c                   	pushfq 
ffffffff81004821:	50                   	push   %rax
ffffffff81004822:	53                   	push   %rbx
ffffffff81004823:	51                   	push   %rcx
ffffffff81004824:	52                   	push   %rdx
ffffffff81004825:	56                   	push   %rsi
ffffffff81004826:	57                   	push   %rdi
ffffffff81004827:	54                   	push   %rsp
ffffffff81004828:	55                   	push   %rbp
ffffffff81004829:	41 50                	push   %r8
ffffffff8100482b:	41 51                	push   %r9
ffffffff8100482d:	41 52                	push   %r10
ffffffff8100482f:	41 53                	push   %r11
ffffffff81004831:	41 54                	push   %r12
ffffffff81004833:	41 55                	push   %r13
ffffffff81004835:	41 56                	push   %r14
ffffffff81004837:	41 57                	push   %r15
ffffffff81004839:	fc                   	cld    
ffffffff8100483a:	bf 43 00 00 00       	mov    $0x43,%edi
ffffffff8100483f:	be 00 00 00 00       	mov    $0x0,%esi
ffffffff81004844:	e8 ae ec ff ff       	callq  ffffffff810034f7 <isr_dispatcher>
ffffffff81004849:	41 5f                	pop    %r15
ffffffff8100484b:	41 5e                	pop    %r14
ffffffff8100484d:	41 5d                	pop    %r13
ffffffff8100484f:	41 5c                	pop    %r12
ffffffff81004851:	41 5b                	pop    %r11
ffffffff81004853:	41 5a                	pop    %r10
ffffffff81004855:	41 59                	pop    %r9
ffffffff81004857:	41 58                	pop    %r8
ffffffff81004859:	5d                   	pop    %rbp
ffffffff8100485a:	5c                   	pop    %rsp
ffffffff8100485b:	5f                   	pop    %rdi
ffffffff8100485c:	5e                   	pop    %rsi
ffffffff8100485d:	5a                   	pop    %rdx
ffffffff8100485e:	59                   	pop    %rcx
ffffffff8100485f:	5b                   	pop    %rbx
ffffffff81004860:	58                   	pop    %rax
ffffffff81004861:	9d                   	popfq  
ffffffff81004862:	48 cf                	iretq  

ffffffff81004864 <isr_68>:
ffffffff81004864:	9c                   	pushfq 
ffffffff81004865:	50                   	push   %rax
ffffffff81004866:	53                   	push   %rbx
ffffffff81004867:	51                   	push   %rcx
ffffffff81004868:	52                   	push   %rdx
ffffffff81004869:	56                   	push   %rsi
ffffffff8100486a:	57                   	push   %rdi
ffffffff8100486b:	54                   	push   %rsp
ffffffff8100486c:	55                   	push   %rbp
ffffffff8100486d:	41 50                	push   %r8
ffffffff8100486f:	41 51                	push   %r9
ffffffff81004871:	41 52                	push   %r10
ffffffff81004873:	41 53                	push   %r11
ffffffff81004875:	41 54                	push   %r12
ffffffff81004877:	41 55                	push   %r13
ffffffff81004879:	41 56                	push   %r14
ffffffff8100487b:	41 57                	push   %r15
ffffffff8100487d:	fc                   	cld    
ffffffff8100487e:	bf 44 00 00 00       	mov    $0x44,%edi
ffffffff81004883:	be 00 00 00 00       	mov    $0x0,%esi
ffffffff81004888:	e8 6a ec ff ff       	callq  ffffffff810034f7 <isr_dispatcher>
ffffffff8100488d:	41 5f                	pop    %r15
ffffffff8100488f:	41 5e                	pop    %r14
ffffffff81004891:	41 5d                	pop    %r13
ffffffff81004893:	41 5c                	pop    %r12
ffffffff81004895:	41 5b                	pop    %r11
ffffffff81004897:	41 5a                	pop    %r10
ffffffff81004899:	41 59                	pop    %r9
ffffffff8100489b:	41 58                	pop    %r8
ffffffff8100489d:	5d                   	pop    %rbp
ffffffff8100489e:	5c                   	pop    %rsp
ffffffff8100489f:	5f                   	pop    %rdi
ffffffff810048a0:	5e                   	pop    %rsi
ffffffff810048a1:	5a                   	pop    %rdx
ffffffff810048a2:	59                   	pop    %rcx
ffffffff810048a3:	5b                   	pop    %rbx
ffffffff810048a4:	58                   	pop    %rax
ffffffff810048a5:	9d                   	popfq  
ffffffff810048a6:	48 cf                	iretq  

ffffffff810048a8 <isr_69>:
ffffffff810048a8:	9c                   	pushfq 
ffffffff810048a9:	50                   	push   %rax
ffffffff810048aa:	53                   	push   %rbx
ffffffff810048ab:	51                   	push   %rcx
ffffffff810048ac:	52                   	push   %rdx
ffffffff810048ad:	56                   	push   %rsi
ffffffff810048ae:	57                   	push   %rdi
ffffffff810048af:	54                   	push   %rsp
ffffffff810048b0:	55                   	push   %rbp
ffffffff810048b1:	41 50                	push   %r8
ffffffff810048b3:	41 51                	push   %r9
ffffffff810048b5:	41 52                	push   %r10
ffffffff810048b7:	41 53                	push   %r11
ffffffff810048b9:	41 54                	push   %r12
ffffffff810048bb:	41 55                	push   %r13
ffffffff810048bd:	41 56                	push   %r14
ffffffff810048bf:	41 57                	push   %r15
ffffffff810048c1:	fc                   	cld    
ffffffff810048c2:	bf 45 00 00 00       	mov    $0x45,%edi
ffffffff810048c7:	be 00 00 00 00       	mov    $0x0,%esi
ffffffff810048cc:	e8 26 ec ff ff       	callq  ffffffff810034f7 <isr_dispatcher>
ffffffff810048d1:	41 5f                	pop    %r15
ffffffff810048d3:	41 5e                	pop    %r14
ffffffff810048d5:	41 5d                	pop    %r13
ffffffff810048d7:	41 5c                	pop    %r12
ffffffff810048d9:	41 5b                	pop    %r11
ffffffff810048db:	41 5a                	pop    %r10
ffffffff810048dd:	41 59                	pop    %r9
ffffffff810048df:	41 58                	pop    %r8
ffffffff810048e1:	5d                   	pop    %rbp
ffffffff810048e2:	5c                   	pop    %rsp
ffffffff810048e3:	5f                   	pop    %rdi
ffffffff810048e4:	5e                   	pop    %rsi
ffffffff810048e5:	5a                   	pop    %rdx
ffffffff810048e6:	59                   	pop    %rcx
ffffffff810048e7:	5b                   	pop    %rbx
ffffffff810048e8:	58                   	pop    %rax
ffffffff810048e9:	9d                   	popfq  
ffffffff810048ea:	48 cf                	iretq  

ffffffff810048ec <isr_70>:
ffffffff810048ec:	9c                   	pushfq 
ffffffff810048ed:	50                   	push   %rax
ffffffff810048ee:	53                   	push   %rbx
ffffffff810048ef:	51                   	push   %rcx
ffffffff810048f0:	52                   	push   %rdx
ffffffff810048f1:	56                   	push   %rsi
ffffffff810048f2:	57                   	push   %rdi
ffffffff810048f3:	54                   	push   %rsp
ffffffff810048f4:	55                   	push   %rbp
ffffffff810048f5:	41 50                	push   %r8
ffffffff810048f7:	41 51                	push   %r9
ffffffff810048f9:	41 52                	push   %r10
ffffffff810048fb:	41 53                	push   %r11
ffffffff810048fd:	41 54                	push   %r12
ffffffff810048ff:	41 55                	push   %r13
ffffffff81004901:	41 56                	push   %r14
ffffffff81004903:	41 57                	push   %r15
ffffffff81004905:	fc                   	cld    
ffffffff81004906:	bf 46 00 00 00       	mov    $0x46,%edi
ffffffff8100490b:	be 00 00 00 00       	mov    $0x0,%esi
ffffffff81004910:	e8 e2 eb ff ff       	callq  ffffffff810034f7 <isr_dispatcher>
ffffffff81004915:	41 5f                	pop    %r15
ffffffff81004917:	41 5e                	pop    %r14
ffffffff81004919:	41 5d                	pop    %r13
ffffffff8100491b:	41 5c                	pop    %r12
ffffffff8100491d:	41 5b                	pop    %r11
ffffffff8100491f:	41 5a                	pop    %r10
ffffffff81004921:	41 59                	pop    %r9
ffffffff81004923:	41 58                	pop    %r8
ffffffff81004925:	5d                   	pop    %rbp
ffffffff81004926:	5c                   	pop    %rsp
ffffffff81004927:	5f                   	pop    %rdi
ffffffff81004928:	5e                   	pop    %rsi
ffffffff81004929:	5a                   	pop    %rdx
ffffffff8100492a:	59                   	pop    %rcx
ffffffff8100492b:	5b                   	pop    %rbx
ffffffff8100492c:	58                   	pop    %rax
ffffffff8100492d:	9d                   	popfq  
ffffffff8100492e:	48 cf                	iretq  

ffffffff81004930 <isr_71>:
ffffffff81004930:	9c                   	pushfq 
ffffffff81004931:	50                   	push   %rax
ffffffff81004932:	53                   	push   %rbx
ffffffff81004933:	51                   	push   %rcx
ffffffff81004934:	52                   	push   %rdx
ffffffff81004935:	56                   	push   %rsi
ffffffff81004936:	57                   	push   %rdi
ffffffff81004937:	54                   	push   %rsp
ffffffff81004938:	55                   	push   %rbp
ffffffff81004939:	41 50                	push   %r8
ffffffff8100493b:	41 51                	push   %r9
ffffffff8100493d:	41 52                	push   %r10
ffffffff8100493f:	41 53                	push   %r11
ffffffff81004941:	41 54                	push   %r12
ffffffff81004943:	41 55                	push   %r13
ffffffff81004945:	41 56                	push   %r14
ffffffff81004947:	41 57                	push   %r15
ffffffff81004949:	fc                   	cld    
ffffffff8100494a:	bf 47 00 00 00       	mov    $0x47,%edi
ffffffff8100494f:	be 00 00 00 00       	mov    $0x0,%esi
ffffffff81004954:	e8 9e eb ff ff       	callq  ffffffff810034f7 <isr_dispatcher>
ffffffff81004959:	41 5f                	pop    %r15
ffffffff8100495b:	41 5e                	pop    %r14
ffffffff8100495d:	41 5d                	pop    %r13
ffffffff8100495f:	41 5c                	pop    %r12
ffffffff81004961:	41 5b                	pop    %r11
ffffffff81004963:	41 5a                	pop    %r10
ffffffff81004965:	41 59                	pop    %r9
ffffffff81004967:	41 58                	pop    %r8
ffffffff81004969:	5d                   	pop    %rbp
ffffffff8100496a:	5c                   	pop    %rsp
ffffffff8100496b:	5f                   	pop    %rdi
ffffffff8100496c:	5e                   	pop    %rsi
ffffffff8100496d:	5a                   	pop    %rdx
ffffffff8100496e:	59                   	pop    %rcx
ffffffff8100496f:	5b                   	pop    %rbx
ffffffff81004970:	58                   	pop    %rax
ffffffff81004971:	9d                   	popfq  
ffffffff81004972:	48 cf                	iretq  

ffffffff81004974 <isr_72>:
ffffffff81004974:	9c                   	pushfq 
ffffffff81004975:	50                   	push   %rax
ffffffff81004976:	53                   	push   %rbx
ffffffff81004977:	51                   	push   %rcx
ffffffff81004978:	52                   	push   %rdx
ffffffff81004979:	56                   	push   %rsi
ffffffff8100497a:	57                   	push   %rdi
ffffffff8100497b:	54                   	push   %rsp
ffffffff8100497c:	55                   	push   %rbp
ffffffff8100497d:	41 50                	push   %r8
ffffffff8100497f:	41 51                	push   %r9
ffffffff81004981:	41 52                	push   %r10
ffffffff81004983:	41 53                	push   %r11
ffffffff81004985:	41 54                	push   %r12
ffffffff81004987:	41 55                	push   %r13
ffffffff81004989:	41 56                	push   %r14
ffffffff8100498b:	41 57                	push   %r15
ffffffff8100498d:	fc                   	cld    
ffffffff8100498e:	bf 48 00 00 00       	mov    $0x48,%edi
ffffffff81004993:	be 00 00 00 00       	mov    $0x0,%esi
ffffffff81004998:	e8 5a eb ff ff       	callq  ffffffff810034f7 <isr_dispatcher>
ffffffff8100499d:	41 5f                	pop    %r15
ffffffff8100499f:	41 5e                	pop    %r14
ffffffff810049a1:	41 5d                	pop    %r13
ffffffff810049a3:	41 5c                	pop    %r12
ffffffff810049a5:	41 5b                	pop    %r11
ffffffff810049a7:	41 5a                	pop    %r10
ffffffff810049a9:	41 59                	pop    %r9
ffffffff810049ab:	41 58                	pop    %r8
ffffffff810049ad:	5d                   	pop    %rbp
ffffffff810049ae:	5c                   	pop    %rsp
ffffffff810049af:	5f                   	pop    %rdi
ffffffff810049b0:	5e                   	pop    %rsi
ffffffff810049b1:	5a                   	pop    %rdx
ffffffff810049b2:	59                   	pop    %rcx
ffffffff810049b3:	5b                   	pop    %rbx
ffffffff810049b4:	58                   	pop    %rax
ffffffff810049b5:	9d                   	popfq  
ffffffff810049b6:	48 cf                	iretq  

ffffffff810049b8 <isr_73>:
ffffffff810049b8:	9c                   	pushfq 
ffffffff810049b9:	50                   	push   %rax
ffffffff810049ba:	53                   	push   %rbx
ffffffff810049bb:	51                   	push   %rcx
ffffffff810049bc:	52                   	push   %rdx
ffffffff810049bd:	56                   	push   %rsi
ffffffff810049be:	57                   	push   %rdi
ffffffff810049bf:	54                   	push   %rsp
ffffffff810049c0:	55                   	push   %rbp
ffffffff810049c1:	41 50                	push   %r8
ffffffff810049c3:	41 51                	push   %r9
ffffffff810049c5:	41 52                	push   %r10
ffffffff810049c7:	41 53                	push   %r11
ffffffff810049c9:	41 54                	push   %r12
ffffffff810049cb:	41 55                	push   %r13
ffffffff810049cd:	41 56                	push   %r14
ffffffff810049cf:	41 57                	push   %r15
ffffffff810049d1:	fc                   	cld    
ffffffff810049d2:	bf 49 00 00 00       	mov    $0x49,%edi
ffffffff810049d7:	be 00 00 00 00       	mov    $0x0,%esi
ffffffff810049dc:	e8 16 eb ff ff       	callq  ffffffff810034f7 <isr_dispatcher>
ffffffff810049e1:	41 5f                	pop    %r15
ffffffff810049e3:	41 5e                	pop    %r14
ffffffff810049e5:	41 5d                	pop    %r13
ffffffff810049e7:	41 5c                	pop    %r12
ffffffff810049e9:	41 5b                	pop    %r11
ffffffff810049eb:	41 5a                	pop    %r10
ffffffff810049ed:	41 59                	pop    %r9
ffffffff810049ef:	41 58                	pop    %r8
ffffffff810049f1:	5d                   	pop    %rbp
ffffffff810049f2:	5c                   	pop    %rsp
ffffffff810049f3:	5f                   	pop    %rdi
ffffffff810049f4:	5e                   	pop    %rsi
ffffffff810049f5:	5a                   	pop    %rdx
ffffffff810049f6:	59                   	pop    %rcx
ffffffff810049f7:	5b                   	pop    %rbx
ffffffff810049f8:	58                   	pop    %rax
ffffffff810049f9:	9d                   	popfq  
ffffffff810049fa:	48 cf                	iretq  

ffffffff810049fc <isr_74>:
ffffffff810049fc:	9c                   	pushfq 
ffffffff810049fd:	50                   	push   %rax
ffffffff810049fe:	53                   	push   %rbx
ffffffff810049ff:	51                   	push   %rcx
ffffffff81004a00:	52                   	push   %rdx
ffffffff81004a01:	56                   	push   %rsi
ffffffff81004a02:	57                   	push   %rdi
ffffffff81004a03:	54                   	push   %rsp
ffffffff81004a04:	55                   	push   %rbp
ffffffff81004a05:	41 50                	push   %r8
ffffffff81004a07:	41 51                	push   %r9
ffffffff81004a09:	41 52                	push   %r10
ffffffff81004a0b:	41 53                	push   %r11
ffffffff81004a0d:	41 54                	push   %r12
ffffffff81004a0f:	41 55                	push   %r13
ffffffff81004a11:	41 56                	push   %r14
ffffffff81004a13:	41 57                	push   %r15
ffffffff81004a15:	fc                   	cld    
ffffffff81004a16:	bf 4a 00 00 00       	mov    $0x4a,%edi
ffffffff81004a1b:	be 00 00 00 00       	mov    $0x0,%esi
ffffffff81004a20:	e8 d2 ea ff ff       	callq  ffffffff810034f7 <isr_dispatcher>
ffffffff81004a25:	41 5f                	pop    %r15
ffffffff81004a27:	41 5e                	pop    %r14
ffffffff81004a29:	41 5d                	pop    %r13
ffffffff81004a2b:	41 5c                	pop    %r12
ffffffff81004a2d:	41 5b                	pop    %r11
ffffffff81004a2f:	41 5a                	pop    %r10
ffffffff81004a31:	41 59                	pop    %r9
ffffffff81004a33:	41 58                	pop    %r8
ffffffff81004a35:	5d                   	pop    %rbp
ffffffff81004a36:	5c                   	pop    %rsp
ffffffff81004a37:	5f                   	pop    %rdi
ffffffff81004a38:	5e                   	pop    %rsi
ffffffff81004a39:	5a                   	pop    %rdx
ffffffff81004a3a:	59                   	pop    %rcx
ffffffff81004a3b:	5b                   	pop    %rbx
ffffffff81004a3c:	58                   	pop    %rax
ffffffff81004a3d:	9d                   	popfq  
ffffffff81004a3e:	48 cf                	iretq  

ffffffff81004a40 <isr_75>:
ffffffff81004a40:	9c                   	pushfq 
ffffffff81004a41:	50                   	push   %rax
ffffffff81004a42:	53                   	push   %rbx
ffffffff81004a43:	51                   	push   %rcx
ffffffff81004a44:	52                   	push   %rdx
ffffffff81004a45:	56                   	push   %rsi
ffffffff81004a46:	57                   	push   %rdi
ffffffff81004a47:	54                   	push   %rsp
ffffffff81004a48:	55                   	push   %rbp
ffffffff81004a49:	41 50                	push   %r8
ffffffff81004a4b:	41 51                	push   %r9
ffffffff81004a4d:	41 52                	push   %r10
ffffffff81004a4f:	41 53                	push   %r11
ffffffff81004a51:	41 54                	push   %r12
ffffffff81004a53:	41 55                	push   %r13
ffffffff81004a55:	41 56                	push   %r14
ffffffff81004a57:	41 57                	push   %r15
ffffffff81004a59:	fc                   	cld    
ffffffff81004a5a:	bf 4b 00 00 00       	mov    $0x4b,%edi
ffffffff81004a5f:	be 00 00 00 00       	mov    $0x0,%esi
ffffffff81004a64:	e8 8e ea ff ff       	callq  ffffffff810034f7 <isr_dispatcher>
ffffffff81004a69:	41 5f                	pop    %r15
ffffffff81004a6b:	41 5e                	pop    %r14
ffffffff81004a6d:	41 5d                	pop    %r13
ffffffff81004a6f:	41 5c                	pop    %r12
ffffffff81004a71:	41 5b                	pop    %r11
ffffffff81004a73:	41 5a                	pop    %r10
ffffffff81004a75:	41 59                	pop    %r9
ffffffff81004a77:	41 58                	pop    %r8
ffffffff81004a79:	5d                   	pop    %rbp
ffffffff81004a7a:	5c                   	pop    %rsp
ffffffff81004a7b:	5f                   	pop    %rdi
ffffffff81004a7c:	5e                   	pop    %rsi
ffffffff81004a7d:	5a                   	pop    %rdx
ffffffff81004a7e:	59                   	pop    %rcx
ffffffff81004a7f:	5b                   	pop    %rbx
ffffffff81004a80:	58                   	pop    %rax
ffffffff81004a81:	9d                   	popfq  
ffffffff81004a82:	48 cf                	iretq  

ffffffff81004a84 <isr_76>:
ffffffff81004a84:	9c                   	pushfq 
ffffffff81004a85:	50                   	push   %rax
ffffffff81004a86:	53                   	push   %rbx
ffffffff81004a87:	51                   	push   %rcx
ffffffff81004a88:	52                   	push   %rdx
ffffffff81004a89:	56                   	push   %rsi
ffffffff81004a8a:	57                   	push   %rdi
ffffffff81004a8b:	54                   	push   %rsp
ffffffff81004a8c:	55                   	push   %rbp
ffffffff81004a8d:	41 50                	push   %r8
ffffffff81004a8f:	41 51                	push   %r9
ffffffff81004a91:	41 52                	push   %r10
ffffffff81004a93:	41 53                	push   %r11
ffffffff81004a95:	41 54                	push   %r12
ffffffff81004a97:	41 55                	push   %r13
ffffffff81004a99:	41 56                	push   %r14
ffffffff81004a9b:	41 57                	push   %r15
ffffffff81004a9d:	fc                   	cld    
ffffffff81004a9e:	bf 4c 00 00 00       	mov    $0x4c,%edi
ffffffff81004aa3:	be 00 00 00 00       	mov    $0x0,%esi
ffffffff81004aa8:	e8 4a ea ff ff       	callq  ffffffff810034f7 <isr_dispatcher>
ffffffff81004aad:	41 5f                	pop    %r15
ffffffff81004aaf:	41 5e                	pop    %r14
ffffffff81004ab1:	41 5d                	pop    %r13
ffffffff81004ab3:	41 5c                	pop    %r12
ffffffff81004ab5:	41 5b                	pop    %r11
ffffffff81004ab7:	41 5a                	pop    %r10
ffffffff81004ab9:	41 59                	pop    %r9
ffffffff81004abb:	41 58                	pop    %r8
ffffffff81004abd:	5d                   	pop    %rbp
ffffffff81004abe:	5c                   	pop    %rsp
ffffffff81004abf:	5f                   	pop    %rdi
ffffffff81004ac0:	5e                   	pop    %rsi
ffffffff81004ac1:	5a                   	pop    %rdx
ffffffff81004ac2:	59                   	pop    %rcx
ffffffff81004ac3:	5b                   	pop    %rbx
ffffffff81004ac4:	58                   	pop    %rax
ffffffff81004ac5:	9d                   	popfq  
ffffffff81004ac6:	48 cf                	iretq  

ffffffff81004ac8 <isr_77>:
ffffffff81004ac8:	9c                   	pushfq 
ffffffff81004ac9:	50                   	push   %rax
ffffffff81004aca:	53                   	push   %rbx
ffffffff81004acb:	51                   	push   %rcx
ffffffff81004acc:	52                   	push   %rdx
ffffffff81004acd:	56                   	push   %rsi
ffffffff81004ace:	57                   	push   %rdi
ffffffff81004acf:	54                   	push   %rsp
ffffffff81004ad0:	55                   	push   %rbp
ffffffff81004ad1:	41 50                	push   %r8
ffffffff81004ad3:	41 51                	push   %r9
ffffffff81004ad5:	41 52                	push   %r10
ffffffff81004ad7:	41 53                	push   %r11
ffffffff81004ad9:	41 54                	push   %r12
ffffffff81004adb:	41 55                	push   %r13
ffffffff81004add:	41 56                	push   %r14
ffffffff81004adf:	41 57                	push   %r15
ffffffff81004ae1:	fc                   	cld    
ffffffff81004ae2:	bf 4d 00 00 00       	mov    $0x4d,%edi
ffffffff81004ae7:	be 00 00 00 00       	mov    $0x0,%esi
ffffffff81004aec:	e8 06 ea ff ff       	callq  ffffffff810034f7 <isr_dispatcher>
ffffffff81004af1:	41 5f                	pop    %r15
ffffffff81004af3:	41 5e                	pop    %r14
ffffffff81004af5:	41 5d                	pop    %r13
ffffffff81004af7:	41 5c                	pop    %r12
ffffffff81004af9:	41 5b                	pop    %r11
ffffffff81004afb:	41 5a                	pop    %r10
ffffffff81004afd:	41 59                	pop    %r9
ffffffff81004aff:	41 58                	pop    %r8
ffffffff81004b01:	5d                   	pop    %rbp
ffffffff81004b02:	5c                   	pop    %rsp
ffffffff81004b03:	5f                   	pop    %rdi
ffffffff81004b04:	5e                   	pop    %rsi
ffffffff81004b05:	5a                   	pop    %rdx
ffffffff81004b06:	59                   	pop    %rcx
ffffffff81004b07:	5b                   	pop    %rbx
ffffffff81004b08:	58                   	pop    %rax
ffffffff81004b09:	9d                   	popfq  
ffffffff81004b0a:	48 cf                	iretq  

ffffffff81004b0c <isr_78>:
ffffffff81004b0c:	9c                   	pushfq 
ffffffff81004b0d:	50                   	push   %rax
ffffffff81004b0e:	53                   	push   %rbx
ffffffff81004b0f:	51                   	push   %rcx
ffffffff81004b10:	52                   	push   %rdx
ffffffff81004b11:	56                   	push   %rsi
ffffffff81004b12:	57                   	push   %rdi
ffffffff81004b13:	54                   	push   %rsp
ffffffff81004b14:	55                   	push   %rbp
ffffffff81004b15:	41 50                	push   %r8
ffffffff81004b17:	41 51                	push   %r9
ffffffff81004b19:	41 52                	push   %r10
ffffffff81004b1b:	41 53                	push   %r11
ffffffff81004b1d:	41 54                	push   %r12
ffffffff81004b1f:	41 55                	push   %r13
ffffffff81004b21:	41 56                	push   %r14
ffffffff81004b23:	41 57                	push   %r15
ffffffff81004b25:	fc                   	cld    
ffffffff81004b26:	bf 4e 00 00 00       	mov    $0x4e,%edi
ffffffff81004b2b:	be 00 00 00 00       	mov    $0x0,%esi
ffffffff81004b30:	e8 c2 e9 ff ff       	callq  ffffffff810034f7 <isr_dispatcher>
ffffffff81004b35:	41 5f                	pop    %r15
ffffffff81004b37:	41 5e                	pop    %r14
ffffffff81004b39:	41 5d                	pop    %r13
ffffffff81004b3b:	41 5c                	pop    %r12
ffffffff81004b3d:	41 5b                	pop    %r11
ffffffff81004b3f:	41 5a                	pop    %r10
ffffffff81004b41:	41 59                	pop    %r9
ffffffff81004b43:	41 58                	pop    %r8
ffffffff81004b45:	5d                   	pop    %rbp
ffffffff81004b46:	5c                   	pop    %rsp
ffffffff81004b47:	5f                   	pop    %rdi
ffffffff81004b48:	5e                   	pop    %rsi
ffffffff81004b49:	5a                   	pop    %rdx
ffffffff81004b4a:	59                   	pop    %rcx
ffffffff81004b4b:	5b                   	pop    %rbx
ffffffff81004b4c:	58                   	pop    %rax
ffffffff81004b4d:	9d                   	popfq  
ffffffff81004b4e:	48 cf                	iretq  

ffffffff81004b50 <isr_79>:
ffffffff81004b50:	9c                   	pushfq 
ffffffff81004b51:	50                   	push   %rax
ffffffff81004b52:	53                   	push   %rbx
ffffffff81004b53:	51                   	push   %rcx
ffffffff81004b54:	52                   	push   %rdx
ffffffff81004b55:	56                   	push   %rsi
ffffffff81004b56:	57                   	push   %rdi
ffffffff81004b57:	54                   	push   %rsp
ffffffff81004b58:	55                   	push   %rbp
ffffffff81004b59:	41 50                	push   %r8
ffffffff81004b5b:	41 51                	push   %r9
ffffffff81004b5d:	41 52                	push   %r10
ffffffff81004b5f:	41 53                	push   %r11
ffffffff81004b61:	41 54                	push   %r12
ffffffff81004b63:	41 55                	push   %r13
ffffffff81004b65:	41 56                	push   %r14
ffffffff81004b67:	41 57                	push   %r15
ffffffff81004b69:	fc                   	cld    
ffffffff81004b6a:	bf 4f 00 00 00       	mov    $0x4f,%edi
ffffffff81004b6f:	be 00 00 00 00       	mov    $0x0,%esi
ffffffff81004b74:	e8 7e e9 ff ff       	callq  ffffffff810034f7 <isr_dispatcher>
ffffffff81004b79:	41 5f                	pop    %r15
ffffffff81004b7b:	41 5e                	pop    %r14
ffffffff81004b7d:	41 5d                	pop    %r13
ffffffff81004b7f:	41 5c                	pop    %r12
ffffffff81004b81:	41 5b                	pop    %r11
ffffffff81004b83:	41 5a                	pop    %r10
ffffffff81004b85:	41 59                	pop    %r9
ffffffff81004b87:	41 58                	pop    %r8
ffffffff81004b89:	5d                   	pop    %rbp
ffffffff81004b8a:	5c                   	pop    %rsp
ffffffff81004b8b:	5f                   	pop    %rdi
ffffffff81004b8c:	5e                   	pop    %rsi
ffffffff81004b8d:	5a                   	pop    %rdx
ffffffff81004b8e:	59                   	pop    %rcx
ffffffff81004b8f:	5b                   	pop    %rbx
ffffffff81004b90:	58                   	pop    %rax
ffffffff81004b91:	9d                   	popfq  
ffffffff81004b92:	48 cf                	iretq  

ffffffff81004b94 <isr_80>:
ffffffff81004b94:	9c                   	pushfq 
ffffffff81004b95:	50                   	push   %rax
ffffffff81004b96:	53                   	push   %rbx
ffffffff81004b97:	51                   	push   %rcx
ffffffff81004b98:	52                   	push   %rdx
ffffffff81004b99:	56                   	push   %rsi
ffffffff81004b9a:	57                   	push   %rdi
ffffffff81004b9b:	54                   	push   %rsp
ffffffff81004b9c:	55                   	push   %rbp
ffffffff81004b9d:	41 50                	push   %r8
ffffffff81004b9f:	41 51                	push   %r9
ffffffff81004ba1:	41 52                	push   %r10
ffffffff81004ba3:	41 53                	push   %r11
ffffffff81004ba5:	41 54                	push   %r12
ffffffff81004ba7:	41 55                	push   %r13
ffffffff81004ba9:	41 56                	push   %r14
ffffffff81004bab:	41 57                	push   %r15
ffffffff81004bad:	fc                   	cld    
ffffffff81004bae:	bf 50 00 00 00       	mov    $0x50,%edi
ffffffff81004bb3:	be 00 00 00 00       	mov    $0x0,%esi
ffffffff81004bb8:	e8 3a e9 ff ff       	callq  ffffffff810034f7 <isr_dispatcher>
ffffffff81004bbd:	41 5f                	pop    %r15
ffffffff81004bbf:	41 5e                	pop    %r14
ffffffff81004bc1:	41 5d                	pop    %r13
ffffffff81004bc3:	41 5c                	pop    %r12
ffffffff81004bc5:	41 5b                	pop    %r11
ffffffff81004bc7:	41 5a                	pop    %r10
ffffffff81004bc9:	41 59                	pop    %r9
ffffffff81004bcb:	41 58                	pop    %r8
ffffffff81004bcd:	5d                   	pop    %rbp
ffffffff81004bce:	5c                   	pop    %rsp
ffffffff81004bcf:	5f                   	pop    %rdi
ffffffff81004bd0:	5e                   	pop    %rsi
ffffffff81004bd1:	5a                   	pop    %rdx
ffffffff81004bd2:	59                   	pop    %rcx
ffffffff81004bd3:	5b                   	pop    %rbx
ffffffff81004bd4:	58                   	pop    %rax
ffffffff81004bd5:	9d                   	popfq  
ffffffff81004bd6:	48 cf                	iretq  

ffffffff81004bd8 <isr_81>:
ffffffff81004bd8:	9c                   	pushfq 
ffffffff81004bd9:	50                   	push   %rax
ffffffff81004bda:	53                   	push   %rbx
ffffffff81004bdb:	51                   	push   %rcx
ffffffff81004bdc:	52                   	push   %rdx
ffffffff81004bdd:	56                   	push   %rsi
ffffffff81004bde:	57                   	push   %rdi
ffffffff81004bdf:	54                   	push   %rsp
ffffffff81004be0:	55                   	push   %rbp
ffffffff81004be1:	41 50                	push   %r8
ffffffff81004be3:	41 51                	push   %r9
ffffffff81004be5:	41 52                	push   %r10
ffffffff81004be7:	41 53                	push   %r11
ffffffff81004be9:	41 54                	push   %r12
ffffffff81004beb:	41 55                	push   %r13
ffffffff81004bed:	41 56                	push   %r14
ffffffff81004bef:	41 57                	push   %r15
ffffffff81004bf1:	fc                   	cld    
ffffffff81004bf2:	bf 51 00 00 00       	mov    $0x51,%edi
ffffffff81004bf7:	be 00 00 00 00       	mov    $0x0,%esi
ffffffff81004bfc:	e8 f6 e8 ff ff       	callq  ffffffff810034f7 <isr_dispatcher>
ffffffff81004c01:	41 5f                	pop    %r15
ffffffff81004c03:	41 5e                	pop    %r14
ffffffff81004c05:	41 5d                	pop    %r13
ffffffff81004c07:	41 5c                	pop    %r12
ffffffff81004c09:	41 5b                	pop    %r11
ffffffff81004c0b:	41 5a                	pop    %r10
ffffffff81004c0d:	41 59                	pop    %r9
ffffffff81004c0f:	41 58                	pop    %r8
ffffffff81004c11:	5d                   	pop    %rbp
ffffffff81004c12:	5c                   	pop    %rsp
ffffffff81004c13:	5f                   	pop    %rdi
ffffffff81004c14:	5e                   	pop    %rsi
ffffffff81004c15:	5a                   	pop    %rdx
ffffffff81004c16:	59                   	pop    %rcx
ffffffff81004c17:	5b                   	pop    %rbx
ffffffff81004c18:	58                   	pop    %rax
ffffffff81004c19:	9d                   	popfq  
ffffffff81004c1a:	48 cf                	iretq  

ffffffff81004c1c <isr_82>:
ffffffff81004c1c:	9c                   	pushfq 
ffffffff81004c1d:	50                   	push   %rax
ffffffff81004c1e:	53                   	push   %rbx
ffffffff81004c1f:	51                   	push   %rcx
ffffffff81004c20:	52                   	push   %rdx
ffffffff81004c21:	56                   	push   %rsi
ffffffff81004c22:	57                   	push   %rdi
ffffffff81004c23:	54                   	push   %rsp
ffffffff81004c24:	55                   	push   %rbp
ffffffff81004c25:	41 50                	push   %r8
ffffffff81004c27:	41 51                	push   %r9
ffffffff81004c29:	41 52                	push   %r10
ffffffff81004c2b:	41 53                	push   %r11
ffffffff81004c2d:	41 54                	push   %r12
ffffffff81004c2f:	41 55                	push   %r13
ffffffff81004c31:	41 56                	push   %r14
ffffffff81004c33:	41 57                	push   %r15
ffffffff81004c35:	fc                   	cld    
ffffffff81004c36:	bf 52 00 00 00       	mov    $0x52,%edi
ffffffff81004c3b:	be 00 00 00 00       	mov    $0x0,%esi
ffffffff81004c40:	e8 b2 e8 ff ff       	callq  ffffffff810034f7 <isr_dispatcher>
ffffffff81004c45:	41 5f                	pop    %r15
ffffffff81004c47:	41 5e                	pop    %r14
ffffffff81004c49:	41 5d                	pop    %r13
ffffffff81004c4b:	41 5c                	pop    %r12
ffffffff81004c4d:	41 5b                	pop    %r11
ffffffff81004c4f:	41 5a                	pop    %r10
ffffffff81004c51:	41 59                	pop    %r9
ffffffff81004c53:	41 58                	pop    %r8
ffffffff81004c55:	5d                   	pop    %rbp
ffffffff81004c56:	5c                   	pop    %rsp
ffffffff81004c57:	5f                   	pop    %rdi
ffffffff81004c58:	5e                   	pop    %rsi
ffffffff81004c59:	5a                   	pop    %rdx
ffffffff81004c5a:	59                   	pop    %rcx
ffffffff81004c5b:	5b                   	pop    %rbx
ffffffff81004c5c:	58                   	pop    %rax
ffffffff81004c5d:	9d                   	popfq  
ffffffff81004c5e:	48 cf                	iretq  

ffffffff81004c60 <isr_83>:
ffffffff81004c60:	9c                   	pushfq 
ffffffff81004c61:	50                   	push   %rax
ffffffff81004c62:	53                   	push   %rbx
ffffffff81004c63:	51                   	push   %rcx
ffffffff81004c64:	52                   	push   %rdx
ffffffff81004c65:	56                   	push   %rsi
ffffffff81004c66:	57                   	push   %rdi
ffffffff81004c67:	54                   	push   %rsp
ffffffff81004c68:	55                   	push   %rbp
ffffffff81004c69:	41 50                	push   %r8
ffffffff81004c6b:	41 51                	push   %r9
ffffffff81004c6d:	41 52                	push   %r10
ffffffff81004c6f:	41 53                	push   %r11
ffffffff81004c71:	41 54                	push   %r12
ffffffff81004c73:	41 55                	push   %r13
ffffffff81004c75:	41 56                	push   %r14
ffffffff81004c77:	41 57                	push   %r15
ffffffff81004c79:	fc                   	cld    
ffffffff81004c7a:	bf 53 00 00 00       	mov    $0x53,%edi
ffffffff81004c7f:	be 00 00 00 00       	mov    $0x0,%esi
ffffffff81004c84:	e8 6e e8 ff ff       	callq  ffffffff810034f7 <isr_dispatcher>
ffffffff81004c89:	41 5f                	pop    %r15
ffffffff81004c8b:	41 5e                	pop    %r14
ffffffff81004c8d:	41 5d                	pop    %r13
ffffffff81004c8f:	41 5c                	pop    %r12
ffffffff81004c91:	41 5b                	pop    %r11
ffffffff81004c93:	41 5a                	pop    %r10
ffffffff81004c95:	41 59                	pop    %r9
ffffffff81004c97:	41 58                	pop    %r8
ffffffff81004c99:	5d                   	pop    %rbp
ffffffff81004c9a:	5c                   	pop    %rsp
ffffffff81004c9b:	5f                   	pop    %rdi
ffffffff81004c9c:	5e                   	pop    %rsi
ffffffff81004c9d:	5a                   	pop    %rdx
ffffffff81004c9e:	59                   	pop    %rcx
ffffffff81004c9f:	5b                   	pop    %rbx
ffffffff81004ca0:	58                   	pop    %rax
ffffffff81004ca1:	9d                   	popfq  
ffffffff81004ca2:	48 cf                	iretq  

ffffffff81004ca4 <isr_84>:
ffffffff81004ca4:	9c                   	pushfq 
ffffffff81004ca5:	50                   	push   %rax
ffffffff81004ca6:	53                   	push   %rbx
ffffffff81004ca7:	51                   	push   %rcx
ffffffff81004ca8:	52                   	push   %rdx
ffffffff81004ca9:	56                   	push   %rsi
ffffffff81004caa:	57                   	push   %rdi
ffffffff81004cab:	54                   	push   %rsp
ffffffff81004cac:	55                   	push   %rbp
ffffffff81004cad:	41 50                	push   %r8
ffffffff81004caf:	41 51                	push   %r9
ffffffff81004cb1:	41 52                	push   %r10
ffffffff81004cb3:	41 53                	push   %r11
ffffffff81004cb5:	41 54                	push   %r12
ffffffff81004cb7:	41 55                	push   %r13
ffffffff81004cb9:	41 56                	push   %r14
ffffffff81004cbb:	41 57                	push   %r15
ffffffff81004cbd:	fc                   	cld    
ffffffff81004cbe:	bf 54 00 00 00       	mov    $0x54,%edi
ffffffff81004cc3:	be 00 00 00 00       	mov    $0x0,%esi
ffffffff81004cc8:	e8 2a e8 ff ff       	callq  ffffffff810034f7 <isr_dispatcher>
ffffffff81004ccd:	41 5f                	pop    %r15
ffffffff81004ccf:	41 5e                	pop    %r14
ffffffff81004cd1:	41 5d                	pop    %r13
ffffffff81004cd3:	41 5c                	pop    %r12
ffffffff81004cd5:	41 5b                	pop    %r11
ffffffff81004cd7:	41 5a                	pop    %r10
ffffffff81004cd9:	41 59                	pop    %r9
ffffffff81004cdb:	41 58                	pop    %r8
ffffffff81004cdd:	5d                   	pop    %rbp
ffffffff81004cde:	5c                   	pop    %rsp
ffffffff81004cdf:	5f                   	pop    %rdi
ffffffff81004ce0:	5e                   	pop    %rsi
ffffffff81004ce1:	5a                   	pop    %rdx
ffffffff81004ce2:	59                   	pop    %rcx
ffffffff81004ce3:	5b                   	pop    %rbx
ffffffff81004ce4:	58                   	pop    %rax
ffffffff81004ce5:	9d                   	popfq  
ffffffff81004ce6:	48 cf                	iretq  

ffffffff81004ce8 <isr_85>:
ffffffff81004ce8:	9c                   	pushfq 
ffffffff81004ce9:	50                   	push   %rax
ffffffff81004cea:	53                   	push   %rbx
ffffffff81004ceb:	51                   	push   %rcx
ffffffff81004cec:	52                   	push   %rdx
ffffffff81004ced:	56                   	push   %rsi
ffffffff81004cee:	57                   	push   %rdi
ffffffff81004cef:	54                   	push   %rsp
ffffffff81004cf0:	55                   	push   %rbp
ffffffff81004cf1:	41 50                	push   %r8
ffffffff81004cf3:	41 51                	push   %r9
ffffffff81004cf5:	41 52                	push   %r10
ffffffff81004cf7:	41 53                	push   %r11
ffffffff81004cf9:	41 54                	push   %r12
ffffffff81004cfb:	41 55                	push   %r13
ffffffff81004cfd:	41 56                	push   %r14
ffffffff81004cff:	41 57                	push   %r15
ffffffff81004d01:	fc                   	cld    
ffffffff81004d02:	bf 55 00 00 00       	mov    $0x55,%edi
ffffffff81004d07:	be 00 00 00 00       	mov    $0x0,%esi
ffffffff81004d0c:	e8 e6 e7 ff ff       	callq  ffffffff810034f7 <isr_dispatcher>
ffffffff81004d11:	41 5f                	pop    %r15
ffffffff81004d13:	41 5e                	pop    %r14
ffffffff81004d15:	41 5d                	pop    %r13
ffffffff81004d17:	41 5c                	pop    %r12
ffffffff81004d19:	41 5b                	pop    %r11
ffffffff81004d1b:	41 5a                	pop    %r10
ffffffff81004d1d:	41 59                	pop    %r9
ffffffff81004d1f:	41 58                	pop    %r8
ffffffff81004d21:	5d                   	pop    %rbp
ffffffff81004d22:	5c                   	pop    %rsp
ffffffff81004d23:	5f                   	pop    %rdi
ffffffff81004d24:	5e                   	pop    %rsi
ffffffff81004d25:	5a                   	pop    %rdx
ffffffff81004d26:	59                   	pop    %rcx
ffffffff81004d27:	5b                   	pop    %rbx
ffffffff81004d28:	58                   	pop    %rax
ffffffff81004d29:	9d                   	popfq  
ffffffff81004d2a:	48 cf                	iretq  

ffffffff81004d2c <isr_86>:
ffffffff81004d2c:	9c                   	pushfq 
ffffffff81004d2d:	50                   	push   %rax
ffffffff81004d2e:	53                   	push   %rbx
ffffffff81004d2f:	51                   	push   %rcx
ffffffff81004d30:	52                   	push   %rdx
ffffffff81004d31:	56                   	push   %rsi
ffffffff81004d32:	57                   	push   %rdi
ffffffff81004d33:	54                   	push   %rsp
ffffffff81004d34:	55                   	push   %rbp
ffffffff81004d35:	41 50                	push   %r8
ffffffff81004d37:	41 51                	push   %r9
ffffffff81004d39:	41 52                	push   %r10
ffffffff81004d3b:	41 53                	push   %r11
ffffffff81004d3d:	41 54                	push   %r12
ffffffff81004d3f:	41 55                	push   %r13
ffffffff81004d41:	41 56                	push   %r14
ffffffff81004d43:	41 57                	push   %r15
ffffffff81004d45:	fc                   	cld    
ffffffff81004d46:	bf 56 00 00 00       	mov    $0x56,%edi
ffffffff81004d4b:	be 00 00 00 00       	mov    $0x0,%esi
ffffffff81004d50:	e8 a2 e7 ff ff       	callq  ffffffff810034f7 <isr_dispatcher>
ffffffff81004d55:	41 5f                	pop    %r15
ffffffff81004d57:	41 5e                	pop    %r14
ffffffff81004d59:	41 5d                	pop    %r13
ffffffff81004d5b:	41 5c                	pop    %r12
ffffffff81004d5d:	41 5b                	pop    %r11
ffffffff81004d5f:	41 5a                	pop    %r10
ffffffff81004d61:	41 59                	pop    %r9
ffffffff81004d63:	41 58                	pop    %r8
ffffffff81004d65:	5d                   	pop    %rbp
ffffffff81004d66:	5c                   	pop    %rsp
ffffffff81004d67:	5f                   	pop    %rdi
ffffffff81004d68:	5e                   	pop    %rsi
ffffffff81004d69:	5a                   	pop    %rdx
ffffffff81004d6a:	59                   	pop    %rcx
ffffffff81004d6b:	5b                   	pop    %rbx
ffffffff81004d6c:	58                   	pop    %rax
ffffffff81004d6d:	9d                   	popfq  
ffffffff81004d6e:	48 cf                	iretq  

ffffffff81004d70 <isr_87>:
ffffffff81004d70:	9c                   	pushfq 
ffffffff81004d71:	50                   	push   %rax
ffffffff81004d72:	53                   	push   %rbx
ffffffff81004d73:	51                   	push   %rcx
ffffffff81004d74:	52                   	push   %rdx
ffffffff81004d75:	56                   	push   %rsi
ffffffff81004d76:	57                   	push   %rdi
ffffffff81004d77:	54                   	push   %rsp
ffffffff81004d78:	55                   	push   %rbp
ffffffff81004d79:	41 50                	push   %r8
ffffffff81004d7b:	41 51                	push   %r9
ffffffff81004d7d:	41 52                	push   %r10
ffffffff81004d7f:	41 53                	push   %r11
ffffffff81004d81:	41 54                	push   %r12
ffffffff81004d83:	41 55                	push   %r13
ffffffff81004d85:	41 56                	push   %r14
ffffffff81004d87:	41 57                	push   %r15
ffffffff81004d89:	fc                   	cld    
ffffffff81004d8a:	bf 57 00 00 00       	mov    $0x57,%edi
ffffffff81004d8f:	be 00 00 00 00       	mov    $0x0,%esi
ffffffff81004d94:	e8 5e e7 ff ff       	callq  ffffffff810034f7 <isr_dispatcher>
ffffffff81004d99:	41 5f                	pop    %r15
ffffffff81004d9b:	41 5e                	pop    %r14
ffffffff81004d9d:	41 5d                	pop    %r13
ffffffff81004d9f:	41 5c                	pop    %r12
ffffffff81004da1:	41 5b                	pop    %r11
ffffffff81004da3:	41 5a                	pop    %r10
ffffffff81004da5:	41 59                	pop    %r9
ffffffff81004da7:	41 58                	pop    %r8
ffffffff81004da9:	5d                   	pop    %rbp
ffffffff81004daa:	5c                   	pop    %rsp
ffffffff81004dab:	5f                   	pop    %rdi
ffffffff81004dac:	5e                   	pop    %rsi
ffffffff81004dad:	5a                   	pop    %rdx
ffffffff81004dae:	59                   	pop    %rcx
ffffffff81004daf:	5b                   	pop    %rbx
ffffffff81004db0:	58                   	pop    %rax
ffffffff81004db1:	9d                   	popfq  
ffffffff81004db2:	48 cf                	iretq  

ffffffff81004db4 <isr_88>:
ffffffff81004db4:	9c                   	pushfq 
ffffffff81004db5:	50                   	push   %rax
ffffffff81004db6:	53                   	push   %rbx
ffffffff81004db7:	51                   	push   %rcx
ffffffff81004db8:	52                   	push   %rdx
ffffffff81004db9:	56                   	push   %rsi
ffffffff81004dba:	57                   	push   %rdi
ffffffff81004dbb:	54                   	push   %rsp
ffffffff81004dbc:	55                   	push   %rbp
ffffffff81004dbd:	41 50                	push   %r8
ffffffff81004dbf:	41 51                	push   %r9
ffffffff81004dc1:	41 52                	push   %r10
ffffffff81004dc3:	41 53                	push   %r11
ffffffff81004dc5:	41 54                	push   %r12
ffffffff81004dc7:	41 55                	push   %r13
ffffffff81004dc9:	41 56                	push   %r14
ffffffff81004dcb:	41 57                	push   %r15
ffffffff81004dcd:	fc                   	cld    
ffffffff81004dce:	bf 58 00 00 00       	mov    $0x58,%edi
ffffffff81004dd3:	be 00 00 00 00       	mov    $0x0,%esi
ffffffff81004dd8:	e8 1a e7 ff ff       	callq  ffffffff810034f7 <isr_dispatcher>
ffffffff81004ddd:	41 5f                	pop    %r15
ffffffff81004ddf:	41 5e                	pop    %r14
ffffffff81004de1:	41 5d                	pop    %r13
ffffffff81004de3:	41 5c                	pop    %r12
ffffffff81004de5:	41 5b                	pop    %r11
ffffffff81004de7:	41 5a                	pop    %r10
ffffffff81004de9:	41 59                	pop    %r9
ffffffff81004deb:	41 58                	pop    %r8
ffffffff81004ded:	5d                   	pop    %rbp
ffffffff81004dee:	5c                   	pop    %rsp
ffffffff81004def:	5f                   	pop    %rdi
ffffffff81004df0:	5e                   	pop    %rsi
ffffffff81004df1:	5a                   	pop    %rdx
ffffffff81004df2:	59                   	pop    %rcx
ffffffff81004df3:	5b                   	pop    %rbx
ffffffff81004df4:	58                   	pop    %rax
ffffffff81004df5:	9d                   	popfq  
ffffffff81004df6:	48 cf                	iretq  

ffffffff81004df8 <isr_89>:
ffffffff81004df8:	9c                   	pushfq 
ffffffff81004df9:	50                   	push   %rax
ffffffff81004dfa:	53                   	push   %rbx
ffffffff81004dfb:	51                   	push   %rcx
ffffffff81004dfc:	52                   	push   %rdx
ffffffff81004dfd:	56                   	push   %rsi
ffffffff81004dfe:	57                   	push   %rdi
ffffffff81004dff:	54                   	push   %rsp
ffffffff81004e00:	55                   	push   %rbp
ffffffff81004e01:	41 50                	push   %r8
ffffffff81004e03:	41 51                	push   %r9
ffffffff81004e05:	41 52                	push   %r10
ffffffff81004e07:	41 53                	push   %r11
ffffffff81004e09:	41 54                	push   %r12
ffffffff81004e0b:	41 55                	push   %r13
ffffffff81004e0d:	41 56                	push   %r14
ffffffff81004e0f:	41 57                	push   %r15
ffffffff81004e11:	fc                   	cld    
ffffffff81004e12:	bf 59 00 00 00       	mov    $0x59,%edi
ffffffff81004e17:	be 00 00 00 00       	mov    $0x0,%esi
ffffffff81004e1c:	e8 d6 e6 ff ff       	callq  ffffffff810034f7 <isr_dispatcher>
ffffffff81004e21:	41 5f                	pop    %r15
ffffffff81004e23:	41 5e                	pop    %r14
ffffffff81004e25:	41 5d                	pop    %r13
ffffffff81004e27:	41 5c                	pop    %r12
ffffffff81004e29:	41 5b                	pop    %r11
ffffffff81004e2b:	41 5a                	pop    %r10
ffffffff81004e2d:	41 59                	pop    %r9
ffffffff81004e2f:	41 58                	pop    %r8
ffffffff81004e31:	5d                   	pop    %rbp
ffffffff81004e32:	5c                   	pop    %rsp
ffffffff81004e33:	5f                   	pop    %rdi
ffffffff81004e34:	5e                   	pop    %rsi
ffffffff81004e35:	5a                   	pop    %rdx
ffffffff81004e36:	59                   	pop    %rcx
ffffffff81004e37:	5b                   	pop    %rbx
ffffffff81004e38:	58                   	pop    %rax
ffffffff81004e39:	9d                   	popfq  
ffffffff81004e3a:	48 cf                	iretq  

ffffffff81004e3c <isr_90>:
ffffffff81004e3c:	9c                   	pushfq 
ffffffff81004e3d:	50                   	push   %rax
ffffffff81004e3e:	53                   	push   %rbx
ffffffff81004e3f:	51                   	push   %rcx
ffffffff81004e40:	52                   	push   %rdx
ffffffff81004e41:	56                   	push   %rsi
ffffffff81004e42:	57                   	push   %rdi
ffffffff81004e43:	54                   	push   %rsp
ffffffff81004e44:	55                   	push   %rbp
ffffffff81004e45:	41 50                	push   %r8
ffffffff81004e47:	41 51                	push   %r9
ffffffff81004e49:	41 52                	push   %r10
ffffffff81004e4b:	41 53                	push   %r11
ffffffff81004e4d:	41 54                	push   %r12
ffffffff81004e4f:	41 55                	push   %r13
ffffffff81004e51:	41 56                	push   %r14
ffffffff81004e53:	41 57                	push   %r15
ffffffff81004e55:	fc                   	cld    
ffffffff81004e56:	bf 5a 00 00 00       	mov    $0x5a,%edi
ffffffff81004e5b:	be 00 00 00 00       	mov    $0x0,%esi
ffffffff81004e60:	e8 92 e6 ff ff       	callq  ffffffff810034f7 <isr_dispatcher>
ffffffff81004e65:	41 5f                	pop    %r15
ffffffff81004e67:	41 5e                	pop    %r14
ffffffff81004e69:	41 5d                	pop    %r13
ffffffff81004e6b:	41 5c                	pop    %r12
ffffffff81004e6d:	41 5b                	pop    %r11
ffffffff81004e6f:	41 5a                	pop    %r10
ffffffff81004e71:	41 59                	pop    %r9
ffffffff81004e73:	41 58                	pop    %r8
ffffffff81004e75:	5d                   	pop    %rbp
ffffffff81004e76:	5c                   	pop    %rsp
ffffffff81004e77:	5f                   	pop    %rdi
ffffffff81004e78:	5e                   	pop    %rsi
ffffffff81004e79:	5a                   	pop    %rdx
ffffffff81004e7a:	59                   	pop    %rcx
ffffffff81004e7b:	5b                   	pop    %rbx
ffffffff81004e7c:	58                   	pop    %rax
ffffffff81004e7d:	9d                   	popfq  
ffffffff81004e7e:	48 cf                	iretq  

ffffffff81004e80 <isr_91>:
ffffffff81004e80:	9c                   	pushfq 
ffffffff81004e81:	50                   	push   %rax
ffffffff81004e82:	53                   	push   %rbx
ffffffff81004e83:	51                   	push   %rcx
ffffffff81004e84:	52                   	push   %rdx
ffffffff81004e85:	56                   	push   %rsi
ffffffff81004e86:	57                   	push   %rdi
ffffffff81004e87:	54                   	push   %rsp
ffffffff81004e88:	55                   	push   %rbp
ffffffff81004e89:	41 50                	push   %r8
ffffffff81004e8b:	41 51                	push   %r9
ffffffff81004e8d:	41 52                	push   %r10
ffffffff81004e8f:	41 53                	push   %r11
ffffffff81004e91:	41 54                	push   %r12
ffffffff81004e93:	41 55                	push   %r13
ffffffff81004e95:	41 56                	push   %r14
ffffffff81004e97:	41 57                	push   %r15
ffffffff81004e99:	fc                   	cld    
ffffffff81004e9a:	bf 5b 00 00 00       	mov    $0x5b,%edi
ffffffff81004e9f:	be 00 00 00 00       	mov    $0x0,%esi
ffffffff81004ea4:	e8 4e e6 ff ff       	callq  ffffffff810034f7 <isr_dispatcher>
ffffffff81004ea9:	41 5f                	pop    %r15
ffffffff81004eab:	41 5e                	pop    %r14
ffffffff81004ead:	41 5d                	pop    %r13
ffffffff81004eaf:	41 5c                	pop    %r12
ffffffff81004eb1:	41 5b                	pop    %r11
ffffffff81004eb3:	41 5a                	pop    %r10
ffffffff81004eb5:	41 59                	pop    %r9
ffffffff81004eb7:	41 58                	pop    %r8
ffffffff81004eb9:	5d                   	pop    %rbp
ffffffff81004eba:	5c                   	pop    %rsp
ffffffff81004ebb:	5f                   	pop    %rdi
ffffffff81004ebc:	5e                   	pop    %rsi
ffffffff81004ebd:	5a                   	pop    %rdx
ffffffff81004ebe:	59                   	pop    %rcx
ffffffff81004ebf:	5b                   	pop    %rbx
ffffffff81004ec0:	58                   	pop    %rax
ffffffff81004ec1:	9d                   	popfq  
ffffffff81004ec2:	48 cf                	iretq  

ffffffff81004ec4 <isr_92>:
ffffffff81004ec4:	9c                   	pushfq 
ffffffff81004ec5:	50                   	push   %rax
ffffffff81004ec6:	53                   	push   %rbx
ffffffff81004ec7:	51                   	push   %rcx
ffffffff81004ec8:	52                   	push   %rdx
ffffffff81004ec9:	56                   	push   %rsi
ffffffff81004eca:	57                   	push   %rdi
ffffffff81004ecb:	54                   	push   %rsp
ffffffff81004ecc:	55                   	push   %rbp
ffffffff81004ecd:	41 50                	push   %r8
ffffffff81004ecf:	41 51                	push   %r9
ffffffff81004ed1:	41 52                	push   %r10
ffffffff81004ed3:	41 53                	push   %r11
ffffffff81004ed5:	41 54                	push   %r12
ffffffff81004ed7:	41 55                	push   %r13
ffffffff81004ed9:	41 56                	push   %r14
ffffffff81004edb:	41 57                	push   %r15
ffffffff81004edd:	fc                   	cld    
ffffffff81004ede:	bf 5c 00 00 00       	mov    $0x5c,%edi
ffffffff81004ee3:	be 00 00 00 00       	mov    $0x0,%esi
ffffffff81004ee8:	e8 0a e6 ff ff       	callq  ffffffff810034f7 <isr_dispatcher>
ffffffff81004eed:	41 5f                	pop    %r15
ffffffff81004eef:	41 5e                	pop    %r14
ffffffff81004ef1:	41 5d                	pop    %r13
ffffffff81004ef3:	41 5c                	pop    %r12
ffffffff81004ef5:	41 5b                	pop    %r11
ffffffff81004ef7:	41 5a                	pop    %r10
ffffffff81004ef9:	41 59                	pop    %r9
ffffffff81004efb:	41 58                	pop    %r8
ffffffff81004efd:	5d                   	pop    %rbp
ffffffff81004efe:	5c                   	pop    %rsp
ffffffff81004eff:	5f                   	pop    %rdi
ffffffff81004f00:	5e                   	pop    %rsi
ffffffff81004f01:	5a                   	pop    %rdx
ffffffff81004f02:	59                   	pop    %rcx
ffffffff81004f03:	5b                   	pop    %rbx
ffffffff81004f04:	58                   	pop    %rax
ffffffff81004f05:	9d                   	popfq  
ffffffff81004f06:	48 cf                	iretq  

ffffffff81004f08 <isr_93>:
ffffffff81004f08:	9c                   	pushfq 
ffffffff81004f09:	50                   	push   %rax
ffffffff81004f0a:	53                   	push   %rbx
ffffffff81004f0b:	51                   	push   %rcx
ffffffff81004f0c:	52                   	push   %rdx
ffffffff81004f0d:	56                   	push   %rsi
ffffffff81004f0e:	57                   	push   %rdi
ffffffff81004f0f:	54                   	push   %rsp
ffffffff81004f10:	55                   	push   %rbp
ffffffff81004f11:	41 50                	push   %r8
ffffffff81004f13:	41 51                	push   %r9
ffffffff81004f15:	41 52                	push   %r10
ffffffff81004f17:	41 53                	push   %r11
ffffffff81004f19:	41 54                	push   %r12
ffffffff81004f1b:	41 55                	push   %r13
ffffffff81004f1d:	41 56                	push   %r14
ffffffff81004f1f:	41 57                	push   %r15
ffffffff81004f21:	fc                   	cld    
ffffffff81004f22:	bf 5d 00 00 00       	mov    $0x5d,%edi
ffffffff81004f27:	be 00 00 00 00       	mov    $0x0,%esi
ffffffff81004f2c:	e8 c6 e5 ff ff       	callq  ffffffff810034f7 <isr_dispatcher>
ffffffff81004f31:	41 5f                	pop    %r15
ffffffff81004f33:	41 5e                	pop    %r14
ffffffff81004f35:	41 5d                	pop    %r13
ffffffff81004f37:	41 5c                	pop    %r12
ffffffff81004f39:	41 5b                	pop    %r11
ffffffff81004f3b:	41 5a                	pop    %r10
ffffffff81004f3d:	41 59                	pop    %r9
ffffffff81004f3f:	41 58                	pop    %r8
ffffffff81004f41:	5d                   	pop    %rbp
ffffffff81004f42:	5c                   	pop    %rsp
ffffffff81004f43:	5f                   	pop    %rdi
ffffffff81004f44:	5e                   	pop    %rsi
ffffffff81004f45:	5a                   	pop    %rdx
ffffffff81004f46:	59                   	pop    %rcx
ffffffff81004f47:	5b                   	pop    %rbx
ffffffff81004f48:	58                   	pop    %rax
ffffffff81004f49:	9d                   	popfq  
ffffffff81004f4a:	48 cf                	iretq  

ffffffff81004f4c <isr_94>:
ffffffff81004f4c:	9c                   	pushfq 
ffffffff81004f4d:	50                   	push   %rax
ffffffff81004f4e:	53                   	push   %rbx
ffffffff81004f4f:	51                   	push   %rcx
ffffffff81004f50:	52                   	push   %rdx
ffffffff81004f51:	56                   	push   %rsi
ffffffff81004f52:	57                   	push   %rdi
ffffffff81004f53:	54                   	push   %rsp
ffffffff81004f54:	55                   	push   %rbp
ffffffff81004f55:	41 50                	push   %r8
ffffffff81004f57:	41 51                	push   %r9
ffffffff81004f59:	41 52                	push   %r10
ffffffff81004f5b:	41 53                	push   %r11
ffffffff81004f5d:	41 54                	push   %r12
ffffffff81004f5f:	41 55                	push   %r13
ffffffff81004f61:	41 56                	push   %r14
ffffffff81004f63:	41 57                	push   %r15
ffffffff81004f65:	fc                   	cld    
ffffffff81004f66:	bf 5e 00 00 00       	mov    $0x5e,%edi
ffffffff81004f6b:	be 00 00 00 00       	mov    $0x0,%esi
ffffffff81004f70:	e8 82 e5 ff ff       	callq  ffffffff810034f7 <isr_dispatcher>
ffffffff81004f75:	41 5f                	pop    %r15
ffffffff81004f77:	41 5e                	pop    %r14
ffffffff81004f79:	41 5d                	pop    %r13
ffffffff81004f7b:	41 5c                	pop    %r12
ffffffff81004f7d:	41 5b                	pop    %r11
ffffffff81004f7f:	41 5a                	pop    %r10
ffffffff81004f81:	41 59                	pop    %r9
ffffffff81004f83:	41 58                	pop    %r8
ffffffff81004f85:	5d                   	pop    %rbp
ffffffff81004f86:	5c                   	pop    %rsp
ffffffff81004f87:	5f                   	pop    %rdi
ffffffff81004f88:	5e                   	pop    %rsi
ffffffff81004f89:	5a                   	pop    %rdx
ffffffff81004f8a:	59                   	pop    %rcx
ffffffff81004f8b:	5b                   	pop    %rbx
ffffffff81004f8c:	58                   	pop    %rax
ffffffff81004f8d:	9d                   	popfq  
ffffffff81004f8e:	48 cf                	iretq  

ffffffff81004f90 <isr_95>:
ffffffff81004f90:	9c                   	pushfq 
ffffffff81004f91:	50                   	push   %rax
ffffffff81004f92:	53                   	push   %rbx
ffffffff81004f93:	51                   	push   %rcx
ffffffff81004f94:	52                   	push   %rdx
ffffffff81004f95:	56                   	push   %rsi
ffffffff81004f96:	57                   	push   %rdi
ffffffff81004f97:	54                   	push   %rsp
ffffffff81004f98:	55                   	push   %rbp
ffffffff81004f99:	41 50                	push   %r8
ffffffff81004f9b:	41 51                	push   %r9
ffffffff81004f9d:	41 52                	push   %r10
ffffffff81004f9f:	41 53                	push   %r11
ffffffff81004fa1:	41 54                	push   %r12
ffffffff81004fa3:	41 55                	push   %r13
ffffffff81004fa5:	41 56                	push   %r14
ffffffff81004fa7:	41 57                	push   %r15
ffffffff81004fa9:	fc                   	cld    
ffffffff81004faa:	bf 5f 00 00 00       	mov    $0x5f,%edi
ffffffff81004faf:	be 00 00 00 00       	mov    $0x0,%esi
ffffffff81004fb4:	e8 3e e5 ff ff       	callq  ffffffff810034f7 <isr_dispatcher>
ffffffff81004fb9:	41 5f                	pop    %r15
ffffffff81004fbb:	41 5e                	pop    %r14
ffffffff81004fbd:	41 5d                	pop    %r13
ffffffff81004fbf:	41 5c                	pop    %r12
ffffffff81004fc1:	41 5b                	pop    %r11
ffffffff81004fc3:	41 5a                	pop    %r10
ffffffff81004fc5:	41 59                	pop    %r9
ffffffff81004fc7:	41 58                	pop    %r8
ffffffff81004fc9:	5d                   	pop    %rbp
ffffffff81004fca:	5c                   	pop    %rsp
ffffffff81004fcb:	5f                   	pop    %rdi
ffffffff81004fcc:	5e                   	pop    %rsi
ffffffff81004fcd:	5a                   	pop    %rdx
ffffffff81004fce:	59                   	pop    %rcx
ffffffff81004fcf:	5b                   	pop    %rbx
ffffffff81004fd0:	58                   	pop    %rax
ffffffff81004fd1:	9d                   	popfq  
ffffffff81004fd2:	48 cf                	iretq  

ffffffff81004fd4 <isr_96>:
ffffffff81004fd4:	9c                   	pushfq 
ffffffff81004fd5:	50                   	push   %rax
ffffffff81004fd6:	53                   	push   %rbx
ffffffff81004fd7:	51                   	push   %rcx
ffffffff81004fd8:	52                   	push   %rdx
ffffffff81004fd9:	56                   	push   %rsi
ffffffff81004fda:	57                   	push   %rdi
ffffffff81004fdb:	54                   	push   %rsp
ffffffff81004fdc:	55                   	push   %rbp
ffffffff81004fdd:	41 50                	push   %r8
ffffffff81004fdf:	41 51                	push   %r9
ffffffff81004fe1:	41 52                	push   %r10
ffffffff81004fe3:	41 53                	push   %r11
ffffffff81004fe5:	41 54                	push   %r12
ffffffff81004fe7:	41 55                	push   %r13
ffffffff81004fe9:	41 56                	push   %r14
ffffffff81004feb:	41 57                	push   %r15
ffffffff81004fed:	fc                   	cld    
ffffffff81004fee:	bf 60 00 00 00       	mov    $0x60,%edi
ffffffff81004ff3:	be 00 00 00 00       	mov    $0x0,%esi
ffffffff81004ff8:	e8 fa e4 ff ff       	callq  ffffffff810034f7 <isr_dispatcher>
ffffffff81004ffd:	41 5f                	pop    %r15
ffffffff81004fff:	41 5e                	pop    %r14
ffffffff81005001:	41 5d                	pop    %r13
ffffffff81005003:	41 5c                	pop    %r12
ffffffff81005005:	41 5b                	pop    %r11
ffffffff81005007:	41 5a                	pop    %r10
ffffffff81005009:	41 59                	pop    %r9
ffffffff8100500b:	41 58                	pop    %r8
ffffffff8100500d:	5d                   	pop    %rbp
ffffffff8100500e:	5c                   	pop    %rsp
ffffffff8100500f:	5f                   	pop    %rdi
ffffffff81005010:	5e                   	pop    %rsi
ffffffff81005011:	5a                   	pop    %rdx
ffffffff81005012:	59                   	pop    %rcx
ffffffff81005013:	5b                   	pop    %rbx
ffffffff81005014:	58                   	pop    %rax
ffffffff81005015:	9d                   	popfq  
ffffffff81005016:	48 cf                	iretq  

ffffffff81005018 <isr_97>:
ffffffff81005018:	9c                   	pushfq 
ffffffff81005019:	50                   	push   %rax
ffffffff8100501a:	53                   	push   %rbx
ffffffff8100501b:	51                   	push   %rcx
ffffffff8100501c:	52                   	push   %rdx
ffffffff8100501d:	56                   	push   %rsi
ffffffff8100501e:	57                   	push   %rdi
ffffffff8100501f:	54                   	push   %rsp
ffffffff81005020:	55                   	push   %rbp
ffffffff81005021:	41 50                	push   %r8
ffffffff81005023:	41 51                	push   %r9
ffffffff81005025:	41 52                	push   %r10
ffffffff81005027:	41 53                	push   %r11
ffffffff81005029:	41 54                	push   %r12
ffffffff8100502b:	41 55                	push   %r13
ffffffff8100502d:	41 56                	push   %r14
ffffffff8100502f:	41 57                	push   %r15
ffffffff81005031:	fc                   	cld    
ffffffff81005032:	bf 61 00 00 00       	mov    $0x61,%edi
ffffffff81005037:	be 00 00 00 00       	mov    $0x0,%esi
ffffffff8100503c:	e8 b6 e4 ff ff       	callq  ffffffff810034f7 <isr_dispatcher>
ffffffff81005041:	41 5f                	pop    %r15
ffffffff81005043:	41 5e                	pop    %r14
ffffffff81005045:	41 5d                	pop    %r13
ffffffff81005047:	41 5c                	pop    %r12
ffffffff81005049:	41 5b                	pop    %r11
ffffffff8100504b:	41 5a                	pop    %r10
ffffffff8100504d:	41 59                	pop    %r9
ffffffff8100504f:	41 58                	pop    %r8
ffffffff81005051:	5d                   	pop    %rbp
ffffffff81005052:	5c                   	pop    %rsp
ffffffff81005053:	5f                   	pop    %rdi
ffffffff81005054:	5e                   	pop    %rsi
ffffffff81005055:	5a                   	pop    %rdx
ffffffff81005056:	59                   	pop    %rcx
ffffffff81005057:	5b                   	pop    %rbx
ffffffff81005058:	58                   	pop    %rax
ffffffff81005059:	9d                   	popfq  
ffffffff8100505a:	48 cf                	iretq  

ffffffff8100505c <isr_98>:
ffffffff8100505c:	9c                   	pushfq 
ffffffff8100505d:	50                   	push   %rax
ffffffff8100505e:	53                   	push   %rbx
ffffffff8100505f:	51                   	push   %rcx
ffffffff81005060:	52                   	push   %rdx
ffffffff81005061:	56                   	push   %rsi
ffffffff81005062:	57                   	push   %rdi
ffffffff81005063:	54                   	push   %rsp
ffffffff81005064:	55                   	push   %rbp
ffffffff81005065:	41 50                	push   %r8
ffffffff81005067:	41 51                	push   %r9
ffffffff81005069:	41 52                	push   %r10
ffffffff8100506b:	41 53                	push   %r11
ffffffff8100506d:	41 54                	push   %r12
ffffffff8100506f:	41 55                	push   %r13
ffffffff81005071:	41 56                	push   %r14
ffffffff81005073:	41 57                	push   %r15
ffffffff81005075:	fc                   	cld    
ffffffff81005076:	bf 62 00 00 00       	mov    $0x62,%edi
ffffffff8100507b:	be 00 00 00 00       	mov    $0x0,%esi
ffffffff81005080:	e8 72 e4 ff ff       	callq  ffffffff810034f7 <isr_dispatcher>
ffffffff81005085:	41 5f                	pop    %r15
ffffffff81005087:	41 5e                	pop    %r14
ffffffff81005089:	41 5d                	pop    %r13
ffffffff8100508b:	41 5c                	pop    %r12
ffffffff8100508d:	41 5b                	pop    %r11
ffffffff8100508f:	41 5a                	pop    %r10
ffffffff81005091:	41 59                	pop    %r9
ffffffff81005093:	41 58                	pop    %r8
ffffffff81005095:	5d                   	pop    %rbp
ffffffff81005096:	5c                   	pop    %rsp
ffffffff81005097:	5f                   	pop    %rdi
ffffffff81005098:	5e                   	pop    %rsi
ffffffff81005099:	5a                   	pop    %rdx
ffffffff8100509a:	59                   	pop    %rcx
ffffffff8100509b:	5b                   	pop    %rbx
ffffffff8100509c:	58                   	pop    %rax
ffffffff8100509d:	9d                   	popfq  
ffffffff8100509e:	48 cf                	iretq  

ffffffff810050a0 <isr_99>:
ffffffff810050a0:	9c                   	pushfq 
ffffffff810050a1:	50                   	push   %rax
ffffffff810050a2:	53                   	push   %rbx
ffffffff810050a3:	51                   	push   %rcx
ffffffff810050a4:	52                   	push   %rdx
ffffffff810050a5:	56                   	push   %rsi
ffffffff810050a6:	57                   	push   %rdi
ffffffff810050a7:	54                   	push   %rsp
ffffffff810050a8:	55                   	push   %rbp
ffffffff810050a9:	41 50                	push   %r8
ffffffff810050ab:	41 51                	push   %r9
ffffffff810050ad:	41 52                	push   %r10
ffffffff810050af:	41 53                	push   %r11
ffffffff810050b1:	41 54                	push   %r12
ffffffff810050b3:	41 55                	push   %r13
ffffffff810050b5:	41 56                	push   %r14
ffffffff810050b7:	41 57                	push   %r15
ffffffff810050b9:	fc                   	cld    
ffffffff810050ba:	bf 63 00 00 00       	mov    $0x63,%edi
ffffffff810050bf:	be 00 00 00 00       	mov    $0x0,%esi
ffffffff810050c4:	e8 2e e4 ff ff       	callq  ffffffff810034f7 <isr_dispatcher>
ffffffff810050c9:	41 5f                	pop    %r15
ffffffff810050cb:	41 5e                	pop    %r14
ffffffff810050cd:	41 5d                	pop    %r13
ffffffff810050cf:	41 5c                	pop    %r12
ffffffff810050d1:	41 5b                	pop    %r11
ffffffff810050d3:	41 5a                	pop    %r10
ffffffff810050d5:	41 59                	pop    %r9
ffffffff810050d7:	41 58                	pop    %r8
ffffffff810050d9:	5d                   	pop    %rbp
ffffffff810050da:	5c                   	pop    %rsp
ffffffff810050db:	5f                   	pop    %rdi
ffffffff810050dc:	5e                   	pop    %rsi
ffffffff810050dd:	5a                   	pop    %rdx
ffffffff810050de:	59                   	pop    %rcx
ffffffff810050df:	5b                   	pop    %rbx
ffffffff810050e0:	58                   	pop    %rax
ffffffff810050e1:	9d                   	popfq  
ffffffff810050e2:	48 cf                	iretq  

ffffffff810050e4 <isr_100>:
ffffffff810050e4:	9c                   	pushfq 
ffffffff810050e5:	50                   	push   %rax
ffffffff810050e6:	53                   	push   %rbx
ffffffff810050e7:	51                   	push   %rcx
ffffffff810050e8:	52                   	push   %rdx
ffffffff810050e9:	56                   	push   %rsi
ffffffff810050ea:	57                   	push   %rdi
ffffffff810050eb:	54                   	push   %rsp
ffffffff810050ec:	55                   	push   %rbp
ffffffff810050ed:	41 50                	push   %r8
ffffffff810050ef:	41 51                	push   %r9
ffffffff810050f1:	41 52                	push   %r10
ffffffff810050f3:	41 53                	push   %r11
ffffffff810050f5:	41 54                	push   %r12
ffffffff810050f7:	41 55                	push   %r13
ffffffff810050f9:	41 56                	push   %r14
ffffffff810050fb:	41 57                	push   %r15
ffffffff810050fd:	fc                   	cld    
ffffffff810050fe:	bf 64 00 00 00       	mov    $0x64,%edi
ffffffff81005103:	be 00 00 00 00       	mov    $0x0,%esi
ffffffff81005108:	e8 ea e3 ff ff       	callq  ffffffff810034f7 <isr_dispatcher>
ffffffff8100510d:	41 5f                	pop    %r15
ffffffff8100510f:	41 5e                	pop    %r14
ffffffff81005111:	41 5d                	pop    %r13
ffffffff81005113:	41 5c                	pop    %r12
ffffffff81005115:	41 5b                	pop    %r11
ffffffff81005117:	41 5a                	pop    %r10
ffffffff81005119:	41 59                	pop    %r9
ffffffff8100511b:	41 58                	pop    %r8
ffffffff8100511d:	5d                   	pop    %rbp
ffffffff8100511e:	5c                   	pop    %rsp
ffffffff8100511f:	5f                   	pop    %rdi
ffffffff81005120:	5e                   	pop    %rsi
ffffffff81005121:	5a                   	pop    %rdx
ffffffff81005122:	59                   	pop    %rcx
ffffffff81005123:	5b                   	pop    %rbx
ffffffff81005124:	58                   	pop    %rax
ffffffff81005125:	9d                   	popfq  
ffffffff81005126:	48 cf                	iretq  

ffffffff81005128 <isr_101>:
ffffffff81005128:	9c                   	pushfq 
ffffffff81005129:	50                   	push   %rax
ffffffff8100512a:	53                   	push   %rbx
ffffffff8100512b:	51                   	push   %rcx
ffffffff8100512c:	52                   	push   %rdx
ffffffff8100512d:	56                   	push   %rsi
ffffffff8100512e:	57                   	push   %rdi
ffffffff8100512f:	54                   	push   %rsp
ffffffff81005130:	55                   	push   %rbp
ffffffff81005131:	41 50                	push   %r8
ffffffff81005133:	41 51                	push   %r9
ffffffff81005135:	41 52                	push   %r10
ffffffff81005137:	41 53                	push   %r11
ffffffff81005139:	41 54                	push   %r12
ffffffff8100513b:	41 55                	push   %r13
ffffffff8100513d:	41 56                	push   %r14
ffffffff8100513f:	41 57                	push   %r15
ffffffff81005141:	fc                   	cld    
ffffffff81005142:	bf 65 00 00 00       	mov    $0x65,%edi
ffffffff81005147:	be 00 00 00 00       	mov    $0x0,%esi
ffffffff8100514c:	e8 a6 e3 ff ff       	callq  ffffffff810034f7 <isr_dispatcher>
ffffffff81005151:	41 5f                	pop    %r15
ffffffff81005153:	41 5e                	pop    %r14
ffffffff81005155:	41 5d                	pop    %r13
ffffffff81005157:	41 5c                	pop    %r12
ffffffff81005159:	41 5b                	pop    %r11
ffffffff8100515b:	41 5a                	pop    %r10
ffffffff8100515d:	41 59                	pop    %r9
ffffffff8100515f:	41 58                	pop    %r8
ffffffff81005161:	5d                   	pop    %rbp
ffffffff81005162:	5c                   	pop    %rsp
ffffffff81005163:	5f                   	pop    %rdi
ffffffff81005164:	5e                   	pop    %rsi
ffffffff81005165:	5a                   	pop    %rdx
ffffffff81005166:	59                   	pop    %rcx
ffffffff81005167:	5b                   	pop    %rbx
ffffffff81005168:	58                   	pop    %rax
ffffffff81005169:	9d                   	popfq  
ffffffff8100516a:	48 cf                	iretq  

ffffffff8100516c <isr_102>:
ffffffff8100516c:	9c                   	pushfq 
ffffffff8100516d:	50                   	push   %rax
ffffffff8100516e:	53                   	push   %rbx
ffffffff8100516f:	51                   	push   %rcx
ffffffff81005170:	52                   	push   %rdx
ffffffff81005171:	56                   	push   %rsi
ffffffff81005172:	57                   	push   %rdi
ffffffff81005173:	54                   	push   %rsp
ffffffff81005174:	55                   	push   %rbp
ffffffff81005175:	41 50                	push   %r8
ffffffff81005177:	41 51                	push   %r9
ffffffff81005179:	41 52                	push   %r10
ffffffff8100517b:	41 53                	push   %r11
ffffffff8100517d:	41 54                	push   %r12
ffffffff8100517f:	41 55                	push   %r13
ffffffff81005181:	41 56                	push   %r14
ffffffff81005183:	41 57                	push   %r15
ffffffff81005185:	fc                   	cld    
ffffffff81005186:	bf 66 00 00 00       	mov    $0x66,%edi
ffffffff8100518b:	be 00 00 00 00       	mov    $0x0,%esi
ffffffff81005190:	e8 62 e3 ff ff       	callq  ffffffff810034f7 <isr_dispatcher>
ffffffff81005195:	41 5f                	pop    %r15
ffffffff81005197:	41 5e                	pop    %r14
ffffffff81005199:	41 5d                	pop    %r13
ffffffff8100519b:	41 5c                	pop    %r12
ffffffff8100519d:	41 5b                	pop    %r11
ffffffff8100519f:	41 5a                	pop    %r10
ffffffff810051a1:	41 59                	pop    %r9
ffffffff810051a3:	41 58                	pop    %r8
ffffffff810051a5:	5d                   	pop    %rbp
ffffffff810051a6:	5c                   	pop    %rsp
ffffffff810051a7:	5f                   	pop    %rdi
ffffffff810051a8:	5e                   	pop    %rsi
ffffffff810051a9:	5a                   	pop    %rdx
ffffffff810051aa:	59                   	pop    %rcx
ffffffff810051ab:	5b                   	pop    %rbx
ffffffff810051ac:	58                   	pop    %rax
ffffffff810051ad:	9d                   	popfq  
ffffffff810051ae:	48 cf                	iretq  

ffffffff810051b0 <isr_103>:
ffffffff810051b0:	9c                   	pushfq 
ffffffff810051b1:	50                   	push   %rax
ffffffff810051b2:	53                   	push   %rbx
ffffffff810051b3:	51                   	push   %rcx
ffffffff810051b4:	52                   	push   %rdx
ffffffff810051b5:	56                   	push   %rsi
ffffffff810051b6:	57                   	push   %rdi
ffffffff810051b7:	54                   	push   %rsp
ffffffff810051b8:	55                   	push   %rbp
ffffffff810051b9:	41 50                	push   %r8
ffffffff810051bb:	41 51                	push   %r9
ffffffff810051bd:	41 52                	push   %r10
ffffffff810051bf:	41 53                	push   %r11
ffffffff810051c1:	41 54                	push   %r12
ffffffff810051c3:	41 55                	push   %r13
ffffffff810051c5:	41 56                	push   %r14
ffffffff810051c7:	41 57                	push   %r15
ffffffff810051c9:	fc                   	cld    
ffffffff810051ca:	bf 67 00 00 00       	mov    $0x67,%edi
ffffffff810051cf:	be 00 00 00 00       	mov    $0x0,%esi
ffffffff810051d4:	e8 1e e3 ff ff       	callq  ffffffff810034f7 <isr_dispatcher>
ffffffff810051d9:	41 5f                	pop    %r15
ffffffff810051db:	41 5e                	pop    %r14
ffffffff810051dd:	41 5d                	pop    %r13
ffffffff810051df:	41 5c                	pop    %r12
ffffffff810051e1:	41 5b                	pop    %r11
ffffffff810051e3:	41 5a                	pop    %r10
ffffffff810051e5:	41 59                	pop    %r9
ffffffff810051e7:	41 58                	pop    %r8
ffffffff810051e9:	5d                   	pop    %rbp
ffffffff810051ea:	5c                   	pop    %rsp
ffffffff810051eb:	5f                   	pop    %rdi
ffffffff810051ec:	5e                   	pop    %rsi
ffffffff810051ed:	5a                   	pop    %rdx
ffffffff810051ee:	59                   	pop    %rcx
ffffffff810051ef:	5b                   	pop    %rbx
ffffffff810051f0:	58                   	pop    %rax
ffffffff810051f1:	9d                   	popfq  
ffffffff810051f2:	48 cf                	iretq  

ffffffff810051f4 <isr_104>:
ffffffff810051f4:	9c                   	pushfq 
ffffffff810051f5:	50                   	push   %rax
ffffffff810051f6:	53                   	push   %rbx
ffffffff810051f7:	51                   	push   %rcx
ffffffff810051f8:	52                   	push   %rdx
ffffffff810051f9:	56                   	push   %rsi
ffffffff810051fa:	57                   	push   %rdi
ffffffff810051fb:	54                   	push   %rsp
ffffffff810051fc:	55                   	push   %rbp
ffffffff810051fd:	41 50                	push   %r8
ffffffff810051ff:	41 51                	push   %r9
ffffffff81005201:	41 52                	push   %r10
ffffffff81005203:	41 53                	push   %r11
ffffffff81005205:	41 54                	push   %r12
ffffffff81005207:	41 55                	push   %r13
ffffffff81005209:	41 56                	push   %r14
ffffffff8100520b:	41 57                	push   %r15
ffffffff8100520d:	fc                   	cld    
ffffffff8100520e:	bf 68 00 00 00       	mov    $0x68,%edi
ffffffff81005213:	be 00 00 00 00       	mov    $0x0,%esi
ffffffff81005218:	e8 da e2 ff ff       	callq  ffffffff810034f7 <isr_dispatcher>
ffffffff8100521d:	41 5f                	pop    %r15
ffffffff8100521f:	41 5e                	pop    %r14
ffffffff81005221:	41 5d                	pop    %r13
ffffffff81005223:	41 5c                	pop    %r12
ffffffff81005225:	41 5b                	pop    %r11
ffffffff81005227:	41 5a                	pop    %r10
ffffffff81005229:	41 59                	pop    %r9
ffffffff8100522b:	41 58                	pop    %r8
ffffffff8100522d:	5d                   	pop    %rbp
ffffffff8100522e:	5c                   	pop    %rsp
ffffffff8100522f:	5f                   	pop    %rdi
ffffffff81005230:	5e                   	pop    %rsi
ffffffff81005231:	5a                   	pop    %rdx
ffffffff81005232:	59                   	pop    %rcx
ffffffff81005233:	5b                   	pop    %rbx
ffffffff81005234:	58                   	pop    %rax
ffffffff81005235:	9d                   	popfq  
ffffffff81005236:	48 cf                	iretq  

ffffffff81005238 <isr_105>:
ffffffff81005238:	9c                   	pushfq 
ffffffff81005239:	50                   	push   %rax
ffffffff8100523a:	53                   	push   %rbx
ffffffff8100523b:	51                   	push   %rcx
ffffffff8100523c:	52                   	push   %rdx
ffffffff8100523d:	56                   	push   %rsi
ffffffff8100523e:	57                   	push   %rdi
ffffffff8100523f:	54                   	push   %rsp
ffffffff81005240:	55                   	push   %rbp
ffffffff81005241:	41 50                	push   %r8
ffffffff81005243:	41 51                	push   %r9
ffffffff81005245:	41 52                	push   %r10
ffffffff81005247:	41 53                	push   %r11
ffffffff81005249:	41 54                	push   %r12
ffffffff8100524b:	41 55                	push   %r13
ffffffff8100524d:	41 56                	push   %r14
ffffffff8100524f:	41 57                	push   %r15
ffffffff81005251:	fc                   	cld    
ffffffff81005252:	bf 69 00 00 00       	mov    $0x69,%edi
ffffffff81005257:	be 00 00 00 00       	mov    $0x0,%esi
ffffffff8100525c:	e8 96 e2 ff ff       	callq  ffffffff810034f7 <isr_dispatcher>
ffffffff81005261:	41 5f                	pop    %r15
ffffffff81005263:	41 5e                	pop    %r14
ffffffff81005265:	41 5d                	pop    %r13
ffffffff81005267:	41 5c                	pop    %r12
ffffffff81005269:	41 5b                	pop    %r11
ffffffff8100526b:	41 5a                	pop    %r10
ffffffff8100526d:	41 59                	pop    %r9
ffffffff8100526f:	41 58                	pop    %r8
ffffffff81005271:	5d                   	pop    %rbp
ffffffff81005272:	5c                   	pop    %rsp
ffffffff81005273:	5f                   	pop    %rdi
ffffffff81005274:	5e                   	pop    %rsi
ffffffff81005275:	5a                   	pop    %rdx
ffffffff81005276:	59                   	pop    %rcx
ffffffff81005277:	5b                   	pop    %rbx
ffffffff81005278:	58                   	pop    %rax
ffffffff81005279:	9d                   	popfq  
ffffffff8100527a:	48 cf                	iretq  

ffffffff8100527c <isr_106>:
ffffffff8100527c:	9c                   	pushfq 
ffffffff8100527d:	50                   	push   %rax
ffffffff8100527e:	53                   	push   %rbx
ffffffff8100527f:	51                   	push   %rcx
ffffffff81005280:	52                   	push   %rdx
ffffffff81005281:	56                   	push   %rsi
ffffffff81005282:	57                   	push   %rdi
ffffffff81005283:	54                   	push   %rsp
ffffffff81005284:	55                   	push   %rbp
ffffffff81005285:	41 50                	push   %r8
ffffffff81005287:	41 51                	push   %r9
ffffffff81005289:	41 52                	push   %r10
ffffffff8100528b:	41 53                	push   %r11
ffffffff8100528d:	41 54                	push   %r12
ffffffff8100528f:	41 55                	push   %r13
ffffffff81005291:	41 56                	push   %r14
ffffffff81005293:	41 57                	push   %r15
ffffffff81005295:	fc                   	cld    
ffffffff81005296:	bf 6a 00 00 00       	mov    $0x6a,%edi
ffffffff8100529b:	be 00 00 00 00       	mov    $0x0,%esi
ffffffff810052a0:	e8 52 e2 ff ff       	callq  ffffffff810034f7 <isr_dispatcher>
ffffffff810052a5:	41 5f                	pop    %r15
ffffffff810052a7:	41 5e                	pop    %r14
ffffffff810052a9:	41 5d                	pop    %r13
ffffffff810052ab:	41 5c                	pop    %r12
ffffffff810052ad:	41 5b                	pop    %r11
ffffffff810052af:	41 5a                	pop    %r10
ffffffff810052b1:	41 59                	pop    %r9
ffffffff810052b3:	41 58                	pop    %r8
ffffffff810052b5:	5d                   	pop    %rbp
ffffffff810052b6:	5c                   	pop    %rsp
ffffffff810052b7:	5f                   	pop    %rdi
ffffffff810052b8:	5e                   	pop    %rsi
ffffffff810052b9:	5a                   	pop    %rdx
ffffffff810052ba:	59                   	pop    %rcx
ffffffff810052bb:	5b                   	pop    %rbx
ffffffff810052bc:	58                   	pop    %rax
ffffffff810052bd:	9d                   	popfq  
ffffffff810052be:	48 cf                	iretq  

ffffffff810052c0 <isr_107>:
ffffffff810052c0:	9c                   	pushfq 
ffffffff810052c1:	50                   	push   %rax
ffffffff810052c2:	53                   	push   %rbx
ffffffff810052c3:	51                   	push   %rcx
ffffffff810052c4:	52                   	push   %rdx
ffffffff810052c5:	56                   	push   %rsi
ffffffff810052c6:	57                   	push   %rdi
ffffffff810052c7:	54                   	push   %rsp
ffffffff810052c8:	55                   	push   %rbp
ffffffff810052c9:	41 50                	push   %r8
ffffffff810052cb:	41 51                	push   %r9
ffffffff810052cd:	41 52                	push   %r10
ffffffff810052cf:	41 53                	push   %r11
ffffffff810052d1:	41 54                	push   %r12
ffffffff810052d3:	41 55                	push   %r13
ffffffff810052d5:	41 56                	push   %r14
ffffffff810052d7:	41 57                	push   %r15
ffffffff810052d9:	fc                   	cld    
ffffffff810052da:	bf 6b 00 00 00       	mov    $0x6b,%edi
ffffffff810052df:	be 00 00 00 00       	mov    $0x0,%esi
ffffffff810052e4:	e8 0e e2 ff ff       	callq  ffffffff810034f7 <isr_dispatcher>
ffffffff810052e9:	41 5f                	pop    %r15
ffffffff810052eb:	41 5e                	pop    %r14
ffffffff810052ed:	41 5d                	pop    %r13
ffffffff810052ef:	41 5c                	pop    %r12
ffffffff810052f1:	41 5b                	pop    %r11
ffffffff810052f3:	41 5a                	pop    %r10
ffffffff810052f5:	41 59                	pop    %r9
ffffffff810052f7:	41 58                	pop    %r8
ffffffff810052f9:	5d                   	pop    %rbp
ffffffff810052fa:	5c                   	pop    %rsp
ffffffff810052fb:	5f                   	pop    %rdi
ffffffff810052fc:	5e                   	pop    %rsi
ffffffff810052fd:	5a                   	pop    %rdx
ffffffff810052fe:	59                   	pop    %rcx
ffffffff810052ff:	5b                   	pop    %rbx
ffffffff81005300:	58                   	pop    %rax
ffffffff81005301:	9d                   	popfq  
ffffffff81005302:	48 cf                	iretq  

ffffffff81005304 <isr_108>:
ffffffff81005304:	9c                   	pushfq 
ffffffff81005305:	50                   	push   %rax
ffffffff81005306:	53                   	push   %rbx
ffffffff81005307:	51                   	push   %rcx
ffffffff81005308:	52                   	push   %rdx
ffffffff81005309:	56                   	push   %rsi
ffffffff8100530a:	57                   	push   %rdi
ffffffff8100530b:	54                   	push   %rsp
ffffffff8100530c:	55                   	push   %rbp
ffffffff8100530d:	41 50                	push   %r8
ffffffff8100530f:	41 51                	push   %r9
ffffffff81005311:	41 52                	push   %r10
ffffffff81005313:	41 53                	push   %r11
ffffffff81005315:	41 54                	push   %r12
ffffffff81005317:	41 55                	push   %r13
ffffffff81005319:	41 56                	push   %r14
ffffffff8100531b:	41 57                	push   %r15
ffffffff8100531d:	fc                   	cld    
ffffffff8100531e:	bf 6c 00 00 00       	mov    $0x6c,%edi
ffffffff81005323:	be 00 00 00 00       	mov    $0x0,%esi
ffffffff81005328:	e8 ca e1 ff ff       	callq  ffffffff810034f7 <isr_dispatcher>
ffffffff8100532d:	41 5f                	pop    %r15
ffffffff8100532f:	41 5e                	pop    %r14
ffffffff81005331:	41 5d                	pop    %r13
ffffffff81005333:	41 5c                	pop    %r12
ffffffff81005335:	41 5b                	pop    %r11
ffffffff81005337:	41 5a                	pop    %r10
ffffffff81005339:	41 59                	pop    %r9
ffffffff8100533b:	41 58                	pop    %r8
ffffffff8100533d:	5d                   	pop    %rbp
ffffffff8100533e:	5c                   	pop    %rsp
ffffffff8100533f:	5f                   	pop    %rdi
ffffffff81005340:	5e                   	pop    %rsi
ffffffff81005341:	5a                   	pop    %rdx
ffffffff81005342:	59                   	pop    %rcx
ffffffff81005343:	5b                   	pop    %rbx
ffffffff81005344:	58                   	pop    %rax
ffffffff81005345:	9d                   	popfq  
ffffffff81005346:	48 cf                	iretq  

ffffffff81005348 <isr_109>:
ffffffff81005348:	9c                   	pushfq 
ffffffff81005349:	50                   	push   %rax
ffffffff8100534a:	53                   	push   %rbx
ffffffff8100534b:	51                   	push   %rcx
ffffffff8100534c:	52                   	push   %rdx
ffffffff8100534d:	56                   	push   %rsi
ffffffff8100534e:	57                   	push   %rdi
ffffffff8100534f:	54                   	push   %rsp
ffffffff81005350:	55                   	push   %rbp
ffffffff81005351:	41 50                	push   %r8
ffffffff81005353:	41 51                	push   %r9
ffffffff81005355:	41 52                	push   %r10
ffffffff81005357:	41 53                	push   %r11
ffffffff81005359:	41 54                	push   %r12
ffffffff8100535b:	41 55                	push   %r13
ffffffff8100535d:	41 56                	push   %r14
ffffffff8100535f:	41 57                	push   %r15
ffffffff81005361:	fc                   	cld    
ffffffff81005362:	bf 6d 00 00 00       	mov    $0x6d,%edi
ffffffff81005367:	be 00 00 00 00       	mov    $0x0,%esi
ffffffff8100536c:	e8 86 e1 ff ff       	callq  ffffffff810034f7 <isr_dispatcher>
ffffffff81005371:	41 5f                	pop    %r15
ffffffff81005373:	41 5e                	pop    %r14
ffffffff81005375:	41 5d                	pop    %r13
ffffffff81005377:	41 5c                	pop    %r12
ffffffff81005379:	41 5b                	pop    %r11
ffffffff8100537b:	41 5a                	pop    %r10
ffffffff8100537d:	41 59                	pop    %r9
ffffffff8100537f:	41 58                	pop    %r8
ffffffff81005381:	5d                   	pop    %rbp
ffffffff81005382:	5c                   	pop    %rsp
ffffffff81005383:	5f                   	pop    %rdi
ffffffff81005384:	5e                   	pop    %rsi
ffffffff81005385:	5a                   	pop    %rdx
ffffffff81005386:	59                   	pop    %rcx
ffffffff81005387:	5b                   	pop    %rbx
ffffffff81005388:	58                   	pop    %rax
ffffffff81005389:	9d                   	popfq  
ffffffff8100538a:	48 cf                	iretq  

ffffffff8100538c <isr_110>:
ffffffff8100538c:	9c                   	pushfq 
ffffffff8100538d:	50                   	push   %rax
ffffffff8100538e:	53                   	push   %rbx
ffffffff8100538f:	51                   	push   %rcx
ffffffff81005390:	52                   	push   %rdx
ffffffff81005391:	56                   	push   %rsi
ffffffff81005392:	57                   	push   %rdi
ffffffff81005393:	54                   	push   %rsp
ffffffff81005394:	55                   	push   %rbp
ffffffff81005395:	41 50                	push   %r8
ffffffff81005397:	41 51                	push   %r9
ffffffff81005399:	41 52                	push   %r10
ffffffff8100539b:	41 53                	push   %r11
ffffffff8100539d:	41 54                	push   %r12
ffffffff8100539f:	41 55                	push   %r13
ffffffff810053a1:	41 56                	push   %r14
ffffffff810053a3:	41 57                	push   %r15
ffffffff810053a5:	fc                   	cld    
ffffffff810053a6:	bf 6e 00 00 00       	mov    $0x6e,%edi
ffffffff810053ab:	be 00 00 00 00       	mov    $0x0,%esi
ffffffff810053b0:	e8 42 e1 ff ff       	callq  ffffffff810034f7 <isr_dispatcher>
ffffffff810053b5:	41 5f                	pop    %r15
ffffffff810053b7:	41 5e                	pop    %r14
ffffffff810053b9:	41 5d                	pop    %r13
ffffffff810053bb:	41 5c                	pop    %r12
ffffffff810053bd:	41 5b                	pop    %r11
ffffffff810053bf:	41 5a                	pop    %r10
ffffffff810053c1:	41 59                	pop    %r9
ffffffff810053c3:	41 58                	pop    %r8
ffffffff810053c5:	5d                   	pop    %rbp
ffffffff810053c6:	5c                   	pop    %rsp
ffffffff810053c7:	5f                   	pop    %rdi
ffffffff810053c8:	5e                   	pop    %rsi
ffffffff810053c9:	5a                   	pop    %rdx
ffffffff810053ca:	59                   	pop    %rcx
ffffffff810053cb:	5b                   	pop    %rbx
ffffffff810053cc:	58                   	pop    %rax
ffffffff810053cd:	9d                   	popfq  
ffffffff810053ce:	48 cf                	iretq  

ffffffff810053d0 <isr_111>:
ffffffff810053d0:	9c                   	pushfq 
ffffffff810053d1:	50                   	push   %rax
ffffffff810053d2:	53                   	push   %rbx
ffffffff810053d3:	51                   	push   %rcx
ffffffff810053d4:	52                   	push   %rdx
ffffffff810053d5:	56                   	push   %rsi
ffffffff810053d6:	57                   	push   %rdi
ffffffff810053d7:	54                   	push   %rsp
ffffffff810053d8:	55                   	push   %rbp
ffffffff810053d9:	41 50                	push   %r8
ffffffff810053db:	41 51                	push   %r9
ffffffff810053dd:	41 52                	push   %r10
ffffffff810053df:	41 53                	push   %r11
ffffffff810053e1:	41 54                	push   %r12
ffffffff810053e3:	41 55                	push   %r13
ffffffff810053e5:	41 56                	push   %r14
ffffffff810053e7:	41 57                	push   %r15
ffffffff810053e9:	fc                   	cld    
ffffffff810053ea:	bf 6f 00 00 00       	mov    $0x6f,%edi
ffffffff810053ef:	be 00 00 00 00       	mov    $0x0,%esi
ffffffff810053f4:	e8 fe e0 ff ff       	callq  ffffffff810034f7 <isr_dispatcher>
ffffffff810053f9:	41 5f                	pop    %r15
ffffffff810053fb:	41 5e                	pop    %r14
ffffffff810053fd:	41 5d                	pop    %r13
ffffffff810053ff:	41 5c                	pop    %r12
ffffffff81005401:	41 5b                	pop    %r11
ffffffff81005403:	41 5a                	pop    %r10
ffffffff81005405:	41 59                	pop    %r9
ffffffff81005407:	41 58                	pop    %r8
ffffffff81005409:	5d                   	pop    %rbp
ffffffff8100540a:	5c                   	pop    %rsp
ffffffff8100540b:	5f                   	pop    %rdi
ffffffff8100540c:	5e                   	pop    %rsi
ffffffff8100540d:	5a                   	pop    %rdx
ffffffff8100540e:	59                   	pop    %rcx
ffffffff8100540f:	5b                   	pop    %rbx
ffffffff81005410:	58                   	pop    %rax
ffffffff81005411:	9d                   	popfq  
ffffffff81005412:	48 cf                	iretq  

ffffffff81005414 <isr_112>:
ffffffff81005414:	9c                   	pushfq 
ffffffff81005415:	50                   	push   %rax
ffffffff81005416:	53                   	push   %rbx
ffffffff81005417:	51                   	push   %rcx
ffffffff81005418:	52                   	push   %rdx
ffffffff81005419:	56                   	push   %rsi
ffffffff8100541a:	57                   	push   %rdi
ffffffff8100541b:	54                   	push   %rsp
ffffffff8100541c:	55                   	push   %rbp
ffffffff8100541d:	41 50                	push   %r8
ffffffff8100541f:	41 51                	push   %r9
ffffffff81005421:	41 52                	push   %r10
ffffffff81005423:	41 53                	push   %r11
ffffffff81005425:	41 54                	push   %r12
ffffffff81005427:	41 55                	push   %r13
ffffffff81005429:	41 56                	push   %r14
ffffffff8100542b:	41 57                	push   %r15
ffffffff8100542d:	fc                   	cld    
ffffffff8100542e:	bf 70 00 00 00       	mov    $0x70,%edi
ffffffff81005433:	be 00 00 00 00       	mov    $0x0,%esi
ffffffff81005438:	e8 ba e0 ff ff       	callq  ffffffff810034f7 <isr_dispatcher>
ffffffff8100543d:	41 5f                	pop    %r15
ffffffff8100543f:	41 5e                	pop    %r14
ffffffff81005441:	41 5d                	pop    %r13
ffffffff81005443:	41 5c                	pop    %r12
ffffffff81005445:	41 5b                	pop    %r11
ffffffff81005447:	41 5a                	pop    %r10
ffffffff81005449:	41 59                	pop    %r9
ffffffff8100544b:	41 58                	pop    %r8
ffffffff8100544d:	5d                   	pop    %rbp
ffffffff8100544e:	5c                   	pop    %rsp
ffffffff8100544f:	5f                   	pop    %rdi
ffffffff81005450:	5e                   	pop    %rsi
ffffffff81005451:	5a                   	pop    %rdx
ffffffff81005452:	59                   	pop    %rcx
ffffffff81005453:	5b                   	pop    %rbx
ffffffff81005454:	58                   	pop    %rax
ffffffff81005455:	9d                   	popfq  
ffffffff81005456:	48 cf                	iretq  

ffffffff81005458 <isr_113>:
ffffffff81005458:	9c                   	pushfq 
ffffffff81005459:	50                   	push   %rax
ffffffff8100545a:	53                   	push   %rbx
ffffffff8100545b:	51                   	push   %rcx
ffffffff8100545c:	52                   	push   %rdx
ffffffff8100545d:	56                   	push   %rsi
ffffffff8100545e:	57                   	push   %rdi
ffffffff8100545f:	54                   	push   %rsp
ffffffff81005460:	55                   	push   %rbp
ffffffff81005461:	41 50                	push   %r8
ffffffff81005463:	41 51                	push   %r9
ffffffff81005465:	41 52                	push   %r10
ffffffff81005467:	41 53                	push   %r11
ffffffff81005469:	41 54                	push   %r12
ffffffff8100546b:	41 55                	push   %r13
ffffffff8100546d:	41 56                	push   %r14
ffffffff8100546f:	41 57                	push   %r15
ffffffff81005471:	fc                   	cld    
ffffffff81005472:	bf 71 00 00 00       	mov    $0x71,%edi
ffffffff81005477:	be 00 00 00 00       	mov    $0x0,%esi
ffffffff8100547c:	e8 76 e0 ff ff       	callq  ffffffff810034f7 <isr_dispatcher>
ffffffff81005481:	41 5f                	pop    %r15
ffffffff81005483:	41 5e                	pop    %r14
ffffffff81005485:	41 5d                	pop    %r13
ffffffff81005487:	41 5c                	pop    %r12
ffffffff81005489:	41 5b                	pop    %r11
ffffffff8100548b:	41 5a                	pop    %r10
ffffffff8100548d:	41 59                	pop    %r9
ffffffff8100548f:	41 58                	pop    %r8
ffffffff81005491:	5d                   	pop    %rbp
ffffffff81005492:	5c                   	pop    %rsp
ffffffff81005493:	5f                   	pop    %rdi
ffffffff81005494:	5e                   	pop    %rsi
ffffffff81005495:	5a                   	pop    %rdx
ffffffff81005496:	59                   	pop    %rcx
ffffffff81005497:	5b                   	pop    %rbx
ffffffff81005498:	58                   	pop    %rax
ffffffff81005499:	9d                   	popfq  
ffffffff8100549a:	48 cf                	iretq  

ffffffff8100549c <isr_114>:
ffffffff8100549c:	9c                   	pushfq 
ffffffff8100549d:	50                   	push   %rax
ffffffff8100549e:	53                   	push   %rbx
ffffffff8100549f:	51                   	push   %rcx
ffffffff810054a0:	52                   	push   %rdx
ffffffff810054a1:	56                   	push   %rsi
ffffffff810054a2:	57                   	push   %rdi
ffffffff810054a3:	54                   	push   %rsp
ffffffff810054a4:	55                   	push   %rbp
ffffffff810054a5:	41 50                	push   %r8
ffffffff810054a7:	41 51                	push   %r9
ffffffff810054a9:	41 52                	push   %r10
ffffffff810054ab:	41 53                	push   %r11
ffffffff810054ad:	41 54                	push   %r12
ffffffff810054af:	41 55                	push   %r13
ffffffff810054b1:	41 56                	push   %r14
ffffffff810054b3:	41 57                	push   %r15
ffffffff810054b5:	fc                   	cld    
ffffffff810054b6:	bf 72 00 00 00       	mov    $0x72,%edi
ffffffff810054bb:	be 00 00 00 00       	mov    $0x0,%esi
ffffffff810054c0:	e8 32 e0 ff ff       	callq  ffffffff810034f7 <isr_dispatcher>
ffffffff810054c5:	41 5f                	pop    %r15
ffffffff810054c7:	41 5e                	pop    %r14
ffffffff810054c9:	41 5d                	pop    %r13
ffffffff810054cb:	41 5c                	pop    %r12
ffffffff810054cd:	41 5b                	pop    %r11
ffffffff810054cf:	41 5a                	pop    %r10
ffffffff810054d1:	41 59                	pop    %r9
ffffffff810054d3:	41 58                	pop    %r8
ffffffff810054d5:	5d                   	pop    %rbp
ffffffff810054d6:	5c                   	pop    %rsp
ffffffff810054d7:	5f                   	pop    %rdi
ffffffff810054d8:	5e                   	pop    %rsi
ffffffff810054d9:	5a                   	pop    %rdx
ffffffff810054da:	59                   	pop    %rcx
ffffffff810054db:	5b                   	pop    %rbx
ffffffff810054dc:	58                   	pop    %rax
ffffffff810054dd:	9d                   	popfq  
ffffffff810054de:	48 cf                	iretq  

ffffffff810054e0 <isr_115>:
ffffffff810054e0:	9c                   	pushfq 
ffffffff810054e1:	50                   	push   %rax
ffffffff810054e2:	53                   	push   %rbx
ffffffff810054e3:	51                   	push   %rcx
ffffffff810054e4:	52                   	push   %rdx
ffffffff810054e5:	56                   	push   %rsi
ffffffff810054e6:	57                   	push   %rdi
ffffffff810054e7:	54                   	push   %rsp
ffffffff810054e8:	55                   	push   %rbp
ffffffff810054e9:	41 50                	push   %r8
ffffffff810054eb:	41 51                	push   %r9
ffffffff810054ed:	41 52                	push   %r10
ffffffff810054ef:	41 53                	push   %r11
ffffffff810054f1:	41 54                	push   %r12
ffffffff810054f3:	41 55                	push   %r13
ffffffff810054f5:	41 56                	push   %r14
ffffffff810054f7:	41 57                	push   %r15
ffffffff810054f9:	fc                   	cld    
ffffffff810054fa:	bf 73 00 00 00       	mov    $0x73,%edi
ffffffff810054ff:	be 00 00 00 00       	mov    $0x0,%esi
ffffffff81005504:	e8 ee df ff ff       	callq  ffffffff810034f7 <isr_dispatcher>
ffffffff81005509:	41 5f                	pop    %r15
ffffffff8100550b:	41 5e                	pop    %r14
ffffffff8100550d:	41 5d                	pop    %r13
ffffffff8100550f:	41 5c                	pop    %r12
ffffffff81005511:	41 5b                	pop    %r11
ffffffff81005513:	41 5a                	pop    %r10
ffffffff81005515:	41 59                	pop    %r9
ffffffff81005517:	41 58                	pop    %r8
ffffffff81005519:	5d                   	pop    %rbp
ffffffff8100551a:	5c                   	pop    %rsp
ffffffff8100551b:	5f                   	pop    %rdi
ffffffff8100551c:	5e                   	pop    %rsi
ffffffff8100551d:	5a                   	pop    %rdx
ffffffff8100551e:	59                   	pop    %rcx
ffffffff8100551f:	5b                   	pop    %rbx
ffffffff81005520:	58                   	pop    %rax
ffffffff81005521:	9d                   	popfq  
ffffffff81005522:	48 cf                	iretq  

ffffffff81005524 <isr_116>:
ffffffff81005524:	9c                   	pushfq 
ffffffff81005525:	50                   	push   %rax
ffffffff81005526:	53                   	push   %rbx
ffffffff81005527:	51                   	push   %rcx
ffffffff81005528:	52                   	push   %rdx
ffffffff81005529:	56                   	push   %rsi
ffffffff8100552a:	57                   	push   %rdi
ffffffff8100552b:	54                   	push   %rsp
ffffffff8100552c:	55                   	push   %rbp
ffffffff8100552d:	41 50                	push   %r8
ffffffff8100552f:	41 51                	push   %r9
ffffffff81005531:	41 52                	push   %r10
ffffffff81005533:	41 53                	push   %r11
ffffffff81005535:	41 54                	push   %r12
ffffffff81005537:	41 55                	push   %r13
ffffffff81005539:	41 56                	push   %r14
ffffffff8100553b:	41 57                	push   %r15
ffffffff8100553d:	fc                   	cld    
ffffffff8100553e:	bf 74 00 00 00       	mov    $0x74,%edi
ffffffff81005543:	be 00 00 00 00       	mov    $0x0,%esi
ffffffff81005548:	e8 aa df ff ff       	callq  ffffffff810034f7 <isr_dispatcher>
ffffffff8100554d:	41 5f                	pop    %r15
ffffffff8100554f:	41 5e                	pop    %r14
ffffffff81005551:	41 5d                	pop    %r13
ffffffff81005553:	41 5c                	pop    %r12
ffffffff81005555:	41 5b                	pop    %r11
ffffffff81005557:	41 5a                	pop    %r10
ffffffff81005559:	41 59                	pop    %r9
ffffffff8100555b:	41 58                	pop    %r8
ffffffff8100555d:	5d                   	pop    %rbp
ffffffff8100555e:	5c                   	pop    %rsp
ffffffff8100555f:	5f                   	pop    %rdi
ffffffff81005560:	5e                   	pop    %rsi
ffffffff81005561:	5a                   	pop    %rdx
ffffffff81005562:	59                   	pop    %rcx
ffffffff81005563:	5b                   	pop    %rbx
ffffffff81005564:	58                   	pop    %rax
ffffffff81005565:	9d                   	popfq  
ffffffff81005566:	48 cf                	iretq  

ffffffff81005568 <isr_117>:
ffffffff81005568:	9c                   	pushfq 
ffffffff81005569:	50                   	push   %rax
ffffffff8100556a:	53                   	push   %rbx
ffffffff8100556b:	51                   	push   %rcx
ffffffff8100556c:	52                   	push   %rdx
ffffffff8100556d:	56                   	push   %rsi
ffffffff8100556e:	57                   	push   %rdi
ffffffff8100556f:	54                   	push   %rsp
ffffffff81005570:	55                   	push   %rbp
ffffffff81005571:	41 50                	push   %r8
ffffffff81005573:	41 51                	push   %r9
ffffffff81005575:	41 52                	push   %r10
ffffffff81005577:	41 53                	push   %r11
ffffffff81005579:	41 54                	push   %r12
ffffffff8100557b:	41 55                	push   %r13
ffffffff8100557d:	41 56                	push   %r14
ffffffff8100557f:	41 57                	push   %r15
ffffffff81005581:	fc                   	cld    
ffffffff81005582:	bf 75 00 00 00       	mov    $0x75,%edi
ffffffff81005587:	be 00 00 00 00       	mov    $0x0,%esi
ffffffff8100558c:	e8 66 df ff ff       	callq  ffffffff810034f7 <isr_dispatcher>
ffffffff81005591:	41 5f                	pop    %r15
ffffffff81005593:	41 5e                	pop    %r14
ffffffff81005595:	41 5d                	pop    %r13
ffffffff81005597:	41 5c                	pop    %r12
ffffffff81005599:	41 5b                	pop    %r11
ffffffff8100559b:	41 5a                	pop    %r10
ffffffff8100559d:	41 59                	pop    %r9
ffffffff8100559f:	41 58                	pop    %r8
ffffffff810055a1:	5d                   	pop    %rbp
ffffffff810055a2:	5c                   	pop    %rsp
ffffffff810055a3:	5f                   	pop    %rdi
ffffffff810055a4:	5e                   	pop    %rsi
ffffffff810055a5:	5a                   	pop    %rdx
ffffffff810055a6:	59                   	pop    %rcx
ffffffff810055a7:	5b                   	pop    %rbx
ffffffff810055a8:	58                   	pop    %rax
ffffffff810055a9:	9d                   	popfq  
ffffffff810055aa:	48 cf                	iretq  

ffffffff810055ac <isr_118>:
ffffffff810055ac:	9c                   	pushfq 
ffffffff810055ad:	50                   	push   %rax
ffffffff810055ae:	53                   	push   %rbx
ffffffff810055af:	51                   	push   %rcx
ffffffff810055b0:	52                   	push   %rdx
ffffffff810055b1:	56                   	push   %rsi
ffffffff810055b2:	57                   	push   %rdi
ffffffff810055b3:	54                   	push   %rsp
ffffffff810055b4:	55                   	push   %rbp
ffffffff810055b5:	41 50                	push   %r8
ffffffff810055b7:	41 51                	push   %r9
ffffffff810055b9:	41 52                	push   %r10
ffffffff810055bb:	41 53                	push   %r11
ffffffff810055bd:	41 54                	push   %r12
ffffffff810055bf:	41 55                	push   %r13
ffffffff810055c1:	41 56                	push   %r14
ffffffff810055c3:	41 57                	push   %r15
ffffffff810055c5:	fc                   	cld    
ffffffff810055c6:	bf 76 00 00 00       	mov    $0x76,%edi
ffffffff810055cb:	be 00 00 00 00       	mov    $0x0,%esi
ffffffff810055d0:	e8 22 df ff ff       	callq  ffffffff810034f7 <isr_dispatcher>
ffffffff810055d5:	41 5f                	pop    %r15
ffffffff810055d7:	41 5e                	pop    %r14
ffffffff810055d9:	41 5d                	pop    %r13
ffffffff810055db:	41 5c                	pop    %r12
ffffffff810055dd:	41 5b                	pop    %r11
ffffffff810055df:	41 5a                	pop    %r10
ffffffff810055e1:	41 59                	pop    %r9
ffffffff810055e3:	41 58                	pop    %r8
ffffffff810055e5:	5d                   	pop    %rbp
ffffffff810055e6:	5c                   	pop    %rsp
ffffffff810055e7:	5f                   	pop    %rdi
ffffffff810055e8:	5e                   	pop    %rsi
ffffffff810055e9:	5a                   	pop    %rdx
ffffffff810055ea:	59                   	pop    %rcx
ffffffff810055eb:	5b                   	pop    %rbx
ffffffff810055ec:	58                   	pop    %rax
ffffffff810055ed:	9d                   	popfq  
ffffffff810055ee:	48 cf                	iretq  

ffffffff810055f0 <isr_119>:
ffffffff810055f0:	9c                   	pushfq 
ffffffff810055f1:	50                   	push   %rax
ffffffff810055f2:	53                   	push   %rbx
ffffffff810055f3:	51                   	push   %rcx
ffffffff810055f4:	52                   	push   %rdx
ffffffff810055f5:	56                   	push   %rsi
ffffffff810055f6:	57                   	push   %rdi
ffffffff810055f7:	54                   	push   %rsp
ffffffff810055f8:	55                   	push   %rbp
ffffffff810055f9:	41 50                	push   %r8
ffffffff810055fb:	41 51                	push   %r9
ffffffff810055fd:	41 52                	push   %r10
ffffffff810055ff:	41 53                	push   %r11
ffffffff81005601:	41 54                	push   %r12
ffffffff81005603:	41 55                	push   %r13
ffffffff81005605:	41 56                	push   %r14
ffffffff81005607:	41 57                	push   %r15
ffffffff81005609:	fc                   	cld    
ffffffff8100560a:	bf 77 00 00 00       	mov    $0x77,%edi
ffffffff8100560f:	be 00 00 00 00       	mov    $0x0,%esi
ffffffff81005614:	e8 de de ff ff       	callq  ffffffff810034f7 <isr_dispatcher>
ffffffff81005619:	41 5f                	pop    %r15
ffffffff8100561b:	41 5e                	pop    %r14
ffffffff8100561d:	41 5d                	pop    %r13
ffffffff8100561f:	41 5c                	pop    %r12
ffffffff81005621:	41 5b                	pop    %r11
ffffffff81005623:	41 5a                	pop    %r10
ffffffff81005625:	41 59                	pop    %r9
ffffffff81005627:	41 58                	pop    %r8
ffffffff81005629:	5d                   	pop    %rbp
ffffffff8100562a:	5c                   	pop    %rsp
ffffffff8100562b:	5f                   	pop    %rdi
ffffffff8100562c:	5e                   	pop    %rsi
ffffffff8100562d:	5a                   	pop    %rdx
ffffffff8100562e:	59                   	pop    %rcx
ffffffff8100562f:	5b                   	pop    %rbx
ffffffff81005630:	58                   	pop    %rax
ffffffff81005631:	9d                   	popfq  
ffffffff81005632:	48 cf                	iretq  

ffffffff81005634 <isr_120>:
ffffffff81005634:	9c                   	pushfq 
ffffffff81005635:	50                   	push   %rax
ffffffff81005636:	53                   	push   %rbx
ffffffff81005637:	51                   	push   %rcx
ffffffff81005638:	52                   	push   %rdx
ffffffff81005639:	56                   	push   %rsi
ffffffff8100563a:	57                   	push   %rdi
ffffffff8100563b:	54                   	push   %rsp
ffffffff8100563c:	55                   	push   %rbp
ffffffff8100563d:	41 50                	push   %r8
ffffffff8100563f:	41 51                	push   %r9
ffffffff81005641:	41 52                	push   %r10
ffffffff81005643:	41 53                	push   %r11
ffffffff81005645:	41 54                	push   %r12
ffffffff81005647:	41 55                	push   %r13
ffffffff81005649:	41 56                	push   %r14
ffffffff8100564b:	41 57                	push   %r15
ffffffff8100564d:	fc                   	cld    
ffffffff8100564e:	bf 78 00 00 00       	mov    $0x78,%edi
ffffffff81005653:	be 00 00 00 00       	mov    $0x0,%esi
ffffffff81005658:	e8 9a de ff ff       	callq  ffffffff810034f7 <isr_dispatcher>
ffffffff8100565d:	41 5f                	pop    %r15
ffffffff8100565f:	41 5e                	pop    %r14
ffffffff81005661:	41 5d                	pop    %r13
ffffffff81005663:	41 5c                	pop    %r12
ffffffff81005665:	41 5b                	pop    %r11
ffffffff81005667:	41 5a                	pop    %r10
ffffffff81005669:	41 59                	pop    %r9
ffffffff8100566b:	41 58                	pop    %r8
ffffffff8100566d:	5d                   	pop    %rbp
ffffffff8100566e:	5c                   	pop    %rsp
ffffffff8100566f:	5f                   	pop    %rdi
ffffffff81005670:	5e                   	pop    %rsi
ffffffff81005671:	5a                   	pop    %rdx
ffffffff81005672:	59                   	pop    %rcx
ffffffff81005673:	5b                   	pop    %rbx
ffffffff81005674:	58                   	pop    %rax
ffffffff81005675:	9d                   	popfq  
ffffffff81005676:	48 cf                	iretq  

ffffffff81005678 <isr_121>:
ffffffff81005678:	9c                   	pushfq 
ffffffff81005679:	50                   	push   %rax
ffffffff8100567a:	53                   	push   %rbx
ffffffff8100567b:	51                   	push   %rcx
ffffffff8100567c:	52                   	push   %rdx
ffffffff8100567d:	56                   	push   %rsi
ffffffff8100567e:	57                   	push   %rdi
ffffffff8100567f:	54                   	push   %rsp
ffffffff81005680:	55                   	push   %rbp
ffffffff81005681:	41 50                	push   %r8
ffffffff81005683:	41 51                	push   %r9
ffffffff81005685:	41 52                	push   %r10
ffffffff81005687:	41 53                	push   %r11
ffffffff81005689:	41 54                	push   %r12
ffffffff8100568b:	41 55                	push   %r13
ffffffff8100568d:	41 56                	push   %r14
ffffffff8100568f:	41 57                	push   %r15
ffffffff81005691:	fc                   	cld    
ffffffff81005692:	bf 79 00 00 00       	mov    $0x79,%edi
ffffffff81005697:	be 00 00 00 00       	mov    $0x0,%esi
ffffffff8100569c:	e8 56 de ff ff       	callq  ffffffff810034f7 <isr_dispatcher>
ffffffff810056a1:	41 5f                	pop    %r15
ffffffff810056a3:	41 5e                	pop    %r14
ffffffff810056a5:	41 5d                	pop    %r13
ffffffff810056a7:	41 5c                	pop    %r12
ffffffff810056a9:	41 5b                	pop    %r11
ffffffff810056ab:	41 5a                	pop    %r10
ffffffff810056ad:	41 59                	pop    %r9
ffffffff810056af:	41 58                	pop    %r8
ffffffff810056b1:	5d                   	pop    %rbp
ffffffff810056b2:	5c                   	pop    %rsp
ffffffff810056b3:	5f                   	pop    %rdi
ffffffff810056b4:	5e                   	pop    %rsi
ffffffff810056b5:	5a                   	pop    %rdx
ffffffff810056b6:	59                   	pop    %rcx
ffffffff810056b7:	5b                   	pop    %rbx
ffffffff810056b8:	58                   	pop    %rax
ffffffff810056b9:	9d                   	popfq  
ffffffff810056ba:	48 cf                	iretq  

ffffffff810056bc <isr_122>:
ffffffff810056bc:	9c                   	pushfq 
ffffffff810056bd:	50                   	push   %rax
ffffffff810056be:	53                   	push   %rbx
ffffffff810056bf:	51                   	push   %rcx
ffffffff810056c0:	52                   	push   %rdx
ffffffff810056c1:	56                   	push   %rsi
ffffffff810056c2:	57                   	push   %rdi
ffffffff810056c3:	54                   	push   %rsp
ffffffff810056c4:	55                   	push   %rbp
ffffffff810056c5:	41 50                	push   %r8
ffffffff810056c7:	41 51                	push   %r9
ffffffff810056c9:	41 52                	push   %r10
ffffffff810056cb:	41 53                	push   %r11
ffffffff810056cd:	41 54                	push   %r12
ffffffff810056cf:	41 55                	push   %r13
ffffffff810056d1:	41 56                	push   %r14
ffffffff810056d3:	41 57                	push   %r15
ffffffff810056d5:	fc                   	cld    
ffffffff810056d6:	bf 7a 00 00 00       	mov    $0x7a,%edi
ffffffff810056db:	be 00 00 00 00       	mov    $0x0,%esi
ffffffff810056e0:	e8 12 de ff ff       	callq  ffffffff810034f7 <isr_dispatcher>
ffffffff810056e5:	41 5f                	pop    %r15
ffffffff810056e7:	41 5e                	pop    %r14
ffffffff810056e9:	41 5d                	pop    %r13
ffffffff810056eb:	41 5c                	pop    %r12
ffffffff810056ed:	41 5b                	pop    %r11
ffffffff810056ef:	41 5a                	pop    %r10
ffffffff810056f1:	41 59                	pop    %r9
ffffffff810056f3:	41 58                	pop    %r8
ffffffff810056f5:	5d                   	pop    %rbp
ffffffff810056f6:	5c                   	pop    %rsp
ffffffff810056f7:	5f                   	pop    %rdi
ffffffff810056f8:	5e                   	pop    %rsi
ffffffff810056f9:	5a                   	pop    %rdx
ffffffff810056fa:	59                   	pop    %rcx
ffffffff810056fb:	5b                   	pop    %rbx
ffffffff810056fc:	58                   	pop    %rax
ffffffff810056fd:	9d                   	popfq  
ffffffff810056fe:	48 cf                	iretq  

ffffffff81005700 <isr_123>:
ffffffff81005700:	9c                   	pushfq 
ffffffff81005701:	50                   	push   %rax
ffffffff81005702:	53                   	push   %rbx
ffffffff81005703:	51                   	push   %rcx
ffffffff81005704:	52                   	push   %rdx
ffffffff81005705:	56                   	push   %rsi
ffffffff81005706:	57                   	push   %rdi
ffffffff81005707:	54                   	push   %rsp
ffffffff81005708:	55                   	push   %rbp
ffffffff81005709:	41 50                	push   %r8
ffffffff8100570b:	41 51                	push   %r9
ffffffff8100570d:	41 52                	push   %r10
ffffffff8100570f:	41 53                	push   %r11
ffffffff81005711:	41 54                	push   %r12
ffffffff81005713:	41 55                	push   %r13
ffffffff81005715:	41 56                	push   %r14
ffffffff81005717:	41 57                	push   %r15
ffffffff81005719:	fc                   	cld    
ffffffff8100571a:	bf 7b 00 00 00       	mov    $0x7b,%edi
ffffffff8100571f:	be 00 00 00 00       	mov    $0x0,%esi
ffffffff81005724:	e8 ce dd ff ff       	callq  ffffffff810034f7 <isr_dispatcher>
ffffffff81005729:	41 5f                	pop    %r15
ffffffff8100572b:	41 5e                	pop    %r14
ffffffff8100572d:	41 5d                	pop    %r13
ffffffff8100572f:	41 5c                	pop    %r12
ffffffff81005731:	41 5b                	pop    %r11
ffffffff81005733:	41 5a                	pop    %r10
ffffffff81005735:	41 59                	pop    %r9
ffffffff81005737:	41 58                	pop    %r8
ffffffff81005739:	5d                   	pop    %rbp
ffffffff8100573a:	5c                   	pop    %rsp
ffffffff8100573b:	5f                   	pop    %rdi
ffffffff8100573c:	5e                   	pop    %rsi
ffffffff8100573d:	5a                   	pop    %rdx
ffffffff8100573e:	59                   	pop    %rcx
ffffffff8100573f:	5b                   	pop    %rbx
ffffffff81005740:	58                   	pop    %rax
ffffffff81005741:	9d                   	popfq  
ffffffff81005742:	48 cf                	iretq  

ffffffff81005744 <isr_124>:
ffffffff81005744:	9c                   	pushfq 
ffffffff81005745:	50                   	push   %rax
ffffffff81005746:	53                   	push   %rbx
ffffffff81005747:	51                   	push   %rcx
ffffffff81005748:	52                   	push   %rdx
ffffffff81005749:	56                   	push   %rsi
ffffffff8100574a:	57                   	push   %rdi
ffffffff8100574b:	54                   	push   %rsp
ffffffff8100574c:	55                   	push   %rbp
ffffffff8100574d:	41 50                	push   %r8
ffffffff8100574f:	41 51                	push   %r9
ffffffff81005751:	41 52                	push   %r10
ffffffff81005753:	41 53                	push   %r11
ffffffff81005755:	41 54                	push   %r12
ffffffff81005757:	41 55                	push   %r13
ffffffff81005759:	41 56                	push   %r14
ffffffff8100575b:	41 57                	push   %r15
ffffffff8100575d:	fc                   	cld    
ffffffff8100575e:	bf 7c 00 00 00       	mov    $0x7c,%edi
ffffffff81005763:	be 00 00 00 00       	mov    $0x0,%esi
ffffffff81005768:	e8 8a dd ff ff       	callq  ffffffff810034f7 <isr_dispatcher>
ffffffff8100576d:	41 5f                	pop    %r15
ffffffff8100576f:	41 5e                	pop    %r14
ffffffff81005771:	41 5d                	pop    %r13
ffffffff81005773:	41 5c                	pop    %r12
ffffffff81005775:	41 5b                	pop    %r11
ffffffff81005777:	41 5a                	pop    %r10
ffffffff81005779:	41 59                	pop    %r9
ffffffff8100577b:	41 58                	pop    %r8
ffffffff8100577d:	5d                   	pop    %rbp
ffffffff8100577e:	5c                   	pop    %rsp
ffffffff8100577f:	5f                   	pop    %rdi
ffffffff81005780:	5e                   	pop    %rsi
ffffffff81005781:	5a                   	pop    %rdx
ffffffff81005782:	59                   	pop    %rcx
ffffffff81005783:	5b                   	pop    %rbx
ffffffff81005784:	58                   	pop    %rax
ffffffff81005785:	9d                   	popfq  
ffffffff81005786:	48 cf                	iretq  

ffffffff81005788 <isr_125>:
ffffffff81005788:	9c                   	pushfq 
ffffffff81005789:	50                   	push   %rax
ffffffff8100578a:	53                   	push   %rbx
ffffffff8100578b:	51                   	push   %rcx
ffffffff8100578c:	52                   	push   %rdx
ffffffff8100578d:	56                   	push   %rsi
ffffffff8100578e:	57                   	push   %rdi
ffffffff8100578f:	54                   	push   %rsp
ffffffff81005790:	55                   	push   %rbp
ffffffff81005791:	41 50                	push   %r8
ffffffff81005793:	41 51                	push   %r9
ffffffff81005795:	41 52                	push   %r10
ffffffff81005797:	41 53                	push   %r11
ffffffff81005799:	41 54                	push   %r12
ffffffff8100579b:	41 55                	push   %r13
ffffffff8100579d:	41 56                	push   %r14
ffffffff8100579f:	41 57                	push   %r15
ffffffff810057a1:	fc                   	cld    
ffffffff810057a2:	bf 7d 00 00 00       	mov    $0x7d,%edi
ffffffff810057a7:	be 00 00 00 00       	mov    $0x0,%esi
ffffffff810057ac:	e8 46 dd ff ff       	callq  ffffffff810034f7 <isr_dispatcher>
ffffffff810057b1:	41 5f                	pop    %r15
ffffffff810057b3:	41 5e                	pop    %r14
ffffffff810057b5:	41 5d                	pop    %r13
ffffffff810057b7:	41 5c                	pop    %r12
ffffffff810057b9:	41 5b                	pop    %r11
ffffffff810057bb:	41 5a                	pop    %r10
ffffffff810057bd:	41 59                	pop    %r9
ffffffff810057bf:	41 58                	pop    %r8
ffffffff810057c1:	5d                   	pop    %rbp
ffffffff810057c2:	5c                   	pop    %rsp
ffffffff810057c3:	5f                   	pop    %rdi
ffffffff810057c4:	5e                   	pop    %rsi
ffffffff810057c5:	5a                   	pop    %rdx
ffffffff810057c6:	59                   	pop    %rcx
ffffffff810057c7:	5b                   	pop    %rbx
ffffffff810057c8:	58                   	pop    %rax
ffffffff810057c9:	9d                   	popfq  
ffffffff810057ca:	48 cf                	iretq  

ffffffff810057cc <isr_126>:
ffffffff810057cc:	9c                   	pushfq 
ffffffff810057cd:	50                   	push   %rax
ffffffff810057ce:	53                   	push   %rbx
ffffffff810057cf:	51                   	push   %rcx
ffffffff810057d0:	52                   	push   %rdx
ffffffff810057d1:	56                   	push   %rsi
ffffffff810057d2:	57                   	push   %rdi
ffffffff810057d3:	54                   	push   %rsp
ffffffff810057d4:	55                   	push   %rbp
ffffffff810057d5:	41 50                	push   %r8
ffffffff810057d7:	41 51                	push   %r9
ffffffff810057d9:	41 52                	push   %r10
ffffffff810057db:	41 53                	push   %r11
ffffffff810057dd:	41 54                	push   %r12
ffffffff810057df:	41 55                	push   %r13
ffffffff810057e1:	41 56                	push   %r14
ffffffff810057e3:	41 57                	push   %r15
ffffffff810057e5:	fc                   	cld    
ffffffff810057e6:	bf 7e 00 00 00       	mov    $0x7e,%edi
ffffffff810057eb:	be 00 00 00 00       	mov    $0x0,%esi
ffffffff810057f0:	e8 02 dd ff ff       	callq  ffffffff810034f7 <isr_dispatcher>
ffffffff810057f5:	41 5f                	pop    %r15
ffffffff810057f7:	41 5e                	pop    %r14
ffffffff810057f9:	41 5d                	pop    %r13
ffffffff810057fb:	41 5c                	pop    %r12
ffffffff810057fd:	41 5b                	pop    %r11
ffffffff810057ff:	41 5a                	pop    %r10
ffffffff81005801:	41 59                	pop    %r9
ffffffff81005803:	41 58                	pop    %r8
ffffffff81005805:	5d                   	pop    %rbp
ffffffff81005806:	5c                   	pop    %rsp
ffffffff81005807:	5f                   	pop    %rdi
ffffffff81005808:	5e                   	pop    %rsi
ffffffff81005809:	5a                   	pop    %rdx
ffffffff8100580a:	59                   	pop    %rcx
ffffffff8100580b:	5b                   	pop    %rbx
ffffffff8100580c:	58                   	pop    %rax
ffffffff8100580d:	9d                   	popfq  
ffffffff8100580e:	48 cf                	iretq  

ffffffff81005810 <isr_127>:
ffffffff81005810:	9c                   	pushfq 
ffffffff81005811:	50                   	push   %rax
ffffffff81005812:	53                   	push   %rbx
ffffffff81005813:	51                   	push   %rcx
ffffffff81005814:	52                   	push   %rdx
ffffffff81005815:	56                   	push   %rsi
ffffffff81005816:	57                   	push   %rdi
ffffffff81005817:	54                   	push   %rsp
ffffffff81005818:	55                   	push   %rbp
ffffffff81005819:	41 50                	push   %r8
ffffffff8100581b:	41 51                	push   %r9
ffffffff8100581d:	41 52                	push   %r10
ffffffff8100581f:	41 53                	push   %r11
ffffffff81005821:	41 54                	push   %r12
ffffffff81005823:	41 55                	push   %r13
ffffffff81005825:	41 56                	push   %r14
ffffffff81005827:	41 57                	push   %r15
ffffffff81005829:	fc                   	cld    
ffffffff8100582a:	bf 7f 00 00 00       	mov    $0x7f,%edi
ffffffff8100582f:	be 00 00 00 00       	mov    $0x0,%esi
ffffffff81005834:	e8 be dc ff ff       	callq  ffffffff810034f7 <isr_dispatcher>
ffffffff81005839:	41 5f                	pop    %r15
ffffffff8100583b:	41 5e                	pop    %r14
ffffffff8100583d:	41 5d                	pop    %r13
ffffffff8100583f:	41 5c                	pop    %r12
ffffffff81005841:	41 5b                	pop    %r11
ffffffff81005843:	41 5a                	pop    %r10
ffffffff81005845:	41 59                	pop    %r9
ffffffff81005847:	41 58                	pop    %r8
ffffffff81005849:	5d                   	pop    %rbp
ffffffff8100584a:	5c                   	pop    %rsp
ffffffff8100584b:	5f                   	pop    %rdi
ffffffff8100584c:	5e                   	pop    %rsi
ffffffff8100584d:	5a                   	pop    %rdx
ffffffff8100584e:	59                   	pop    %rcx
ffffffff8100584f:	5b                   	pop    %rbx
ffffffff81005850:	58                   	pop    %rax
ffffffff81005851:	9d                   	popfq  
ffffffff81005852:	48 cf                	iretq  

ffffffff81005854 <isr_128>:
ffffffff81005854:	9c                   	pushfq 
ffffffff81005855:	50                   	push   %rax
ffffffff81005856:	53                   	push   %rbx
ffffffff81005857:	51                   	push   %rcx
ffffffff81005858:	52                   	push   %rdx
ffffffff81005859:	56                   	push   %rsi
ffffffff8100585a:	57                   	push   %rdi
ffffffff8100585b:	54                   	push   %rsp
ffffffff8100585c:	55                   	push   %rbp
ffffffff8100585d:	41 50                	push   %r8
ffffffff8100585f:	41 51                	push   %r9
ffffffff81005861:	41 52                	push   %r10
ffffffff81005863:	41 53                	push   %r11
ffffffff81005865:	41 54                	push   %r12
ffffffff81005867:	41 55                	push   %r13
ffffffff81005869:	41 56                	push   %r14
ffffffff8100586b:	41 57                	push   %r15
ffffffff8100586d:	fc                   	cld    
ffffffff8100586e:	bf 80 00 00 00       	mov    $0x80,%edi
ffffffff81005873:	be 00 00 00 00       	mov    $0x0,%esi
ffffffff81005878:	e8 7a dc ff ff       	callq  ffffffff810034f7 <isr_dispatcher>
ffffffff8100587d:	41 5f                	pop    %r15
ffffffff8100587f:	41 5e                	pop    %r14
ffffffff81005881:	41 5d                	pop    %r13
ffffffff81005883:	41 5c                	pop    %r12
ffffffff81005885:	41 5b                	pop    %r11
ffffffff81005887:	41 5a                	pop    %r10
ffffffff81005889:	41 59                	pop    %r9
ffffffff8100588b:	41 58                	pop    %r8
ffffffff8100588d:	5d                   	pop    %rbp
ffffffff8100588e:	5c                   	pop    %rsp
ffffffff8100588f:	5f                   	pop    %rdi
ffffffff81005890:	5e                   	pop    %rsi
ffffffff81005891:	5a                   	pop    %rdx
ffffffff81005892:	59                   	pop    %rcx
ffffffff81005893:	5b                   	pop    %rbx
ffffffff81005894:	58                   	pop    %rax
ffffffff81005895:	9d                   	popfq  
ffffffff81005896:	48 cf                	iretq  

ffffffff81005898 <isr_129>:
ffffffff81005898:	9c                   	pushfq 
ffffffff81005899:	50                   	push   %rax
ffffffff8100589a:	53                   	push   %rbx
ffffffff8100589b:	51                   	push   %rcx
ffffffff8100589c:	52                   	push   %rdx
ffffffff8100589d:	56                   	push   %rsi
ffffffff8100589e:	57                   	push   %rdi
ffffffff8100589f:	54                   	push   %rsp
ffffffff810058a0:	55                   	push   %rbp
ffffffff810058a1:	41 50                	push   %r8
ffffffff810058a3:	41 51                	push   %r9
ffffffff810058a5:	41 52                	push   %r10
ffffffff810058a7:	41 53                	push   %r11
ffffffff810058a9:	41 54                	push   %r12
ffffffff810058ab:	41 55                	push   %r13
ffffffff810058ad:	41 56                	push   %r14
ffffffff810058af:	41 57                	push   %r15
ffffffff810058b1:	fc                   	cld    
ffffffff810058b2:	bf 81 00 00 00       	mov    $0x81,%edi
ffffffff810058b7:	be 00 00 00 00       	mov    $0x0,%esi
ffffffff810058bc:	e8 36 dc ff ff       	callq  ffffffff810034f7 <isr_dispatcher>
ffffffff810058c1:	41 5f                	pop    %r15
ffffffff810058c3:	41 5e                	pop    %r14
ffffffff810058c5:	41 5d                	pop    %r13
ffffffff810058c7:	41 5c                	pop    %r12
ffffffff810058c9:	41 5b                	pop    %r11
ffffffff810058cb:	41 5a                	pop    %r10
ffffffff810058cd:	41 59                	pop    %r9
ffffffff810058cf:	41 58                	pop    %r8
ffffffff810058d1:	5d                   	pop    %rbp
ffffffff810058d2:	5c                   	pop    %rsp
ffffffff810058d3:	5f                   	pop    %rdi
ffffffff810058d4:	5e                   	pop    %rsi
ffffffff810058d5:	5a                   	pop    %rdx
ffffffff810058d6:	59                   	pop    %rcx
ffffffff810058d7:	5b                   	pop    %rbx
ffffffff810058d8:	58                   	pop    %rax
ffffffff810058d9:	9d                   	popfq  
ffffffff810058da:	48 cf                	iretq  

ffffffff810058dc <isr_130>:
ffffffff810058dc:	9c                   	pushfq 
ffffffff810058dd:	50                   	push   %rax
ffffffff810058de:	53                   	push   %rbx
ffffffff810058df:	51                   	push   %rcx
ffffffff810058e0:	52                   	push   %rdx
ffffffff810058e1:	56                   	push   %rsi
ffffffff810058e2:	57                   	push   %rdi
ffffffff810058e3:	54                   	push   %rsp
ffffffff810058e4:	55                   	push   %rbp
ffffffff810058e5:	41 50                	push   %r8
ffffffff810058e7:	41 51                	push   %r9
ffffffff810058e9:	41 52                	push   %r10
ffffffff810058eb:	41 53                	push   %r11
ffffffff810058ed:	41 54                	push   %r12
ffffffff810058ef:	41 55                	push   %r13
ffffffff810058f1:	41 56                	push   %r14
ffffffff810058f3:	41 57                	push   %r15
ffffffff810058f5:	fc                   	cld    
ffffffff810058f6:	bf 82 00 00 00       	mov    $0x82,%edi
ffffffff810058fb:	be 00 00 00 00       	mov    $0x0,%esi
ffffffff81005900:	e8 f2 db ff ff       	callq  ffffffff810034f7 <isr_dispatcher>
ffffffff81005905:	41 5f                	pop    %r15
ffffffff81005907:	41 5e                	pop    %r14
ffffffff81005909:	41 5d                	pop    %r13
ffffffff8100590b:	41 5c                	pop    %r12
ffffffff8100590d:	41 5b                	pop    %r11
ffffffff8100590f:	41 5a                	pop    %r10
ffffffff81005911:	41 59                	pop    %r9
ffffffff81005913:	41 58                	pop    %r8
ffffffff81005915:	5d                   	pop    %rbp
ffffffff81005916:	5c                   	pop    %rsp
ffffffff81005917:	5f                   	pop    %rdi
ffffffff81005918:	5e                   	pop    %rsi
ffffffff81005919:	5a                   	pop    %rdx
ffffffff8100591a:	59                   	pop    %rcx
ffffffff8100591b:	5b                   	pop    %rbx
ffffffff8100591c:	58                   	pop    %rax
ffffffff8100591d:	9d                   	popfq  
ffffffff8100591e:	48 cf                	iretq  

ffffffff81005920 <isr_131>:
ffffffff81005920:	9c                   	pushfq 
ffffffff81005921:	50                   	push   %rax
ffffffff81005922:	53                   	push   %rbx
ffffffff81005923:	51                   	push   %rcx
ffffffff81005924:	52                   	push   %rdx
ffffffff81005925:	56                   	push   %rsi
ffffffff81005926:	57                   	push   %rdi
ffffffff81005927:	54                   	push   %rsp
ffffffff81005928:	55                   	push   %rbp
ffffffff81005929:	41 50                	push   %r8
ffffffff8100592b:	41 51                	push   %r9
ffffffff8100592d:	41 52                	push   %r10
ffffffff8100592f:	41 53                	push   %r11
ffffffff81005931:	41 54                	push   %r12
ffffffff81005933:	41 55                	push   %r13
ffffffff81005935:	41 56                	push   %r14
ffffffff81005937:	41 57                	push   %r15
ffffffff81005939:	fc                   	cld    
ffffffff8100593a:	bf 83 00 00 00       	mov    $0x83,%edi
ffffffff8100593f:	be 00 00 00 00       	mov    $0x0,%esi
ffffffff81005944:	e8 ae db ff ff       	callq  ffffffff810034f7 <isr_dispatcher>
ffffffff81005949:	41 5f                	pop    %r15
ffffffff8100594b:	41 5e                	pop    %r14
ffffffff8100594d:	41 5d                	pop    %r13
ffffffff8100594f:	41 5c                	pop    %r12
ffffffff81005951:	41 5b                	pop    %r11
ffffffff81005953:	41 5a                	pop    %r10
ffffffff81005955:	41 59                	pop    %r9
ffffffff81005957:	41 58                	pop    %r8
ffffffff81005959:	5d                   	pop    %rbp
ffffffff8100595a:	5c                   	pop    %rsp
ffffffff8100595b:	5f                   	pop    %rdi
ffffffff8100595c:	5e                   	pop    %rsi
ffffffff8100595d:	5a                   	pop    %rdx
ffffffff8100595e:	59                   	pop    %rcx
ffffffff8100595f:	5b                   	pop    %rbx
ffffffff81005960:	58                   	pop    %rax
ffffffff81005961:	9d                   	popfq  
ffffffff81005962:	48 cf                	iretq  

ffffffff81005964 <isr_132>:
ffffffff81005964:	9c                   	pushfq 
ffffffff81005965:	50                   	push   %rax
ffffffff81005966:	53                   	push   %rbx
ffffffff81005967:	51                   	push   %rcx
ffffffff81005968:	52                   	push   %rdx
ffffffff81005969:	56                   	push   %rsi
ffffffff8100596a:	57                   	push   %rdi
ffffffff8100596b:	54                   	push   %rsp
ffffffff8100596c:	55                   	push   %rbp
ffffffff8100596d:	41 50                	push   %r8
ffffffff8100596f:	41 51                	push   %r9
ffffffff81005971:	41 52                	push   %r10
ffffffff81005973:	41 53                	push   %r11
ffffffff81005975:	41 54                	push   %r12
ffffffff81005977:	41 55                	push   %r13
ffffffff81005979:	41 56                	push   %r14
ffffffff8100597b:	41 57                	push   %r15
ffffffff8100597d:	fc                   	cld    
ffffffff8100597e:	bf 84 00 00 00       	mov    $0x84,%edi
ffffffff81005983:	be 00 00 00 00       	mov    $0x0,%esi
ffffffff81005988:	e8 6a db ff ff       	callq  ffffffff810034f7 <isr_dispatcher>
ffffffff8100598d:	41 5f                	pop    %r15
ffffffff8100598f:	41 5e                	pop    %r14
ffffffff81005991:	41 5d                	pop    %r13
ffffffff81005993:	41 5c                	pop    %r12
ffffffff81005995:	41 5b                	pop    %r11
ffffffff81005997:	41 5a                	pop    %r10
ffffffff81005999:	41 59                	pop    %r9
ffffffff8100599b:	41 58                	pop    %r8
ffffffff8100599d:	5d                   	pop    %rbp
ffffffff8100599e:	5c                   	pop    %rsp
ffffffff8100599f:	5f                   	pop    %rdi
ffffffff810059a0:	5e                   	pop    %rsi
ffffffff810059a1:	5a                   	pop    %rdx
ffffffff810059a2:	59                   	pop    %rcx
ffffffff810059a3:	5b                   	pop    %rbx
ffffffff810059a4:	58                   	pop    %rax
ffffffff810059a5:	9d                   	popfq  
ffffffff810059a6:	48 cf                	iretq  

ffffffff810059a8 <isr_133>:
ffffffff810059a8:	9c                   	pushfq 
ffffffff810059a9:	50                   	push   %rax
ffffffff810059aa:	53                   	push   %rbx
ffffffff810059ab:	51                   	push   %rcx
ffffffff810059ac:	52                   	push   %rdx
ffffffff810059ad:	56                   	push   %rsi
ffffffff810059ae:	57                   	push   %rdi
ffffffff810059af:	54                   	push   %rsp
ffffffff810059b0:	55                   	push   %rbp
ffffffff810059b1:	41 50                	push   %r8
ffffffff810059b3:	41 51                	push   %r9
ffffffff810059b5:	41 52                	push   %r10
ffffffff810059b7:	41 53                	push   %r11
ffffffff810059b9:	41 54                	push   %r12
ffffffff810059bb:	41 55                	push   %r13
ffffffff810059bd:	41 56                	push   %r14
ffffffff810059bf:	41 57                	push   %r15
ffffffff810059c1:	fc                   	cld    
ffffffff810059c2:	bf 85 00 00 00       	mov    $0x85,%edi
ffffffff810059c7:	be 00 00 00 00       	mov    $0x0,%esi
ffffffff810059cc:	e8 26 db ff ff       	callq  ffffffff810034f7 <isr_dispatcher>
ffffffff810059d1:	41 5f                	pop    %r15
ffffffff810059d3:	41 5e                	pop    %r14
ffffffff810059d5:	41 5d                	pop    %r13
ffffffff810059d7:	41 5c                	pop    %r12
ffffffff810059d9:	41 5b                	pop    %r11
ffffffff810059db:	41 5a                	pop    %r10
ffffffff810059dd:	41 59                	pop    %r9
ffffffff810059df:	41 58                	pop    %r8
ffffffff810059e1:	5d                   	pop    %rbp
ffffffff810059e2:	5c                   	pop    %rsp
ffffffff810059e3:	5f                   	pop    %rdi
ffffffff810059e4:	5e                   	pop    %rsi
ffffffff810059e5:	5a                   	pop    %rdx
ffffffff810059e6:	59                   	pop    %rcx
ffffffff810059e7:	5b                   	pop    %rbx
ffffffff810059e8:	58                   	pop    %rax
ffffffff810059e9:	9d                   	popfq  
ffffffff810059ea:	48 cf                	iretq  

ffffffff810059ec <isr_134>:
ffffffff810059ec:	9c                   	pushfq 
ffffffff810059ed:	50                   	push   %rax
ffffffff810059ee:	53                   	push   %rbx
ffffffff810059ef:	51                   	push   %rcx
ffffffff810059f0:	52                   	push   %rdx
ffffffff810059f1:	56                   	push   %rsi
ffffffff810059f2:	57                   	push   %rdi
ffffffff810059f3:	54                   	push   %rsp
ffffffff810059f4:	55                   	push   %rbp
ffffffff810059f5:	41 50                	push   %r8
ffffffff810059f7:	41 51                	push   %r9
ffffffff810059f9:	41 52                	push   %r10
ffffffff810059fb:	41 53                	push   %r11
ffffffff810059fd:	41 54                	push   %r12
ffffffff810059ff:	41 55                	push   %r13
ffffffff81005a01:	41 56                	push   %r14
ffffffff81005a03:	41 57                	push   %r15
ffffffff81005a05:	fc                   	cld    
ffffffff81005a06:	bf 86 00 00 00       	mov    $0x86,%edi
ffffffff81005a0b:	be 00 00 00 00       	mov    $0x0,%esi
ffffffff81005a10:	e8 e2 da ff ff       	callq  ffffffff810034f7 <isr_dispatcher>
ffffffff81005a15:	41 5f                	pop    %r15
ffffffff81005a17:	41 5e                	pop    %r14
ffffffff81005a19:	41 5d                	pop    %r13
ffffffff81005a1b:	41 5c                	pop    %r12
ffffffff81005a1d:	41 5b                	pop    %r11
ffffffff81005a1f:	41 5a                	pop    %r10
ffffffff81005a21:	41 59                	pop    %r9
ffffffff81005a23:	41 58                	pop    %r8
ffffffff81005a25:	5d                   	pop    %rbp
ffffffff81005a26:	5c                   	pop    %rsp
ffffffff81005a27:	5f                   	pop    %rdi
ffffffff81005a28:	5e                   	pop    %rsi
ffffffff81005a29:	5a                   	pop    %rdx
ffffffff81005a2a:	59                   	pop    %rcx
ffffffff81005a2b:	5b                   	pop    %rbx
ffffffff81005a2c:	58                   	pop    %rax
ffffffff81005a2d:	9d                   	popfq  
ffffffff81005a2e:	48 cf                	iretq  

ffffffff81005a30 <isr_135>:
ffffffff81005a30:	9c                   	pushfq 
ffffffff81005a31:	50                   	push   %rax
ffffffff81005a32:	53                   	push   %rbx
ffffffff81005a33:	51                   	push   %rcx
ffffffff81005a34:	52                   	push   %rdx
ffffffff81005a35:	56                   	push   %rsi
ffffffff81005a36:	57                   	push   %rdi
ffffffff81005a37:	54                   	push   %rsp
ffffffff81005a38:	55                   	push   %rbp
ffffffff81005a39:	41 50                	push   %r8
ffffffff81005a3b:	41 51                	push   %r9
ffffffff81005a3d:	41 52                	push   %r10
ffffffff81005a3f:	41 53                	push   %r11
ffffffff81005a41:	41 54                	push   %r12
ffffffff81005a43:	41 55                	push   %r13
ffffffff81005a45:	41 56                	push   %r14
ffffffff81005a47:	41 57                	push   %r15
ffffffff81005a49:	fc                   	cld    
ffffffff81005a4a:	bf 87 00 00 00       	mov    $0x87,%edi
ffffffff81005a4f:	be 00 00 00 00       	mov    $0x0,%esi
ffffffff81005a54:	e8 9e da ff ff       	callq  ffffffff810034f7 <isr_dispatcher>
ffffffff81005a59:	41 5f                	pop    %r15
ffffffff81005a5b:	41 5e                	pop    %r14
ffffffff81005a5d:	41 5d                	pop    %r13
ffffffff81005a5f:	41 5c                	pop    %r12
ffffffff81005a61:	41 5b                	pop    %r11
ffffffff81005a63:	41 5a                	pop    %r10
ffffffff81005a65:	41 59                	pop    %r9
ffffffff81005a67:	41 58                	pop    %r8
ffffffff81005a69:	5d                   	pop    %rbp
ffffffff81005a6a:	5c                   	pop    %rsp
ffffffff81005a6b:	5f                   	pop    %rdi
ffffffff81005a6c:	5e                   	pop    %rsi
ffffffff81005a6d:	5a                   	pop    %rdx
ffffffff81005a6e:	59                   	pop    %rcx
ffffffff81005a6f:	5b                   	pop    %rbx
ffffffff81005a70:	58                   	pop    %rax
ffffffff81005a71:	9d                   	popfq  
ffffffff81005a72:	48 cf                	iretq  

ffffffff81005a74 <isr_136>:
ffffffff81005a74:	9c                   	pushfq 
ffffffff81005a75:	50                   	push   %rax
ffffffff81005a76:	53                   	push   %rbx
ffffffff81005a77:	51                   	push   %rcx
ffffffff81005a78:	52                   	push   %rdx
ffffffff81005a79:	56                   	push   %rsi
ffffffff81005a7a:	57                   	push   %rdi
ffffffff81005a7b:	54                   	push   %rsp
ffffffff81005a7c:	55                   	push   %rbp
ffffffff81005a7d:	41 50                	push   %r8
ffffffff81005a7f:	41 51                	push   %r9
ffffffff81005a81:	41 52                	push   %r10
ffffffff81005a83:	41 53                	push   %r11
ffffffff81005a85:	41 54                	push   %r12
ffffffff81005a87:	41 55                	push   %r13
ffffffff81005a89:	41 56                	push   %r14
ffffffff81005a8b:	41 57                	push   %r15
ffffffff81005a8d:	fc                   	cld    
ffffffff81005a8e:	bf 88 00 00 00       	mov    $0x88,%edi
ffffffff81005a93:	be 00 00 00 00       	mov    $0x0,%esi
ffffffff81005a98:	e8 5a da ff ff       	callq  ffffffff810034f7 <isr_dispatcher>
ffffffff81005a9d:	41 5f                	pop    %r15
ffffffff81005a9f:	41 5e                	pop    %r14
ffffffff81005aa1:	41 5d                	pop    %r13
ffffffff81005aa3:	41 5c                	pop    %r12
ffffffff81005aa5:	41 5b                	pop    %r11
ffffffff81005aa7:	41 5a                	pop    %r10
ffffffff81005aa9:	41 59                	pop    %r9
ffffffff81005aab:	41 58                	pop    %r8
ffffffff81005aad:	5d                   	pop    %rbp
ffffffff81005aae:	5c                   	pop    %rsp
ffffffff81005aaf:	5f                   	pop    %rdi
ffffffff81005ab0:	5e                   	pop    %rsi
ffffffff81005ab1:	5a                   	pop    %rdx
ffffffff81005ab2:	59                   	pop    %rcx
ffffffff81005ab3:	5b                   	pop    %rbx
ffffffff81005ab4:	58                   	pop    %rax
ffffffff81005ab5:	9d                   	popfq  
ffffffff81005ab6:	48 cf                	iretq  

ffffffff81005ab8 <isr_137>:
ffffffff81005ab8:	9c                   	pushfq 
ffffffff81005ab9:	50                   	push   %rax
ffffffff81005aba:	53                   	push   %rbx
ffffffff81005abb:	51                   	push   %rcx
ffffffff81005abc:	52                   	push   %rdx
ffffffff81005abd:	56                   	push   %rsi
ffffffff81005abe:	57                   	push   %rdi
ffffffff81005abf:	54                   	push   %rsp
ffffffff81005ac0:	55                   	push   %rbp
ffffffff81005ac1:	41 50                	push   %r8
ffffffff81005ac3:	41 51                	push   %r9
ffffffff81005ac5:	41 52                	push   %r10
ffffffff81005ac7:	41 53                	push   %r11
ffffffff81005ac9:	41 54                	push   %r12
ffffffff81005acb:	41 55                	push   %r13
ffffffff81005acd:	41 56                	push   %r14
ffffffff81005acf:	41 57                	push   %r15
ffffffff81005ad1:	fc                   	cld    
ffffffff81005ad2:	bf 89 00 00 00       	mov    $0x89,%edi
ffffffff81005ad7:	be 00 00 00 00       	mov    $0x0,%esi
ffffffff81005adc:	e8 16 da ff ff       	callq  ffffffff810034f7 <isr_dispatcher>
ffffffff81005ae1:	41 5f                	pop    %r15
ffffffff81005ae3:	41 5e                	pop    %r14
ffffffff81005ae5:	41 5d                	pop    %r13
ffffffff81005ae7:	41 5c                	pop    %r12
ffffffff81005ae9:	41 5b                	pop    %r11
ffffffff81005aeb:	41 5a                	pop    %r10
ffffffff81005aed:	41 59                	pop    %r9
ffffffff81005aef:	41 58                	pop    %r8
ffffffff81005af1:	5d                   	pop    %rbp
ffffffff81005af2:	5c                   	pop    %rsp
ffffffff81005af3:	5f                   	pop    %rdi
ffffffff81005af4:	5e                   	pop    %rsi
ffffffff81005af5:	5a                   	pop    %rdx
ffffffff81005af6:	59                   	pop    %rcx
ffffffff81005af7:	5b                   	pop    %rbx
ffffffff81005af8:	58                   	pop    %rax
ffffffff81005af9:	9d                   	popfq  
ffffffff81005afa:	48 cf                	iretq  

ffffffff81005afc <isr_138>:
ffffffff81005afc:	9c                   	pushfq 
ffffffff81005afd:	50                   	push   %rax
ffffffff81005afe:	53                   	push   %rbx
ffffffff81005aff:	51                   	push   %rcx
ffffffff81005b00:	52                   	push   %rdx
ffffffff81005b01:	56                   	push   %rsi
ffffffff81005b02:	57                   	push   %rdi
ffffffff81005b03:	54                   	push   %rsp
ffffffff81005b04:	55                   	push   %rbp
ffffffff81005b05:	41 50                	push   %r8
ffffffff81005b07:	41 51                	push   %r9
ffffffff81005b09:	41 52                	push   %r10
ffffffff81005b0b:	41 53                	push   %r11
ffffffff81005b0d:	41 54                	push   %r12
ffffffff81005b0f:	41 55                	push   %r13
ffffffff81005b11:	41 56                	push   %r14
ffffffff81005b13:	41 57                	push   %r15
ffffffff81005b15:	fc                   	cld    
ffffffff81005b16:	bf 8a 00 00 00       	mov    $0x8a,%edi
ffffffff81005b1b:	be 00 00 00 00       	mov    $0x0,%esi
ffffffff81005b20:	e8 d2 d9 ff ff       	callq  ffffffff810034f7 <isr_dispatcher>
ffffffff81005b25:	41 5f                	pop    %r15
ffffffff81005b27:	41 5e                	pop    %r14
ffffffff81005b29:	41 5d                	pop    %r13
ffffffff81005b2b:	41 5c                	pop    %r12
ffffffff81005b2d:	41 5b                	pop    %r11
ffffffff81005b2f:	41 5a                	pop    %r10
ffffffff81005b31:	41 59                	pop    %r9
ffffffff81005b33:	41 58                	pop    %r8
ffffffff81005b35:	5d                   	pop    %rbp
ffffffff81005b36:	5c                   	pop    %rsp
ffffffff81005b37:	5f                   	pop    %rdi
ffffffff81005b38:	5e                   	pop    %rsi
ffffffff81005b39:	5a                   	pop    %rdx
ffffffff81005b3a:	59                   	pop    %rcx
ffffffff81005b3b:	5b                   	pop    %rbx
ffffffff81005b3c:	58                   	pop    %rax
ffffffff81005b3d:	9d                   	popfq  
ffffffff81005b3e:	48 cf                	iretq  

ffffffff81005b40 <isr_139>:
ffffffff81005b40:	9c                   	pushfq 
ffffffff81005b41:	50                   	push   %rax
ffffffff81005b42:	53                   	push   %rbx
ffffffff81005b43:	51                   	push   %rcx
ffffffff81005b44:	52                   	push   %rdx
ffffffff81005b45:	56                   	push   %rsi
ffffffff81005b46:	57                   	push   %rdi
ffffffff81005b47:	54                   	push   %rsp
ffffffff81005b48:	55                   	push   %rbp
ffffffff81005b49:	41 50                	push   %r8
ffffffff81005b4b:	41 51                	push   %r9
ffffffff81005b4d:	41 52                	push   %r10
ffffffff81005b4f:	41 53                	push   %r11
ffffffff81005b51:	41 54                	push   %r12
ffffffff81005b53:	41 55                	push   %r13
ffffffff81005b55:	41 56                	push   %r14
ffffffff81005b57:	41 57                	push   %r15
ffffffff81005b59:	fc                   	cld    
ffffffff81005b5a:	bf 8b 00 00 00       	mov    $0x8b,%edi
ffffffff81005b5f:	be 00 00 00 00       	mov    $0x0,%esi
ffffffff81005b64:	e8 8e d9 ff ff       	callq  ffffffff810034f7 <isr_dispatcher>
ffffffff81005b69:	41 5f                	pop    %r15
ffffffff81005b6b:	41 5e                	pop    %r14
ffffffff81005b6d:	41 5d                	pop    %r13
ffffffff81005b6f:	41 5c                	pop    %r12
ffffffff81005b71:	41 5b                	pop    %r11
ffffffff81005b73:	41 5a                	pop    %r10
ffffffff81005b75:	41 59                	pop    %r9
ffffffff81005b77:	41 58                	pop    %r8
ffffffff81005b79:	5d                   	pop    %rbp
ffffffff81005b7a:	5c                   	pop    %rsp
ffffffff81005b7b:	5f                   	pop    %rdi
ffffffff81005b7c:	5e                   	pop    %rsi
ffffffff81005b7d:	5a                   	pop    %rdx
ffffffff81005b7e:	59                   	pop    %rcx
ffffffff81005b7f:	5b                   	pop    %rbx
ffffffff81005b80:	58                   	pop    %rax
ffffffff81005b81:	9d                   	popfq  
ffffffff81005b82:	48 cf                	iretq  

ffffffff81005b84 <isr_140>:
ffffffff81005b84:	9c                   	pushfq 
ffffffff81005b85:	50                   	push   %rax
ffffffff81005b86:	53                   	push   %rbx
ffffffff81005b87:	51                   	push   %rcx
ffffffff81005b88:	52                   	push   %rdx
ffffffff81005b89:	56                   	push   %rsi
ffffffff81005b8a:	57                   	push   %rdi
ffffffff81005b8b:	54                   	push   %rsp
ffffffff81005b8c:	55                   	push   %rbp
ffffffff81005b8d:	41 50                	push   %r8
ffffffff81005b8f:	41 51                	push   %r9
ffffffff81005b91:	41 52                	push   %r10
ffffffff81005b93:	41 53                	push   %r11
ffffffff81005b95:	41 54                	push   %r12
ffffffff81005b97:	41 55                	push   %r13
ffffffff81005b99:	41 56                	push   %r14
ffffffff81005b9b:	41 57                	push   %r15
ffffffff81005b9d:	fc                   	cld    
ffffffff81005b9e:	bf 8c 00 00 00       	mov    $0x8c,%edi
ffffffff81005ba3:	be 00 00 00 00       	mov    $0x0,%esi
ffffffff81005ba8:	e8 4a d9 ff ff       	callq  ffffffff810034f7 <isr_dispatcher>
ffffffff81005bad:	41 5f                	pop    %r15
ffffffff81005baf:	41 5e                	pop    %r14
ffffffff81005bb1:	41 5d                	pop    %r13
ffffffff81005bb3:	41 5c                	pop    %r12
ffffffff81005bb5:	41 5b                	pop    %r11
ffffffff81005bb7:	41 5a                	pop    %r10
ffffffff81005bb9:	41 59                	pop    %r9
ffffffff81005bbb:	41 58                	pop    %r8
ffffffff81005bbd:	5d                   	pop    %rbp
ffffffff81005bbe:	5c                   	pop    %rsp
ffffffff81005bbf:	5f                   	pop    %rdi
ffffffff81005bc0:	5e                   	pop    %rsi
ffffffff81005bc1:	5a                   	pop    %rdx
ffffffff81005bc2:	59                   	pop    %rcx
ffffffff81005bc3:	5b                   	pop    %rbx
ffffffff81005bc4:	58                   	pop    %rax
ffffffff81005bc5:	9d                   	popfq  
ffffffff81005bc6:	48 cf                	iretq  

ffffffff81005bc8 <isr_141>:
ffffffff81005bc8:	9c                   	pushfq 
ffffffff81005bc9:	50                   	push   %rax
ffffffff81005bca:	53                   	push   %rbx
ffffffff81005bcb:	51                   	push   %rcx
ffffffff81005bcc:	52                   	push   %rdx
ffffffff81005bcd:	56                   	push   %rsi
ffffffff81005bce:	57                   	push   %rdi
ffffffff81005bcf:	54                   	push   %rsp
ffffffff81005bd0:	55                   	push   %rbp
ffffffff81005bd1:	41 50                	push   %r8
ffffffff81005bd3:	41 51                	push   %r9
ffffffff81005bd5:	41 52                	push   %r10
ffffffff81005bd7:	41 53                	push   %r11
ffffffff81005bd9:	41 54                	push   %r12
ffffffff81005bdb:	41 55                	push   %r13
ffffffff81005bdd:	41 56                	push   %r14
ffffffff81005bdf:	41 57                	push   %r15
ffffffff81005be1:	fc                   	cld    
ffffffff81005be2:	bf 8d 00 00 00       	mov    $0x8d,%edi
ffffffff81005be7:	be 00 00 00 00       	mov    $0x0,%esi
ffffffff81005bec:	e8 06 d9 ff ff       	callq  ffffffff810034f7 <isr_dispatcher>
ffffffff81005bf1:	41 5f                	pop    %r15
ffffffff81005bf3:	41 5e                	pop    %r14
ffffffff81005bf5:	41 5d                	pop    %r13
ffffffff81005bf7:	41 5c                	pop    %r12
ffffffff81005bf9:	41 5b                	pop    %r11
ffffffff81005bfb:	41 5a                	pop    %r10
ffffffff81005bfd:	41 59                	pop    %r9
ffffffff81005bff:	41 58                	pop    %r8
ffffffff81005c01:	5d                   	pop    %rbp
ffffffff81005c02:	5c                   	pop    %rsp
ffffffff81005c03:	5f                   	pop    %rdi
ffffffff81005c04:	5e                   	pop    %rsi
ffffffff81005c05:	5a                   	pop    %rdx
ffffffff81005c06:	59                   	pop    %rcx
ffffffff81005c07:	5b                   	pop    %rbx
ffffffff81005c08:	58                   	pop    %rax
ffffffff81005c09:	9d                   	popfq  
ffffffff81005c0a:	48 cf                	iretq  

ffffffff81005c0c <isr_142>:
ffffffff81005c0c:	9c                   	pushfq 
ffffffff81005c0d:	50                   	push   %rax
ffffffff81005c0e:	53                   	push   %rbx
ffffffff81005c0f:	51                   	push   %rcx
ffffffff81005c10:	52                   	push   %rdx
ffffffff81005c11:	56                   	push   %rsi
ffffffff81005c12:	57                   	push   %rdi
ffffffff81005c13:	54                   	push   %rsp
ffffffff81005c14:	55                   	push   %rbp
ffffffff81005c15:	41 50                	push   %r8
ffffffff81005c17:	41 51                	push   %r9
ffffffff81005c19:	41 52                	push   %r10
ffffffff81005c1b:	41 53                	push   %r11
ffffffff81005c1d:	41 54                	push   %r12
ffffffff81005c1f:	41 55                	push   %r13
ffffffff81005c21:	41 56                	push   %r14
ffffffff81005c23:	41 57                	push   %r15
ffffffff81005c25:	fc                   	cld    
ffffffff81005c26:	bf 8e 00 00 00       	mov    $0x8e,%edi
ffffffff81005c2b:	be 00 00 00 00       	mov    $0x0,%esi
ffffffff81005c30:	e8 c2 d8 ff ff       	callq  ffffffff810034f7 <isr_dispatcher>
ffffffff81005c35:	41 5f                	pop    %r15
ffffffff81005c37:	41 5e                	pop    %r14
ffffffff81005c39:	41 5d                	pop    %r13
ffffffff81005c3b:	41 5c                	pop    %r12
ffffffff81005c3d:	41 5b                	pop    %r11
ffffffff81005c3f:	41 5a                	pop    %r10
ffffffff81005c41:	41 59                	pop    %r9
ffffffff81005c43:	41 58                	pop    %r8
ffffffff81005c45:	5d                   	pop    %rbp
ffffffff81005c46:	5c                   	pop    %rsp
ffffffff81005c47:	5f                   	pop    %rdi
ffffffff81005c48:	5e                   	pop    %rsi
ffffffff81005c49:	5a                   	pop    %rdx
ffffffff81005c4a:	59                   	pop    %rcx
ffffffff81005c4b:	5b                   	pop    %rbx
ffffffff81005c4c:	58                   	pop    %rax
ffffffff81005c4d:	9d                   	popfq  
ffffffff81005c4e:	48 cf                	iretq  

ffffffff81005c50 <isr_143>:
ffffffff81005c50:	9c                   	pushfq 
ffffffff81005c51:	50                   	push   %rax
ffffffff81005c52:	53                   	push   %rbx
ffffffff81005c53:	51                   	push   %rcx
ffffffff81005c54:	52                   	push   %rdx
ffffffff81005c55:	56                   	push   %rsi
ffffffff81005c56:	57                   	push   %rdi
ffffffff81005c57:	54                   	push   %rsp
ffffffff81005c58:	55                   	push   %rbp
ffffffff81005c59:	41 50                	push   %r8
ffffffff81005c5b:	41 51                	push   %r9
ffffffff81005c5d:	41 52                	push   %r10
ffffffff81005c5f:	41 53                	push   %r11
ffffffff81005c61:	41 54                	push   %r12
ffffffff81005c63:	41 55                	push   %r13
ffffffff81005c65:	41 56                	push   %r14
ffffffff81005c67:	41 57                	push   %r15
ffffffff81005c69:	fc                   	cld    
ffffffff81005c6a:	bf 8f 00 00 00       	mov    $0x8f,%edi
ffffffff81005c6f:	be 00 00 00 00       	mov    $0x0,%esi
ffffffff81005c74:	e8 7e d8 ff ff       	callq  ffffffff810034f7 <isr_dispatcher>
ffffffff81005c79:	41 5f                	pop    %r15
ffffffff81005c7b:	41 5e                	pop    %r14
ffffffff81005c7d:	41 5d                	pop    %r13
ffffffff81005c7f:	41 5c                	pop    %r12
ffffffff81005c81:	41 5b                	pop    %r11
ffffffff81005c83:	41 5a                	pop    %r10
ffffffff81005c85:	41 59                	pop    %r9
ffffffff81005c87:	41 58                	pop    %r8
ffffffff81005c89:	5d                   	pop    %rbp
ffffffff81005c8a:	5c                   	pop    %rsp
ffffffff81005c8b:	5f                   	pop    %rdi
ffffffff81005c8c:	5e                   	pop    %rsi
ffffffff81005c8d:	5a                   	pop    %rdx
ffffffff81005c8e:	59                   	pop    %rcx
ffffffff81005c8f:	5b                   	pop    %rbx
ffffffff81005c90:	58                   	pop    %rax
ffffffff81005c91:	9d                   	popfq  
ffffffff81005c92:	48 cf                	iretq  

ffffffff81005c94 <isr_144>:
ffffffff81005c94:	9c                   	pushfq 
ffffffff81005c95:	50                   	push   %rax
ffffffff81005c96:	53                   	push   %rbx
ffffffff81005c97:	51                   	push   %rcx
ffffffff81005c98:	52                   	push   %rdx
ffffffff81005c99:	56                   	push   %rsi
ffffffff81005c9a:	57                   	push   %rdi
ffffffff81005c9b:	54                   	push   %rsp
ffffffff81005c9c:	55                   	push   %rbp
ffffffff81005c9d:	41 50                	push   %r8
ffffffff81005c9f:	41 51                	push   %r9
ffffffff81005ca1:	41 52                	push   %r10
ffffffff81005ca3:	41 53                	push   %r11
ffffffff81005ca5:	41 54                	push   %r12
ffffffff81005ca7:	41 55                	push   %r13
ffffffff81005ca9:	41 56                	push   %r14
ffffffff81005cab:	41 57                	push   %r15
ffffffff81005cad:	fc                   	cld    
ffffffff81005cae:	bf 90 00 00 00       	mov    $0x90,%edi
ffffffff81005cb3:	be 00 00 00 00       	mov    $0x0,%esi
ffffffff81005cb8:	e8 3a d8 ff ff       	callq  ffffffff810034f7 <isr_dispatcher>
ffffffff81005cbd:	41 5f                	pop    %r15
ffffffff81005cbf:	41 5e                	pop    %r14
ffffffff81005cc1:	41 5d                	pop    %r13
ffffffff81005cc3:	41 5c                	pop    %r12
ffffffff81005cc5:	41 5b                	pop    %r11
ffffffff81005cc7:	41 5a                	pop    %r10
ffffffff81005cc9:	41 59                	pop    %r9
ffffffff81005ccb:	41 58                	pop    %r8
ffffffff81005ccd:	5d                   	pop    %rbp
ffffffff81005cce:	5c                   	pop    %rsp
ffffffff81005ccf:	5f                   	pop    %rdi
ffffffff81005cd0:	5e                   	pop    %rsi
ffffffff81005cd1:	5a                   	pop    %rdx
ffffffff81005cd2:	59                   	pop    %rcx
ffffffff81005cd3:	5b                   	pop    %rbx
ffffffff81005cd4:	58                   	pop    %rax
ffffffff81005cd5:	9d                   	popfq  
ffffffff81005cd6:	48 cf                	iretq  

ffffffff81005cd8 <isr_145>:
ffffffff81005cd8:	9c                   	pushfq 
ffffffff81005cd9:	50                   	push   %rax
ffffffff81005cda:	53                   	push   %rbx
ffffffff81005cdb:	51                   	push   %rcx
ffffffff81005cdc:	52                   	push   %rdx
ffffffff81005cdd:	56                   	push   %rsi
ffffffff81005cde:	57                   	push   %rdi
ffffffff81005cdf:	54                   	push   %rsp
ffffffff81005ce0:	55                   	push   %rbp
ffffffff81005ce1:	41 50                	push   %r8
ffffffff81005ce3:	41 51                	push   %r9
ffffffff81005ce5:	41 52                	push   %r10
ffffffff81005ce7:	41 53                	push   %r11
ffffffff81005ce9:	41 54                	push   %r12
ffffffff81005ceb:	41 55                	push   %r13
ffffffff81005ced:	41 56                	push   %r14
ffffffff81005cef:	41 57                	push   %r15
ffffffff81005cf1:	fc                   	cld    
ffffffff81005cf2:	bf 91 00 00 00       	mov    $0x91,%edi
ffffffff81005cf7:	be 00 00 00 00       	mov    $0x0,%esi
ffffffff81005cfc:	e8 f6 d7 ff ff       	callq  ffffffff810034f7 <isr_dispatcher>
ffffffff81005d01:	41 5f                	pop    %r15
ffffffff81005d03:	41 5e                	pop    %r14
ffffffff81005d05:	41 5d                	pop    %r13
ffffffff81005d07:	41 5c                	pop    %r12
ffffffff81005d09:	41 5b                	pop    %r11
ffffffff81005d0b:	41 5a                	pop    %r10
ffffffff81005d0d:	41 59                	pop    %r9
ffffffff81005d0f:	41 58                	pop    %r8
ffffffff81005d11:	5d                   	pop    %rbp
ffffffff81005d12:	5c                   	pop    %rsp
ffffffff81005d13:	5f                   	pop    %rdi
ffffffff81005d14:	5e                   	pop    %rsi
ffffffff81005d15:	5a                   	pop    %rdx
ffffffff81005d16:	59                   	pop    %rcx
ffffffff81005d17:	5b                   	pop    %rbx
ffffffff81005d18:	58                   	pop    %rax
ffffffff81005d19:	9d                   	popfq  
ffffffff81005d1a:	48 cf                	iretq  

ffffffff81005d1c <isr_146>:
ffffffff81005d1c:	9c                   	pushfq 
ffffffff81005d1d:	50                   	push   %rax
ffffffff81005d1e:	53                   	push   %rbx
ffffffff81005d1f:	51                   	push   %rcx
ffffffff81005d20:	52                   	push   %rdx
ffffffff81005d21:	56                   	push   %rsi
ffffffff81005d22:	57                   	push   %rdi
ffffffff81005d23:	54                   	push   %rsp
ffffffff81005d24:	55                   	push   %rbp
ffffffff81005d25:	41 50                	push   %r8
ffffffff81005d27:	41 51                	push   %r9
ffffffff81005d29:	41 52                	push   %r10
ffffffff81005d2b:	41 53                	push   %r11
ffffffff81005d2d:	41 54                	push   %r12
ffffffff81005d2f:	41 55                	push   %r13
ffffffff81005d31:	41 56                	push   %r14
ffffffff81005d33:	41 57                	push   %r15
ffffffff81005d35:	fc                   	cld    
ffffffff81005d36:	bf 92 00 00 00       	mov    $0x92,%edi
ffffffff81005d3b:	be 00 00 00 00       	mov    $0x0,%esi
ffffffff81005d40:	e8 b2 d7 ff ff       	callq  ffffffff810034f7 <isr_dispatcher>
ffffffff81005d45:	41 5f                	pop    %r15
ffffffff81005d47:	41 5e                	pop    %r14
ffffffff81005d49:	41 5d                	pop    %r13
ffffffff81005d4b:	41 5c                	pop    %r12
ffffffff81005d4d:	41 5b                	pop    %r11
ffffffff81005d4f:	41 5a                	pop    %r10
ffffffff81005d51:	41 59                	pop    %r9
ffffffff81005d53:	41 58                	pop    %r8
ffffffff81005d55:	5d                   	pop    %rbp
ffffffff81005d56:	5c                   	pop    %rsp
ffffffff81005d57:	5f                   	pop    %rdi
ffffffff81005d58:	5e                   	pop    %rsi
ffffffff81005d59:	5a                   	pop    %rdx
ffffffff81005d5a:	59                   	pop    %rcx
ffffffff81005d5b:	5b                   	pop    %rbx
ffffffff81005d5c:	58                   	pop    %rax
ffffffff81005d5d:	9d                   	popfq  
ffffffff81005d5e:	48 cf                	iretq  

ffffffff81005d60 <isr_147>:
ffffffff81005d60:	9c                   	pushfq 
ffffffff81005d61:	50                   	push   %rax
ffffffff81005d62:	53                   	push   %rbx
ffffffff81005d63:	51                   	push   %rcx
ffffffff81005d64:	52                   	push   %rdx
ffffffff81005d65:	56                   	push   %rsi
ffffffff81005d66:	57                   	push   %rdi
ffffffff81005d67:	54                   	push   %rsp
ffffffff81005d68:	55                   	push   %rbp
ffffffff81005d69:	41 50                	push   %r8
ffffffff81005d6b:	41 51                	push   %r9
ffffffff81005d6d:	41 52                	push   %r10
ffffffff81005d6f:	41 53                	push   %r11
ffffffff81005d71:	41 54                	push   %r12
ffffffff81005d73:	41 55                	push   %r13
ffffffff81005d75:	41 56                	push   %r14
ffffffff81005d77:	41 57                	push   %r15
ffffffff81005d79:	fc                   	cld    
ffffffff81005d7a:	bf 93 00 00 00       	mov    $0x93,%edi
ffffffff81005d7f:	be 00 00 00 00       	mov    $0x0,%esi
ffffffff81005d84:	e8 6e d7 ff ff       	callq  ffffffff810034f7 <isr_dispatcher>
ffffffff81005d89:	41 5f                	pop    %r15
ffffffff81005d8b:	41 5e                	pop    %r14
ffffffff81005d8d:	41 5d                	pop    %r13
ffffffff81005d8f:	41 5c                	pop    %r12
ffffffff81005d91:	41 5b                	pop    %r11
ffffffff81005d93:	41 5a                	pop    %r10
ffffffff81005d95:	41 59                	pop    %r9
ffffffff81005d97:	41 58                	pop    %r8
ffffffff81005d99:	5d                   	pop    %rbp
ffffffff81005d9a:	5c                   	pop    %rsp
ffffffff81005d9b:	5f                   	pop    %rdi
ffffffff81005d9c:	5e                   	pop    %rsi
ffffffff81005d9d:	5a                   	pop    %rdx
ffffffff81005d9e:	59                   	pop    %rcx
ffffffff81005d9f:	5b                   	pop    %rbx
ffffffff81005da0:	58                   	pop    %rax
ffffffff81005da1:	9d                   	popfq  
ffffffff81005da2:	48 cf                	iretq  

ffffffff81005da4 <isr_148>:
ffffffff81005da4:	9c                   	pushfq 
ffffffff81005da5:	50                   	push   %rax
ffffffff81005da6:	53                   	push   %rbx
ffffffff81005da7:	51                   	push   %rcx
ffffffff81005da8:	52                   	push   %rdx
ffffffff81005da9:	56                   	push   %rsi
ffffffff81005daa:	57                   	push   %rdi
ffffffff81005dab:	54                   	push   %rsp
ffffffff81005dac:	55                   	push   %rbp
ffffffff81005dad:	41 50                	push   %r8
ffffffff81005daf:	41 51                	push   %r9
ffffffff81005db1:	41 52                	push   %r10
ffffffff81005db3:	41 53                	push   %r11
ffffffff81005db5:	41 54                	push   %r12
ffffffff81005db7:	41 55                	push   %r13
ffffffff81005db9:	41 56                	push   %r14
ffffffff81005dbb:	41 57                	push   %r15
ffffffff81005dbd:	fc                   	cld    
ffffffff81005dbe:	bf 94 00 00 00       	mov    $0x94,%edi
ffffffff81005dc3:	be 00 00 00 00       	mov    $0x0,%esi
ffffffff81005dc8:	e8 2a d7 ff ff       	callq  ffffffff810034f7 <isr_dispatcher>
ffffffff81005dcd:	41 5f                	pop    %r15
ffffffff81005dcf:	41 5e                	pop    %r14
ffffffff81005dd1:	41 5d                	pop    %r13
ffffffff81005dd3:	41 5c                	pop    %r12
ffffffff81005dd5:	41 5b                	pop    %r11
ffffffff81005dd7:	41 5a                	pop    %r10
ffffffff81005dd9:	41 59                	pop    %r9
ffffffff81005ddb:	41 58                	pop    %r8
ffffffff81005ddd:	5d                   	pop    %rbp
ffffffff81005dde:	5c                   	pop    %rsp
ffffffff81005ddf:	5f                   	pop    %rdi
ffffffff81005de0:	5e                   	pop    %rsi
ffffffff81005de1:	5a                   	pop    %rdx
ffffffff81005de2:	59                   	pop    %rcx
ffffffff81005de3:	5b                   	pop    %rbx
ffffffff81005de4:	58                   	pop    %rax
ffffffff81005de5:	9d                   	popfq  
ffffffff81005de6:	48 cf                	iretq  

ffffffff81005de8 <isr_149>:
ffffffff81005de8:	9c                   	pushfq 
ffffffff81005de9:	50                   	push   %rax
ffffffff81005dea:	53                   	push   %rbx
ffffffff81005deb:	51                   	push   %rcx
ffffffff81005dec:	52                   	push   %rdx
ffffffff81005ded:	56                   	push   %rsi
ffffffff81005dee:	57                   	push   %rdi
ffffffff81005def:	54                   	push   %rsp
ffffffff81005df0:	55                   	push   %rbp
ffffffff81005df1:	41 50                	push   %r8
ffffffff81005df3:	41 51                	push   %r9
ffffffff81005df5:	41 52                	push   %r10
ffffffff81005df7:	41 53                	push   %r11
ffffffff81005df9:	41 54                	push   %r12
ffffffff81005dfb:	41 55                	push   %r13
ffffffff81005dfd:	41 56                	push   %r14
ffffffff81005dff:	41 57                	push   %r15
ffffffff81005e01:	fc                   	cld    
ffffffff81005e02:	bf 95 00 00 00       	mov    $0x95,%edi
ffffffff81005e07:	be 00 00 00 00       	mov    $0x0,%esi
ffffffff81005e0c:	e8 e6 d6 ff ff       	callq  ffffffff810034f7 <isr_dispatcher>
ffffffff81005e11:	41 5f                	pop    %r15
ffffffff81005e13:	41 5e                	pop    %r14
ffffffff81005e15:	41 5d                	pop    %r13
ffffffff81005e17:	41 5c                	pop    %r12
ffffffff81005e19:	41 5b                	pop    %r11
ffffffff81005e1b:	41 5a                	pop    %r10
ffffffff81005e1d:	41 59                	pop    %r9
ffffffff81005e1f:	41 58                	pop    %r8
ffffffff81005e21:	5d                   	pop    %rbp
ffffffff81005e22:	5c                   	pop    %rsp
ffffffff81005e23:	5f                   	pop    %rdi
ffffffff81005e24:	5e                   	pop    %rsi
ffffffff81005e25:	5a                   	pop    %rdx
ffffffff81005e26:	59                   	pop    %rcx
ffffffff81005e27:	5b                   	pop    %rbx
ffffffff81005e28:	58                   	pop    %rax
ffffffff81005e29:	9d                   	popfq  
ffffffff81005e2a:	48 cf                	iretq  

ffffffff81005e2c <isr_150>:
ffffffff81005e2c:	9c                   	pushfq 
ffffffff81005e2d:	50                   	push   %rax
ffffffff81005e2e:	53                   	push   %rbx
ffffffff81005e2f:	51                   	push   %rcx
ffffffff81005e30:	52                   	push   %rdx
ffffffff81005e31:	56                   	push   %rsi
ffffffff81005e32:	57                   	push   %rdi
ffffffff81005e33:	54                   	push   %rsp
ffffffff81005e34:	55                   	push   %rbp
ffffffff81005e35:	41 50                	push   %r8
ffffffff81005e37:	41 51                	push   %r9
ffffffff81005e39:	41 52                	push   %r10
ffffffff81005e3b:	41 53                	push   %r11
ffffffff81005e3d:	41 54                	push   %r12
ffffffff81005e3f:	41 55                	push   %r13
ffffffff81005e41:	41 56                	push   %r14
ffffffff81005e43:	41 57                	push   %r15
ffffffff81005e45:	fc                   	cld    
ffffffff81005e46:	bf 96 00 00 00       	mov    $0x96,%edi
ffffffff81005e4b:	be 00 00 00 00       	mov    $0x0,%esi
ffffffff81005e50:	e8 a2 d6 ff ff       	callq  ffffffff810034f7 <isr_dispatcher>
ffffffff81005e55:	41 5f                	pop    %r15
ffffffff81005e57:	41 5e                	pop    %r14
ffffffff81005e59:	41 5d                	pop    %r13
ffffffff81005e5b:	41 5c                	pop    %r12
ffffffff81005e5d:	41 5b                	pop    %r11
ffffffff81005e5f:	41 5a                	pop    %r10
ffffffff81005e61:	41 59                	pop    %r9
ffffffff81005e63:	41 58                	pop    %r8
ffffffff81005e65:	5d                   	pop    %rbp
ffffffff81005e66:	5c                   	pop    %rsp
ffffffff81005e67:	5f                   	pop    %rdi
ffffffff81005e68:	5e                   	pop    %rsi
ffffffff81005e69:	5a                   	pop    %rdx
ffffffff81005e6a:	59                   	pop    %rcx
ffffffff81005e6b:	5b                   	pop    %rbx
ffffffff81005e6c:	58                   	pop    %rax
ffffffff81005e6d:	9d                   	popfq  
ffffffff81005e6e:	48 cf                	iretq  

ffffffff81005e70 <isr_151>:
ffffffff81005e70:	9c                   	pushfq 
ffffffff81005e71:	50                   	push   %rax
ffffffff81005e72:	53                   	push   %rbx
ffffffff81005e73:	51                   	push   %rcx
ffffffff81005e74:	52                   	push   %rdx
ffffffff81005e75:	56                   	push   %rsi
ffffffff81005e76:	57                   	push   %rdi
ffffffff81005e77:	54                   	push   %rsp
ffffffff81005e78:	55                   	push   %rbp
ffffffff81005e79:	41 50                	push   %r8
ffffffff81005e7b:	41 51                	push   %r9
ffffffff81005e7d:	41 52                	push   %r10
ffffffff81005e7f:	41 53                	push   %r11
ffffffff81005e81:	41 54                	push   %r12
ffffffff81005e83:	41 55                	push   %r13
ffffffff81005e85:	41 56                	push   %r14
ffffffff81005e87:	41 57                	push   %r15
ffffffff81005e89:	fc                   	cld    
ffffffff81005e8a:	bf 97 00 00 00       	mov    $0x97,%edi
ffffffff81005e8f:	be 00 00 00 00       	mov    $0x0,%esi
ffffffff81005e94:	e8 5e d6 ff ff       	callq  ffffffff810034f7 <isr_dispatcher>
ffffffff81005e99:	41 5f                	pop    %r15
ffffffff81005e9b:	41 5e                	pop    %r14
ffffffff81005e9d:	41 5d                	pop    %r13
ffffffff81005e9f:	41 5c                	pop    %r12
ffffffff81005ea1:	41 5b                	pop    %r11
ffffffff81005ea3:	41 5a                	pop    %r10
ffffffff81005ea5:	41 59                	pop    %r9
ffffffff81005ea7:	41 58                	pop    %r8
ffffffff81005ea9:	5d                   	pop    %rbp
ffffffff81005eaa:	5c                   	pop    %rsp
ffffffff81005eab:	5f                   	pop    %rdi
ffffffff81005eac:	5e                   	pop    %rsi
ffffffff81005ead:	5a                   	pop    %rdx
ffffffff81005eae:	59                   	pop    %rcx
ffffffff81005eaf:	5b                   	pop    %rbx
ffffffff81005eb0:	58                   	pop    %rax
ffffffff81005eb1:	9d                   	popfq  
ffffffff81005eb2:	48 cf                	iretq  

ffffffff81005eb4 <isr_152>:
ffffffff81005eb4:	9c                   	pushfq 
ffffffff81005eb5:	50                   	push   %rax
ffffffff81005eb6:	53                   	push   %rbx
ffffffff81005eb7:	51                   	push   %rcx
ffffffff81005eb8:	52                   	push   %rdx
ffffffff81005eb9:	56                   	push   %rsi
ffffffff81005eba:	57                   	push   %rdi
ffffffff81005ebb:	54                   	push   %rsp
ffffffff81005ebc:	55                   	push   %rbp
ffffffff81005ebd:	41 50                	push   %r8
ffffffff81005ebf:	41 51                	push   %r9
ffffffff81005ec1:	41 52                	push   %r10
ffffffff81005ec3:	41 53                	push   %r11
ffffffff81005ec5:	41 54                	push   %r12
ffffffff81005ec7:	41 55                	push   %r13
ffffffff81005ec9:	41 56                	push   %r14
ffffffff81005ecb:	41 57                	push   %r15
ffffffff81005ecd:	fc                   	cld    
ffffffff81005ece:	bf 98 00 00 00       	mov    $0x98,%edi
ffffffff81005ed3:	be 00 00 00 00       	mov    $0x0,%esi
ffffffff81005ed8:	e8 1a d6 ff ff       	callq  ffffffff810034f7 <isr_dispatcher>
ffffffff81005edd:	41 5f                	pop    %r15
ffffffff81005edf:	41 5e                	pop    %r14
ffffffff81005ee1:	41 5d                	pop    %r13
ffffffff81005ee3:	41 5c                	pop    %r12
ffffffff81005ee5:	41 5b                	pop    %r11
ffffffff81005ee7:	41 5a                	pop    %r10
ffffffff81005ee9:	41 59                	pop    %r9
ffffffff81005eeb:	41 58                	pop    %r8
ffffffff81005eed:	5d                   	pop    %rbp
ffffffff81005eee:	5c                   	pop    %rsp
ffffffff81005eef:	5f                   	pop    %rdi
ffffffff81005ef0:	5e                   	pop    %rsi
ffffffff81005ef1:	5a                   	pop    %rdx
ffffffff81005ef2:	59                   	pop    %rcx
ffffffff81005ef3:	5b                   	pop    %rbx
ffffffff81005ef4:	58                   	pop    %rax
ffffffff81005ef5:	9d                   	popfq  
ffffffff81005ef6:	48 cf                	iretq  

ffffffff81005ef8 <isr_153>:
ffffffff81005ef8:	9c                   	pushfq 
ffffffff81005ef9:	50                   	push   %rax
ffffffff81005efa:	53                   	push   %rbx
ffffffff81005efb:	51                   	push   %rcx
ffffffff81005efc:	52                   	push   %rdx
ffffffff81005efd:	56                   	push   %rsi
ffffffff81005efe:	57                   	push   %rdi
ffffffff81005eff:	54                   	push   %rsp
ffffffff81005f00:	55                   	push   %rbp
ffffffff81005f01:	41 50                	push   %r8
ffffffff81005f03:	41 51                	push   %r9
ffffffff81005f05:	41 52                	push   %r10
ffffffff81005f07:	41 53                	push   %r11
ffffffff81005f09:	41 54                	push   %r12
ffffffff81005f0b:	41 55                	push   %r13
ffffffff81005f0d:	41 56                	push   %r14
ffffffff81005f0f:	41 57                	push   %r15
ffffffff81005f11:	fc                   	cld    
ffffffff81005f12:	bf 99 00 00 00       	mov    $0x99,%edi
ffffffff81005f17:	be 00 00 00 00       	mov    $0x0,%esi
ffffffff81005f1c:	e8 d6 d5 ff ff       	callq  ffffffff810034f7 <isr_dispatcher>
ffffffff81005f21:	41 5f                	pop    %r15
ffffffff81005f23:	41 5e                	pop    %r14
ffffffff81005f25:	41 5d                	pop    %r13
ffffffff81005f27:	41 5c                	pop    %r12
ffffffff81005f29:	41 5b                	pop    %r11
ffffffff81005f2b:	41 5a                	pop    %r10
ffffffff81005f2d:	41 59                	pop    %r9
ffffffff81005f2f:	41 58                	pop    %r8
ffffffff81005f31:	5d                   	pop    %rbp
ffffffff81005f32:	5c                   	pop    %rsp
ffffffff81005f33:	5f                   	pop    %rdi
ffffffff81005f34:	5e                   	pop    %rsi
ffffffff81005f35:	5a                   	pop    %rdx
ffffffff81005f36:	59                   	pop    %rcx
ffffffff81005f37:	5b                   	pop    %rbx
ffffffff81005f38:	58                   	pop    %rax
ffffffff81005f39:	9d                   	popfq  
ffffffff81005f3a:	48 cf                	iretq  

ffffffff81005f3c <isr_154>:
ffffffff81005f3c:	9c                   	pushfq 
ffffffff81005f3d:	50                   	push   %rax
ffffffff81005f3e:	53                   	push   %rbx
ffffffff81005f3f:	51                   	push   %rcx
ffffffff81005f40:	52                   	push   %rdx
ffffffff81005f41:	56                   	push   %rsi
ffffffff81005f42:	57                   	push   %rdi
ffffffff81005f43:	54                   	push   %rsp
ffffffff81005f44:	55                   	push   %rbp
ffffffff81005f45:	41 50                	push   %r8
ffffffff81005f47:	41 51                	push   %r9
ffffffff81005f49:	41 52                	push   %r10
ffffffff81005f4b:	41 53                	push   %r11
ffffffff81005f4d:	41 54                	push   %r12
ffffffff81005f4f:	41 55                	push   %r13
ffffffff81005f51:	41 56                	push   %r14
ffffffff81005f53:	41 57                	push   %r15
ffffffff81005f55:	fc                   	cld    
ffffffff81005f56:	bf 9a 00 00 00       	mov    $0x9a,%edi
ffffffff81005f5b:	be 00 00 00 00       	mov    $0x0,%esi
ffffffff81005f60:	e8 92 d5 ff ff       	callq  ffffffff810034f7 <isr_dispatcher>
ffffffff81005f65:	41 5f                	pop    %r15
ffffffff81005f67:	41 5e                	pop    %r14
ffffffff81005f69:	41 5d                	pop    %r13
ffffffff81005f6b:	41 5c                	pop    %r12
ffffffff81005f6d:	41 5b                	pop    %r11
ffffffff81005f6f:	41 5a                	pop    %r10
ffffffff81005f71:	41 59                	pop    %r9
ffffffff81005f73:	41 58                	pop    %r8
ffffffff81005f75:	5d                   	pop    %rbp
ffffffff81005f76:	5c                   	pop    %rsp
ffffffff81005f77:	5f                   	pop    %rdi
ffffffff81005f78:	5e                   	pop    %rsi
ffffffff81005f79:	5a                   	pop    %rdx
ffffffff81005f7a:	59                   	pop    %rcx
ffffffff81005f7b:	5b                   	pop    %rbx
ffffffff81005f7c:	58                   	pop    %rax
ffffffff81005f7d:	9d                   	popfq  
ffffffff81005f7e:	48 cf                	iretq  

ffffffff81005f80 <isr_155>:
ffffffff81005f80:	9c                   	pushfq 
ffffffff81005f81:	50                   	push   %rax
ffffffff81005f82:	53                   	push   %rbx
ffffffff81005f83:	51                   	push   %rcx
ffffffff81005f84:	52                   	push   %rdx
ffffffff81005f85:	56                   	push   %rsi
ffffffff81005f86:	57                   	push   %rdi
ffffffff81005f87:	54                   	push   %rsp
ffffffff81005f88:	55                   	push   %rbp
ffffffff81005f89:	41 50                	push   %r8
ffffffff81005f8b:	41 51                	push   %r9
ffffffff81005f8d:	41 52                	push   %r10
ffffffff81005f8f:	41 53                	push   %r11
ffffffff81005f91:	41 54                	push   %r12
ffffffff81005f93:	41 55                	push   %r13
ffffffff81005f95:	41 56                	push   %r14
ffffffff81005f97:	41 57                	push   %r15
ffffffff81005f99:	fc                   	cld    
ffffffff81005f9a:	bf 9b 00 00 00       	mov    $0x9b,%edi
ffffffff81005f9f:	be 00 00 00 00       	mov    $0x0,%esi
ffffffff81005fa4:	e8 4e d5 ff ff       	callq  ffffffff810034f7 <isr_dispatcher>
ffffffff81005fa9:	41 5f                	pop    %r15
ffffffff81005fab:	41 5e                	pop    %r14
ffffffff81005fad:	41 5d                	pop    %r13
ffffffff81005faf:	41 5c                	pop    %r12
ffffffff81005fb1:	41 5b                	pop    %r11
ffffffff81005fb3:	41 5a                	pop    %r10
ffffffff81005fb5:	41 59                	pop    %r9
ffffffff81005fb7:	41 58                	pop    %r8
ffffffff81005fb9:	5d                   	pop    %rbp
ffffffff81005fba:	5c                   	pop    %rsp
ffffffff81005fbb:	5f                   	pop    %rdi
ffffffff81005fbc:	5e                   	pop    %rsi
ffffffff81005fbd:	5a                   	pop    %rdx
ffffffff81005fbe:	59                   	pop    %rcx
ffffffff81005fbf:	5b                   	pop    %rbx
ffffffff81005fc0:	58                   	pop    %rax
ffffffff81005fc1:	9d                   	popfq  
ffffffff81005fc2:	48 cf                	iretq  

ffffffff81005fc4 <isr_156>:
ffffffff81005fc4:	9c                   	pushfq 
ffffffff81005fc5:	50                   	push   %rax
ffffffff81005fc6:	53                   	push   %rbx
ffffffff81005fc7:	51                   	push   %rcx
ffffffff81005fc8:	52                   	push   %rdx
ffffffff81005fc9:	56                   	push   %rsi
ffffffff81005fca:	57                   	push   %rdi
ffffffff81005fcb:	54                   	push   %rsp
ffffffff81005fcc:	55                   	push   %rbp
ffffffff81005fcd:	41 50                	push   %r8
ffffffff81005fcf:	41 51                	push   %r9
ffffffff81005fd1:	41 52                	push   %r10
ffffffff81005fd3:	41 53                	push   %r11
ffffffff81005fd5:	41 54                	push   %r12
ffffffff81005fd7:	41 55                	push   %r13
ffffffff81005fd9:	41 56                	push   %r14
ffffffff81005fdb:	41 57                	push   %r15
ffffffff81005fdd:	fc                   	cld    
ffffffff81005fde:	bf 9c 00 00 00       	mov    $0x9c,%edi
ffffffff81005fe3:	be 00 00 00 00       	mov    $0x0,%esi
ffffffff81005fe8:	e8 0a d5 ff ff       	callq  ffffffff810034f7 <isr_dispatcher>
ffffffff81005fed:	41 5f                	pop    %r15
ffffffff81005fef:	41 5e                	pop    %r14
ffffffff81005ff1:	41 5d                	pop    %r13
ffffffff81005ff3:	41 5c                	pop    %r12
ffffffff81005ff5:	41 5b                	pop    %r11
ffffffff81005ff7:	41 5a                	pop    %r10
ffffffff81005ff9:	41 59                	pop    %r9
ffffffff81005ffb:	41 58                	pop    %r8
ffffffff81005ffd:	5d                   	pop    %rbp
ffffffff81005ffe:	5c                   	pop    %rsp
ffffffff81005fff:	5f                   	pop    %rdi
ffffffff81006000:	5e                   	pop    %rsi
ffffffff81006001:	5a                   	pop    %rdx
ffffffff81006002:	59                   	pop    %rcx
ffffffff81006003:	5b                   	pop    %rbx
ffffffff81006004:	58                   	pop    %rax
ffffffff81006005:	9d                   	popfq  
ffffffff81006006:	48 cf                	iretq  

ffffffff81006008 <isr_157>:
ffffffff81006008:	9c                   	pushfq 
ffffffff81006009:	50                   	push   %rax
ffffffff8100600a:	53                   	push   %rbx
ffffffff8100600b:	51                   	push   %rcx
ffffffff8100600c:	52                   	push   %rdx
ffffffff8100600d:	56                   	push   %rsi
ffffffff8100600e:	57                   	push   %rdi
ffffffff8100600f:	54                   	push   %rsp
ffffffff81006010:	55                   	push   %rbp
ffffffff81006011:	41 50                	push   %r8
ffffffff81006013:	41 51                	push   %r9
ffffffff81006015:	41 52                	push   %r10
ffffffff81006017:	41 53                	push   %r11
ffffffff81006019:	41 54                	push   %r12
ffffffff8100601b:	41 55                	push   %r13
ffffffff8100601d:	41 56                	push   %r14
ffffffff8100601f:	41 57                	push   %r15
ffffffff81006021:	fc                   	cld    
ffffffff81006022:	bf 9d 00 00 00       	mov    $0x9d,%edi
ffffffff81006027:	be 00 00 00 00       	mov    $0x0,%esi
ffffffff8100602c:	e8 c6 d4 ff ff       	callq  ffffffff810034f7 <isr_dispatcher>
ffffffff81006031:	41 5f                	pop    %r15
ffffffff81006033:	41 5e                	pop    %r14
ffffffff81006035:	41 5d                	pop    %r13
ffffffff81006037:	41 5c                	pop    %r12
ffffffff81006039:	41 5b                	pop    %r11
ffffffff8100603b:	41 5a                	pop    %r10
ffffffff8100603d:	41 59                	pop    %r9
ffffffff8100603f:	41 58                	pop    %r8
ffffffff81006041:	5d                   	pop    %rbp
ffffffff81006042:	5c                   	pop    %rsp
ffffffff81006043:	5f                   	pop    %rdi
ffffffff81006044:	5e                   	pop    %rsi
ffffffff81006045:	5a                   	pop    %rdx
ffffffff81006046:	59                   	pop    %rcx
ffffffff81006047:	5b                   	pop    %rbx
ffffffff81006048:	58                   	pop    %rax
ffffffff81006049:	9d                   	popfq  
ffffffff8100604a:	48 cf                	iretq  

ffffffff8100604c <isr_158>:
ffffffff8100604c:	9c                   	pushfq 
ffffffff8100604d:	50                   	push   %rax
ffffffff8100604e:	53                   	push   %rbx
ffffffff8100604f:	51                   	push   %rcx
ffffffff81006050:	52                   	push   %rdx
ffffffff81006051:	56                   	push   %rsi
ffffffff81006052:	57                   	push   %rdi
ffffffff81006053:	54                   	push   %rsp
ffffffff81006054:	55                   	push   %rbp
ffffffff81006055:	41 50                	push   %r8
ffffffff81006057:	41 51                	push   %r9
ffffffff81006059:	41 52                	push   %r10
ffffffff8100605b:	41 53                	push   %r11
ffffffff8100605d:	41 54                	push   %r12
ffffffff8100605f:	41 55                	push   %r13
ffffffff81006061:	41 56                	push   %r14
ffffffff81006063:	41 57                	push   %r15
ffffffff81006065:	fc                   	cld    
ffffffff81006066:	bf 9e 00 00 00       	mov    $0x9e,%edi
ffffffff8100606b:	be 00 00 00 00       	mov    $0x0,%esi
ffffffff81006070:	e8 82 d4 ff ff       	callq  ffffffff810034f7 <isr_dispatcher>
ffffffff81006075:	41 5f                	pop    %r15
ffffffff81006077:	41 5e                	pop    %r14
ffffffff81006079:	41 5d                	pop    %r13
ffffffff8100607b:	41 5c                	pop    %r12
ffffffff8100607d:	41 5b                	pop    %r11
ffffffff8100607f:	41 5a                	pop    %r10
ffffffff81006081:	41 59                	pop    %r9
ffffffff81006083:	41 58                	pop    %r8
ffffffff81006085:	5d                   	pop    %rbp
ffffffff81006086:	5c                   	pop    %rsp
ffffffff81006087:	5f                   	pop    %rdi
ffffffff81006088:	5e                   	pop    %rsi
ffffffff81006089:	5a                   	pop    %rdx
ffffffff8100608a:	59                   	pop    %rcx
ffffffff8100608b:	5b                   	pop    %rbx
ffffffff8100608c:	58                   	pop    %rax
ffffffff8100608d:	9d                   	popfq  
ffffffff8100608e:	48 cf                	iretq  

ffffffff81006090 <isr_159>:
ffffffff81006090:	9c                   	pushfq 
ffffffff81006091:	50                   	push   %rax
ffffffff81006092:	53                   	push   %rbx
ffffffff81006093:	51                   	push   %rcx
ffffffff81006094:	52                   	push   %rdx
ffffffff81006095:	56                   	push   %rsi
ffffffff81006096:	57                   	push   %rdi
ffffffff81006097:	54                   	push   %rsp
ffffffff81006098:	55                   	push   %rbp
ffffffff81006099:	41 50                	push   %r8
ffffffff8100609b:	41 51                	push   %r9
ffffffff8100609d:	41 52                	push   %r10
ffffffff8100609f:	41 53                	push   %r11
ffffffff810060a1:	41 54                	push   %r12
ffffffff810060a3:	41 55                	push   %r13
ffffffff810060a5:	41 56                	push   %r14
ffffffff810060a7:	41 57                	push   %r15
ffffffff810060a9:	fc                   	cld    
ffffffff810060aa:	bf 9f 00 00 00       	mov    $0x9f,%edi
ffffffff810060af:	be 00 00 00 00       	mov    $0x0,%esi
ffffffff810060b4:	e8 3e d4 ff ff       	callq  ffffffff810034f7 <isr_dispatcher>
ffffffff810060b9:	41 5f                	pop    %r15
ffffffff810060bb:	41 5e                	pop    %r14
ffffffff810060bd:	41 5d                	pop    %r13
ffffffff810060bf:	41 5c                	pop    %r12
ffffffff810060c1:	41 5b                	pop    %r11
ffffffff810060c3:	41 5a                	pop    %r10
ffffffff810060c5:	41 59                	pop    %r9
ffffffff810060c7:	41 58                	pop    %r8
ffffffff810060c9:	5d                   	pop    %rbp
ffffffff810060ca:	5c                   	pop    %rsp
ffffffff810060cb:	5f                   	pop    %rdi
ffffffff810060cc:	5e                   	pop    %rsi
ffffffff810060cd:	5a                   	pop    %rdx
ffffffff810060ce:	59                   	pop    %rcx
ffffffff810060cf:	5b                   	pop    %rbx
ffffffff810060d0:	58                   	pop    %rax
ffffffff810060d1:	9d                   	popfq  
ffffffff810060d2:	48 cf                	iretq  

ffffffff810060d4 <isr_160>:
ffffffff810060d4:	9c                   	pushfq 
ffffffff810060d5:	50                   	push   %rax
ffffffff810060d6:	53                   	push   %rbx
ffffffff810060d7:	51                   	push   %rcx
ffffffff810060d8:	52                   	push   %rdx
ffffffff810060d9:	56                   	push   %rsi
ffffffff810060da:	57                   	push   %rdi
ffffffff810060db:	54                   	push   %rsp
ffffffff810060dc:	55                   	push   %rbp
ffffffff810060dd:	41 50                	push   %r8
ffffffff810060df:	41 51                	push   %r9
ffffffff810060e1:	41 52                	push   %r10
ffffffff810060e3:	41 53                	push   %r11
ffffffff810060e5:	41 54                	push   %r12
ffffffff810060e7:	41 55                	push   %r13
ffffffff810060e9:	41 56                	push   %r14
ffffffff810060eb:	41 57                	push   %r15
ffffffff810060ed:	fc                   	cld    
ffffffff810060ee:	bf a0 00 00 00       	mov    $0xa0,%edi
ffffffff810060f3:	be 00 00 00 00       	mov    $0x0,%esi
ffffffff810060f8:	e8 fa d3 ff ff       	callq  ffffffff810034f7 <isr_dispatcher>
ffffffff810060fd:	41 5f                	pop    %r15
ffffffff810060ff:	41 5e                	pop    %r14
ffffffff81006101:	41 5d                	pop    %r13
ffffffff81006103:	41 5c                	pop    %r12
ffffffff81006105:	41 5b                	pop    %r11
ffffffff81006107:	41 5a                	pop    %r10
ffffffff81006109:	41 59                	pop    %r9
ffffffff8100610b:	41 58                	pop    %r8
ffffffff8100610d:	5d                   	pop    %rbp
ffffffff8100610e:	5c                   	pop    %rsp
ffffffff8100610f:	5f                   	pop    %rdi
ffffffff81006110:	5e                   	pop    %rsi
ffffffff81006111:	5a                   	pop    %rdx
ffffffff81006112:	59                   	pop    %rcx
ffffffff81006113:	5b                   	pop    %rbx
ffffffff81006114:	58                   	pop    %rax
ffffffff81006115:	9d                   	popfq  
ffffffff81006116:	48 cf                	iretq  

ffffffff81006118 <isr_161>:
ffffffff81006118:	9c                   	pushfq 
ffffffff81006119:	50                   	push   %rax
ffffffff8100611a:	53                   	push   %rbx
ffffffff8100611b:	51                   	push   %rcx
ffffffff8100611c:	52                   	push   %rdx
ffffffff8100611d:	56                   	push   %rsi
ffffffff8100611e:	57                   	push   %rdi
ffffffff8100611f:	54                   	push   %rsp
ffffffff81006120:	55                   	push   %rbp
ffffffff81006121:	41 50                	push   %r8
ffffffff81006123:	41 51                	push   %r9
ffffffff81006125:	41 52                	push   %r10
ffffffff81006127:	41 53                	push   %r11
ffffffff81006129:	41 54                	push   %r12
ffffffff8100612b:	41 55                	push   %r13
ffffffff8100612d:	41 56                	push   %r14
ffffffff8100612f:	41 57                	push   %r15
ffffffff81006131:	fc                   	cld    
ffffffff81006132:	bf a1 00 00 00       	mov    $0xa1,%edi
ffffffff81006137:	be 00 00 00 00       	mov    $0x0,%esi
ffffffff8100613c:	e8 b6 d3 ff ff       	callq  ffffffff810034f7 <isr_dispatcher>
ffffffff81006141:	41 5f                	pop    %r15
ffffffff81006143:	41 5e                	pop    %r14
ffffffff81006145:	41 5d                	pop    %r13
ffffffff81006147:	41 5c                	pop    %r12
ffffffff81006149:	41 5b                	pop    %r11
ffffffff8100614b:	41 5a                	pop    %r10
ffffffff8100614d:	41 59                	pop    %r9
ffffffff8100614f:	41 58                	pop    %r8
ffffffff81006151:	5d                   	pop    %rbp
ffffffff81006152:	5c                   	pop    %rsp
ffffffff81006153:	5f                   	pop    %rdi
ffffffff81006154:	5e                   	pop    %rsi
ffffffff81006155:	5a                   	pop    %rdx
ffffffff81006156:	59                   	pop    %rcx
ffffffff81006157:	5b                   	pop    %rbx
ffffffff81006158:	58                   	pop    %rax
ffffffff81006159:	9d                   	popfq  
ffffffff8100615a:	48 cf                	iretq  

ffffffff8100615c <isr_162>:
ffffffff8100615c:	9c                   	pushfq 
ffffffff8100615d:	50                   	push   %rax
ffffffff8100615e:	53                   	push   %rbx
ffffffff8100615f:	51                   	push   %rcx
ffffffff81006160:	52                   	push   %rdx
ffffffff81006161:	56                   	push   %rsi
ffffffff81006162:	57                   	push   %rdi
ffffffff81006163:	54                   	push   %rsp
ffffffff81006164:	55                   	push   %rbp
ffffffff81006165:	41 50                	push   %r8
ffffffff81006167:	41 51                	push   %r9
ffffffff81006169:	41 52                	push   %r10
ffffffff8100616b:	41 53                	push   %r11
ffffffff8100616d:	41 54                	push   %r12
ffffffff8100616f:	41 55                	push   %r13
ffffffff81006171:	41 56                	push   %r14
ffffffff81006173:	41 57                	push   %r15
ffffffff81006175:	fc                   	cld    
ffffffff81006176:	bf a2 00 00 00       	mov    $0xa2,%edi
ffffffff8100617b:	be 00 00 00 00       	mov    $0x0,%esi
ffffffff81006180:	e8 72 d3 ff ff       	callq  ffffffff810034f7 <isr_dispatcher>
ffffffff81006185:	41 5f                	pop    %r15
ffffffff81006187:	41 5e                	pop    %r14
ffffffff81006189:	41 5d                	pop    %r13
ffffffff8100618b:	41 5c                	pop    %r12
ffffffff8100618d:	41 5b                	pop    %r11
ffffffff8100618f:	41 5a                	pop    %r10
ffffffff81006191:	41 59                	pop    %r9
ffffffff81006193:	41 58                	pop    %r8
ffffffff81006195:	5d                   	pop    %rbp
ffffffff81006196:	5c                   	pop    %rsp
ffffffff81006197:	5f                   	pop    %rdi
ffffffff81006198:	5e                   	pop    %rsi
ffffffff81006199:	5a                   	pop    %rdx
ffffffff8100619a:	59                   	pop    %rcx
ffffffff8100619b:	5b                   	pop    %rbx
ffffffff8100619c:	58                   	pop    %rax
ffffffff8100619d:	9d                   	popfq  
ffffffff8100619e:	48 cf                	iretq  

ffffffff810061a0 <isr_163>:
ffffffff810061a0:	9c                   	pushfq 
ffffffff810061a1:	50                   	push   %rax
ffffffff810061a2:	53                   	push   %rbx
ffffffff810061a3:	51                   	push   %rcx
ffffffff810061a4:	52                   	push   %rdx
ffffffff810061a5:	56                   	push   %rsi
ffffffff810061a6:	57                   	push   %rdi
ffffffff810061a7:	54                   	push   %rsp
ffffffff810061a8:	55                   	push   %rbp
ffffffff810061a9:	41 50                	push   %r8
ffffffff810061ab:	41 51                	push   %r9
ffffffff810061ad:	41 52                	push   %r10
ffffffff810061af:	41 53                	push   %r11
ffffffff810061b1:	41 54                	push   %r12
ffffffff810061b3:	41 55                	push   %r13
ffffffff810061b5:	41 56                	push   %r14
ffffffff810061b7:	41 57                	push   %r15
ffffffff810061b9:	fc                   	cld    
ffffffff810061ba:	bf a3 00 00 00       	mov    $0xa3,%edi
ffffffff810061bf:	be 00 00 00 00       	mov    $0x0,%esi
ffffffff810061c4:	e8 2e d3 ff ff       	callq  ffffffff810034f7 <isr_dispatcher>
ffffffff810061c9:	41 5f                	pop    %r15
ffffffff810061cb:	41 5e                	pop    %r14
ffffffff810061cd:	41 5d                	pop    %r13
ffffffff810061cf:	41 5c                	pop    %r12
ffffffff810061d1:	41 5b                	pop    %r11
ffffffff810061d3:	41 5a                	pop    %r10
ffffffff810061d5:	41 59                	pop    %r9
ffffffff810061d7:	41 58                	pop    %r8
ffffffff810061d9:	5d                   	pop    %rbp
ffffffff810061da:	5c                   	pop    %rsp
ffffffff810061db:	5f                   	pop    %rdi
ffffffff810061dc:	5e                   	pop    %rsi
ffffffff810061dd:	5a                   	pop    %rdx
ffffffff810061de:	59                   	pop    %rcx
ffffffff810061df:	5b                   	pop    %rbx
ffffffff810061e0:	58                   	pop    %rax
ffffffff810061e1:	9d                   	popfq  
ffffffff810061e2:	48 cf                	iretq  

ffffffff810061e4 <isr_164>:
ffffffff810061e4:	9c                   	pushfq 
ffffffff810061e5:	50                   	push   %rax
ffffffff810061e6:	53                   	push   %rbx
ffffffff810061e7:	51                   	push   %rcx
ffffffff810061e8:	52                   	push   %rdx
ffffffff810061e9:	56                   	push   %rsi
ffffffff810061ea:	57                   	push   %rdi
ffffffff810061eb:	54                   	push   %rsp
ffffffff810061ec:	55                   	push   %rbp
ffffffff810061ed:	41 50                	push   %r8
ffffffff810061ef:	41 51                	push   %r9
ffffffff810061f1:	41 52                	push   %r10
ffffffff810061f3:	41 53                	push   %r11
ffffffff810061f5:	41 54                	push   %r12
ffffffff810061f7:	41 55                	push   %r13
ffffffff810061f9:	41 56                	push   %r14
ffffffff810061fb:	41 57                	push   %r15
ffffffff810061fd:	fc                   	cld    
ffffffff810061fe:	bf a4 00 00 00       	mov    $0xa4,%edi
ffffffff81006203:	be 00 00 00 00       	mov    $0x0,%esi
ffffffff81006208:	e8 ea d2 ff ff       	callq  ffffffff810034f7 <isr_dispatcher>
ffffffff8100620d:	41 5f                	pop    %r15
ffffffff8100620f:	41 5e                	pop    %r14
ffffffff81006211:	41 5d                	pop    %r13
ffffffff81006213:	41 5c                	pop    %r12
ffffffff81006215:	41 5b                	pop    %r11
ffffffff81006217:	41 5a                	pop    %r10
ffffffff81006219:	41 59                	pop    %r9
ffffffff8100621b:	41 58                	pop    %r8
ffffffff8100621d:	5d                   	pop    %rbp
ffffffff8100621e:	5c                   	pop    %rsp
ffffffff8100621f:	5f                   	pop    %rdi
ffffffff81006220:	5e                   	pop    %rsi
ffffffff81006221:	5a                   	pop    %rdx
ffffffff81006222:	59                   	pop    %rcx
ffffffff81006223:	5b                   	pop    %rbx
ffffffff81006224:	58                   	pop    %rax
ffffffff81006225:	9d                   	popfq  
ffffffff81006226:	48 cf                	iretq  

ffffffff81006228 <isr_165>:
ffffffff81006228:	9c                   	pushfq 
ffffffff81006229:	50                   	push   %rax
ffffffff8100622a:	53                   	push   %rbx
ffffffff8100622b:	51                   	push   %rcx
ffffffff8100622c:	52                   	push   %rdx
ffffffff8100622d:	56                   	push   %rsi
ffffffff8100622e:	57                   	push   %rdi
ffffffff8100622f:	54                   	push   %rsp
ffffffff81006230:	55                   	push   %rbp
ffffffff81006231:	41 50                	push   %r8
ffffffff81006233:	41 51                	push   %r9
ffffffff81006235:	41 52                	push   %r10
ffffffff81006237:	41 53                	push   %r11
ffffffff81006239:	41 54                	push   %r12
ffffffff8100623b:	41 55                	push   %r13
ffffffff8100623d:	41 56                	push   %r14
ffffffff8100623f:	41 57                	push   %r15
ffffffff81006241:	fc                   	cld    
ffffffff81006242:	bf a5 00 00 00       	mov    $0xa5,%edi
ffffffff81006247:	be 00 00 00 00       	mov    $0x0,%esi
ffffffff8100624c:	e8 a6 d2 ff ff       	callq  ffffffff810034f7 <isr_dispatcher>
ffffffff81006251:	41 5f                	pop    %r15
ffffffff81006253:	41 5e                	pop    %r14
ffffffff81006255:	41 5d                	pop    %r13
ffffffff81006257:	41 5c                	pop    %r12
ffffffff81006259:	41 5b                	pop    %r11
ffffffff8100625b:	41 5a                	pop    %r10
ffffffff8100625d:	41 59                	pop    %r9
ffffffff8100625f:	41 58                	pop    %r8
ffffffff81006261:	5d                   	pop    %rbp
ffffffff81006262:	5c                   	pop    %rsp
ffffffff81006263:	5f                   	pop    %rdi
ffffffff81006264:	5e                   	pop    %rsi
ffffffff81006265:	5a                   	pop    %rdx
ffffffff81006266:	59                   	pop    %rcx
ffffffff81006267:	5b                   	pop    %rbx
ffffffff81006268:	58                   	pop    %rax
ffffffff81006269:	9d                   	popfq  
ffffffff8100626a:	48 cf                	iretq  

ffffffff8100626c <isr_166>:
ffffffff8100626c:	9c                   	pushfq 
ffffffff8100626d:	50                   	push   %rax
ffffffff8100626e:	53                   	push   %rbx
ffffffff8100626f:	51                   	push   %rcx
ffffffff81006270:	52                   	push   %rdx
ffffffff81006271:	56                   	push   %rsi
ffffffff81006272:	57                   	push   %rdi
ffffffff81006273:	54                   	push   %rsp
ffffffff81006274:	55                   	push   %rbp
ffffffff81006275:	41 50                	push   %r8
ffffffff81006277:	41 51                	push   %r9
ffffffff81006279:	41 52                	push   %r10
ffffffff8100627b:	41 53                	push   %r11
ffffffff8100627d:	41 54                	push   %r12
ffffffff8100627f:	41 55                	push   %r13
ffffffff81006281:	41 56                	push   %r14
ffffffff81006283:	41 57                	push   %r15
ffffffff81006285:	fc                   	cld    
ffffffff81006286:	bf a6 00 00 00       	mov    $0xa6,%edi
ffffffff8100628b:	be 00 00 00 00       	mov    $0x0,%esi
ffffffff81006290:	e8 62 d2 ff ff       	callq  ffffffff810034f7 <isr_dispatcher>
ffffffff81006295:	41 5f                	pop    %r15
ffffffff81006297:	41 5e                	pop    %r14
ffffffff81006299:	41 5d                	pop    %r13
ffffffff8100629b:	41 5c                	pop    %r12
ffffffff8100629d:	41 5b                	pop    %r11
ffffffff8100629f:	41 5a                	pop    %r10
ffffffff810062a1:	41 59                	pop    %r9
ffffffff810062a3:	41 58                	pop    %r8
ffffffff810062a5:	5d                   	pop    %rbp
ffffffff810062a6:	5c                   	pop    %rsp
ffffffff810062a7:	5f                   	pop    %rdi
ffffffff810062a8:	5e                   	pop    %rsi
ffffffff810062a9:	5a                   	pop    %rdx
ffffffff810062aa:	59                   	pop    %rcx
ffffffff810062ab:	5b                   	pop    %rbx
ffffffff810062ac:	58                   	pop    %rax
ffffffff810062ad:	9d                   	popfq  
ffffffff810062ae:	48 cf                	iretq  

ffffffff810062b0 <isr_167>:
ffffffff810062b0:	9c                   	pushfq 
ffffffff810062b1:	50                   	push   %rax
ffffffff810062b2:	53                   	push   %rbx
ffffffff810062b3:	51                   	push   %rcx
ffffffff810062b4:	52                   	push   %rdx
ffffffff810062b5:	56                   	push   %rsi
ffffffff810062b6:	57                   	push   %rdi
ffffffff810062b7:	54                   	push   %rsp
ffffffff810062b8:	55                   	push   %rbp
ffffffff810062b9:	41 50                	push   %r8
ffffffff810062bb:	41 51                	push   %r9
ffffffff810062bd:	41 52                	push   %r10
ffffffff810062bf:	41 53                	push   %r11
ffffffff810062c1:	41 54                	push   %r12
ffffffff810062c3:	41 55                	push   %r13
ffffffff810062c5:	41 56                	push   %r14
ffffffff810062c7:	41 57                	push   %r15
ffffffff810062c9:	fc                   	cld    
ffffffff810062ca:	bf a7 00 00 00       	mov    $0xa7,%edi
ffffffff810062cf:	be 00 00 00 00       	mov    $0x0,%esi
ffffffff810062d4:	e8 1e d2 ff ff       	callq  ffffffff810034f7 <isr_dispatcher>
ffffffff810062d9:	41 5f                	pop    %r15
ffffffff810062db:	41 5e                	pop    %r14
ffffffff810062dd:	41 5d                	pop    %r13
ffffffff810062df:	41 5c                	pop    %r12
ffffffff810062e1:	41 5b                	pop    %r11
ffffffff810062e3:	41 5a                	pop    %r10
ffffffff810062e5:	41 59                	pop    %r9
ffffffff810062e7:	41 58                	pop    %r8
ffffffff810062e9:	5d                   	pop    %rbp
ffffffff810062ea:	5c                   	pop    %rsp
ffffffff810062eb:	5f                   	pop    %rdi
ffffffff810062ec:	5e                   	pop    %rsi
ffffffff810062ed:	5a                   	pop    %rdx
ffffffff810062ee:	59                   	pop    %rcx
ffffffff810062ef:	5b                   	pop    %rbx
ffffffff810062f0:	58                   	pop    %rax
ffffffff810062f1:	9d                   	popfq  
ffffffff810062f2:	48 cf                	iretq  

ffffffff810062f4 <isr_168>:
ffffffff810062f4:	9c                   	pushfq 
ffffffff810062f5:	50                   	push   %rax
ffffffff810062f6:	53                   	push   %rbx
ffffffff810062f7:	51                   	push   %rcx
ffffffff810062f8:	52                   	push   %rdx
ffffffff810062f9:	56                   	push   %rsi
ffffffff810062fa:	57                   	push   %rdi
ffffffff810062fb:	54                   	push   %rsp
ffffffff810062fc:	55                   	push   %rbp
ffffffff810062fd:	41 50                	push   %r8
ffffffff810062ff:	41 51                	push   %r9
ffffffff81006301:	41 52                	push   %r10
ffffffff81006303:	41 53                	push   %r11
ffffffff81006305:	41 54                	push   %r12
ffffffff81006307:	41 55                	push   %r13
ffffffff81006309:	41 56                	push   %r14
ffffffff8100630b:	41 57                	push   %r15
ffffffff8100630d:	fc                   	cld    
ffffffff8100630e:	bf a8 00 00 00       	mov    $0xa8,%edi
ffffffff81006313:	be 00 00 00 00       	mov    $0x0,%esi
ffffffff81006318:	e8 da d1 ff ff       	callq  ffffffff810034f7 <isr_dispatcher>
ffffffff8100631d:	41 5f                	pop    %r15
ffffffff8100631f:	41 5e                	pop    %r14
ffffffff81006321:	41 5d                	pop    %r13
ffffffff81006323:	41 5c                	pop    %r12
ffffffff81006325:	41 5b                	pop    %r11
ffffffff81006327:	41 5a                	pop    %r10
ffffffff81006329:	41 59                	pop    %r9
ffffffff8100632b:	41 58                	pop    %r8
ffffffff8100632d:	5d                   	pop    %rbp
ffffffff8100632e:	5c                   	pop    %rsp
ffffffff8100632f:	5f                   	pop    %rdi
ffffffff81006330:	5e                   	pop    %rsi
ffffffff81006331:	5a                   	pop    %rdx
ffffffff81006332:	59                   	pop    %rcx
ffffffff81006333:	5b                   	pop    %rbx
ffffffff81006334:	58                   	pop    %rax
ffffffff81006335:	9d                   	popfq  
ffffffff81006336:	48 cf                	iretq  

ffffffff81006338 <isr_169>:
ffffffff81006338:	9c                   	pushfq 
ffffffff81006339:	50                   	push   %rax
ffffffff8100633a:	53                   	push   %rbx
ffffffff8100633b:	51                   	push   %rcx
ffffffff8100633c:	52                   	push   %rdx
ffffffff8100633d:	56                   	push   %rsi
ffffffff8100633e:	57                   	push   %rdi
ffffffff8100633f:	54                   	push   %rsp
ffffffff81006340:	55                   	push   %rbp
ffffffff81006341:	41 50                	push   %r8
ffffffff81006343:	41 51                	push   %r9
ffffffff81006345:	41 52                	push   %r10
ffffffff81006347:	41 53                	push   %r11
ffffffff81006349:	41 54                	push   %r12
ffffffff8100634b:	41 55                	push   %r13
ffffffff8100634d:	41 56                	push   %r14
ffffffff8100634f:	41 57                	push   %r15
ffffffff81006351:	fc                   	cld    
ffffffff81006352:	bf a9 00 00 00       	mov    $0xa9,%edi
ffffffff81006357:	be 00 00 00 00       	mov    $0x0,%esi
ffffffff8100635c:	e8 96 d1 ff ff       	callq  ffffffff810034f7 <isr_dispatcher>
ffffffff81006361:	41 5f                	pop    %r15
ffffffff81006363:	41 5e                	pop    %r14
ffffffff81006365:	41 5d                	pop    %r13
ffffffff81006367:	41 5c                	pop    %r12
ffffffff81006369:	41 5b                	pop    %r11
ffffffff8100636b:	41 5a                	pop    %r10
ffffffff8100636d:	41 59                	pop    %r9
ffffffff8100636f:	41 58                	pop    %r8
ffffffff81006371:	5d                   	pop    %rbp
ffffffff81006372:	5c                   	pop    %rsp
ffffffff81006373:	5f                   	pop    %rdi
ffffffff81006374:	5e                   	pop    %rsi
ffffffff81006375:	5a                   	pop    %rdx
ffffffff81006376:	59                   	pop    %rcx
ffffffff81006377:	5b                   	pop    %rbx
ffffffff81006378:	58                   	pop    %rax
ffffffff81006379:	9d                   	popfq  
ffffffff8100637a:	48 cf                	iretq  

ffffffff8100637c <isr_170>:
ffffffff8100637c:	9c                   	pushfq 
ffffffff8100637d:	50                   	push   %rax
ffffffff8100637e:	53                   	push   %rbx
ffffffff8100637f:	51                   	push   %rcx
ffffffff81006380:	52                   	push   %rdx
ffffffff81006381:	56                   	push   %rsi
ffffffff81006382:	57                   	push   %rdi
ffffffff81006383:	54                   	push   %rsp
ffffffff81006384:	55                   	push   %rbp
ffffffff81006385:	41 50                	push   %r8
ffffffff81006387:	41 51                	push   %r9
ffffffff81006389:	41 52                	push   %r10
ffffffff8100638b:	41 53                	push   %r11
ffffffff8100638d:	41 54                	push   %r12
ffffffff8100638f:	41 55                	push   %r13
ffffffff81006391:	41 56                	push   %r14
ffffffff81006393:	41 57                	push   %r15
ffffffff81006395:	fc                   	cld    
ffffffff81006396:	bf aa 00 00 00       	mov    $0xaa,%edi
ffffffff8100639b:	be 00 00 00 00       	mov    $0x0,%esi
ffffffff810063a0:	e8 52 d1 ff ff       	callq  ffffffff810034f7 <isr_dispatcher>
ffffffff810063a5:	41 5f                	pop    %r15
ffffffff810063a7:	41 5e                	pop    %r14
ffffffff810063a9:	41 5d                	pop    %r13
ffffffff810063ab:	41 5c                	pop    %r12
ffffffff810063ad:	41 5b                	pop    %r11
ffffffff810063af:	41 5a                	pop    %r10
ffffffff810063b1:	41 59                	pop    %r9
ffffffff810063b3:	41 58                	pop    %r8
ffffffff810063b5:	5d                   	pop    %rbp
ffffffff810063b6:	5c                   	pop    %rsp
ffffffff810063b7:	5f                   	pop    %rdi
ffffffff810063b8:	5e                   	pop    %rsi
ffffffff810063b9:	5a                   	pop    %rdx
ffffffff810063ba:	59                   	pop    %rcx
ffffffff810063bb:	5b                   	pop    %rbx
ffffffff810063bc:	58                   	pop    %rax
ffffffff810063bd:	9d                   	popfq  
ffffffff810063be:	48 cf                	iretq  

ffffffff810063c0 <isr_171>:
ffffffff810063c0:	9c                   	pushfq 
ffffffff810063c1:	50                   	push   %rax
ffffffff810063c2:	53                   	push   %rbx
ffffffff810063c3:	51                   	push   %rcx
ffffffff810063c4:	52                   	push   %rdx
ffffffff810063c5:	56                   	push   %rsi
ffffffff810063c6:	57                   	push   %rdi
ffffffff810063c7:	54                   	push   %rsp
ffffffff810063c8:	55                   	push   %rbp
ffffffff810063c9:	41 50                	push   %r8
ffffffff810063cb:	41 51                	push   %r9
ffffffff810063cd:	41 52                	push   %r10
ffffffff810063cf:	41 53                	push   %r11
ffffffff810063d1:	41 54                	push   %r12
ffffffff810063d3:	41 55                	push   %r13
ffffffff810063d5:	41 56                	push   %r14
ffffffff810063d7:	41 57                	push   %r15
ffffffff810063d9:	fc                   	cld    
ffffffff810063da:	bf ab 00 00 00       	mov    $0xab,%edi
ffffffff810063df:	be 00 00 00 00       	mov    $0x0,%esi
ffffffff810063e4:	e8 0e d1 ff ff       	callq  ffffffff810034f7 <isr_dispatcher>
ffffffff810063e9:	41 5f                	pop    %r15
ffffffff810063eb:	41 5e                	pop    %r14
ffffffff810063ed:	41 5d                	pop    %r13
ffffffff810063ef:	41 5c                	pop    %r12
ffffffff810063f1:	41 5b                	pop    %r11
ffffffff810063f3:	41 5a                	pop    %r10
ffffffff810063f5:	41 59                	pop    %r9
ffffffff810063f7:	41 58                	pop    %r8
ffffffff810063f9:	5d                   	pop    %rbp
ffffffff810063fa:	5c                   	pop    %rsp
ffffffff810063fb:	5f                   	pop    %rdi
ffffffff810063fc:	5e                   	pop    %rsi
ffffffff810063fd:	5a                   	pop    %rdx
ffffffff810063fe:	59                   	pop    %rcx
ffffffff810063ff:	5b                   	pop    %rbx
ffffffff81006400:	58                   	pop    %rax
ffffffff81006401:	9d                   	popfq  
ffffffff81006402:	48 cf                	iretq  

ffffffff81006404 <isr_172>:
ffffffff81006404:	9c                   	pushfq 
ffffffff81006405:	50                   	push   %rax
ffffffff81006406:	53                   	push   %rbx
ffffffff81006407:	51                   	push   %rcx
ffffffff81006408:	52                   	push   %rdx
ffffffff81006409:	56                   	push   %rsi
ffffffff8100640a:	57                   	push   %rdi
ffffffff8100640b:	54                   	push   %rsp
ffffffff8100640c:	55                   	push   %rbp
ffffffff8100640d:	41 50                	push   %r8
ffffffff8100640f:	41 51                	push   %r9
ffffffff81006411:	41 52                	push   %r10
ffffffff81006413:	41 53                	push   %r11
ffffffff81006415:	41 54                	push   %r12
ffffffff81006417:	41 55                	push   %r13
ffffffff81006419:	41 56                	push   %r14
ffffffff8100641b:	41 57                	push   %r15
ffffffff8100641d:	fc                   	cld    
ffffffff8100641e:	bf ac 00 00 00       	mov    $0xac,%edi
ffffffff81006423:	be 00 00 00 00       	mov    $0x0,%esi
ffffffff81006428:	e8 ca d0 ff ff       	callq  ffffffff810034f7 <isr_dispatcher>
ffffffff8100642d:	41 5f                	pop    %r15
ffffffff8100642f:	41 5e                	pop    %r14
ffffffff81006431:	41 5d                	pop    %r13
ffffffff81006433:	41 5c                	pop    %r12
ffffffff81006435:	41 5b                	pop    %r11
ffffffff81006437:	41 5a                	pop    %r10
ffffffff81006439:	41 59                	pop    %r9
ffffffff8100643b:	41 58                	pop    %r8
ffffffff8100643d:	5d                   	pop    %rbp
ffffffff8100643e:	5c                   	pop    %rsp
ffffffff8100643f:	5f                   	pop    %rdi
ffffffff81006440:	5e                   	pop    %rsi
ffffffff81006441:	5a                   	pop    %rdx
ffffffff81006442:	59                   	pop    %rcx
ffffffff81006443:	5b                   	pop    %rbx
ffffffff81006444:	58                   	pop    %rax
ffffffff81006445:	9d                   	popfq  
ffffffff81006446:	48 cf                	iretq  

ffffffff81006448 <isr_173>:
ffffffff81006448:	9c                   	pushfq 
ffffffff81006449:	50                   	push   %rax
ffffffff8100644a:	53                   	push   %rbx
ffffffff8100644b:	51                   	push   %rcx
ffffffff8100644c:	52                   	push   %rdx
ffffffff8100644d:	56                   	push   %rsi
ffffffff8100644e:	57                   	push   %rdi
ffffffff8100644f:	54                   	push   %rsp
ffffffff81006450:	55                   	push   %rbp
ffffffff81006451:	41 50                	push   %r8
ffffffff81006453:	41 51                	push   %r9
ffffffff81006455:	41 52                	push   %r10
ffffffff81006457:	41 53                	push   %r11
ffffffff81006459:	41 54                	push   %r12
ffffffff8100645b:	41 55                	push   %r13
ffffffff8100645d:	41 56                	push   %r14
ffffffff8100645f:	41 57                	push   %r15
ffffffff81006461:	fc                   	cld    
ffffffff81006462:	bf ad 00 00 00       	mov    $0xad,%edi
ffffffff81006467:	be 00 00 00 00       	mov    $0x0,%esi
ffffffff8100646c:	e8 86 d0 ff ff       	callq  ffffffff810034f7 <isr_dispatcher>
ffffffff81006471:	41 5f                	pop    %r15
ffffffff81006473:	41 5e                	pop    %r14
ffffffff81006475:	41 5d                	pop    %r13
ffffffff81006477:	41 5c                	pop    %r12
ffffffff81006479:	41 5b                	pop    %r11
ffffffff8100647b:	41 5a                	pop    %r10
ffffffff8100647d:	41 59                	pop    %r9
ffffffff8100647f:	41 58                	pop    %r8
ffffffff81006481:	5d                   	pop    %rbp
ffffffff81006482:	5c                   	pop    %rsp
ffffffff81006483:	5f                   	pop    %rdi
ffffffff81006484:	5e                   	pop    %rsi
ffffffff81006485:	5a                   	pop    %rdx
ffffffff81006486:	59                   	pop    %rcx
ffffffff81006487:	5b                   	pop    %rbx
ffffffff81006488:	58                   	pop    %rax
ffffffff81006489:	9d                   	popfq  
ffffffff8100648a:	48 cf                	iretq  

ffffffff8100648c <isr_174>:
ffffffff8100648c:	9c                   	pushfq 
ffffffff8100648d:	50                   	push   %rax
ffffffff8100648e:	53                   	push   %rbx
ffffffff8100648f:	51                   	push   %rcx
ffffffff81006490:	52                   	push   %rdx
ffffffff81006491:	56                   	push   %rsi
ffffffff81006492:	57                   	push   %rdi
ffffffff81006493:	54                   	push   %rsp
ffffffff81006494:	55                   	push   %rbp
ffffffff81006495:	41 50                	push   %r8
ffffffff81006497:	41 51                	push   %r9
ffffffff81006499:	41 52                	push   %r10
ffffffff8100649b:	41 53                	push   %r11
ffffffff8100649d:	41 54                	push   %r12
ffffffff8100649f:	41 55                	push   %r13
ffffffff810064a1:	41 56                	push   %r14
ffffffff810064a3:	41 57                	push   %r15
ffffffff810064a5:	fc                   	cld    
ffffffff810064a6:	bf ae 00 00 00       	mov    $0xae,%edi
ffffffff810064ab:	be 00 00 00 00       	mov    $0x0,%esi
ffffffff810064b0:	e8 42 d0 ff ff       	callq  ffffffff810034f7 <isr_dispatcher>
ffffffff810064b5:	41 5f                	pop    %r15
ffffffff810064b7:	41 5e                	pop    %r14
ffffffff810064b9:	41 5d                	pop    %r13
ffffffff810064bb:	41 5c                	pop    %r12
ffffffff810064bd:	41 5b                	pop    %r11
ffffffff810064bf:	41 5a                	pop    %r10
ffffffff810064c1:	41 59                	pop    %r9
ffffffff810064c3:	41 58                	pop    %r8
ffffffff810064c5:	5d                   	pop    %rbp
ffffffff810064c6:	5c                   	pop    %rsp
ffffffff810064c7:	5f                   	pop    %rdi
ffffffff810064c8:	5e                   	pop    %rsi
ffffffff810064c9:	5a                   	pop    %rdx
ffffffff810064ca:	59                   	pop    %rcx
ffffffff810064cb:	5b                   	pop    %rbx
ffffffff810064cc:	58                   	pop    %rax
ffffffff810064cd:	9d                   	popfq  
ffffffff810064ce:	48 cf                	iretq  

ffffffff810064d0 <isr_175>:
ffffffff810064d0:	9c                   	pushfq 
ffffffff810064d1:	50                   	push   %rax
ffffffff810064d2:	53                   	push   %rbx
ffffffff810064d3:	51                   	push   %rcx
ffffffff810064d4:	52                   	push   %rdx
ffffffff810064d5:	56                   	push   %rsi
ffffffff810064d6:	57                   	push   %rdi
ffffffff810064d7:	54                   	push   %rsp
ffffffff810064d8:	55                   	push   %rbp
ffffffff810064d9:	41 50                	push   %r8
ffffffff810064db:	41 51                	push   %r9
ffffffff810064dd:	41 52                	push   %r10
ffffffff810064df:	41 53                	push   %r11
ffffffff810064e1:	41 54                	push   %r12
ffffffff810064e3:	41 55                	push   %r13
ffffffff810064e5:	41 56                	push   %r14
ffffffff810064e7:	41 57                	push   %r15
ffffffff810064e9:	fc                   	cld    
ffffffff810064ea:	bf af 00 00 00       	mov    $0xaf,%edi
ffffffff810064ef:	be 00 00 00 00       	mov    $0x0,%esi
ffffffff810064f4:	e8 fe cf ff ff       	callq  ffffffff810034f7 <isr_dispatcher>
ffffffff810064f9:	41 5f                	pop    %r15
ffffffff810064fb:	41 5e                	pop    %r14
ffffffff810064fd:	41 5d                	pop    %r13
ffffffff810064ff:	41 5c                	pop    %r12
ffffffff81006501:	41 5b                	pop    %r11
ffffffff81006503:	41 5a                	pop    %r10
ffffffff81006505:	41 59                	pop    %r9
ffffffff81006507:	41 58                	pop    %r8
ffffffff81006509:	5d                   	pop    %rbp
ffffffff8100650a:	5c                   	pop    %rsp
ffffffff8100650b:	5f                   	pop    %rdi
ffffffff8100650c:	5e                   	pop    %rsi
ffffffff8100650d:	5a                   	pop    %rdx
ffffffff8100650e:	59                   	pop    %rcx
ffffffff8100650f:	5b                   	pop    %rbx
ffffffff81006510:	58                   	pop    %rax
ffffffff81006511:	9d                   	popfq  
ffffffff81006512:	48 cf                	iretq  

ffffffff81006514 <isr_176>:
ffffffff81006514:	9c                   	pushfq 
ffffffff81006515:	50                   	push   %rax
ffffffff81006516:	53                   	push   %rbx
ffffffff81006517:	51                   	push   %rcx
ffffffff81006518:	52                   	push   %rdx
ffffffff81006519:	56                   	push   %rsi
ffffffff8100651a:	57                   	push   %rdi
ffffffff8100651b:	54                   	push   %rsp
ffffffff8100651c:	55                   	push   %rbp
ffffffff8100651d:	41 50                	push   %r8
ffffffff8100651f:	41 51                	push   %r9
ffffffff81006521:	41 52                	push   %r10
ffffffff81006523:	41 53                	push   %r11
ffffffff81006525:	41 54                	push   %r12
ffffffff81006527:	41 55                	push   %r13
ffffffff81006529:	41 56                	push   %r14
ffffffff8100652b:	41 57                	push   %r15
ffffffff8100652d:	fc                   	cld    
ffffffff8100652e:	bf b0 00 00 00       	mov    $0xb0,%edi
ffffffff81006533:	be 00 00 00 00       	mov    $0x0,%esi
ffffffff81006538:	e8 ba cf ff ff       	callq  ffffffff810034f7 <isr_dispatcher>
ffffffff8100653d:	41 5f                	pop    %r15
ffffffff8100653f:	41 5e                	pop    %r14
ffffffff81006541:	41 5d                	pop    %r13
ffffffff81006543:	41 5c                	pop    %r12
ffffffff81006545:	41 5b                	pop    %r11
ffffffff81006547:	41 5a                	pop    %r10
ffffffff81006549:	41 59                	pop    %r9
ffffffff8100654b:	41 58                	pop    %r8
ffffffff8100654d:	5d                   	pop    %rbp
ffffffff8100654e:	5c                   	pop    %rsp
ffffffff8100654f:	5f                   	pop    %rdi
ffffffff81006550:	5e                   	pop    %rsi
ffffffff81006551:	5a                   	pop    %rdx
ffffffff81006552:	59                   	pop    %rcx
ffffffff81006553:	5b                   	pop    %rbx
ffffffff81006554:	58                   	pop    %rax
ffffffff81006555:	9d                   	popfq  
ffffffff81006556:	48 cf                	iretq  

ffffffff81006558 <isr_177>:
ffffffff81006558:	9c                   	pushfq 
ffffffff81006559:	50                   	push   %rax
ffffffff8100655a:	53                   	push   %rbx
ffffffff8100655b:	51                   	push   %rcx
ffffffff8100655c:	52                   	push   %rdx
ffffffff8100655d:	56                   	push   %rsi
ffffffff8100655e:	57                   	push   %rdi
ffffffff8100655f:	54                   	push   %rsp
ffffffff81006560:	55                   	push   %rbp
ffffffff81006561:	41 50                	push   %r8
ffffffff81006563:	41 51                	push   %r9
ffffffff81006565:	41 52                	push   %r10
ffffffff81006567:	41 53                	push   %r11
ffffffff81006569:	41 54                	push   %r12
ffffffff8100656b:	41 55                	push   %r13
ffffffff8100656d:	41 56                	push   %r14
ffffffff8100656f:	41 57                	push   %r15
ffffffff81006571:	fc                   	cld    
ffffffff81006572:	bf b1 00 00 00       	mov    $0xb1,%edi
ffffffff81006577:	be 00 00 00 00       	mov    $0x0,%esi
ffffffff8100657c:	e8 76 cf ff ff       	callq  ffffffff810034f7 <isr_dispatcher>
ffffffff81006581:	41 5f                	pop    %r15
ffffffff81006583:	41 5e                	pop    %r14
ffffffff81006585:	41 5d                	pop    %r13
ffffffff81006587:	41 5c                	pop    %r12
ffffffff81006589:	41 5b                	pop    %r11
ffffffff8100658b:	41 5a                	pop    %r10
ffffffff8100658d:	41 59                	pop    %r9
ffffffff8100658f:	41 58                	pop    %r8
ffffffff81006591:	5d                   	pop    %rbp
ffffffff81006592:	5c                   	pop    %rsp
ffffffff81006593:	5f                   	pop    %rdi
ffffffff81006594:	5e                   	pop    %rsi
ffffffff81006595:	5a                   	pop    %rdx
ffffffff81006596:	59                   	pop    %rcx
ffffffff81006597:	5b                   	pop    %rbx
ffffffff81006598:	58                   	pop    %rax
ffffffff81006599:	9d                   	popfq  
ffffffff8100659a:	48 cf                	iretq  

ffffffff8100659c <isr_178>:
ffffffff8100659c:	9c                   	pushfq 
ffffffff8100659d:	50                   	push   %rax
ffffffff8100659e:	53                   	push   %rbx
ffffffff8100659f:	51                   	push   %rcx
ffffffff810065a0:	52                   	push   %rdx
ffffffff810065a1:	56                   	push   %rsi
ffffffff810065a2:	57                   	push   %rdi
ffffffff810065a3:	54                   	push   %rsp
ffffffff810065a4:	55                   	push   %rbp
ffffffff810065a5:	41 50                	push   %r8
ffffffff810065a7:	41 51                	push   %r9
ffffffff810065a9:	41 52                	push   %r10
ffffffff810065ab:	41 53                	push   %r11
ffffffff810065ad:	41 54                	push   %r12
ffffffff810065af:	41 55                	push   %r13
ffffffff810065b1:	41 56                	push   %r14
ffffffff810065b3:	41 57                	push   %r15
ffffffff810065b5:	fc                   	cld    
ffffffff810065b6:	bf b2 00 00 00       	mov    $0xb2,%edi
ffffffff810065bb:	be 00 00 00 00       	mov    $0x0,%esi
ffffffff810065c0:	e8 32 cf ff ff       	callq  ffffffff810034f7 <isr_dispatcher>
ffffffff810065c5:	41 5f                	pop    %r15
ffffffff810065c7:	41 5e                	pop    %r14
ffffffff810065c9:	41 5d                	pop    %r13
ffffffff810065cb:	41 5c                	pop    %r12
ffffffff810065cd:	41 5b                	pop    %r11
ffffffff810065cf:	41 5a                	pop    %r10
ffffffff810065d1:	41 59                	pop    %r9
ffffffff810065d3:	41 58                	pop    %r8
ffffffff810065d5:	5d                   	pop    %rbp
ffffffff810065d6:	5c                   	pop    %rsp
ffffffff810065d7:	5f                   	pop    %rdi
ffffffff810065d8:	5e                   	pop    %rsi
ffffffff810065d9:	5a                   	pop    %rdx
ffffffff810065da:	59                   	pop    %rcx
ffffffff810065db:	5b                   	pop    %rbx
ffffffff810065dc:	58                   	pop    %rax
ffffffff810065dd:	9d                   	popfq  
ffffffff810065de:	48 cf                	iretq  

ffffffff810065e0 <isr_179>:
ffffffff810065e0:	9c                   	pushfq 
ffffffff810065e1:	50                   	push   %rax
ffffffff810065e2:	53                   	push   %rbx
ffffffff810065e3:	51                   	push   %rcx
ffffffff810065e4:	52                   	push   %rdx
ffffffff810065e5:	56                   	push   %rsi
ffffffff810065e6:	57                   	push   %rdi
ffffffff810065e7:	54                   	push   %rsp
ffffffff810065e8:	55                   	push   %rbp
ffffffff810065e9:	41 50                	push   %r8
ffffffff810065eb:	41 51                	push   %r9
ffffffff810065ed:	41 52                	push   %r10
ffffffff810065ef:	41 53                	push   %r11
ffffffff810065f1:	41 54                	push   %r12
ffffffff810065f3:	41 55                	push   %r13
ffffffff810065f5:	41 56                	push   %r14
ffffffff810065f7:	41 57                	push   %r15
ffffffff810065f9:	fc                   	cld    
ffffffff810065fa:	bf b3 00 00 00       	mov    $0xb3,%edi
ffffffff810065ff:	be 00 00 00 00       	mov    $0x0,%esi
ffffffff81006604:	e8 ee ce ff ff       	callq  ffffffff810034f7 <isr_dispatcher>
ffffffff81006609:	41 5f                	pop    %r15
ffffffff8100660b:	41 5e                	pop    %r14
ffffffff8100660d:	41 5d                	pop    %r13
ffffffff8100660f:	41 5c                	pop    %r12
ffffffff81006611:	41 5b                	pop    %r11
ffffffff81006613:	41 5a                	pop    %r10
ffffffff81006615:	41 59                	pop    %r9
ffffffff81006617:	41 58                	pop    %r8
ffffffff81006619:	5d                   	pop    %rbp
ffffffff8100661a:	5c                   	pop    %rsp
ffffffff8100661b:	5f                   	pop    %rdi
ffffffff8100661c:	5e                   	pop    %rsi
ffffffff8100661d:	5a                   	pop    %rdx
ffffffff8100661e:	59                   	pop    %rcx
ffffffff8100661f:	5b                   	pop    %rbx
ffffffff81006620:	58                   	pop    %rax
ffffffff81006621:	9d                   	popfq  
ffffffff81006622:	48 cf                	iretq  

ffffffff81006624 <isr_180>:
ffffffff81006624:	9c                   	pushfq 
ffffffff81006625:	50                   	push   %rax
ffffffff81006626:	53                   	push   %rbx
ffffffff81006627:	51                   	push   %rcx
ffffffff81006628:	52                   	push   %rdx
ffffffff81006629:	56                   	push   %rsi
ffffffff8100662a:	57                   	push   %rdi
ffffffff8100662b:	54                   	push   %rsp
ffffffff8100662c:	55                   	push   %rbp
ffffffff8100662d:	41 50                	push   %r8
ffffffff8100662f:	41 51                	push   %r9
ffffffff81006631:	41 52                	push   %r10
ffffffff81006633:	41 53                	push   %r11
ffffffff81006635:	41 54                	push   %r12
ffffffff81006637:	41 55                	push   %r13
ffffffff81006639:	41 56                	push   %r14
ffffffff8100663b:	41 57                	push   %r15
ffffffff8100663d:	fc                   	cld    
ffffffff8100663e:	bf b4 00 00 00       	mov    $0xb4,%edi
ffffffff81006643:	be 00 00 00 00       	mov    $0x0,%esi
ffffffff81006648:	e8 aa ce ff ff       	callq  ffffffff810034f7 <isr_dispatcher>
ffffffff8100664d:	41 5f                	pop    %r15
ffffffff8100664f:	41 5e                	pop    %r14
ffffffff81006651:	41 5d                	pop    %r13
ffffffff81006653:	41 5c                	pop    %r12
ffffffff81006655:	41 5b                	pop    %r11
ffffffff81006657:	41 5a                	pop    %r10
ffffffff81006659:	41 59                	pop    %r9
ffffffff8100665b:	41 58                	pop    %r8
ffffffff8100665d:	5d                   	pop    %rbp
ffffffff8100665e:	5c                   	pop    %rsp
ffffffff8100665f:	5f                   	pop    %rdi
ffffffff81006660:	5e                   	pop    %rsi
ffffffff81006661:	5a                   	pop    %rdx
ffffffff81006662:	59                   	pop    %rcx
ffffffff81006663:	5b                   	pop    %rbx
ffffffff81006664:	58                   	pop    %rax
ffffffff81006665:	9d                   	popfq  
ffffffff81006666:	48 cf                	iretq  

ffffffff81006668 <isr_181>:
ffffffff81006668:	9c                   	pushfq 
ffffffff81006669:	50                   	push   %rax
ffffffff8100666a:	53                   	push   %rbx
ffffffff8100666b:	51                   	push   %rcx
ffffffff8100666c:	52                   	push   %rdx
ffffffff8100666d:	56                   	push   %rsi
ffffffff8100666e:	57                   	push   %rdi
ffffffff8100666f:	54                   	push   %rsp
ffffffff81006670:	55                   	push   %rbp
ffffffff81006671:	41 50                	push   %r8
ffffffff81006673:	41 51                	push   %r9
ffffffff81006675:	41 52                	push   %r10
ffffffff81006677:	41 53                	push   %r11
ffffffff81006679:	41 54                	push   %r12
ffffffff8100667b:	41 55                	push   %r13
ffffffff8100667d:	41 56                	push   %r14
ffffffff8100667f:	41 57                	push   %r15
ffffffff81006681:	fc                   	cld    
ffffffff81006682:	bf b5 00 00 00       	mov    $0xb5,%edi
ffffffff81006687:	be 00 00 00 00       	mov    $0x0,%esi
ffffffff8100668c:	e8 66 ce ff ff       	callq  ffffffff810034f7 <isr_dispatcher>
ffffffff81006691:	41 5f                	pop    %r15
ffffffff81006693:	41 5e                	pop    %r14
ffffffff81006695:	41 5d                	pop    %r13
ffffffff81006697:	41 5c                	pop    %r12
ffffffff81006699:	41 5b                	pop    %r11
ffffffff8100669b:	41 5a                	pop    %r10
ffffffff8100669d:	41 59                	pop    %r9
ffffffff8100669f:	41 58                	pop    %r8
ffffffff810066a1:	5d                   	pop    %rbp
ffffffff810066a2:	5c                   	pop    %rsp
ffffffff810066a3:	5f                   	pop    %rdi
ffffffff810066a4:	5e                   	pop    %rsi
ffffffff810066a5:	5a                   	pop    %rdx
ffffffff810066a6:	59                   	pop    %rcx
ffffffff810066a7:	5b                   	pop    %rbx
ffffffff810066a8:	58                   	pop    %rax
ffffffff810066a9:	9d                   	popfq  
ffffffff810066aa:	48 cf                	iretq  

ffffffff810066ac <isr_182>:
ffffffff810066ac:	9c                   	pushfq 
ffffffff810066ad:	50                   	push   %rax
ffffffff810066ae:	53                   	push   %rbx
ffffffff810066af:	51                   	push   %rcx
ffffffff810066b0:	52                   	push   %rdx
ffffffff810066b1:	56                   	push   %rsi
ffffffff810066b2:	57                   	push   %rdi
ffffffff810066b3:	54                   	push   %rsp
ffffffff810066b4:	55                   	push   %rbp
ffffffff810066b5:	41 50                	push   %r8
ffffffff810066b7:	41 51                	push   %r9
ffffffff810066b9:	41 52                	push   %r10
ffffffff810066bb:	41 53                	push   %r11
ffffffff810066bd:	41 54                	push   %r12
ffffffff810066bf:	41 55                	push   %r13
ffffffff810066c1:	41 56                	push   %r14
ffffffff810066c3:	41 57                	push   %r15
ffffffff810066c5:	fc                   	cld    
ffffffff810066c6:	bf b6 00 00 00       	mov    $0xb6,%edi
ffffffff810066cb:	be 00 00 00 00       	mov    $0x0,%esi
ffffffff810066d0:	e8 22 ce ff ff       	callq  ffffffff810034f7 <isr_dispatcher>
ffffffff810066d5:	41 5f                	pop    %r15
ffffffff810066d7:	41 5e                	pop    %r14
ffffffff810066d9:	41 5d                	pop    %r13
ffffffff810066db:	41 5c                	pop    %r12
ffffffff810066dd:	41 5b                	pop    %r11
ffffffff810066df:	41 5a                	pop    %r10
ffffffff810066e1:	41 59                	pop    %r9
ffffffff810066e3:	41 58                	pop    %r8
ffffffff810066e5:	5d                   	pop    %rbp
ffffffff810066e6:	5c                   	pop    %rsp
ffffffff810066e7:	5f                   	pop    %rdi
ffffffff810066e8:	5e                   	pop    %rsi
ffffffff810066e9:	5a                   	pop    %rdx
ffffffff810066ea:	59                   	pop    %rcx
ffffffff810066eb:	5b                   	pop    %rbx
ffffffff810066ec:	58                   	pop    %rax
ffffffff810066ed:	9d                   	popfq  
ffffffff810066ee:	48 cf                	iretq  

ffffffff810066f0 <isr_183>:
ffffffff810066f0:	9c                   	pushfq 
ffffffff810066f1:	50                   	push   %rax
ffffffff810066f2:	53                   	push   %rbx
ffffffff810066f3:	51                   	push   %rcx
ffffffff810066f4:	52                   	push   %rdx
ffffffff810066f5:	56                   	push   %rsi
ffffffff810066f6:	57                   	push   %rdi
ffffffff810066f7:	54                   	push   %rsp
ffffffff810066f8:	55                   	push   %rbp
ffffffff810066f9:	41 50                	push   %r8
ffffffff810066fb:	41 51                	push   %r9
ffffffff810066fd:	41 52                	push   %r10
ffffffff810066ff:	41 53                	push   %r11
ffffffff81006701:	41 54                	push   %r12
ffffffff81006703:	41 55                	push   %r13
ffffffff81006705:	41 56                	push   %r14
ffffffff81006707:	41 57                	push   %r15
ffffffff81006709:	fc                   	cld    
ffffffff8100670a:	bf b7 00 00 00       	mov    $0xb7,%edi
ffffffff8100670f:	be 00 00 00 00       	mov    $0x0,%esi
ffffffff81006714:	e8 de cd ff ff       	callq  ffffffff810034f7 <isr_dispatcher>
ffffffff81006719:	41 5f                	pop    %r15
ffffffff8100671b:	41 5e                	pop    %r14
ffffffff8100671d:	41 5d                	pop    %r13
ffffffff8100671f:	41 5c                	pop    %r12
ffffffff81006721:	41 5b                	pop    %r11
ffffffff81006723:	41 5a                	pop    %r10
ffffffff81006725:	41 59                	pop    %r9
ffffffff81006727:	41 58                	pop    %r8
ffffffff81006729:	5d                   	pop    %rbp
ffffffff8100672a:	5c                   	pop    %rsp
ffffffff8100672b:	5f                   	pop    %rdi
ffffffff8100672c:	5e                   	pop    %rsi
ffffffff8100672d:	5a                   	pop    %rdx
ffffffff8100672e:	59                   	pop    %rcx
ffffffff8100672f:	5b                   	pop    %rbx
ffffffff81006730:	58                   	pop    %rax
ffffffff81006731:	9d                   	popfq  
ffffffff81006732:	48 cf                	iretq  

ffffffff81006734 <isr_184>:
ffffffff81006734:	9c                   	pushfq 
ffffffff81006735:	50                   	push   %rax
ffffffff81006736:	53                   	push   %rbx
ffffffff81006737:	51                   	push   %rcx
ffffffff81006738:	52                   	push   %rdx
ffffffff81006739:	56                   	push   %rsi
ffffffff8100673a:	57                   	push   %rdi
ffffffff8100673b:	54                   	push   %rsp
ffffffff8100673c:	55                   	push   %rbp
ffffffff8100673d:	41 50                	push   %r8
ffffffff8100673f:	41 51                	push   %r9
ffffffff81006741:	41 52                	push   %r10
ffffffff81006743:	41 53                	push   %r11
ffffffff81006745:	41 54                	push   %r12
ffffffff81006747:	41 55                	push   %r13
ffffffff81006749:	41 56                	push   %r14
ffffffff8100674b:	41 57                	push   %r15
ffffffff8100674d:	fc                   	cld    
ffffffff8100674e:	bf b8 00 00 00       	mov    $0xb8,%edi
ffffffff81006753:	be 00 00 00 00       	mov    $0x0,%esi
ffffffff81006758:	e8 9a cd ff ff       	callq  ffffffff810034f7 <isr_dispatcher>
ffffffff8100675d:	41 5f                	pop    %r15
ffffffff8100675f:	41 5e                	pop    %r14
ffffffff81006761:	41 5d                	pop    %r13
ffffffff81006763:	41 5c                	pop    %r12
ffffffff81006765:	41 5b                	pop    %r11
ffffffff81006767:	41 5a                	pop    %r10
ffffffff81006769:	41 59                	pop    %r9
ffffffff8100676b:	41 58                	pop    %r8
ffffffff8100676d:	5d                   	pop    %rbp
ffffffff8100676e:	5c                   	pop    %rsp
ffffffff8100676f:	5f                   	pop    %rdi
ffffffff81006770:	5e                   	pop    %rsi
ffffffff81006771:	5a                   	pop    %rdx
ffffffff81006772:	59                   	pop    %rcx
ffffffff81006773:	5b                   	pop    %rbx
ffffffff81006774:	58                   	pop    %rax
ffffffff81006775:	9d                   	popfq  
ffffffff81006776:	48 cf                	iretq  

ffffffff81006778 <isr_185>:
ffffffff81006778:	9c                   	pushfq 
ffffffff81006779:	50                   	push   %rax
ffffffff8100677a:	53                   	push   %rbx
ffffffff8100677b:	51                   	push   %rcx
ffffffff8100677c:	52                   	push   %rdx
ffffffff8100677d:	56                   	push   %rsi
ffffffff8100677e:	57                   	push   %rdi
ffffffff8100677f:	54                   	push   %rsp
ffffffff81006780:	55                   	push   %rbp
ffffffff81006781:	41 50                	push   %r8
ffffffff81006783:	41 51                	push   %r9
ffffffff81006785:	41 52                	push   %r10
ffffffff81006787:	41 53                	push   %r11
ffffffff81006789:	41 54                	push   %r12
ffffffff8100678b:	41 55                	push   %r13
ffffffff8100678d:	41 56                	push   %r14
ffffffff8100678f:	41 57                	push   %r15
ffffffff81006791:	fc                   	cld    
ffffffff81006792:	bf b9 00 00 00       	mov    $0xb9,%edi
ffffffff81006797:	be 00 00 00 00       	mov    $0x0,%esi
ffffffff8100679c:	e8 56 cd ff ff       	callq  ffffffff810034f7 <isr_dispatcher>
ffffffff810067a1:	41 5f                	pop    %r15
ffffffff810067a3:	41 5e                	pop    %r14
ffffffff810067a5:	41 5d                	pop    %r13
ffffffff810067a7:	41 5c                	pop    %r12
ffffffff810067a9:	41 5b                	pop    %r11
ffffffff810067ab:	41 5a                	pop    %r10
ffffffff810067ad:	41 59                	pop    %r9
ffffffff810067af:	41 58                	pop    %r8
ffffffff810067b1:	5d                   	pop    %rbp
ffffffff810067b2:	5c                   	pop    %rsp
ffffffff810067b3:	5f                   	pop    %rdi
ffffffff810067b4:	5e                   	pop    %rsi
ffffffff810067b5:	5a                   	pop    %rdx
ffffffff810067b6:	59                   	pop    %rcx
ffffffff810067b7:	5b                   	pop    %rbx
ffffffff810067b8:	58                   	pop    %rax
ffffffff810067b9:	9d                   	popfq  
ffffffff810067ba:	48 cf                	iretq  

ffffffff810067bc <isr_186>:
ffffffff810067bc:	9c                   	pushfq 
ffffffff810067bd:	50                   	push   %rax
ffffffff810067be:	53                   	push   %rbx
ffffffff810067bf:	51                   	push   %rcx
ffffffff810067c0:	52                   	push   %rdx
ffffffff810067c1:	56                   	push   %rsi
ffffffff810067c2:	57                   	push   %rdi
ffffffff810067c3:	54                   	push   %rsp
ffffffff810067c4:	55                   	push   %rbp
ffffffff810067c5:	41 50                	push   %r8
ffffffff810067c7:	41 51                	push   %r9
ffffffff810067c9:	41 52                	push   %r10
ffffffff810067cb:	41 53                	push   %r11
ffffffff810067cd:	41 54                	push   %r12
ffffffff810067cf:	41 55                	push   %r13
ffffffff810067d1:	41 56                	push   %r14
ffffffff810067d3:	41 57                	push   %r15
ffffffff810067d5:	fc                   	cld    
ffffffff810067d6:	bf ba 00 00 00       	mov    $0xba,%edi
ffffffff810067db:	be 00 00 00 00       	mov    $0x0,%esi
ffffffff810067e0:	e8 12 cd ff ff       	callq  ffffffff810034f7 <isr_dispatcher>
ffffffff810067e5:	41 5f                	pop    %r15
ffffffff810067e7:	41 5e                	pop    %r14
ffffffff810067e9:	41 5d                	pop    %r13
ffffffff810067eb:	41 5c                	pop    %r12
ffffffff810067ed:	41 5b                	pop    %r11
ffffffff810067ef:	41 5a                	pop    %r10
ffffffff810067f1:	41 59                	pop    %r9
ffffffff810067f3:	41 58                	pop    %r8
ffffffff810067f5:	5d                   	pop    %rbp
ffffffff810067f6:	5c                   	pop    %rsp
ffffffff810067f7:	5f                   	pop    %rdi
ffffffff810067f8:	5e                   	pop    %rsi
ffffffff810067f9:	5a                   	pop    %rdx
ffffffff810067fa:	59                   	pop    %rcx
ffffffff810067fb:	5b                   	pop    %rbx
ffffffff810067fc:	58                   	pop    %rax
ffffffff810067fd:	9d                   	popfq  
ffffffff810067fe:	48 cf                	iretq  

ffffffff81006800 <isr_187>:
ffffffff81006800:	9c                   	pushfq 
ffffffff81006801:	50                   	push   %rax
ffffffff81006802:	53                   	push   %rbx
ffffffff81006803:	51                   	push   %rcx
ffffffff81006804:	52                   	push   %rdx
ffffffff81006805:	56                   	push   %rsi
ffffffff81006806:	57                   	push   %rdi
ffffffff81006807:	54                   	push   %rsp
ffffffff81006808:	55                   	push   %rbp
ffffffff81006809:	41 50                	push   %r8
ffffffff8100680b:	41 51                	push   %r9
ffffffff8100680d:	41 52                	push   %r10
ffffffff8100680f:	41 53                	push   %r11
ffffffff81006811:	41 54                	push   %r12
ffffffff81006813:	41 55                	push   %r13
ffffffff81006815:	41 56                	push   %r14
ffffffff81006817:	41 57                	push   %r15
ffffffff81006819:	fc                   	cld    
ffffffff8100681a:	bf bb 00 00 00       	mov    $0xbb,%edi
ffffffff8100681f:	be 00 00 00 00       	mov    $0x0,%esi
ffffffff81006824:	e8 ce cc ff ff       	callq  ffffffff810034f7 <isr_dispatcher>
ffffffff81006829:	41 5f                	pop    %r15
ffffffff8100682b:	41 5e                	pop    %r14
ffffffff8100682d:	41 5d                	pop    %r13
ffffffff8100682f:	41 5c                	pop    %r12
ffffffff81006831:	41 5b                	pop    %r11
ffffffff81006833:	41 5a                	pop    %r10
ffffffff81006835:	41 59                	pop    %r9
ffffffff81006837:	41 58                	pop    %r8
ffffffff81006839:	5d                   	pop    %rbp
ffffffff8100683a:	5c                   	pop    %rsp
ffffffff8100683b:	5f                   	pop    %rdi
ffffffff8100683c:	5e                   	pop    %rsi
ffffffff8100683d:	5a                   	pop    %rdx
ffffffff8100683e:	59                   	pop    %rcx
ffffffff8100683f:	5b                   	pop    %rbx
ffffffff81006840:	58                   	pop    %rax
ffffffff81006841:	9d                   	popfq  
ffffffff81006842:	48 cf                	iretq  

ffffffff81006844 <isr_188>:
ffffffff81006844:	9c                   	pushfq 
ffffffff81006845:	50                   	push   %rax
ffffffff81006846:	53                   	push   %rbx
ffffffff81006847:	51                   	push   %rcx
ffffffff81006848:	52                   	push   %rdx
ffffffff81006849:	56                   	push   %rsi
ffffffff8100684a:	57                   	push   %rdi
ffffffff8100684b:	54                   	push   %rsp
ffffffff8100684c:	55                   	push   %rbp
ffffffff8100684d:	41 50                	push   %r8
ffffffff8100684f:	41 51                	push   %r9
ffffffff81006851:	41 52                	push   %r10
ffffffff81006853:	41 53                	push   %r11
ffffffff81006855:	41 54                	push   %r12
ffffffff81006857:	41 55                	push   %r13
ffffffff81006859:	41 56                	push   %r14
ffffffff8100685b:	41 57                	push   %r15
ffffffff8100685d:	fc                   	cld    
ffffffff8100685e:	bf bc 00 00 00       	mov    $0xbc,%edi
ffffffff81006863:	be 00 00 00 00       	mov    $0x0,%esi
ffffffff81006868:	e8 8a cc ff ff       	callq  ffffffff810034f7 <isr_dispatcher>
ffffffff8100686d:	41 5f                	pop    %r15
ffffffff8100686f:	41 5e                	pop    %r14
ffffffff81006871:	41 5d                	pop    %r13
ffffffff81006873:	41 5c                	pop    %r12
ffffffff81006875:	41 5b                	pop    %r11
ffffffff81006877:	41 5a                	pop    %r10
ffffffff81006879:	41 59                	pop    %r9
ffffffff8100687b:	41 58                	pop    %r8
ffffffff8100687d:	5d                   	pop    %rbp
ffffffff8100687e:	5c                   	pop    %rsp
ffffffff8100687f:	5f                   	pop    %rdi
ffffffff81006880:	5e                   	pop    %rsi
ffffffff81006881:	5a                   	pop    %rdx
ffffffff81006882:	59                   	pop    %rcx
ffffffff81006883:	5b                   	pop    %rbx
ffffffff81006884:	58                   	pop    %rax
ffffffff81006885:	9d                   	popfq  
ffffffff81006886:	48 cf                	iretq  

ffffffff81006888 <isr_189>:
ffffffff81006888:	9c                   	pushfq 
ffffffff81006889:	50                   	push   %rax
ffffffff8100688a:	53                   	push   %rbx
ffffffff8100688b:	51                   	push   %rcx
ffffffff8100688c:	52                   	push   %rdx
ffffffff8100688d:	56                   	push   %rsi
ffffffff8100688e:	57                   	push   %rdi
ffffffff8100688f:	54                   	push   %rsp
ffffffff81006890:	55                   	push   %rbp
ffffffff81006891:	41 50                	push   %r8
ffffffff81006893:	41 51                	push   %r9
ffffffff81006895:	41 52                	push   %r10
ffffffff81006897:	41 53                	push   %r11
ffffffff81006899:	41 54                	push   %r12
ffffffff8100689b:	41 55                	push   %r13
ffffffff8100689d:	41 56                	push   %r14
ffffffff8100689f:	41 57                	push   %r15
ffffffff810068a1:	fc                   	cld    
ffffffff810068a2:	bf bd 00 00 00       	mov    $0xbd,%edi
ffffffff810068a7:	be 00 00 00 00       	mov    $0x0,%esi
ffffffff810068ac:	e8 46 cc ff ff       	callq  ffffffff810034f7 <isr_dispatcher>
ffffffff810068b1:	41 5f                	pop    %r15
ffffffff810068b3:	41 5e                	pop    %r14
ffffffff810068b5:	41 5d                	pop    %r13
ffffffff810068b7:	41 5c                	pop    %r12
ffffffff810068b9:	41 5b                	pop    %r11
ffffffff810068bb:	41 5a                	pop    %r10
ffffffff810068bd:	41 59                	pop    %r9
ffffffff810068bf:	41 58                	pop    %r8
ffffffff810068c1:	5d                   	pop    %rbp
ffffffff810068c2:	5c                   	pop    %rsp
ffffffff810068c3:	5f                   	pop    %rdi
ffffffff810068c4:	5e                   	pop    %rsi
ffffffff810068c5:	5a                   	pop    %rdx
ffffffff810068c6:	59                   	pop    %rcx
ffffffff810068c7:	5b                   	pop    %rbx
ffffffff810068c8:	58                   	pop    %rax
ffffffff810068c9:	9d                   	popfq  
ffffffff810068ca:	48 cf                	iretq  

ffffffff810068cc <isr_190>:
ffffffff810068cc:	9c                   	pushfq 
ffffffff810068cd:	50                   	push   %rax
ffffffff810068ce:	53                   	push   %rbx
ffffffff810068cf:	51                   	push   %rcx
ffffffff810068d0:	52                   	push   %rdx
ffffffff810068d1:	56                   	push   %rsi
ffffffff810068d2:	57                   	push   %rdi
ffffffff810068d3:	54                   	push   %rsp
ffffffff810068d4:	55                   	push   %rbp
ffffffff810068d5:	41 50                	push   %r8
ffffffff810068d7:	41 51                	push   %r9
ffffffff810068d9:	41 52                	push   %r10
ffffffff810068db:	41 53                	push   %r11
ffffffff810068dd:	41 54                	push   %r12
ffffffff810068df:	41 55                	push   %r13
ffffffff810068e1:	41 56                	push   %r14
ffffffff810068e3:	41 57                	push   %r15
ffffffff810068e5:	fc                   	cld    
ffffffff810068e6:	bf be 00 00 00       	mov    $0xbe,%edi
ffffffff810068eb:	be 00 00 00 00       	mov    $0x0,%esi
ffffffff810068f0:	e8 02 cc ff ff       	callq  ffffffff810034f7 <isr_dispatcher>
ffffffff810068f5:	41 5f                	pop    %r15
ffffffff810068f7:	41 5e                	pop    %r14
ffffffff810068f9:	41 5d                	pop    %r13
ffffffff810068fb:	41 5c                	pop    %r12
ffffffff810068fd:	41 5b                	pop    %r11
ffffffff810068ff:	41 5a                	pop    %r10
ffffffff81006901:	41 59                	pop    %r9
ffffffff81006903:	41 58                	pop    %r8
ffffffff81006905:	5d                   	pop    %rbp
ffffffff81006906:	5c                   	pop    %rsp
ffffffff81006907:	5f                   	pop    %rdi
ffffffff81006908:	5e                   	pop    %rsi
ffffffff81006909:	5a                   	pop    %rdx
ffffffff8100690a:	59                   	pop    %rcx
ffffffff8100690b:	5b                   	pop    %rbx
ffffffff8100690c:	58                   	pop    %rax
ffffffff8100690d:	9d                   	popfq  
ffffffff8100690e:	48 cf                	iretq  

ffffffff81006910 <isr_191>:
ffffffff81006910:	9c                   	pushfq 
ffffffff81006911:	50                   	push   %rax
ffffffff81006912:	53                   	push   %rbx
ffffffff81006913:	51                   	push   %rcx
ffffffff81006914:	52                   	push   %rdx
ffffffff81006915:	56                   	push   %rsi
ffffffff81006916:	57                   	push   %rdi
ffffffff81006917:	54                   	push   %rsp
ffffffff81006918:	55                   	push   %rbp
ffffffff81006919:	41 50                	push   %r8
ffffffff8100691b:	41 51                	push   %r9
ffffffff8100691d:	41 52                	push   %r10
ffffffff8100691f:	41 53                	push   %r11
ffffffff81006921:	41 54                	push   %r12
ffffffff81006923:	41 55                	push   %r13
ffffffff81006925:	41 56                	push   %r14
ffffffff81006927:	41 57                	push   %r15
ffffffff81006929:	fc                   	cld    
ffffffff8100692a:	bf bf 00 00 00       	mov    $0xbf,%edi
ffffffff8100692f:	be 00 00 00 00       	mov    $0x0,%esi
ffffffff81006934:	e8 be cb ff ff       	callq  ffffffff810034f7 <isr_dispatcher>
ffffffff81006939:	41 5f                	pop    %r15
ffffffff8100693b:	41 5e                	pop    %r14
ffffffff8100693d:	41 5d                	pop    %r13
ffffffff8100693f:	41 5c                	pop    %r12
ffffffff81006941:	41 5b                	pop    %r11
ffffffff81006943:	41 5a                	pop    %r10
ffffffff81006945:	41 59                	pop    %r9
ffffffff81006947:	41 58                	pop    %r8
ffffffff81006949:	5d                   	pop    %rbp
ffffffff8100694a:	5c                   	pop    %rsp
ffffffff8100694b:	5f                   	pop    %rdi
ffffffff8100694c:	5e                   	pop    %rsi
ffffffff8100694d:	5a                   	pop    %rdx
ffffffff8100694e:	59                   	pop    %rcx
ffffffff8100694f:	5b                   	pop    %rbx
ffffffff81006950:	58                   	pop    %rax
ffffffff81006951:	9d                   	popfq  
ffffffff81006952:	48 cf                	iretq  

ffffffff81006954 <isr_192>:
ffffffff81006954:	9c                   	pushfq 
ffffffff81006955:	50                   	push   %rax
ffffffff81006956:	53                   	push   %rbx
ffffffff81006957:	51                   	push   %rcx
ffffffff81006958:	52                   	push   %rdx
ffffffff81006959:	56                   	push   %rsi
ffffffff8100695a:	57                   	push   %rdi
ffffffff8100695b:	54                   	push   %rsp
ffffffff8100695c:	55                   	push   %rbp
ffffffff8100695d:	41 50                	push   %r8
ffffffff8100695f:	41 51                	push   %r9
ffffffff81006961:	41 52                	push   %r10
ffffffff81006963:	41 53                	push   %r11
ffffffff81006965:	41 54                	push   %r12
ffffffff81006967:	41 55                	push   %r13
ffffffff81006969:	41 56                	push   %r14
ffffffff8100696b:	41 57                	push   %r15
ffffffff8100696d:	fc                   	cld    
ffffffff8100696e:	bf c0 00 00 00       	mov    $0xc0,%edi
ffffffff81006973:	be 00 00 00 00       	mov    $0x0,%esi
ffffffff81006978:	e8 7a cb ff ff       	callq  ffffffff810034f7 <isr_dispatcher>
ffffffff8100697d:	41 5f                	pop    %r15
ffffffff8100697f:	41 5e                	pop    %r14
ffffffff81006981:	41 5d                	pop    %r13
ffffffff81006983:	41 5c                	pop    %r12
ffffffff81006985:	41 5b                	pop    %r11
ffffffff81006987:	41 5a                	pop    %r10
ffffffff81006989:	41 59                	pop    %r9
ffffffff8100698b:	41 58                	pop    %r8
ffffffff8100698d:	5d                   	pop    %rbp
ffffffff8100698e:	5c                   	pop    %rsp
ffffffff8100698f:	5f                   	pop    %rdi
ffffffff81006990:	5e                   	pop    %rsi
ffffffff81006991:	5a                   	pop    %rdx
ffffffff81006992:	59                   	pop    %rcx
ffffffff81006993:	5b                   	pop    %rbx
ffffffff81006994:	58                   	pop    %rax
ffffffff81006995:	9d                   	popfq  
ffffffff81006996:	48 cf                	iretq  

ffffffff81006998 <isr_193>:
ffffffff81006998:	9c                   	pushfq 
ffffffff81006999:	50                   	push   %rax
ffffffff8100699a:	53                   	push   %rbx
ffffffff8100699b:	51                   	push   %rcx
ffffffff8100699c:	52                   	push   %rdx
ffffffff8100699d:	56                   	push   %rsi
ffffffff8100699e:	57                   	push   %rdi
ffffffff8100699f:	54                   	push   %rsp
ffffffff810069a0:	55                   	push   %rbp
ffffffff810069a1:	41 50                	push   %r8
ffffffff810069a3:	41 51                	push   %r9
ffffffff810069a5:	41 52                	push   %r10
ffffffff810069a7:	41 53                	push   %r11
ffffffff810069a9:	41 54                	push   %r12
ffffffff810069ab:	41 55                	push   %r13
ffffffff810069ad:	41 56                	push   %r14
ffffffff810069af:	41 57                	push   %r15
ffffffff810069b1:	fc                   	cld    
ffffffff810069b2:	bf c1 00 00 00       	mov    $0xc1,%edi
ffffffff810069b7:	be 00 00 00 00       	mov    $0x0,%esi
ffffffff810069bc:	e8 36 cb ff ff       	callq  ffffffff810034f7 <isr_dispatcher>
ffffffff810069c1:	41 5f                	pop    %r15
ffffffff810069c3:	41 5e                	pop    %r14
ffffffff810069c5:	41 5d                	pop    %r13
ffffffff810069c7:	41 5c                	pop    %r12
ffffffff810069c9:	41 5b                	pop    %r11
ffffffff810069cb:	41 5a                	pop    %r10
ffffffff810069cd:	41 59                	pop    %r9
ffffffff810069cf:	41 58                	pop    %r8
ffffffff810069d1:	5d                   	pop    %rbp
ffffffff810069d2:	5c                   	pop    %rsp
ffffffff810069d3:	5f                   	pop    %rdi
ffffffff810069d4:	5e                   	pop    %rsi
ffffffff810069d5:	5a                   	pop    %rdx
ffffffff810069d6:	59                   	pop    %rcx
ffffffff810069d7:	5b                   	pop    %rbx
ffffffff810069d8:	58                   	pop    %rax
ffffffff810069d9:	9d                   	popfq  
ffffffff810069da:	48 cf                	iretq  

ffffffff810069dc <isr_194>:
ffffffff810069dc:	9c                   	pushfq 
ffffffff810069dd:	50                   	push   %rax
ffffffff810069de:	53                   	push   %rbx
ffffffff810069df:	51                   	push   %rcx
ffffffff810069e0:	52                   	push   %rdx
ffffffff810069e1:	56                   	push   %rsi
ffffffff810069e2:	57                   	push   %rdi
ffffffff810069e3:	54                   	push   %rsp
ffffffff810069e4:	55                   	push   %rbp
ffffffff810069e5:	41 50                	push   %r8
ffffffff810069e7:	41 51                	push   %r9
ffffffff810069e9:	41 52                	push   %r10
ffffffff810069eb:	41 53                	push   %r11
ffffffff810069ed:	41 54                	push   %r12
ffffffff810069ef:	41 55                	push   %r13
ffffffff810069f1:	41 56                	push   %r14
ffffffff810069f3:	41 57                	push   %r15
ffffffff810069f5:	fc                   	cld    
ffffffff810069f6:	bf c2 00 00 00       	mov    $0xc2,%edi
ffffffff810069fb:	be 00 00 00 00       	mov    $0x0,%esi
ffffffff81006a00:	e8 f2 ca ff ff       	callq  ffffffff810034f7 <isr_dispatcher>
ffffffff81006a05:	41 5f                	pop    %r15
ffffffff81006a07:	41 5e                	pop    %r14
ffffffff81006a09:	41 5d                	pop    %r13
ffffffff81006a0b:	41 5c                	pop    %r12
ffffffff81006a0d:	41 5b                	pop    %r11
ffffffff81006a0f:	41 5a                	pop    %r10
ffffffff81006a11:	41 59                	pop    %r9
ffffffff81006a13:	41 58                	pop    %r8
ffffffff81006a15:	5d                   	pop    %rbp
ffffffff81006a16:	5c                   	pop    %rsp
ffffffff81006a17:	5f                   	pop    %rdi
ffffffff81006a18:	5e                   	pop    %rsi
ffffffff81006a19:	5a                   	pop    %rdx
ffffffff81006a1a:	59                   	pop    %rcx
ffffffff81006a1b:	5b                   	pop    %rbx
ffffffff81006a1c:	58                   	pop    %rax
ffffffff81006a1d:	9d                   	popfq  
ffffffff81006a1e:	48 cf                	iretq  

ffffffff81006a20 <isr_195>:
ffffffff81006a20:	9c                   	pushfq 
ffffffff81006a21:	50                   	push   %rax
ffffffff81006a22:	53                   	push   %rbx
ffffffff81006a23:	51                   	push   %rcx
ffffffff81006a24:	52                   	push   %rdx
ffffffff81006a25:	56                   	push   %rsi
ffffffff81006a26:	57                   	push   %rdi
ffffffff81006a27:	54                   	push   %rsp
ffffffff81006a28:	55                   	push   %rbp
ffffffff81006a29:	41 50                	push   %r8
ffffffff81006a2b:	41 51                	push   %r9
ffffffff81006a2d:	41 52                	push   %r10
ffffffff81006a2f:	41 53                	push   %r11
ffffffff81006a31:	41 54                	push   %r12
ffffffff81006a33:	41 55                	push   %r13
ffffffff81006a35:	41 56                	push   %r14
ffffffff81006a37:	41 57                	push   %r15
ffffffff81006a39:	fc                   	cld    
ffffffff81006a3a:	bf c3 00 00 00       	mov    $0xc3,%edi
ffffffff81006a3f:	be 00 00 00 00       	mov    $0x0,%esi
ffffffff81006a44:	e8 ae ca ff ff       	callq  ffffffff810034f7 <isr_dispatcher>
ffffffff81006a49:	41 5f                	pop    %r15
ffffffff81006a4b:	41 5e                	pop    %r14
ffffffff81006a4d:	41 5d                	pop    %r13
ffffffff81006a4f:	41 5c                	pop    %r12
ffffffff81006a51:	41 5b                	pop    %r11
ffffffff81006a53:	41 5a                	pop    %r10
ffffffff81006a55:	41 59                	pop    %r9
ffffffff81006a57:	41 58                	pop    %r8
ffffffff81006a59:	5d                   	pop    %rbp
ffffffff81006a5a:	5c                   	pop    %rsp
ffffffff81006a5b:	5f                   	pop    %rdi
ffffffff81006a5c:	5e                   	pop    %rsi
ffffffff81006a5d:	5a                   	pop    %rdx
ffffffff81006a5e:	59                   	pop    %rcx
ffffffff81006a5f:	5b                   	pop    %rbx
ffffffff81006a60:	58                   	pop    %rax
ffffffff81006a61:	9d                   	popfq  
ffffffff81006a62:	48 cf                	iretq  

ffffffff81006a64 <isr_196>:
ffffffff81006a64:	9c                   	pushfq 
ffffffff81006a65:	50                   	push   %rax
ffffffff81006a66:	53                   	push   %rbx
ffffffff81006a67:	51                   	push   %rcx
ffffffff81006a68:	52                   	push   %rdx
ffffffff81006a69:	56                   	push   %rsi
ffffffff81006a6a:	57                   	push   %rdi
ffffffff81006a6b:	54                   	push   %rsp
ffffffff81006a6c:	55                   	push   %rbp
ffffffff81006a6d:	41 50                	push   %r8
ffffffff81006a6f:	41 51                	push   %r9
ffffffff81006a71:	41 52                	push   %r10
ffffffff81006a73:	41 53                	push   %r11
ffffffff81006a75:	41 54                	push   %r12
ffffffff81006a77:	41 55                	push   %r13
ffffffff81006a79:	41 56                	push   %r14
ffffffff81006a7b:	41 57                	push   %r15
ffffffff81006a7d:	fc                   	cld    
ffffffff81006a7e:	bf c4 00 00 00       	mov    $0xc4,%edi
ffffffff81006a83:	be 00 00 00 00       	mov    $0x0,%esi
ffffffff81006a88:	e8 6a ca ff ff       	callq  ffffffff810034f7 <isr_dispatcher>
ffffffff81006a8d:	41 5f                	pop    %r15
ffffffff81006a8f:	41 5e                	pop    %r14
ffffffff81006a91:	41 5d                	pop    %r13
ffffffff81006a93:	41 5c                	pop    %r12
ffffffff81006a95:	41 5b                	pop    %r11
ffffffff81006a97:	41 5a                	pop    %r10
ffffffff81006a99:	41 59                	pop    %r9
ffffffff81006a9b:	41 58                	pop    %r8
ffffffff81006a9d:	5d                   	pop    %rbp
ffffffff81006a9e:	5c                   	pop    %rsp
ffffffff81006a9f:	5f                   	pop    %rdi
ffffffff81006aa0:	5e                   	pop    %rsi
ffffffff81006aa1:	5a                   	pop    %rdx
ffffffff81006aa2:	59                   	pop    %rcx
ffffffff81006aa3:	5b                   	pop    %rbx
ffffffff81006aa4:	58                   	pop    %rax
ffffffff81006aa5:	9d                   	popfq  
ffffffff81006aa6:	48 cf                	iretq  

ffffffff81006aa8 <isr_197>:
ffffffff81006aa8:	9c                   	pushfq 
ffffffff81006aa9:	50                   	push   %rax
ffffffff81006aaa:	53                   	push   %rbx
ffffffff81006aab:	51                   	push   %rcx
ffffffff81006aac:	52                   	push   %rdx
ffffffff81006aad:	56                   	push   %rsi
ffffffff81006aae:	57                   	push   %rdi
ffffffff81006aaf:	54                   	push   %rsp
ffffffff81006ab0:	55                   	push   %rbp
ffffffff81006ab1:	41 50                	push   %r8
ffffffff81006ab3:	41 51                	push   %r9
ffffffff81006ab5:	41 52                	push   %r10
ffffffff81006ab7:	41 53                	push   %r11
ffffffff81006ab9:	41 54                	push   %r12
ffffffff81006abb:	41 55                	push   %r13
ffffffff81006abd:	41 56                	push   %r14
ffffffff81006abf:	41 57                	push   %r15
ffffffff81006ac1:	fc                   	cld    
ffffffff81006ac2:	bf c5 00 00 00       	mov    $0xc5,%edi
ffffffff81006ac7:	be 00 00 00 00       	mov    $0x0,%esi
ffffffff81006acc:	e8 26 ca ff ff       	callq  ffffffff810034f7 <isr_dispatcher>
ffffffff81006ad1:	41 5f                	pop    %r15
ffffffff81006ad3:	41 5e                	pop    %r14
ffffffff81006ad5:	41 5d                	pop    %r13
ffffffff81006ad7:	41 5c                	pop    %r12
ffffffff81006ad9:	41 5b                	pop    %r11
ffffffff81006adb:	41 5a                	pop    %r10
ffffffff81006add:	41 59                	pop    %r9
ffffffff81006adf:	41 58                	pop    %r8
ffffffff81006ae1:	5d                   	pop    %rbp
ffffffff81006ae2:	5c                   	pop    %rsp
ffffffff81006ae3:	5f                   	pop    %rdi
ffffffff81006ae4:	5e                   	pop    %rsi
ffffffff81006ae5:	5a                   	pop    %rdx
ffffffff81006ae6:	59                   	pop    %rcx
ffffffff81006ae7:	5b                   	pop    %rbx
ffffffff81006ae8:	58                   	pop    %rax
ffffffff81006ae9:	9d                   	popfq  
ffffffff81006aea:	48 cf                	iretq  

ffffffff81006aec <isr_198>:
ffffffff81006aec:	9c                   	pushfq 
ffffffff81006aed:	50                   	push   %rax
ffffffff81006aee:	53                   	push   %rbx
ffffffff81006aef:	51                   	push   %rcx
ffffffff81006af0:	52                   	push   %rdx
ffffffff81006af1:	56                   	push   %rsi
ffffffff81006af2:	57                   	push   %rdi
ffffffff81006af3:	54                   	push   %rsp
ffffffff81006af4:	55                   	push   %rbp
ffffffff81006af5:	41 50                	push   %r8
ffffffff81006af7:	41 51                	push   %r9
ffffffff81006af9:	41 52                	push   %r10
ffffffff81006afb:	41 53                	push   %r11
ffffffff81006afd:	41 54                	push   %r12
ffffffff81006aff:	41 55                	push   %r13
ffffffff81006b01:	41 56                	push   %r14
ffffffff81006b03:	41 57                	push   %r15
ffffffff81006b05:	fc                   	cld    
ffffffff81006b06:	bf c6 00 00 00       	mov    $0xc6,%edi
ffffffff81006b0b:	be 00 00 00 00       	mov    $0x0,%esi
ffffffff81006b10:	e8 e2 c9 ff ff       	callq  ffffffff810034f7 <isr_dispatcher>
ffffffff81006b15:	41 5f                	pop    %r15
ffffffff81006b17:	41 5e                	pop    %r14
ffffffff81006b19:	41 5d                	pop    %r13
ffffffff81006b1b:	41 5c                	pop    %r12
ffffffff81006b1d:	41 5b                	pop    %r11
ffffffff81006b1f:	41 5a                	pop    %r10
ffffffff81006b21:	41 59                	pop    %r9
ffffffff81006b23:	41 58                	pop    %r8
ffffffff81006b25:	5d                   	pop    %rbp
ffffffff81006b26:	5c                   	pop    %rsp
ffffffff81006b27:	5f                   	pop    %rdi
ffffffff81006b28:	5e                   	pop    %rsi
ffffffff81006b29:	5a                   	pop    %rdx
ffffffff81006b2a:	59                   	pop    %rcx
ffffffff81006b2b:	5b                   	pop    %rbx
ffffffff81006b2c:	58                   	pop    %rax
ffffffff81006b2d:	9d                   	popfq  
ffffffff81006b2e:	48 cf                	iretq  

ffffffff81006b30 <isr_199>:
ffffffff81006b30:	9c                   	pushfq 
ffffffff81006b31:	50                   	push   %rax
ffffffff81006b32:	53                   	push   %rbx
ffffffff81006b33:	51                   	push   %rcx
ffffffff81006b34:	52                   	push   %rdx
ffffffff81006b35:	56                   	push   %rsi
ffffffff81006b36:	57                   	push   %rdi
ffffffff81006b37:	54                   	push   %rsp
ffffffff81006b38:	55                   	push   %rbp
ffffffff81006b39:	41 50                	push   %r8
ffffffff81006b3b:	41 51                	push   %r9
ffffffff81006b3d:	41 52                	push   %r10
ffffffff81006b3f:	41 53                	push   %r11
ffffffff81006b41:	41 54                	push   %r12
ffffffff81006b43:	41 55                	push   %r13
ffffffff81006b45:	41 56                	push   %r14
ffffffff81006b47:	41 57                	push   %r15
ffffffff81006b49:	fc                   	cld    
ffffffff81006b4a:	bf c7 00 00 00       	mov    $0xc7,%edi
ffffffff81006b4f:	be 00 00 00 00       	mov    $0x0,%esi
ffffffff81006b54:	e8 9e c9 ff ff       	callq  ffffffff810034f7 <isr_dispatcher>
ffffffff81006b59:	41 5f                	pop    %r15
ffffffff81006b5b:	41 5e                	pop    %r14
ffffffff81006b5d:	41 5d                	pop    %r13
ffffffff81006b5f:	41 5c                	pop    %r12
ffffffff81006b61:	41 5b                	pop    %r11
ffffffff81006b63:	41 5a                	pop    %r10
ffffffff81006b65:	41 59                	pop    %r9
ffffffff81006b67:	41 58                	pop    %r8
ffffffff81006b69:	5d                   	pop    %rbp
ffffffff81006b6a:	5c                   	pop    %rsp
ffffffff81006b6b:	5f                   	pop    %rdi
ffffffff81006b6c:	5e                   	pop    %rsi
ffffffff81006b6d:	5a                   	pop    %rdx
ffffffff81006b6e:	59                   	pop    %rcx
ffffffff81006b6f:	5b                   	pop    %rbx
ffffffff81006b70:	58                   	pop    %rax
ffffffff81006b71:	9d                   	popfq  
ffffffff81006b72:	48 cf                	iretq  

ffffffff81006b74 <isr_200>:
ffffffff81006b74:	9c                   	pushfq 
ffffffff81006b75:	50                   	push   %rax
ffffffff81006b76:	53                   	push   %rbx
ffffffff81006b77:	51                   	push   %rcx
ffffffff81006b78:	52                   	push   %rdx
ffffffff81006b79:	56                   	push   %rsi
ffffffff81006b7a:	57                   	push   %rdi
ffffffff81006b7b:	54                   	push   %rsp
ffffffff81006b7c:	55                   	push   %rbp
ffffffff81006b7d:	41 50                	push   %r8
ffffffff81006b7f:	41 51                	push   %r9
ffffffff81006b81:	41 52                	push   %r10
ffffffff81006b83:	41 53                	push   %r11
ffffffff81006b85:	41 54                	push   %r12
ffffffff81006b87:	41 55                	push   %r13
ffffffff81006b89:	41 56                	push   %r14
ffffffff81006b8b:	41 57                	push   %r15
ffffffff81006b8d:	fc                   	cld    
ffffffff81006b8e:	bf c8 00 00 00       	mov    $0xc8,%edi
ffffffff81006b93:	be 00 00 00 00       	mov    $0x0,%esi
ffffffff81006b98:	e8 5a c9 ff ff       	callq  ffffffff810034f7 <isr_dispatcher>
ffffffff81006b9d:	41 5f                	pop    %r15
ffffffff81006b9f:	41 5e                	pop    %r14
ffffffff81006ba1:	41 5d                	pop    %r13
ffffffff81006ba3:	41 5c                	pop    %r12
ffffffff81006ba5:	41 5b                	pop    %r11
ffffffff81006ba7:	41 5a                	pop    %r10
ffffffff81006ba9:	41 59                	pop    %r9
ffffffff81006bab:	41 58                	pop    %r8
ffffffff81006bad:	5d                   	pop    %rbp
ffffffff81006bae:	5c                   	pop    %rsp
ffffffff81006baf:	5f                   	pop    %rdi
ffffffff81006bb0:	5e                   	pop    %rsi
ffffffff81006bb1:	5a                   	pop    %rdx
ffffffff81006bb2:	59                   	pop    %rcx
ffffffff81006bb3:	5b                   	pop    %rbx
ffffffff81006bb4:	58                   	pop    %rax
ffffffff81006bb5:	9d                   	popfq  
ffffffff81006bb6:	48 cf                	iretq  

ffffffff81006bb8 <isr_201>:
ffffffff81006bb8:	9c                   	pushfq 
ffffffff81006bb9:	50                   	push   %rax
ffffffff81006bba:	53                   	push   %rbx
ffffffff81006bbb:	51                   	push   %rcx
ffffffff81006bbc:	52                   	push   %rdx
ffffffff81006bbd:	56                   	push   %rsi
ffffffff81006bbe:	57                   	push   %rdi
ffffffff81006bbf:	54                   	push   %rsp
ffffffff81006bc0:	55                   	push   %rbp
ffffffff81006bc1:	41 50                	push   %r8
ffffffff81006bc3:	41 51                	push   %r9
ffffffff81006bc5:	41 52                	push   %r10
ffffffff81006bc7:	41 53                	push   %r11
ffffffff81006bc9:	41 54                	push   %r12
ffffffff81006bcb:	41 55                	push   %r13
ffffffff81006bcd:	41 56                	push   %r14
ffffffff81006bcf:	41 57                	push   %r15
ffffffff81006bd1:	fc                   	cld    
ffffffff81006bd2:	bf c9 00 00 00       	mov    $0xc9,%edi
ffffffff81006bd7:	be 00 00 00 00       	mov    $0x0,%esi
ffffffff81006bdc:	e8 16 c9 ff ff       	callq  ffffffff810034f7 <isr_dispatcher>
ffffffff81006be1:	41 5f                	pop    %r15
ffffffff81006be3:	41 5e                	pop    %r14
ffffffff81006be5:	41 5d                	pop    %r13
ffffffff81006be7:	41 5c                	pop    %r12
ffffffff81006be9:	41 5b                	pop    %r11
ffffffff81006beb:	41 5a                	pop    %r10
ffffffff81006bed:	41 59                	pop    %r9
ffffffff81006bef:	41 58                	pop    %r8
ffffffff81006bf1:	5d                   	pop    %rbp
ffffffff81006bf2:	5c                   	pop    %rsp
ffffffff81006bf3:	5f                   	pop    %rdi
ffffffff81006bf4:	5e                   	pop    %rsi
ffffffff81006bf5:	5a                   	pop    %rdx
ffffffff81006bf6:	59                   	pop    %rcx
ffffffff81006bf7:	5b                   	pop    %rbx
ffffffff81006bf8:	58                   	pop    %rax
ffffffff81006bf9:	9d                   	popfq  
ffffffff81006bfa:	48 cf                	iretq  

ffffffff81006bfc <isr_202>:
ffffffff81006bfc:	9c                   	pushfq 
ffffffff81006bfd:	50                   	push   %rax
ffffffff81006bfe:	53                   	push   %rbx
ffffffff81006bff:	51                   	push   %rcx
ffffffff81006c00:	52                   	push   %rdx
ffffffff81006c01:	56                   	push   %rsi
ffffffff81006c02:	57                   	push   %rdi
ffffffff81006c03:	54                   	push   %rsp
ffffffff81006c04:	55                   	push   %rbp
ffffffff81006c05:	41 50                	push   %r8
ffffffff81006c07:	41 51                	push   %r9
ffffffff81006c09:	41 52                	push   %r10
ffffffff81006c0b:	41 53                	push   %r11
ffffffff81006c0d:	41 54                	push   %r12
ffffffff81006c0f:	41 55                	push   %r13
ffffffff81006c11:	41 56                	push   %r14
ffffffff81006c13:	41 57                	push   %r15
ffffffff81006c15:	fc                   	cld    
ffffffff81006c16:	bf ca 00 00 00       	mov    $0xca,%edi
ffffffff81006c1b:	be 00 00 00 00       	mov    $0x0,%esi
ffffffff81006c20:	e8 d2 c8 ff ff       	callq  ffffffff810034f7 <isr_dispatcher>
ffffffff81006c25:	41 5f                	pop    %r15
ffffffff81006c27:	41 5e                	pop    %r14
ffffffff81006c29:	41 5d                	pop    %r13
ffffffff81006c2b:	41 5c                	pop    %r12
ffffffff81006c2d:	41 5b                	pop    %r11
ffffffff81006c2f:	41 5a                	pop    %r10
ffffffff81006c31:	41 59                	pop    %r9
ffffffff81006c33:	41 58                	pop    %r8
ffffffff81006c35:	5d                   	pop    %rbp
ffffffff81006c36:	5c                   	pop    %rsp
ffffffff81006c37:	5f                   	pop    %rdi
ffffffff81006c38:	5e                   	pop    %rsi
ffffffff81006c39:	5a                   	pop    %rdx
ffffffff81006c3a:	59                   	pop    %rcx
ffffffff81006c3b:	5b                   	pop    %rbx
ffffffff81006c3c:	58                   	pop    %rax
ffffffff81006c3d:	9d                   	popfq  
ffffffff81006c3e:	48 cf                	iretq  

ffffffff81006c40 <isr_203>:
ffffffff81006c40:	9c                   	pushfq 
ffffffff81006c41:	50                   	push   %rax
ffffffff81006c42:	53                   	push   %rbx
ffffffff81006c43:	51                   	push   %rcx
ffffffff81006c44:	52                   	push   %rdx
ffffffff81006c45:	56                   	push   %rsi
ffffffff81006c46:	57                   	push   %rdi
ffffffff81006c47:	54                   	push   %rsp
ffffffff81006c48:	55                   	push   %rbp
ffffffff81006c49:	41 50                	push   %r8
ffffffff81006c4b:	41 51                	push   %r9
ffffffff81006c4d:	41 52                	push   %r10
ffffffff81006c4f:	41 53                	push   %r11
ffffffff81006c51:	41 54                	push   %r12
ffffffff81006c53:	41 55                	push   %r13
ffffffff81006c55:	41 56                	push   %r14
ffffffff81006c57:	41 57                	push   %r15
ffffffff81006c59:	fc                   	cld    
ffffffff81006c5a:	bf cb 00 00 00       	mov    $0xcb,%edi
ffffffff81006c5f:	be 00 00 00 00       	mov    $0x0,%esi
ffffffff81006c64:	e8 8e c8 ff ff       	callq  ffffffff810034f7 <isr_dispatcher>
ffffffff81006c69:	41 5f                	pop    %r15
ffffffff81006c6b:	41 5e                	pop    %r14
ffffffff81006c6d:	41 5d                	pop    %r13
ffffffff81006c6f:	41 5c                	pop    %r12
ffffffff81006c71:	41 5b                	pop    %r11
ffffffff81006c73:	41 5a                	pop    %r10
ffffffff81006c75:	41 59                	pop    %r9
ffffffff81006c77:	41 58                	pop    %r8
ffffffff81006c79:	5d                   	pop    %rbp
ffffffff81006c7a:	5c                   	pop    %rsp
ffffffff81006c7b:	5f                   	pop    %rdi
ffffffff81006c7c:	5e                   	pop    %rsi
ffffffff81006c7d:	5a                   	pop    %rdx
ffffffff81006c7e:	59                   	pop    %rcx
ffffffff81006c7f:	5b                   	pop    %rbx
ffffffff81006c80:	58                   	pop    %rax
ffffffff81006c81:	9d                   	popfq  
ffffffff81006c82:	48 cf                	iretq  

ffffffff81006c84 <isr_204>:
ffffffff81006c84:	9c                   	pushfq 
ffffffff81006c85:	50                   	push   %rax
ffffffff81006c86:	53                   	push   %rbx
ffffffff81006c87:	51                   	push   %rcx
ffffffff81006c88:	52                   	push   %rdx
ffffffff81006c89:	56                   	push   %rsi
ffffffff81006c8a:	57                   	push   %rdi
ffffffff81006c8b:	54                   	push   %rsp
ffffffff81006c8c:	55                   	push   %rbp
ffffffff81006c8d:	41 50                	push   %r8
ffffffff81006c8f:	41 51                	push   %r9
ffffffff81006c91:	41 52                	push   %r10
ffffffff81006c93:	41 53                	push   %r11
ffffffff81006c95:	41 54                	push   %r12
ffffffff81006c97:	41 55                	push   %r13
ffffffff81006c99:	41 56                	push   %r14
ffffffff81006c9b:	41 57                	push   %r15
ffffffff81006c9d:	fc                   	cld    
ffffffff81006c9e:	bf cc 00 00 00       	mov    $0xcc,%edi
ffffffff81006ca3:	be 00 00 00 00       	mov    $0x0,%esi
ffffffff81006ca8:	e8 4a c8 ff ff       	callq  ffffffff810034f7 <isr_dispatcher>
ffffffff81006cad:	41 5f                	pop    %r15
ffffffff81006caf:	41 5e                	pop    %r14
ffffffff81006cb1:	41 5d                	pop    %r13
ffffffff81006cb3:	41 5c                	pop    %r12
ffffffff81006cb5:	41 5b                	pop    %r11
ffffffff81006cb7:	41 5a                	pop    %r10
ffffffff81006cb9:	41 59                	pop    %r9
ffffffff81006cbb:	41 58                	pop    %r8
ffffffff81006cbd:	5d                   	pop    %rbp
ffffffff81006cbe:	5c                   	pop    %rsp
ffffffff81006cbf:	5f                   	pop    %rdi
ffffffff81006cc0:	5e                   	pop    %rsi
ffffffff81006cc1:	5a                   	pop    %rdx
ffffffff81006cc2:	59                   	pop    %rcx
ffffffff81006cc3:	5b                   	pop    %rbx
ffffffff81006cc4:	58                   	pop    %rax
ffffffff81006cc5:	9d                   	popfq  
ffffffff81006cc6:	48 cf                	iretq  

ffffffff81006cc8 <isr_205>:
ffffffff81006cc8:	9c                   	pushfq 
ffffffff81006cc9:	50                   	push   %rax
ffffffff81006cca:	53                   	push   %rbx
ffffffff81006ccb:	51                   	push   %rcx
ffffffff81006ccc:	52                   	push   %rdx
ffffffff81006ccd:	56                   	push   %rsi
ffffffff81006cce:	57                   	push   %rdi
ffffffff81006ccf:	54                   	push   %rsp
ffffffff81006cd0:	55                   	push   %rbp
ffffffff81006cd1:	41 50                	push   %r8
ffffffff81006cd3:	41 51                	push   %r9
ffffffff81006cd5:	41 52                	push   %r10
ffffffff81006cd7:	41 53                	push   %r11
ffffffff81006cd9:	41 54                	push   %r12
ffffffff81006cdb:	41 55                	push   %r13
ffffffff81006cdd:	41 56                	push   %r14
ffffffff81006cdf:	41 57                	push   %r15
ffffffff81006ce1:	fc                   	cld    
ffffffff81006ce2:	bf cd 00 00 00       	mov    $0xcd,%edi
ffffffff81006ce7:	be 00 00 00 00       	mov    $0x0,%esi
ffffffff81006cec:	e8 06 c8 ff ff       	callq  ffffffff810034f7 <isr_dispatcher>
ffffffff81006cf1:	41 5f                	pop    %r15
ffffffff81006cf3:	41 5e                	pop    %r14
ffffffff81006cf5:	41 5d                	pop    %r13
ffffffff81006cf7:	41 5c                	pop    %r12
ffffffff81006cf9:	41 5b                	pop    %r11
ffffffff81006cfb:	41 5a                	pop    %r10
ffffffff81006cfd:	41 59                	pop    %r9
ffffffff81006cff:	41 58                	pop    %r8
ffffffff81006d01:	5d                   	pop    %rbp
ffffffff81006d02:	5c                   	pop    %rsp
ffffffff81006d03:	5f                   	pop    %rdi
ffffffff81006d04:	5e                   	pop    %rsi
ffffffff81006d05:	5a                   	pop    %rdx
ffffffff81006d06:	59                   	pop    %rcx
ffffffff81006d07:	5b                   	pop    %rbx
ffffffff81006d08:	58                   	pop    %rax
ffffffff81006d09:	9d                   	popfq  
ffffffff81006d0a:	48 cf                	iretq  

ffffffff81006d0c <isr_206>:
ffffffff81006d0c:	9c                   	pushfq 
ffffffff81006d0d:	50                   	push   %rax
ffffffff81006d0e:	53                   	push   %rbx
ffffffff81006d0f:	51                   	push   %rcx
ffffffff81006d10:	52                   	push   %rdx
ffffffff81006d11:	56                   	push   %rsi
ffffffff81006d12:	57                   	push   %rdi
ffffffff81006d13:	54                   	push   %rsp
ffffffff81006d14:	55                   	push   %rbp
ffffffff81006d15:	41 50                	push   %r8
ffffffff81006d17:	41 51                	push   %r9
ffffffff81006d19:	41 52                	push   %r10
ffffffff81006d1b:	41 53                	push   %r11
ffffffff81006d1d:	41 54                	push   %r12
ffffffff81006d1f:	41 55                	push   %r13
ffffffff81006d21:	41 56                	push   %r14
ffffffff81006d23:	41 57                	push   %r15
ffffffff81006d25:	fc                   	cld    
ffffffff81006d26:	bf ce 00 00 00       	mov    $0xce,%edi
ffffffff81006d2b:	be 00 00 00 00       	mov    $0x0,%esi
ffffffff81006d30:	e8 c2 c7 ff ff       	callq  ffffffff810034f7 <isr_dispatcher>
ffffffff81006d35:	41 5f                	pop    %r15
ffffffff81006d37:	41 5e                	pop    %r14
ffffffff81006d39:	41 5d                	pop    %r13
ffffffff81006d3b:	41 5c                	pop    %r12
ffffffff81006d3d:	41 5b                	pop    %r11
ffffffff81006d3f:	41 5a                	pop    %r10
ffffffff81006d41:	41 59                	pop    %r9
ffffffff81006d43:	41 58                	pop    %r8
ffffffff81006d45:	5d                   	pop    %rbp
ffffffff81006d46:	5c                   	pop    %rsp
ffffffff81006d47:	5f                   	pop    %rdi
ffffffff81006d48:	5e                   	pop    %rsi
ffffffff81006d49:	5a                   	pop    %rdx
ffffffff81006d4a:	59                   	pop    %rcx
ffffffff81006d4b:	5b                   	pop    %rbx
ffffffff81006d4c:	58                   	pop    %rax
ffffffff81006d4d:	9d                   	popfq  
ffffffff81006d4e:	48 cf                	iretq  

ffffffff81006d50 <isr_207>:
ffffffff81006d50:	9c                   	pushfq 
ffffffff81006d51:	50                   	push   %rax
ffffffff81006d52:	53                   	push   %rbx
ffffffff81006d53:	51                   	push   %rcx
ffffffff81006d54:	52                   	push   %rdx
ffffffff81006d55:	56                   	push   %rsi
ffffffff81006d56:	57                   	push   %rdi
ffffffff81006d57:	54                   	push   %rsp
ffffffff81006d58:	55                   	push   %rbp
ffffffff81006d59:	41 50                	push   %r8
ffffffff81006d5b:	41 51                	push   %r9
ffffffff81006d5d:	41 52                	push   %r10
ffffffff81006d5f:	41 53                	push   %r11
ffffffff81006d61:	41 54                	push   %r12
ffffffff81006d63:	41 55                	push   %r13
ffffffff81006d65:	41 56                	push   %r14
ffffffff81006d67:	41 57                	push   %r15
ffffffff81006d69:	fc                   	cld    
ffffffff81006d6a:	bf cf 00 00 00       	mov    $0xcf,%edi
ffffffff81006d6f:	be 00 00 00 00       	mov    $0x0,%esi
ffffffff81006d74:	e8 7e c7 ff ff       	callq  ffffffff810034f7 <isr_dispatcher>
ffffffff81006d79:	41 5f                	pop    %r15
ffffffff81006d7b:	41 5e                	pop    %r14
ffffffff81006d7d:	41 5d                	pop    %r13
ffffffff81006d7f:	41 5c                	pop    %r12
ffffffff81006d81:	41 5b                	pop    %r11
ffffffff81006d83:	41 5a                	pop    %r10
ffffffff81006d85:	41 59                	pop    %r9
ffffffff81006d87:	41 58                	pop    %r8
ffffffff81006d89:	5d                   	pop    %rbp
ffffffff81006d8a:	5c                   	pop    %rsp
ffffffff81006d8b:	5f                   	pop    %rdi
ffffffff81006d8c:	5e                   	pop    %rsi
ffffffff81006d8d:	5a                   	pop    %rdx
ffffffff81006d8e:	59                   	pop    %rcx
ffffffff81006d8f:	5b                   	pop    %rbx
ffffffff81006d90:	58                   	pop    %rax
ffffffff81006d91:	9d                   	popfq  
ffffffff81006d92:	48 cf                	iretq  

ffffffff81006d94 <isr_208>:
ffffffff81006d94:	9c                   	pushfq 
ffffffff81006d95:	50                   	push   %rax
ffffffff81006d96:	53                   	push   %rbx
ffffffff81006d97:	51                   	push   %rcx
ffffffff81006d98:	52                   	push   %rdx
ffffffff81006d99:	56                   	push   %rsi
ffffffff81006d9a:	57                   	push   %rdi
ffffffff81006d9b:	54                   	push   %rsp
ffffffff81006d9c:	55                   	push   %rbp
ffffffff81006d9d:	41 50                	push   %r8
ffffffff81006d9f:	41 51                	push   %r9
ffffffff81006da1:	41 52                	push   %r10
ffffffff81006da3:	41 53                	push   %r11
ffffffff81006da5:	41 54                	push   %r12
ffffffff81006da7:	41 55                	push   %r13
ffffffff81006da9:	41 56                	push   %r14
ffffffff81006dab:	41 57                	push   %r15
ffffffff81006dad:	fc                   	cld    
ffffffff81006dae:	bf d0 00 00 00       	mov    $0xd0,%edi
ffffffff81006db3:	be 00 00 00 00       	mov    $0x0,%esi
ffffffff81006db8:	e8 3a c7 ff ff       	callq  ffffffff810034f7 <isr_dispatcher>
ffffffff81006dbd:	41 5f                	pop    %r15
ffffffff81006dbf:	41 5e                	pop    %r14
ffffffff81006dc1:	41 5d                	pop    %r13
ffffffff81006dc3:	41 5c                	pop    %r12
ffffffff81006dc5:	41 5b                	pop    %r11
ffffffff81006dc7:	41 5a                	pop    %r10
ffffffff81006dc9:	41 59                	pop    %r9
ffffffff81006dcb:	41 58                	pop    %r8
ffffffff81006dcd:	5d                   	pop    %rbp
ffffffff81006dce:	5c                   	pop    %rsp
ffffffff81006dcf:	5f                   	pop    %rdi
ffffffff81006dd0:	5e                   	pop    %rsi
ffffffff81006dd1:	5a                   	pop    %rdx
ffffffff81006dd2:	59                   	pop    %rcx
ffffffff81006dd3:	5b                   	pop    %rbx
ffffffff81006dd4:	58                   	pop    %rax
ffffffff81006dd5:	9d                   	popfq  
ffffffff81006dd6:	48 cf                	iretq  

ffffffff81006dd8 <isr_209>:
ffffffff81006dd8:	9c                   	pushfq 
ffffffff81006dd9:	50                   	push   %rax
ffffffff81006dda:	53                   	push   %rbx
ffffffff81006ddb:	51                   	push   %rcx
ffffffff81006ddc:	52                   	push   %rdx
ffffffff81006ddd:	56                   	push   %rsi
ffffffff81006dde:	57                   	push   %rdi
ffffffff81006ddf:	54                   	push   %rsp
ffffffff81006de0:	55                   	push   %rbp
ffffffff81006de1:	41 50                	push   %r8
ffffffff81006de3:	41 51                	push   %r9
ffffffff81006de5:	41 52                	push   %r10
ffffffff81006de7:	41 53                	push   %r11
ffffffff81006de9:	41 54                	push   %r12
ffffffff81006deb:	41 55                	push   %r13
ffffffff81006ded:	41 56                	push   %r14
ffffffff81006def:	41 57                	push   %r15
ffffffff81006df1:	fc                   	cld    
ffffffff81006df2:	bf d1 00 00 00       	mov    $0xd1,%edi
ffffffff81006df7:	be 00 00 00 00       	mov    $0x0,%esi
ffffffff81006dfc:	e8 f6 c6 ff ff       	callq  ffffffff810034f7 <isr_dispatcher>
ffffffff81006e01:	41 5f                	pop    %r15
ffffffff81006e03:	41 5e                	pop    %r14
ffffffff81006e05:	41 5d                	pop    %r13
ffffffff81006e07:	41 5c                	pop    %r12
ffffffff81006e09:	41 5b                	pop    %r11
ffffffff81006e0b:	41 5a                	pop    %r10
ffffffff81006e0d:	41 59                	pop    %r9
ffffffff81006e0f:	41 58                	pop    %r8
ffffffff81006e11:	5d                   	pop    %rbp
ffffffff81006e12:	5c                   	pop    %rsp
ffffffff81006e13:	5f                   	pop    %rdi
ffffffff81006e14:	5e                   	pop    %rsi
ffffffff81006e15:	5a                   	pop    %rdx
ffffffff81006e16:	59                   	pop    %rcx
ffffffff81006e17:	5b                   	pop    %rbx
ffffffff81006e18:	58                   	pop    %rax
ffffffff81006e19:	9d                   	popfq  
ffffffff81006e1a:	48 cf                	iretq  

ffffffff81006e1c <isr_210>:
ffffffff81006e1c:	9c                   	pushfq 
ffffffff81006e1d:	50                   	push   %rax
ffffffff81006e1e:	53                   	push   %rbx
ffffffff81006e1f:	51                   	push   %rcx
ffffffff81006e20:	52                   	push   %rdx
ffffffff81006e21:	56                   	push   %rsi
ffffffff81006e22:	57                   	push   %rdi
ffffffff81006e23:	54                   	push   %rsp
ffffffff81006e24:	55                   	push   %rbp
ffffffff81006e25:	41 50                	push   %r8
ffffffff81006e27:	41 51                	push   %r9
ffffffff81006e29:	41 52                	push   %r10
ffffffff81006e2b:	41 53                	push   %r11
ffffffff81006e2d:	41 54                	push   %r12
ffffffff81006e2f:	41 55                	push   %r13
ffffffff81006e31:	41 56                	push   %r14
ffffffff81006e33:	41 57                	push   %r15
ffffffff81006e35:	fc                   	cld    
ffffffff81006e36:	bf d2 00 00 00       	mov    $0xd2,%edi
ffffffff81006e3b:	be 00 00 00 00       	mov    $0x0,%esi
ffffffff81006e40:	e8 b2 c6 ff ff       	callq  ffffffff810034f7 <isr_dispatcher>
ffffffff81006e45:	41 5f                	pop    %r15
ffffffff81006e47:	41 5e                	pop    %r14
ffffffff81006e49:	41 5d                	pop    %r13
ffffffff81006e4b:	41 5c                	pop    %r12
ffffffff81006e4d:	41 5b                	pop    %r11
ffffffff81006e4f:	41 5a                	pop    %r10
ffffffff81006e51:	41 59                	pop    %r9
ffffffff81006e53:	41 58                	pop    %r8
ffffffff81006e55:	5d                   	pop    %rbp
ffffffff81006e56:	5c                   	pop    %rsp
ffffffff81006e57:	5f                   	pop    %rdi
ffffffff81006e58:	5e                   	pop    %rsi
ffffffff81006e59:	5a                   	pop    %rdx
ffffffff81006e5a:	59                   	pop    %rcx
ffffffff81006e5b:	5b                   	pop    %rbx
ffffffff81006e5c:	58                   	pop    %rax
ffffffff81006e5d:	9d                   	popfq  
ffffffff81006e5e:	48 cf                	iretq  

ffffffff81006e60 <isr_211>:
ffffffff81006e60:	9c                   	pushfq 
ffffffff81006e61:	50                   	push   %rax
ffffffff81006e62:	53                   	push   %rbx
ffffffff81006e63:	51                   	push   %rcx
ffffffff81006e64:	52                   	push   %rdx
ffffffff81006e65:	56                   	push   %rsi
ffffffff81006e66:	57                   	push   %rdi
ffffffff81006e67:	54                   	push   %rsp
ffffffff81006e68:	55                   	push   %rbp
ffffffff81006e69:	41 50                	push   %r8
ffffffff81006e6b:	41 51                	push   %r9
ffffffff81006e6d:	41 52                	push   %r10
ffffffff81006e6f:	41 53                	push   %r11
ffffffff81006e71:	41 54                	push   %r12
ffffffff81006e73:	41 55                	push   %r13
ffffffff81006e75:	41 56                	push   %r14
ffffffff81006e77:	41 57                	push   %r15
ffffffff81006e79:	fc                   	cld    
ffffffff81006e7a:	bf d3 00 00 00       	mov    $0xd3,%edi
ffffffff81006e7f:	be 00 00 00 00       	mov    $0x0,%esi
ffffffff81006e84:	e8 6e c6 ff ff       	callq  ffffffff810034f7 <isr_dispatcher>
ffffffff81006e89:	41 5f                	pop    %r15
ffffffff81006e8b:	41 5e                	pop    %r14
ffffffff81006e8d:	41 5d                	pop    %r13
ffffffff81006e8f:	41 5c                	pop    %r12
ffffffff81006e91:	41 5b                	pop    %r11
ffffffff81006e93:	41 5a                	pop    %r10
ffffffff81006e95:	41 59                	pop    %r9
ffffffff81006e97:	41 58                	pop    %r8
ffffffff81006e99:	5d                   	pop    %rbp
ffffffff81006e9a:	5c                   	pop    %rsp
ffffffff81006e9b:	5f                   	pop    %rdi
ffffffff81006e9c:	5e                   	pop    %rsi
ffffffff81006e9d:	5a                   	pop    %rdx
ffffffff81006e9e:	59                   	pop    %rcx
ffffffff81006e9f:	5b                   	pop    %rbx
ffffffff81006ea0:	58                   	pop    %rax
ffffffff81006ea1:	9d                   	popfq  
ffffffff81006ea2:	48 cf                	iretq  

ffffffff81006ea4 <isr_212>:
ffffffff81006ea4:	9c                   	pushfq 
ffffffff81006ea5:	50                   	push   %rax
ffffffff81006ea6:	53                   	push   %rbx
ffffffff81006ea7:	51                   	push   %rcx
ffffffff81006ea8:	52                   	push   %rdx
ffffffff81006ea9:	56                   	push   %rsi
ffffffff81006eaa:	57                   	push   %rdi
ffffffff81006eab:	54                   	push   %rsp
ffffffff81006eac:	55                   	push   %rbp
ffffffff81006ead:	41 50                	push   %r8
ffffffff81006eaf:	41 51                	push   %r9
ffffffff81006eb1:	41 52                	push   %r10
ffffffff81006eb3:	41 53                	push   %r11
ffffffff81006eb5:	41 54                	push   %r12
ffffffff81006eb7:	41 55                	push   %r13
ffffffff81006eb9:	41 56                	push   %r14
ffffffff81006ebb:	41 57                	push   %r15
ffffffff81006ebd:	fc                   	cld    
ffffffff81006ebe:	bf d4 00 00 00       	mov    $0xd4,%edi
ffffffff81006ec3:	be 00 00 00 00       	mov    $0x0,%esi
ffffffff81006ec8:	e8 2a c6 ff ff       	callq  ffffffff810034f7 <isr_dispatcher>
ffffffff81006ecd:	41 5f                	pop    %r15
ffffffff81006ecf:	41 5e                	pop    %r14
ffffffff81006ed1:	41 5d                	pop    %r13
ffffffff81006ed3:	41 5c                	pop    %r12
ffffffff81006ed5:	41 5b                	pop    %r11
ffffffff81006ed7:	41 5a                	pop    %r10
ffffffff81006ed9:	41 59                	pop    %r9
ffffffff81006edb:	41 58                	pop    %r8
ffffffff81006edd:	5d                   	pop    %rbp
ffffffff81006ede:	5c                   	pop    %rsp
ffffffff81006edf:	5f                   	pop    %rdi
ffffffff81006ee0:	5e                   	pop    %rsi
ffffffff81006ee1:	5a                   	pop    %rdx
ffffffff81006ee2:	59                   	pop    %rcx
ffffffff81006ee3:	5b                   	pop    %rbx
ffffffff81006ee4:	58                   	pop    %rax
ffffffff81006ee5:	9d                   	popfq  
ffffffff81006ee6:	48 cf                	iretq  

ffffffff81006ee8 <isr_213>:
ffffffff81006ee8:	9c                   	pushfq 
ffffffff81006ee9:	50                   	push   %rax
ffffffff81006eea:	53                   	push   %rbx
ffffffff81006eeb:	51                   	push   %rcx
ffffffff81006eec:	52                   	push   %rdx
ffffffff81006eed:	56                   	push   %rsi
ffffffff81006eee:	57                   	push   %rdi
ffffffff81006eef:	54                   	push   %rsp
ffffffff81006ef0:	55                   	push   %rbp
ffffffff81006ef1:	41 50                	push   %r8
ffffffff81006ef3:	41 51                	push   %r9
ffffffff81006ef5:	41 52                	push   %r10
ffffffff81006ef7:	41 53                	push   %r11
ffffffff81006ef9:	41 54                	push   %r12
ffffffff81006efb:	41 55                	push   %r13
ffffffff81006efd:	41 56                	push   %r14
ffffffff81006eff:	41 57                	push   %r15
ffffffff81006f01:	fc                   	cld    
ffffffff81006f02:	bf d5 00 00 00       	mov    $0xd5,%edi
ffffffff81006f07:	be 00 00 00 00       	mov    $0x0,%esi
ffffffff81006f0c:	e8 e6 c5 ff ff       	callq  ffffffff810034f7 <isr_dispatcher>
ffffffff81006f11:	41 5f                	pop    %r15
ffffffff81006f13:	41 5e                	pop    %r14
ffffffff81006f15:	41 5d                	pop    %r13
ffffffff81006f17:	41 5c                	pop    %r12
ffffffff81006f19:	41 5b                	pop    %r11
ffffffff81006f1b:	41 5a                	pop    %r10
ffffffff81006f1d:	41 59                	pop    %r9
ffffffff81006f1f:	41 58                	pop    %r8
ffffffff81006f21:	5d                   	pop    %rbp
ffffffff81006f22:	5c                   	pop    %rsp
ffffffff81006f23:	5f                   	pop    %rdi
ffffffff81006f24:	5e                   	pop    %rsi
ffffffff81006f25:	5a                   	pop    %rdx
ffffffff81006f26:	59                   	pop    %rcx
ffffffff81006f27:	5b                   	pop    %rbx
ffffffff81006f28:	58                   	pop    %rax
ffffffff81006f29:	9d                   	popfq  
ffffffff81006f2a:	48 cf                	iretq  

ffffffff81006f2c <isr_214>:
ffffffff81006f2c:	9c                   	pushfq 
ffffffff81006f2d:	50                   	push   %rax
ffffffff81006f2e:	53                   	push   %rbx
ffffffff81006f2f:	51                   	push   %rcx
ffffffff81006f30:	52                   	push   %rdx
ffffffff81006f31:	56                   	push   %rsi
ffffffff81006f32:	57                   	push   %rdi
ffffffff81006f33:	54                   	push   %rsp
ffffffff81006f34:	55                   	push   %rbp
ffffffff81006f35:	41 50                	push   %r8
ffffffff81006f37:	41 51                	push   %r9
ffffffff81006f39:	41 52                	push   %r10
ffffffff81006f3b:	41 53                	push   %r11
ffffffff81006f3d:	41 54                	push   %r12
ffffffff81006f3f:	41 55                	push   %r13
ffffffff81006f41:	41 56                	push   %r14
ffffffff81006f43:	41 57                	push   %r15
ffffffff81006f45:	fc                   	cld    
ffffffff81006f46:	bf d6 00 00 00       	mov    $0xd6,%edi
ffffffff81006f4b:	be 00 00 00 00       	mov    $0x0,%esi
ffffffff81006f50:	e8 a2 c5 ff ff       	callq  ffffffff810034f7 <isr_dispatcher>
ffffffff81006f55:	41 5f                	pop    %r15
ffffffff81006f57:	41 5e                	pop    %r14
ffffffff81006f59:	41 5d                	pop    %r13
ffffffff81006f5b:	41 5c                	pop    %r12
ffffffff81006f5d:	41 5b                	pop    %r11
ffffffff81006f5f:	41 5a                	pop    %r10
ffffffff81006f61:	41 59                	pop    %r9
ffffffff81006f63:	41 58                	pop    %r8
ffffffff81006f65:	5d                   	pop    %rbp
ffffffff81006f66:	5c                   	pop    %rsp
ffffffff81006f67:	5f                   	pop    %rdi
ffffffff81006f68:	5e                   	pop    %rsi
ffffffff81006f69:	5a                   	pop    %rdx
ffffffff81006f6a:	59                   	pop    %rcx
ffffffff81006f6b:	5b                   	pop    %rbx
ffffffff81006f6c:	58                   	pop    %rax
ffffffff81006f6d:	9d                   	popfq  
ffffffff81006f6e:	48 cf                	iretq  

ffffffff81006f70 <isr_215>:
ffffffff81006f70:	9c                   	pushfq 
ffffffff81006f71:	50                   	push   %rax
ffffffff81006f72:	53                   	push   %rbx
ffffffff81006f73:	51                   	push   %rcx
ffffffff81006f74:	52                   	push   %rdx
ffffffff81006f75:	56                   	push   %rsi
ffffffff81006f76:	57                   	push   %rdi
ffffffff81006f77:	54                   	push   %rsp
ffffffff81006f78:	55                   	push   %rbp
ffffffff81006f79:	41 50                	push   %r8
ffffffff81006f7b:	41 51                	push   %r9
ffffffff81006f7d:	41 52                	push   %r10
ffffffff81006f7f:	41 53                	push   %r11
ffffffff81006f81:	41 54                	push   %r12
ffffffff81006f83:	41 55                	push   %r13
ffffffff81006f85:	41 56                	push   %r14
ffffffff81006f87:	41 57                	push   %r15
ffffffff81006f89:	fc                   	cld    
ffffffff81006f8a:	bf d7 00 00 00       	mov    $0xd7,%edi
ffffffff81006f8f:	be 00 00 00 00       	mov    $0x0,%esi
ffffffff81006f94:	e8 5e c5 ff ff       	callq  ffffffff810034f7 <isr_dispatcher>
ffffffff81006f99:	41 5f                	pop    %r15
ffffffff81006f9b:	41 5e                	pop    %r14
ffffffff81006f9d:	41 5d                	pop    %r13
ffffffff81006f9f:	41 5c                	pop    %r12
ffffffff81006fa1:	41 5b                	pop    %r11
ffffffff81006fa3:	41 5a                	pop    %r10
ffffffff81006fa5:	41 59                	pop    %r9
ffffffff81006fa7:	41 58                	pop    %r8
ffffffff81006fa9:	5d                   	pop    %rbp
ffffffff81006faa:	5c                   	pop    %rsp
ffffffff81006fab:	5f                   	pop    %rdi
ffffffff81006fac:	5e                   	pop    %rsi
ffffffff81006fad:	5a                   	pop    %rdx
ffffffff81006fae:	59                   	pop    %rcx
ffffffff81006faf:	5b                   	pop    %rbx
ffffffff81006fb0:	58                   	pop    %rax
ffffffff81006fb1:	9d                   	popfq  
ffffffff81006fb2:	48 cf                	iretq  

ffffffff81006fb4 <isr_216>:
ffffffff81006fb4:	9c                   	pushfq 
ffffffff81006fb5:	50                   	push   %rax
ffffffff81006fb6:	53                   	push   %rbx
ffffffff81006fb7:	51                   	push   %rcx
ffffffff81006fb8:	52                   	push   %rdx
ffffffff81006fb9:	56                   	push   %rsi
ffffffff81006fba:	57                   	push   %rdi
ffffffff81006fbb:	54                   	push   %rsp
ffffffff81006fbc:	55                   	push   %rbp
ffffffff81006fbd:	41 50                	push   %r8
ffffffff81006fbf:	41 51                	push   %r9
ffffffff81006fc1:	41 52                	push   %r10
ffffffff81006fc3:	41 53                	push   %r11
ffffffff81006fc5:	41 54                	push   %r12
ffffffff81006fc7:	41 55                	push   %r13
ffffffff81006fc9:	41 56                	push   %r14
ffffffff81006fcb:	41 57                	push   %r15
ffffffff81006fcd:	fc                   	cld    
ffffffff81006fce:	bf d8 00 00 00       	mov    $0xd8,%edi
ffffffff81006fd3:	be 00 00 00 00       	mov    $0x0,%esi
ffffffff81006fd8:	e8 1a c5 ff ff       	callq  ffffffff810034f7 <isr_dispatcher>
ffffffff81006fdd:	41 5f                	pop    %r15
ffffffff81006fdf:	41 5e                	pop    %r14
ffffffff81006fe1:	41 5d                	pop    %r13
ffffffff81006fe3:	41 5c                	pop    %r12
ffffffff81006fe5:	41 5b                	pop    %r11
ffffffff81006fe7:	41 5a                	pop    %r10
ffffffff81006fe9:	41 59                	pop    %r9
ffffffff81006feb:	41 58                	pop    %r8
ffffffff81006fed:	5d                   	pop    %rbp
ffffffff81006fee:	5c                   	pop    %rsp
ffffffff81006fef:	5f                   	pop    %rdi
ffffffff81006ff0:	5e                   	pop    %rsi
ffffffff81006ff1:	5a                   	pop    %rdx
ffffffff81006ff2:	59                   	pop    %rcx
ffffffff81006ff3:	5b                   	pop    %rbx
ffffffff81006ff4:	58                   	pop    %rax
ffffffff81006ff5:	9d                   	popfq  
ffffffff81006ff6:	48 cf                	iretq  

ffffffff81006ff8 <isr_217>:
ffffffff81006ff8:	9c                   	pushfq 
ffffffff81006ff9:	50                   	push   %rax
ffffffff81006ffa:	53                   	push   %rbx
ffffffff81006ffb:	51                   	push   %rcx
ffffffff81006ffc:	52                   	push   %rdx
ffffffff81006ffd:	56                   	push   %rsi
ffffffff81006ffe:	57                   	push   %rdi
ffffffff81006fff:	54                   	push   %rsp
ffffffff81007000:	55                   	push   %rbp
ffffffff81007001:	41 50                	push   %r8
ffffffff81007003:	41 51                	push   %r9
ffffffff81007005:	41 52                	push   %r10
ffffffff81007007:	41 53                	push   %r11
ffffffff81007009:	41 54                	push   %r12
ffffffff8100700b:	41 55                	push   %r13
ffffffff8100700d:	41 56                	push   %r14
ffffffff8100700f:	41 57                	push   %r15
ffffffff81007011:	fc                   	cld    
ffffffff81007012:	bf d9 00 00 00       	mov    $0xd9,%edi
ffffffff81007017:	be 00 00 00 00       	mov    $0x0,%esi
ffffffff8100701c:	e8 d6 c4 ff ff       	callq  ffffffff810034f7 <isr_dispatcher>
ffffffff81007021:	41 5f                	pop    %r15
ffffffff81007023:	41 5e                	pop    %r14
ffffffff81007025:	41 5d                	pop    %r13
ffffffff81007027:	41 5c                	pop    %r12
ffffffff81007029:	41 5b                	pop    %r11
ffffffff8100702b:	41 5a                	pop    %r10
ffffffff8100702d:	41 59                	pop    %r9
ffffffff8100702f:	41 58                	pop    %r8
ffffffff81007031:	5d                   	pop    %rbp
ffffffff81007032:	5c                   	pop    %rsp
ffffffff81007033:	5f                   	pop    %rdi
ffffffff81007034:	5e                   	pop    %rsi
ffffffff81007035:	5a                   	pop    %rdx
ffffffff81007036:	59                   	pop    %rcx
ffffffff81007037:	5b                   	pop    %rbx
ffffffff81007038:	58                   	pop    %rax
ffffffff81007039:	9d                   	popfq  
ffffffff8100703a:	48 cf                	iretq  

ffffffff8100703c <isr_218>:
ffffffff8100703c:	9c                   	pushfq 
ffffffff8100703d:	50                   	push   %rax
ffffffff8100703e:	53                   	push   %rbx
ffffffff8100703f:	51                   	push   %rcx
ffffffff81007040:	52                   	push   %rdx
ffffffff81007041:	56                   	push   %rsi
ffffffff81007042:	57                   	push   %rdi
ffffffff81007043:	54                   	push   %rsp
ffffffff81007044:	55                   	push   %rbp
ffffffff81007045:	41 50                	push   %r8
ffffffff81007047:	41 51                	push   %r9
ffffffff81007049:	41 52                	push   %r10
ffffffff8100704b:	41 53                	push   %r11
ffffffff8100704d:	41 54                	push   %r12
ffffffff8100704f:	41 55                	push   %r13
ffffffff81007051:	41 56                	push   %r14
ffffffff81007053:	41 57                	push   %r15
ffffffff81007055:	fc                   	cld    
ffffffff81007056:	bf da 00 00 00       	mov    $0xda,%edi
ffffffff8100705b:	be 00 00 00 00       	mov    $0x0,%esi
ffffffff81007060:	e8 92 c4 ff ff       	callq  ffffffff810034f7 <isr_dispatcher>
ffffffff81007065:	41 5f                	pop    %r15
ffffffff81007067:	41 5e                	pop    %r14
ffffffff81007069:	41 5d                	pop    %r13
ffffffff8100706b:	41 5c                	pop    %r12
ffffffff8100706d:	41 5b                	pop    %r11
ffffffff8100706f:	41 5a                	pop    %r10
ffffffff81007071:	41 59                	pop    %r9
ffffffff81007073:	41 58                	pop    %r8
ffffffff81007075:	5d                   	pop    %rbp
ffffffff81007076:	5c                   	pop    %rsp
ffffffff81007077:	5f                   	pop    %rdi
ffffffff81007078:	5e                   	pop    %rsi
ffffffff81007079:	5a                   	pop    %rdx
ffffffff8100707a:	59                   	pop    %rcx
ffffffff8100707b:	5b                   	pop    %rbx
ffffffff8100707c:	58                   	pop    %rax
ffffffff8100707d:	9d                   	popfq  
ffffffff8100707e:	48 cf                	iretq  

ffffffff81007080 <isr_219>:
ffffffff81007080:	9c                   	pushfq 
ffffffff81007081:	50                   	push   %rax
ffffffff81007082:	53                   	push   %rbx
ffffffff81007083:	51                   	push   %rcx
ffffffff81007084:	52                   	push   %rdx
ffffffff81007085:	56                   	push   %rsi
ffffffff81007086:	57                   	push   %rdi
ffffffff81007087:	54                   	push   %rsp
ffffffff81007088:	55                   	push   %rbp
ffffffff81007089:	41 50                	push   %r8
ffffffff8100708b:	41 51                	push   %r9
ffffffff8100708d:	41 52                	push   %r10
ffffffff8100708f:	41 53                	push   %r11
ffffffff81007091:	41 54                	push   %r12
ffffffff81007093:	41 55                	push   %r13
ffffffff81007095:	41 56                	push   %r14
ffffffff81007097:	41 57                	push   %r15
ffffffff81007099:	fc                   	cld    
ffffffff8100709a:	bf db 00 00 00       	mov    $0xdb,%edi
ffffffff8100709f:	be 00 00 00 00       	mov    $0x0,%esi
ffffffff810070a4:	e8 4e c4 ff ff       	callq  ffffffff810034f7 <isr_dispatcher>
ffffffff810070a9:	41 5f                	pop    %r15
ffffffff810070ab:	41 5e                	pop    %r14
ffffffff810070ad:	41 5d                	pop    %r13
ffffffff810070af:	41 5c                	pop    %r12
ffffffff810070b1:	41 5b                	pop    %r11
ffffffff810070b3:	41 5a                	pop    %r10
ffffffff810070b5:	41 59                	pop    %r9
ffffffff810070b7:	41 58                	pop    %r8
ffffffff810070b9:	5d                   	pop    %rbp
ffffffff810070ba:	5c                   	pop    %rsp
ffffffff810070bb:	5f                   	pop    %rdi
ffffffff810070bc:	5e                   	pop    %rsi
ffffffff810070bd:	5a                   	pop    %rdx
ffffffff810070be:	59                   	pop    %rcx
ffffffff810070bf:	5b                   	pop    %rbx
ffffffff810070c0:	58                   	pop    %rax
ffffffff810070c1:	9d                   	popfq  
ffffffff810070c2:	48 cf                	iretq  

ffffffff810070c4 <isr_220>:
ffffffff810070c4:	9c                   	pushfq 
ffffffff810070c5:	50                   	push   %rax
ffffffff810070c6:	53                   	push   %rbx
ffffffff810070c7:	51                   	push   %rcx
ffffffff810070c8:	52                   	push   %rdx
ffffffff810070c9:	56                   	push   %rsi
ffffffff810070ca:	57                   	push   %rdi
ffffffff810070cb:	54                   	push   %rsp
ffffffff810070cc:	55                   	push   %rbp
ffffffff810070cd:	41 50                	push   %r8
ffffffff810070cf:	41 51                	push   %r9
ffffffff810070d1:	41 52                	push   %r10
ffffffff810070d3:	41 53                	push   %r11
ffffffff810070d5:	41 54                	push   %r12
ffffffff810070d7:	41 55                	push   %r13
ffffffff810070d9:	41 56                	push   %r14
ffffffff810070db:	41 57                	push   %r15
ffffffff810070dd:	fc                   	cld    
ffffffff810070de:	bf dc 00 00 00       	mov    $0xdc,%edi
ffffffff810070e3:	be 00 00 00 00       	mov    $0x0,%esi
ffffffff810070e8:	e8 0a c4 ff ff       	callq  ffffffff810034f7 <isr_dispatcher>
ffffffff810070ed:	41 5f                	pop    %r15
ffffffff810070ef:	41 5e                	pop    %r14
ffffffff810070f1:	41 5d                	pop    %r13
ffffffff810070f3:	41 5c                	pop    %r12
ffffffff810070f5:	41 5b                	pop    %r11
ffffffff810070f7:	41 5a                	pop    %r10
ffffffff810070f9:	41 59                	pop    %r9
ffffffff810070fb:	41 58                	pop    %r8
ffffffff810070fd:	5d                   	pop    %rbp
ffffffff810070fe:	5c                   	pop    %rsp
ffffffff810070ff:	5f                   	pop    %rdi
ffffffff81007100:	5e                   	pop    %rsi
ffffffff81007101:	5a                   	pop    %rdx
ffffffff81007102:	59                   	pop    %rcx
ffffffff81007103:	5b                   	pop    %rbx
ffffffff81007104:	58                   	pop    %rax
ffffffff81007105:	9d                   	popfq  
ffffffff81007106:	48 cf                	iretq  

ffffffff81007108 <isr_221>:
ffffffff81007108:	9c                   	pushfq 
ffffffff81007109:	50                   	push   %rax
ffffffff8100710a:	53                   	push   %rbx
ffffffff8100710b:	51                   	push   %rcx
ffffffff8100710c:	52                   	push   %rdx
ffffffff8100710d:	56                   	push   %rsi
ffffffff8100710e:	57                   	push   %rdi
ffffffff8100710f:	54                   	push   %rsp
ffffffff81007110:	55                   	push   %rbp
ffffffff81007111:	41 50                	push   %r8
ffffffff81007113:	41 51                	push   %r9
ffffffff81007115:	41 52                	push   %r10
ffffffff81007117:	41 53                	push   %r11
ffffffff81007119:	41 54                	push   %r12
ffffffff8100711b:	41 55                	push   %r13
ffffffff8100711d:	41 56                	push   %r14
ffffffff8100711f:	41 57                	push   %r15
ffffffff81007121:	fc                   	cld    
ffffffff81007122:	bf dd 00 00 00       	mov    $0xdd,%edi
ffffffff81007127:	be 00 00 00 00       	mov    $0x0,%esi
ffffffff8100712c:	e8 c6 c3 ff ff       	callq  ffffffff810034f7 <isr_dispatcher>
ffffffff81007131:	41 5f                	pop    %r15
ffffffff81007133:	41 5e                	pop    %r14
ffffffff81007135:	41 5d                	pop    %r13
ffffffff81007137:	41 5c                	pop    %r12
ffffffff81007139:	41 5b                	pop    %r11
ffffffff8100713b:	41 5a                	pop    %r10
ffffffff8100713d:	41 59                	pop    %r9
ffffffff8100713f:	41 58                	pop    %r8
ffffffff81007141:	5d                   	pop    %rbp
ffffffff81007142:	5c                   	pop    %rsp
ffffffff81007143:	5f                   	pop    %rdi
ffffffff81007144:	5e                   	pop    %rsi
ffffffff81007145:	5a                   	pop    %rdx
ffffffff81007146:	59                   	pop    %rcx
ffffffff81007147:	5b                   	pop    %rbx
ffffffff81007148:	58                   	pop    %rax
ffffffff81007149:	9d                   	popfq  
ffffffff8100714a:	48 cf                	iretq  

ffffffff8100714c <isr_222>:
ffffffff8100714c:	9c                   	pushfq 
ffffffff8100714d:	50                   	push   %rax
ffffffff8100714e:	53                   	push   %rbx
ffffffff8100714f:	51                   	push   %rcx
ffffffff81007150:	52                   	push   %rdx
ffffffff81007151:	56                   	push   %rsi
ffffffff81007152:	57                   	push   %rdi
ffffffff81007153:	54                   	push   %rsp
ffffffff81007154:	55                   	push   %rbp
ffffffff81007155:	41 50                	push   %r8
ffffffff81007157:	41 51                	push   %r9
ffffffff81007159:	41 52                	push   %r10
ffffffff8100715b:	41 53                	push   %r11
ffffffff8100715d:	41 54                	push   %r12
ffffffff8100715f:	41 55                	push   %r13
ffffffff81007161:	41 56                	push   %r14
ffffffff81007163:	41 57                	push   %r15
ffffffff81007165:	fc                   	cld    
ffffffff81007166:	bf de 00 00 00       	mov    $0xde,%edi
ffffffff8100716b:	be 00 00 00 00       	mov    $0x0,%esi
ffffffff81007170:	e8 82 c3 ff ff       	callq  ffffffff810034f7 <isr_dispatcher>
ffffffff81007175:	41 5f                	pop    %r15
ffffffff81007177:	41 5e                	pop    %r14
ffffffff81007179:	41 5d                	pop    %r13
ffffffff8100717b:	41 5c                	pop    %r12
ffffffff8100717d:	41 5b                	pop    %r11
ffffffff8100717f:	41 5a                	pop    %r10
ffffffff81007181:	41 59                	pop    %r9
ffffffff81007183:	41 58                	pop    %r8
ffffffff81007185:	5d                   	pop    %rbp
ffffffff81007186:	5c                   	pop    %rsp
ffffffff81007187:	5f                   	pop    %rdi
ffffffff81007188:	5e                   	pop    %rsi
ffffffff81007189:	5a                   	pop    %rdx
ffffffff8100718a:	59                   	pop    %rcx
ffffffff8100718b:	5b                   	pop    %rbx
ffffffff8100718c:	58                   	pop    %rax
ffffffff8100718d:	9d                   	popfq  
ffffffff8100718e:	48 cf                	iretq  

ffffffff81007190 <isr_223>:
ffffffff81007190:	9c                   	pushfq 
ffffffff81007191:	50                   	push   %rax
ffffffff81007192:	53                   	push   %rbx
ffffffff81007193:	51                   	push   %rcx
ffffffff81007194:	52                   	push   %rdx
ffffffff81007195:	56                   	push   %rsi
ffffffff81007196:	57                   	push   %rdi
ffffffff81007197:	54                   	push   %rsp
ffffffff81007198:	55                   	push   %rbp
ffffffff81007199:	41 50                	push   %r8
ffffffff8100719b:	41 51                	push   %r9
ffffffff8100719d:	41 52                	push   %r10
ffffffff8100719f:	41 53                	push   %r11
ffffffff810071a1:	41 54                	push   %r12
ffffffff810071a3:	41 55                	push   %r13
ffffffff810071a5:	41 56                	push   %r14
ffffffff810071a7:	41 57                	push   %r15
ffffffff810071a9:	fc                   	cld    
ffffffff810071aa:	bf df 00 00 00       	mov    $0xdf,%edi
ffffffff810071af:	be 00 00 00 00       	mov    $0x0,%esi
ffffffff810071b4:	e8 3e c3 ff ff       	callq  ffffffff810034f7 <isr_dispatcher>
ffffffff810071b9:	41 5f                	pop    %r15
ffffffff810071bb:	41 5e                	pop    %r14
ffffffff810071bd:	41 5d                	pop    %r13
ffffffff810071bf:	41 5c                	pop    %r12
ffffffff810071c1:	41 5b                	pop    %r11
ffffffff810071c3:	41 5a                	pop    %r10
ffffffff810071c5:	41 59                	pop    %r9
ffffffff810071c7:	41 58                	pop    %r8
ffffffff810071c9:	5d                   	pop    %rbp
ffffffff810071ca:	5c                   	pop    %rsp
ffffffff810071cb:	5f                   	pop    %rdi
ffffffff810071cc:	5e                   	pop    %rsi
ffffffff810071cd:	5a                   	pop    %rdx
ffffffff810071ce:	59                   	pop    %rcx
ffffffff810071cf:	5b                   	pop    %rbx
ffffffff810071d0:	58                   	pop    %rax
ffffffff810071d1:	9d                   	popfq  
ffffffff810071d2:	48 cf                	iretq  

ffffffff810071d4 <isr_224>:
ffffffff810071d4:	9c                   	pushfq 
ffffffff810071d5:	50                   	push   %rax
ffffffff810071d6:	53                   	push   %rbx
ffffffff810071d7:	51                   	push   %rcx
ffffffff810071d8:	52                   	push   %rdx
ffffffff810071d9:	56                   	push   %rsi
ffffffff810071da:	57                   	push   %rdi
ffffffff810071db:	54                   	push   %rsp
ffffffff810071dc:	55                   	push   %rbp
ffffffff810071dd:	41 50                	push   %r8
ffffffff810071df:	41 51                	push   %r9
ffffffff810071e1:	41 52                	push   %r10
ffffffff810071e3:	41 53                	push   %r11
ffffffff810071e5:	41 54                	push   %r12
ffffffff810071e7:	41 55                	push   %r13
ffffffff810071e9:	41 56                	push   %r14
ffffffff810071eb:	41 57                	push   %r15
ffffffff810071ed:	fc                   	cld    
ffffffff810071ee:	bf e0 00 00 00       	mov    $0xe0,%edi
ffffffff810071f3:	be 00 00 00 00       	mov    $0x0,%esi
ffffffff810071f8:	e8 fa c2 ff ff       	callq  ffffffff810034f7 <isr_dispatcher>
ffffffff810071fd:	41 5f                	pop    %r15
ffffffff810071ff:	41 5e                	pop    %r14
ffffffff81007201:	41 5d                	pop    %r13
ffffffff81007203:	41 5c                	pop    %r12
ffffffff81007205:	41 5b                	pop    %r11
ffffffff81007207:	41 5a                	pop    %r10
ffffffff81007209:	41 59                	pop    %r9
ffffffff8100720b:	41 58                	pop    %r8
ffffffff8100720d:	5d                   	pop    %rbp
ffffffff8100720e:	5c                   	pop    %rsp
ffffffff8100720f:	5f                   	pop    %rdi
ffffffff81007210:	5e                   	pop    %rsi
ffffffff81007211:	5a                   	pop    %rdx
ffffffff81007212:	59                   	pop    %rcx
ffffffff81007213:	5b                   	pop    %rbx
ffffffff81007214:	58                   	pop    %rax
ffffffff81007215:	9d                   	popfq  
ffffffff81007216:	48 cf                	iretq  

ffffffff81007218 <isr_225>:
ffffffff81007218:	9c                   	pushfq 
ffffffff81007219:	50                   	push   %rax
ffffffff8100721a:	53                   	push   %rbx
ffffffff8100721b:	51                   	push   %rcx
ffffffff8100721c:	52                   	push   %rdx
ffffffff8100721d:	56                   	push   %rsi
ffffffff8100721e:	57                   	push   %rdi
ffffffff8100721f:	54                   	push   %rsp
ffffffff81007220:	55                   	push   %rbp
ffffffff81007221:	41 50                	push   %r8
ffffffff81007223:	41 51                	push   %r9
ffffffff81007225:	41 52                	push   %r10
ffffffff81007227:	41 53                	push   %r11
ffffffff81007229:	41 54                	push   %r12
ffffffff8100722b:	41 55                	push   %r13
ffffffff8100722d:	41 56                	push   %r14
ffffffff8100722f:	41 57                	push   %r15
ffffffff81007231:	fc                   	cld    
ffffffff81007232:	bf e1 00 00 00       	mov    $0xe1,%edi
ffffffff81007237:	be 00 00 00 00       	mov    $0x0,%esi
ffffffff8100723c:	e8 b6 c2 ff ff       	callq  ffffffff810034f7 <isr_dispatcher>
ffffffff81007241:	41 5f                	pop    %r15
ffffffff81007243:	41 5e                	pop    %r14
ffffffff81007245:	41 5d                	pop    %r13
ffffffff81007247:	41 5c                	pop    %r12
ffffffff81007249:	41 5b                	pop    %r11
ffffffff8100724b:	41 5a                	pop    %r10
ffffffff8100724d:	41 59                	pop    %r9
ffffffff8100724f:	41 58                	pop    %r8
ffffffff81007251:	5d                   	pop    %rbp
ffffffff81007252:	5c                   	pop    %rsp
ffffffff81007253:	5f                   	pop    %rdi
ffffffff81007254:	5e                   	pop    %rsi
ffffffff81007255:	5a                   	pop    %rdx
ffffffff81007256:	59                   	pop    %rcx
ffffffff81007257:	5b                   	pop    %rbx
ffffffff81007258:	58                   	pop    %rax
ffffffff81007259:	9d                   	popfq  
ffffffff8100725a:	48 cf                	iretq  

ffffffff8100725c <isr_226>:
ffffffff8100725c:	9c                   	pushfq 
ffffffff8100725d:	50                   	push   %rax
ffffffff8100725e:	53                   	push   %rbx
ffffffff8100725f:	51                   	push   %rcx
ffffffff81007260:	52                   	push   %rdx
ffffffff81007261:	56                   	push   %rsi
ffffffff81007262:	57                   	push   %rdi
ffffffff81007263:	54                   	push   %rsp
ffffffff81007264:	55                   	push   %rbp
ffffffff81007265:	41 50                	push   %r8
ffffffff81007267:	41 51                	push   %r9
ffffffff81007269:	41 52                	push   %r10
ffffffff8100726b:	41 53                	push   %r11
ffffffff8100726d:	41 54                	push   %r12
ffffffff8100726f:	41 55                	push   %r13
ffffffff81007271:	41 56                	push   %r14
ffffffff81007273:	41 57                	push   %r15
ffffffff81007275:	fc                   	cld    
ffffffff81007276:	bf e2 00 00 00       	mov    $0xe2,%edi
ffffffff8100727b:	be 00 00 00 00       	mov    $0x0,%esi
ffffffff81007280:	e8 72 c2 ff ff       	callq  ffffffff810034f7 <isr_dispatcher>
ffffffff81007285:	41 5f                	pop    %r15
ffffffff81007287:	41 5e                	pop    %r14
ffffffff81007289:	41 5d                	pop    %r13
ffffffff8100728b:	41 5c                	pop    %r12
ffffffff8100728d:	41 5b                	pop    %r11
ffffffff8100728f:	41 5a                	pop    %r10
ffffffff81007291:	41 59                	pop    %r9
ffffffff81007293:	41 58                	pop    %r8
ffffffff81007295:	5d                   	pop    %rbp
ffffffff81007296:	5c                   	pop    %rsp
ffffffff81007297:	5f                   	pop    %rdi
ffffffff81007298:	5e                   	pop    %rsi
ffffffff81007299:	5a                   	pop    %rdx
ffffffff8100729a:	59                   	pop    %rcx
ffffffff8100729b:	5b                   	pop    %rbx
ffffffff8100729c:	58                   	pop    %rax
ffffffff8100729d:	9d                   	popfq  
ffffffff8100729e:	48 cf                	iretq  

ffffffff810072a0 <isr_227>:
ffffffff810072a0:	9c                   	pushfq 
ffffffff810072a1:	50                   	push   %rax
ffffffff810072a2:	53                   	push   %rbx
ffffffff810072a3:	51                   	push   %rcx
ffffffff810072a4:	52                   	push   %rdx
ffffffff810072a5:	56                   	push   %rsi
ffffffff810072a6:	57                   	push   %rdi
ffffffff810072a7:	54                   	push   %rsp
ffffffff810072a8:	55                   	push   %rbp
ffffffff810072a9:	41 50                	push   %r8
ffffffff810072ab:	41 51                	push   %r9
ffffffff810072ad:	41 52                	push   %r10
ffffffff810072af:	41 53                	push   %r11
ffffffff810072b1:	41 54                	push   %r12
ffffffff810072b3:	41 55                	push   %r13
ffffffff810072b5:	41 56                	push   %r14
ffffffff810072b7:	41 57                	push   %r15
ffffffff810072b9:	fc                   	cld    
ffffffff810072ba:	bf e3 00 00 00       	mov    $0xe3,%edi
ffffffff810072bf:	be 00 00 00 00       	mov    $0x0,%esi
ffffffff810072c4:	e8 2e c2 ff ff       	callq  ffffffff810034f7 <isr_dispatcher>
ffffffff810072c9:	41 5f                	pop    %r15
ffffffff810072cb:	41 5e                	pop    %r14
ffffffff810072cd:	41 5d                	pop    %r13
ffffffff810072cf:	41 5c                	pop    %r12
ffffffff810072d1:	41 5b                	pop    %r11
ffffffff810072d3:	41 5a                	pop    %r10
ffffffff810072d5:	41 59                	pop    %r9
ffffffff810072d7:	41 58                	pop    %r8
ffffffff810072d9:	5d                   	pop    %rbp
ffffffff810072da:	5c                   	pop    %rsp
ffffffff810072db:	5f                   	pop    %rdi
ffffffff810072dc:	5e                   	pop    %rsi
ffffffff810072dd:	5a                   	pop    %rdx
ffffffff810072de:	59                   	pop    %rcx
ffffffff810072df:	5b                   	pop    %rbx
ffffffff810072e0:	58                   	pop    %rax
ffffffff810072e1:	9d                   	popfq  
ffffffff810072e2:	48 cf                	iretq  

ffffffff810072e4 <isr_228>:
ffffffff810072e4:	9c                   	pushfq 
ffffffff810072e5:	50                   	push   %rax
ffffffff810072e6:	53                   	push   %rbx
ffffffff810072e7:	51                   	push   %rcx
ffffffff810072e8:	52                   	push   %rdx
ffffffff810072e9:	56                   	push   %rsi
ffffffff810072ea:	57                   	push   %rdi
ffffffff810072eb:	54                   	push   %rsp
ffffffff810072ec:	55                   	push   %rbp
ffffffff810072ed:	41 50                	push   %r8
ffffffff810072ef:	41 51                	push   %r9
ffffffff810072f1:	41 52                	push   %r10
ffffffff810072f3:	41 53                	push   %r11
ffffffff810072f5:	41 54                	push   %r12
ffffffff810072f7:	41 55                	push   %r13
ffffffff810072f9:	41 56                	push   %r14
ffffffff810072fb:	41 57                	push   %r15
ffffffff810072fd:	fc                   	cld    
ffffffff810072fe:	bf e4 00 00 00       	mov    $0xe4,%edi
ffffffff81007303:	be 00 00 00 00       	mov    $0x0,%esi
ffffffff81007308:	e8 ea c1 ff ff       	callq  ffffffff810034f7 <isr_dispatcher>
ffffffff8100730d:	41 5f                	pop    %r15
ffffffff8100730f:	41 5e                	pop    %r14
ffffffff81007311:	41 5d                	pop    %r13
ffffffff81007313:	41 5c                	pop    %r12
ffffffff81007315:	41 5b                	pop    %r11
ffffffff81007317:	41 5a                	pop    %r10
ffffffff81007319:	41 59                	pop    %r9
ffffffff8100731b:	41 58                	pop    %r8
ffffffff8100731d:	5d                   	pop    %rbp
ffffffff8100731e:	5c                   	pop    %rsp
ffffffff8100731f:	5f                   	pop    %rdi
ffffffff81007320:	5e                   	pop    %rsi
ffffffff81007321:	5a                   	pop    %rdx
ffffffff81007322:	59                   	pop    %rcx
ffffffff81007323:	5b                   	pop    %rbx
ffffffff81007324:	58                   	pop    %rax
ffffffff81007325:	9d                   	popfq  
ffffffff81007326:	48 cf                	iretq  

ffffffff81007328 <isr_229>:
ffffffff81007328:	9c                   	pushfq 
ffffffff81007329:	50                   	push   %rax
ffffffff8100732a:	53                   	push   %rbx
ffffffff8100732b:	51                   	push   %rcx
ffffffff8100732c:	52                   	push   %rdx
ffffffff8100732d:	56                   	push   %rsi
ffffffff8100732e:	57                   	push   %rdi
ffffffff8100732f:	54                   	push   %rsp
ffffffff81007330:	55                   	push   %rbp
ffffffff81007331:	41 50                	push   %r8
ffffffff81007333:	41 51                	push   %r9
ffffffff81007335:	41 52                	push   %r10
ffffffff81007337:	41 53                	push   %r11
ffffffff81007339:	41 54                	push   %r12
ffffffff8100733b:	41 55                	push   %r13
ffffffff8100733d:	41 56                	push   %r14
ffffffff8100733f:	41 57                	push   %r15
ffffffff81007341:	fc                   	cld    
ffffffff81007342:	bf e5 00 00 00       	mov    $0xe5,%edi
ffffffff81007347:	be 00 00 00 00       	mov    $0x0,%esi
ffffffff8100734c:	e8 a6 c1 ff ff       	callq  ffffffff810034f7 <isr_dispatcher>
ffffffff81007351:	41 5f                	pop    %r15
ffffffff81007353:	41 5e                	pop    %r14
ffffffff81007355:	41 5d                	pop    %r13
ffffffff81007357:	41 5c                	pop    %r12
ffffffff81007359:	41 5b                	pop    %r11
ffffffff8100735b:	41 5a                	pop    %r10
ffffffff8100735d:	41 59                	pop    %r9
ffffffff8100735f:	41 58                	pop    %r8
ffffffff81007361:	5d                   	pop    %rbp
ffffffff81007362:	5c                   	pop    %rsp
ffffffff81007363:	5f                   	pop    %rdi
ffffffff81007364:	5e                   	pop    %rsi
ffffffff81007365:	5a                   	pop    %rdx
ffffffff81007366:	59                   	pop    %rcx
ffffffff81007367:	5b                   	pop    %rbx
ffffffff81007368:	58                   	pop    %rax
ffffffff81007369:	9d                   	popfq  
ffffffff8100736a:	48 cf                	iretq  

ffffffff8100736c <isr_230>:
ffffffff8100736c:	9c                   	pushfq 
ffffffff8100736d:	50                   	push   %rax
ffffffff8100736e:	53                   	push   %rbx
ffffffff8100736f:	51                   	push   %rcx
ffffffff81007370:	52                   	push   %rdx
ffffffff81007371:	56                   	push   %rsi
ffffffff81007372:	57                   	push   %rdi
ffffffff81007373:	54                   	push   %rsp
ffffffff81007374:	55                   	push   %rbp
ffffffff81007375:	41 50                	push   %r8
ffffffff81007377:	41 51                	push   %r9
ffffffff81007379:	41 52                	push   %r10
ffffffff8100737b:	41 53                	push   %r11
ffffffff8100737d:	41 54                	push   %r12
ffffffff8100737f:	41 55                	push   %r13
ffffffff81007381:	41 56                	push   %r14
ffffffff81007383:	41 57                	push   %r15
ffffffff81007385:	fc                   	cld    
ffffffff81007386:	bf e6 00 00 00       	mov    $0xe6,%edi
ffffffff8100738b:	be 00 00 00 00       	mov    $0x0,%esi
ffffffff81007390:	e8 62 c1 ff ff       	callq  ffffffff810034f7 <isr_dispatcher>
ffffffff81007395:	41 5f                	pop    %r15
ffffffff81007397:	41 5e                	pop    %r14
ffffffff81007399:	41 5d                	pop    %r13
ffffffff8100739b:	41 5c                	pop    %r12
ffffffff8100739d:	41 5b                	pop    %r11
ffffffff8100739f:	41 5a                	pop    %r10
ffffffff810073a1:	41 59                	pop    %r9
ffffffff810073a3:	41 58                	pop    %r8
ffffffff810073a5:	5d                   	pop    %rbp
ffffffff810073a6:	5c                   	pop    %rsp
ffffffff810073a7:	5f                   	pop    %rdi
ffffffff810073a8:	5e                   	pop    %rsi
ffffffff810073a9:	5a                   	pop    %rdx
ffffffff810073aa:	59                   	pop    %rcx
ffffffff810073ab:	5b                   	pop    %rbx
ffffffff810073ac:	58                   	pop    %rax
ffffffff810073ad:	9d                   	popfq  
ffffffff810073ae:	48 cf                	iretq  

ffffffff810073b0 <isr_231>:
ffffffff810073b0:	9c                   	pushfq 
ffffffff810073b1:	50                   	push   %rax
ffffffff810073b2:	53                   	push   %rbx
ffffffff810073b3:	51                   	push   %rcx
ffffffff810073b4:	52                   	push   %rdx
ffffffff810073b5:	56                   	push   %rsi
ffffffff810073b6:	57                   	push   %rdi
ffffffff810073b7:	54                   	push   %rsp
ffffffff810073b8:	55                   	push   %rbp
ffffffff810073b9:	41 50                	push   %r8
ffffffff810073bb:	41 51                	push   %r9
ffffffff810073bd:	41 52                	push   %r10
ffffffff810073bf:	41 53                	push   %r11
ffffffff810073c1:	41 54                	push   %r12
ffffffff810073c3:	41 55                	push   %r13
ffffffff810073c5:	41 56                	push   %r14
ffffffff810073c7:	41 57                	push   %r15
ffffffff810073c9:	fc                   	cld    
ffffffff810073ca:	bf e7 00 00 00       	mov    $0xe7,%edi
ffffffff810073cf:	be 00 00 00 00       	mov    $0x0,%esi
ffffffff810073d4:	e8 1e c1 ff ff       	callq  ffffffff810034f7 <isr_dispatcher>
ffffffff810073d9:	41 5f                	pop    %r15
ffffffff810073db:	41 5e                	pop    %r14
ffffffff810073dd:	41 5d                	pop    %r13
ffffffff810073df:	41 5c                	pop    %r12
ffffffff810073e1:	41 5b                	pop    %r11
ffffffff810073e3:	41 5a                	pop    %r10
ffffffff810073e5:	41 59                	pop    %r9
ffffffff810073e7:	41 58                	pop    %r8
ffffffff810073e9:	5d                   	pop    %rbp
ffffffff810073ea:	5c                   	pop    %rsp
ffffffff810073eb:	5f                   	pop    %rdi
ffffffff810073ec:	5e                   	pop    %rsi
ffffffff810073ed:	5a                   	pop    %rdx
ffffffff810073ee:	59                   	pop    %rcx
ffffffff810073ef:	5b                   	pop    %rbx
ffffffff810073f0:	58                   	pop    %rax
ffffffff810073f1:	9d                   	popfq  
ffffffff810073f2:	48 cf                	iretq  

ffffffff810073f4 <isr_232>:
ffffffff810073f4:	9c                   	pushfq 
ffffffff810073f5:	50                   	push   %rax
ffffffff810073f6:	53                   	push   %rbx
ffffffff810073f7:	51                   	push   %rcx
ffffffff810073f8:	52                   	push   %rdx
ffffffff810073f9:	56                   	push   %rsi
ffffffff810073fa:	57                   	push   %rdi
ffffffff810073fb:	54                   	push   %rsp
ffffffff810073fc:	55                   	push   %rbp
ffffffff810073fd:	41 50                	push   %r8
ffffffff810073ff:	41 51                	push   %r9
ffffffff81007401:	41 52                	push   %r10
ffffffff81007403:	41 53                	push   %r11
ffffffff81007405:	41 54                	push   %r12
ffffffff81007407:	41 55                	push   %r13
ffffffff81007409:	41 56                	push   %r14
ffffffff8100740b:	41 57                	push   %r15
ffffffff8100740d:	fc                   	cld    
ffffffff8100740e:	bf e8 00 00 00       	mov    $0xe8,%edi
ffffffff81007413:	be 00 00 00 00       	mov    $0x0,%esi
ffffffff81007418:	e8 da c0 ff ff       	callq  ffffffff810034f7 <isr_dispatcher>
ffffffff8100741d:	41 5f                	pop    %r15
ffffffff8100741f:	41 5e                	pop    %r14
ffffffff81007421:	41 5d                	pop    %r13
ffffffff81007423:	41 5c                	pop    %r12
ffffffff81007425:	41 5b                	pop    %r11
ffffffff81007427:	41 5a                	pop    %r10
ffffffff81007429:	41 59                	pop    %r9
ffffffff8100742b:	41 58                	pop    %r8
ffffffff8100742d:	5d                   	pop    %rbp
ffffffff8100742e:	5c                   	pop    %rsp
ffffffff8100742f:	5f                   	pop    %rdi
ffffffff81007430:	5e                   	pop    %rsi
ffffffff81007431:	5a                   	pop    %rdx
ffffffff81007432:	59                   	pop    %rcx
ffffffff81007433:	5b                   	pop    %rbx
ffffffff81007434:	58                   	pop    %rax
ffffffff81007435:	9d                   	popfq  
ffffffff81007436:	48 cf                	iretq  

ffffffff81007438 <isr_233>:
ffffffff81007438:	9c                   	pushfq 
ffffffff81007439:	50                   	push   %rax
ffffffff8100743a:	53                   	push   %rbx
ffffffff8100743b:	51                   	push   %rcx
ffffffff8100743c:	52                   	push   %rdx
ffffffff8100743d:	56                   	push   %rsi
ffffffff8100743e:	57                   	push   %rdi
ffffffff8100743f:	54                   	push   %rsp
ffffffff81007440:	55                   	push   %rbp
ffffffff81007441:	41 50                	push   %r8
ffffffff81007443:	41 51                	push   %r9
ffffffff81007445:	41 52                	push   %r10
ffffffff81007447:	41 53                	push   %r11
ffffffff81007449:	41 54                	push   %r12
ffffffff8100744b:	41 55                	push   %r13
ffffffff8100744d:	41 56                	push   %r14
ffffffff8100744f:	41 57                	push   %r15
ffffffff81007451:	fc                   	cld    
ffffffff81007452:	bf e9 00 00 00       	mov    $0xe9,%edi
ffffffff81007457:	be 00 00 00 00       	mov    $0x0,%esi
ffffffff8100745c:	e8 96 c0 ff ff       	callq  ffffffff810034f7 <isr_dispatcher>
ffffffff81007461:	41 5f                	pop    %r15
ffffffff81007463:	41 5e                	pop    %r14
ffffffff81007465:	41 5d                	pop    %r13
ffffffff81007467:	41 5c                	pop    %r12
ffffffff81007469:	41 5b                	pop    %r11
ffffffff8100746b:	41 5a                	pop    %r10
ffffffff8100746d:	41 59                	pop    %r9
ffffffff8100746f:	41 58                	pop    %r8
ffffffff81007471:	5d                   	pop    %rbp
ffffffff81007472:	5c                   	pop    %rsp
ffffffff81007473:	5f                   	pop    %rdi
ffffffff81007474:	5e                   	pop    %rsi
ffffffff81007475:	5a                   	pop    %rdx
ffffffff81007476:	59                   	pop    %rcx
ffffffff81007477:	5b                   	pop    %rbx
ffffffff81007478:	58                   	pop    %rax
ffffffff81007479:	9d                   	popfq  
ffffffff8100747a:	48 cf                	iretq  

ffffffff8100747c <isr_234>:
ffffffff8100747c:	9c                   	pushfq 
ffffffff8100747d:	50                   	push   %rax
ffffffff8100747e:	53                   	push   %rbx
ffffffff8100747f:	51                   	push   %rcx
ffffffff81007480:	52                   	push   %rdx
ffffffff81007481:	56                   	push   %rsi
ffffffff81007482:	57                   	push   %rdi
ffffffff81007483:	54                   	push   %rsp
ffffffff81007484:	55                   	push   %rbp
ffffffff81007485:	41 50                	push   %r8
ffffffff81007487:	41 51                	push   %r9
ffffffff81007489:	41 52                	push   %r10
ffffffff8100748b:	41 53                	push   %r11
ffffffff8100748d:	41 54                	push   %r12
ffffffff8100748f:	41 55                	push   %r13
ffffffff81007491:	41 56                	push   %r14
ffffffff81007493:	41 57                	push   %r15
ffffffff81007495:	fc                   	cld    
ffffffff81007496:	bf ea 00 00 00       	mov    $0xea,%edi
ffffffff8100749b:	be 00 00 00 00       	mov    $0x0,%esi
ffffffff810074a0:	e8 52 c0 ff ff       	callq  ffffffff810034f7 <isr_dispatcher>
ffffffff810074a5:	41 5f                	pop    %r15
ffffffff810074a7:	41 5e                	pop    %r14
ffffffff810074a9:	41 5d                	pop    %r13
ffffffff810074ab:	41 5c                	pop    %r12
ffffffff810074ad:	41 5b                	pop    %r11
ffffffff810074af:	41 5a                	pop    %r10
ffffffff810074b1:	41 59                	pop    %r9
ffffffff810074b3:	41 58                	pop    %r8
ffffffff810074b5:	5d                   	pop    %rbp
ffffffff810074b6:	5c                   	pop    %rsp
ffffffff810074b7:	5f                   	pop    %rdi
ffffffff810074b8:	5e                   	pop    %rsi
ffffffff810074b9:	5a                   	pop    %rdx
ffffffff810074ba:	59                   	pop    %rcx
ffffffff810074bb:	5b                   	pop    %rbx
ffffffff810074bc:	58                   	pop    %rax
ffffffff810074bd:	9d                   	popfq  
ffffffff810074be:	48 cf                	iretq  

ffffffff810074c0 <isr_235>:
ffffffff810074c0:	9c                   	pushfq 
ffffffff810074c1:	50                   	push   %rax
ffffffff810074c2:	53                   	push   %rbx
ffffffff810074c3:	51                   	push   %rcx
ffffffff810074c4:	52                   	push   %rdx
ffffffff810074c5:	56                   	push   %rsi
ffffffff810074c6:	57                   	push   %rdi
ffffffff810074c7:	54                   	push   %rsp
ffffffff810074c8:	55                   	push   %rbp
ffffffff810074c9:	41 50                	push   %r8
ffffffff810074cb:	41 51                	push   %r9
ffffffff810074cd:	41 52                	push   %r10
ffffffff810074cf:	41 53                	push   %r11
ffffffff810074d1:	41 54                	push   %r12
ffffffff810074d3:	41 55                	push   %r13
ffffffff810074d5:	41 56                	push   %r14
ffffffff810074d7:	41 57                	push   %r15
ffffffff810074d9:	fc                   	cld    
ffffffff810074da:	bf eb 00 00 00       	mov    $0xeb,%edi
ffffffff810074df:	be 00 00 00 00       	mov    $0x0,%esi
ffffffff810074e4:	e8 0e c0 ff ff       	callq  ffffffff810034f7 <isr_dispatcher>
ffffffff810074e9:	41 5f                	pop    %r15
ffffffff810074eb:	41 5e                	pop    %r14
ffffffff810074ed:	41 5d                	pop    %r13
ffffffff810074ef:	41 5c                	pop    %r12
ffffffff810074f1:	41 5b                	pop    %r11
ffffffff810074f3:	41 5a                	pop    %r10
ffffffff810074f5:	41 59                	pop    %r9
ffffffff810074f7:	41 58                	pop    %r8
ffffffff810074f9:	5d                   	pop    %rbp
ffffffff810074fa:	5c                   	pop    %rsp
ffffffff810074fb:	5f                   	pop    %rdi
ffffffff810074fc:	5e                   	pop    %rsi
ffffffff810074fd:	5a                   	pop    %rdx
ffffffff810074fe:	59                   	pop    %rcx
ffffffff810074ff:	5b                   	pop    %rbx
ffffffff81007500:	58                   	pop    %rax
ffffffff81007501:	9d                   	popfq  
ffffffff81007502:	48 cf                	iretq  

ffffffff81007504 <isr_236>:
ffffffff81007504:	9c                   	pushfq 
ffffffff81007505:	50                   	push   %rax
ffffffff81007506:	53                   	push   %rbx
ffffffff81007507:	51                   	push   %rcx
ffffffff81007508:	52                   	push   %rdx
ffffffff81007509:	56                   	push   %rsi
ffffffff8100750a:	57                   	push   %rdi
ffffffff8100750b:	54                   	push   %rsp
ffffffff8100750c:	55                   	push   %rbp
ffffffff8100750d:	41 50                	push   %r8
ffffffff8100750f:	41 51                	push   %r9
ffffffff81007511:	41 52                	push   %r10
ffffffff81007513:	41 53                	push   %r11
ffffffff81007515:	41 54                	push   %r12
ffffffff81007517:	41 55                	push   %r13
ffffffff81007519:	41 56                	push   %r14
ffffffff8100751b:	41 57                	push   %r15
ffffffff8100751d:	fc                   	cld    
ffffffff8100751e:	bf ec 00 00 00       	mov    $0xec,%edi
ffffffff81007523:	be 00 00 00 00       	mov    $0x0,%esi
ffffffff81007528:	e8 ca bf ff ff       	callq  ffffffff810034f7 <isr_dispatcher>
ffffffff8100752d:	41 5f                	pop    %r15
ffffffff8100752f:	41 5e                	pop    %r14
ffffffff81007531:	41 5d                	pop    %r13
ffffffff81007533:	41 5c                	pop    %r12
ffffffff81007535:	41 5b                	pop    %r11
ffffffff81007537:	41 5a                	pop    %r10
ffffffff81007539:	41 59                	pop    %r9
ffffffff8100753b:	41 58                	pop    %r8
ffffffff8100753d:	5d                   	pop    %rbp
ffffffff8100753e:	5c                   	pop    %rsp
ffffffff8100753f:	5f                   	pop    %rdi
ffffffff81007540:	5e                   	pop    %rsi
ffffffff81007541:	5a                   	pop    %rdx
ffffffff81007542:	59                   	pop    %rcx
ffffffff81007543:	5b                   	pop    %rbx
ffffffff81007544:	58                   	pop    %rax
ffffffff81007545:	9d                   	popfq  
ffffffff81007546:	48 cf                	iretq  

ffffffff81007548 <isr_237>:
ffffffff81007548:	9c                   	pushfq 
ffffffff81007549:	50                   	push   %rax
ffffffff8100754a:	53                   	push   %rbx
ffffffff8100754b:	51                   	push   %rcx
ffffffff8100754c:	52                   	push   %rdx
ffffffff8100754d:	56                   	push   %rsi
ffffffff8100754e:	57                   	push   %rdi
ffffffff8100754f:	54                   	push   %rsp
ffffffff81007550:	55                   	push   %rbp
ffffffff81007551:	41 50                	push   %r8
ffffffff81007553:	41 51                	push   %r9
ffffffff81007555:	41 52                	push   %r10
ffffffff81007557:	41 53                	push   %r11
ffffffff81007559:	41 54                	push   %r12
ffffffff8100755b:	41 55                	push   %r13
ffffffff8100755d:	41 56                	push   %r14
ffffffff8100755f:	41 57                	push   %r15
ffffffff81007561:	fc                   	cld    
ffffffff81007562:	bf ed 00 00 00       	mov    $0xed,%edi
ffffffff81007567:	be 00 00 00 00       	mov    $0x0,%esi
ffffffff8100756c:	e8 86 bf ff ff       	callq  ffffffff810034f7 <isr_dispatcher>
ffffffff81007571:	41 5f                	pop    %r15
ffffffff81007573:	41 5e                	pop    %r14
ffffffff81007575:	41 5d                	pop    %r13
ffffffff81007577:	41 5c                	pop    %r12
ffffffff81007579:	41 5b                	pop    %r11
ffffffff8100757b:	41 5a                	pop    %r10
ffffffff8100757d:	41 59                	pop    %r9
ffffffff8100757f:	41 58                	pop    %r8
ffffffff81007581:	5d                   	pop    %rbp
ffffffff81007582:	5c                   	pop    %rsp
ffffffff81007583:	5f                   	pop    %rdi
ffffffff81007584:	5e                   	pop    %rsi
ffffffff81007585:	5a                   	pop    %rdx
ffffffff81007586:	59                   	pop    %rcx
ffffffff81007587:	5b                   	pop    %rbx
ffffffff81007588:	58                   	pop    %rax
ffffffff81007589:	9d                   	popfq  
ffffffff8100758a:	48 cf                	iretq  

ffffffff8100758c <isr_238>:
ffffffff8100758c:	9c                   	pushfq 
ffffffff8100758d:	50                   	push   %rax
ffffffff8100758e:	53                   	push   %rbx
ffffffff8100758f:	51                   	push   %rcx
ffffffff81007590:	52                   	push   %rdx
ffffffff81007591:	56                   	push   %rsi
ffffffff81007592:	57                   	push   %rdi
ffffffff81007593:	54                   	push   %rsp
ffffffff81007594:	55                   	push   %rbp
ffffffff81007595:	41 50                	push   %r8
ffffffff81007597:	41 51                	push   %r9
ffffffff81007599:	41 52                	push   %r10
ffffffff8100759b:	41 53                	push   %r11
ffffffff8100759d:	41 54                	push   %r12
ffffffff8100759f:	41 55                	push   %r13
ffffffff810075a1:	41 56                	push   %r14
ffffffff810075a3:	41 57                	push   %r15
ffffffff810075a5:	fc                   	cld    
ffffffff810075a6:	bf ee 00 00 00       	mov    $0xee,%edi
ffffffff810075ab:	be 00 00 00 00       	mov    $0x0,%esi
ffffffff810075b0:	e8 42 bf ff ff       	callq  ffffffff810034f7 <isr_dispatcher>
ffffffff810075b5:	41 5f                	pop    %r15
ffffffff810075b7:	41 5e                	pop    %r14
ffffffff810075b9:	41 5d                	pop    %r13
ffffffff810075bb:	41 5c                	pop    %r12
ffffffff810075bd:	41 5b                	pop    %r11
ffffffff810075bf:	41 5a                	pop    %r10
ffffffff810075c1:	41 59                	pop    %r9
ffffffff810075c3:	41 58                	pop    %r8
ffffffff810075c5:	5d                   	pop    %rbp
ffffffff810075c6:	5c                   	pop    %rsp
ffffffff810075c7:	5f                   	pop    %rdi
ffffffff810075c8:	5e                   	pop    %rsi
ffffffff810075c9:	5a                   	pop    %rdx
ffffffff810075ca:	59                   	pop    %rcx
ffffffff810075cb:	5b                   	pop    %rbx
ffffffff810075cc:	58                   	pop    %rax
ffffffff810075cd:	9d                   	popfq  
ffffffff810075ce:	48 cf                	iretq  

ffffffff810075d0 <isr_239>:
ffffffff810075d0:	9c                   	pushfq 
ffffffff810075d1:	50                   	push   %rax
ffffffff810075d2:	53                   	push   %rbx
ffffffff810075d3:	51                   	push   %rcx
ffffffff810075d4:	52                   	push   %rdx
ffffffff810075d5:	56                   	push   %rsi
ffffffff810075d6:	57                   	push   %rdi
ffffffff810075d7:	54                   	push   %rsp
ffffffff810075d8:	55                   	push   %rbp
ffffffff810075d9:	41 50                	push   %r8
ffffffff810075db:	41 51                	push   %r9
ffffffff810075dd:	41 52                	push   %r10
ffffffff810075df:	41 53                	push   %r11
ffffffff810075e1:	41 54                	push   %r12
ffffffff810075e3:	41 55                	push   %r13
ffffffff810075e5:	41 56                	push   %r14
ffffffff810075e7:	41 57                	push   %r15
ffffffff810075e9:	fc                   	cld    
ffffffff810075ea:	bf ef 00 00 00       	mov    $0xef,%edi
ffffffff810075ef:	be 00 00 00 00       	mov    $0x0,%esi
ffffffff810075f4:	e8 fe be ff ff       	callq  ffffffff810034f7 <isr_dispatcher>
ffffffff810075f9:	41 5f                	pop    %r15
ffffffff810075fb:	41 5e                	pop    %r14
ffffffff810075fd:	41 5d                	pop    %r13
ffffffff810075ff:	41 5c                	pop    %r12
ffffffff81007601:	41 5b                	pop    %r11
ffffffff81007603:	41 5a                	pop    %r10
ffffffff81007605:	41 59                	pop    %r9
ffffffff81007607:	41 58                	pop    %r8
ffffffff81007609:	5d                   	pop    %rbp
ffffffff8100760a:	5c                   	pop    %rsp
ffffffff8100760b:	5f                   	pop    %rdi
ffffffff8100760c:	5e                   	pop    %rsi
ffffffff8100760d:	5a                   	pop    %rdx
ffffffff8100760e:	59                   	pop    %rcx
ffffffff8100760f:	5b                   	pop    %rbx
ffffffff81007610:	58                   	pop    %rax
ffffffff81007611:	9d                   	popfq  
ffffffff81007612:	48 cf                	iretq  

ffffffff81007614 <isr_240>:
ffffffff81007614:	9c                   	pushfq 
ffffffff81007615:	50                   	push   %rax
ffffffff81007616:	53                   	push   %rbx
ffffffff81007617:	51                   	push   %rcx
ffffffff81007618:	52                   	push   %rdx
ffffffff81007619:	56                   	push   %rsi
ffffffff8100761a:	57                   	push   %rdi
ffffffff8100761b:	54                   	push   %rsp
ffffffff8100761c:	55                   	push   %rbp
ffffffff8100761d:	41 50                	push   %r8
ffffffff8100761f:	41 51                	push   %r9
ffffffff81007621:	41 52                	push   %r10
ffffffff81007623:	41 53                	push   %r11
ffffffff81007625:	41 54                	push   %r12
ffffffff81007627:	41 55                	push   %r13
ffffffff81007629:	41 56                	push   %r14
ffffffff8100762b:	41 57                	push   %r15
ffffffff8100762d:	fc                   	cld    
ffffffff8100762e:	bf f0 00 00 00       	mov    $0xf0,%edi
ffffffff81007633:	be 00 00 00 00       	mov    $0x0,%esi
ffffffff81007638:	e8 ba be ff ff       	callq  ffffffff810034f7 <isr_dispatcher>
ffffffff8100763d:	41 5f                	pop    %r15
ffffffff8100763f:	41 5e                	pop    %r14
ffffffff81007641:	41 5d                	pop    %r13
ffffffff81007643:	41 5c                	pop    %r12
ffffffff81007645:	41 5b                	pop    %r11
ffffffff81007647:	41 5a                	pop    %r10
ffffffff81007649:	41 59                	pop    %r9
ffffffff8100764b:	41 58                	pop    %r8
ffffffff8100764d:	5d                   	pop    %rbp
ffffffff8100764e:	5c                   	pop    %rsp
ffffffff8100764f:	5f                   	pop    %rdi
ffffffff81007650:	5e                   	pop    %rsi
ffffffff81007651:	5a                   	pop    %rdx
ffffffff81007652:	59                   	pop    %rcx
ffffffff81007653:	5b                   	pop    %rbx
ffffffff81007654:	58                   	pop    %rax
ffffffff81007655:	9d                   	popfq  
ffffffff81007656:	48 cf                	iretq  

ffffffff81007658 <isr_241>:
ffffffff81007658:	9c                   	pushfq 
ffffffff81007659:	50                   	push   %rax
ffffffff8100765a:	53                   	push   %rbx
ffffffff8100765b:	51                   	push   %rcx
ffffffff8100765c:	52                   	push   %rdx
ffffffff8100765d:	56                   	push   %rsi
ffffffff8100765e:	57                   	push   %rdi
ffffffff8100765f:	54                   	push   %rsp
ffffffff81007660:	55                   	push   %rbp
ffffffff81007661:	41 50                	push   %r8
ffffffff81007663:	41 51                	push   %r9
ffffffff81007665:	41 52                	push   %r10
ffffffff81007667:	41 53                	push   %r11
ffffffff81007669:	41 54                	push   %r12
ffffffff8100766b:	41 55                	push   %r13
ffffffff8100766d:	41 56                	push   %r14
ffffffff8100766f:	41 57                	push   %r15
ffffffff81007671:	fc                   	cld    
ffffffff81007672:	bf f1 00 00 00       	mov    $0xf1,%edi
ffffffff81007677:	be 00 00 00 00       	mov    $0x0,%esi
ffffffff8100767c:	e8 76 be ff ff       	callq  ffffffff810034f7 <isr_dispatcher>
ffffffff81007681:	41 5f                	pop    %r15
ffffffff81007683:	41 5e                	pop    %r14
ffffffff81007685:	41 5d                	pop    %r13
ffffffff81007687:	41 5c                	pop    %r12
ffffffff81007689:	41 5b                	pop    %r11
ffffffff8100768b:	41 5a                	pop    %r10
ffffffff8100768d:	41 59                	pop    %r9
ffffffff8100768f:	41 58                	pop    %r8
ffffffff81007691:	5d                   	pop    %rbp
ffffffff81007692:	5c                   	pop    %rsp
ffffffff81007693:	5f                   	pop    %rdi
ffffffff81007694:	5e                   	pop    %rsi
ffffffff81007695:	5a                   	pop    %rdx
ffffffff81007696:	59                   	pop    %rcx
ffffffff81007697:	5b                   	pop    %rbx
ffffffff81007698:	58                   	pop    %rax
ffffffff81007699:	9d                   	popfq  
ffffffff8100769a:	48 cf                	iretq  

ffffffff8100769c <isr_242>:
ffffffff8100769c:	9c                   	pushfq 
ffffffff8100769d:	50                   	push   %rax
ffffffff8100769e:	53                   	push   %rbx
ffffffff8100769f:	51                   	push   %rcx
ffffffff810076a0:	52                   	push   %rdx
ffffffff810076a1:	56                   	push   %rsi
ffffffff810076a2:	57                   	push   %rdi
ffffffff810076a3:	54                   	push   %rsp
ffffffff810076a4:	55                   	push   %rbp
ffffffff810076a5:	41 50                	push   %r8
ffffffff810076a7:	41 51                	push   %r9
ffffffff810076a9:	41 52                	push   %r10
ffffffff810076ab:	41 53                	push   %r11
ffffffff810076ad:	41 54                	push   %r12
ffffffff810076af:	41 55                	push   %r13
ffffffff810076b1:	41 56                	push   %r14
ffffffff810076b3:	41 57                	push   %r15
ffffffff810076b5:	fc                   	cld    
ffffffff810076b6:	bf f2 00 00 00       	mov    $0xf2,%edi
ffffffff810076bb:	be 00 00 00 00       	mov    $0x0,%esi
ffffffff810076c0:	e8 32 be ff ff       	callq  ffffffff810034f7 <isr_dispatcher>
ffffffff810076c5:	41 5f                	pop    %r15
ffffffff810076c7:	41 5e                	pop    %r14
ffffffff810076c9:	41 5d                	pop    %r13
ffffffff810076cb:	41 5c                	pop    %r12
ffffffff810076cd:	41 5b                	pop    %r11
ffffffff810076cf:	41 5a                	pop    %r10
ffffffff810076d1:	41 59                	pop    %r9
ffffffff810076d3:	41 58                	pop    %r8
ffffffff810076d5:	5d                   	pop    %rbp
ffffffff810076d6:	5c                   	pop    %rsp
ffffffff810076d7:	5f                   	pop    %rdi
ffffffff810076d8:	5e                   	pop    %rsi
ffffffff810076d9:	5a                   	pop    %rdx
ffffffff810076da:	59                   	pop    %rcx
ffffffff810076db:	5b                   	pop    %rbx
ffffffff810076dc:	58                   	pop    %rax
ffffffff810076dd:	9d                   	popfq  
ffffffff810076de:	48 cf                	iretq  

ffffffff810076e0 <isr_243>:
ffffffff810076e0:	9c                   	pushfq 
ffffffff810076e1:	50                   	push   %rax
ffffffff810076e2:	53                   	push   %rbx
ffffffff810076e3:	51                   	push   %rcx
ffffffff810076e4:	52                   	push   %rdx
ffffffff810076e5:	56                   	push   %rsi
ffffffff810076e6:	57                   	push   %rdi
ffffffff810076e7:	54                   	push   %rsp
ffffffff810076e8:	55                   	push   %rbp
ffffffff810076e9:	41 50                	push   %r8
ffffffff810076eb:	41 51                	push   %r9
ffffffff810076ed:	41 52                	push   %r10
ffffffff810076ef:	41 53                	push   %r11
ffffffff810076f1:	41 54                	push   %r12
ffffffff810076f3:	41 55                	push   %r13
ffffffff810076f5:	41 56                	push   %r14
ffffffff810076f7:	41 57                	push   %r15
ffffffff810076f9:	fc                   	cld    
ffffffff810076fa:	bf f3 00 00 00       	mov    $0xf3,%edi
ffffffff810076ff:	be 00 00 00 00       	mov    $0x0,%esi
ffffffff81007704:	e8 ee bd ff ff       	callq  ffffffff810034f7 <isr_dispatcher>
ffffffff81007709:	41 5f                	pop    %r15
ffffffff8100770b:	41 5e                	pop    %r14
ffffffff8100770d:	41 5d                	pop    %r13
ffffffff8100770f:	41 5c                	pop    %r12
ffffffff81007711:	41 5b                	pop    %r11
ffffffff81007713:	41 5a                	pop    %r10
ffffffff81007715:	41 59                	pop    %r9
ffffffff81007717:	41 58                	pop    %r8
ffffffff81007719:	5d                   	pop    %rbp
ffffffff8100771a:	5c                   	pop    %rsp
ffffffff8100771b:	5f                   	pop    %rdi
ffffffff8100771c:	5e                   	pop    %rsi
ffffffff8100771d:	5a                   	pop    %rdx
ffffffff8100771e:	59                   	pop    %rcx
ffffffff8100771f:	5b                   	pop    %rbx
ffffffff81007720:	58                   	pop    %rax
ffffffff81007721:	9d                   	popfq  
ffffffff81007722:	48 cf                	iretq  

ffffffff81007724 <isr_244>:
ffffffff81007724:	9c                   	pushfq 
ffffffff81007725:	50                   	push   %rax
ffffffff81007726:	53                   	push   %rbx
ffffffff81007727:	51                   	push   %rcx
ffffffff81007728:	52                   	push   %rdx
ffffffff81007729:	56                   	push   %rsi
ffffffff8100772a:	57                   	push   %rdi
ffffffff8100772b:	54                   	push   %rsp
ffffffff8100772c:	55                   	push   %rbp
ffffffff8100772d:	41 50                	push   %r8
ffffffff8100772f:	41 51                	push   %r9
ffffffff81007731:	41 52                	push   %r10
ffffffff81007733:	41 53                	push   %r11
ffffffff81007735:	41 54                	push   %r12
ffffffff81007737:	41 55                	push   %r13
ffffffff81007739:	41 56                	push   %r14
ffffffff8100773b:	41 57                	push   %r15
ffffffff8100773d:	fc                   	cld    
ffffffff8100773e:	bf f4 00 00 00       	mov    $0xf4,%edi
ffffffff81007743:	be 00 00 00 00       	mov    $0x0,%esi
ffffffff81007748:	e8 aa bd ff ff       	callq  ffffffff810034f7 <isr_dispatcher>
ffffffff8100774d:	41 5f                	pop    %r15
ffffffff8100774f:	41 5e                	pop    %r14
ffffffff81007751:	41 5d                	pop    %r13
ffffffff81007753:	41 5c                	pop    %r12
ffffffff81007755:	41 5b                	pop    %r11
ffffffff81007757:	41 5a                	pop    %r10
ffffffff81007759:	41 59                	pop    %r9
ffffffff8100775b:	41 58                	pop    %r8
ffffffff8100775d:	5d                   	pop    %rbp
ffffffff8100775e:	5c                   	pop    %rsp
ffffffff8100775f:	5f                   	pop    %rdi
ffffffff81007760:	5e                   	pop    %rsi
ffffffff81007761:	5a                   	pop    %rdx
ffffffff81007762:	59                   	pop    %rcx
ffffffff81007763:	5b                   	pop    %rbx
ffffffff81007764:	58                   	pop    %rax
ffffffff81007765:	9d                   	popfq  
ffffffff81007766:	48 cf                	iretq  

ffffffff81007768 <isr_245>:
ffffffff81007768:	9c                   	pushfq 
ffffffff81007769:	50                   	push   %rax
ffffffff8100776a:	53                   	push   %rbx
ffffffff8100776b:	51                   	push   %rcx
ffffffff8100776c:	52                   	push   %rdx
ffffffff8100776d:	56                   	push   %rsi
ffffffff8100776e:	57                   	push   %rdi
ffffffff8100776f:	54                   	push   %rsp
ffffffff81007770:	55                   	push   %rbp
ffffffff81007771:	41 50                	push   %r8
ffffffff81007773:	41 51                	push   %r9
ffffffff81007775:	41 52                	push   %r10
ffffffff81007777:	41 53                	push   %r11
ffffffff81007779:	41 54                	push   %r12
ffffffff8100777b:	41 55                	push   %r13
ffffffff8100777d:	41 56                	push   %r14
ffffffff8100777f:	41 57                	push   %r15
ffffffff81007781:	fc                   	cld    
ffffffff81007782:	bf f5 00 00 00       	mov    $0xf5,%edi
ffffffff81007787:	be 00 00 00 00       	mov    $0x0,%esi
ffffffff8100778c:	e8 66 bd ff ff       	callq  ffffffff810034f7 <isr_dispatcher>
ffffffff81007791:	41 5f                	pop    %r15
ffffffff81007793:	41 5e                	pop    %r14
ffffffff81007795:	41 5d                	pop    %r13
ffffffff81007797:	41 5c                	pop    %r12
ffffffff81007799:	41 5b                	pop    %r11
ffffffff8100779b:	41 5a                	pop    %r10
ffffffff8100779d:	41 59                	pop    %r9
ffffffff8100779f:	41 58                	pop    %r8
ffffffff810077a1:	5d                   	pop    %rbp
ffffffff810077a2:	5c                   	pop    %rsp
ffffffff810077a3:	5f                   	pop    %rdi
ffffffff810077a4:	5e                   	pop    %rsi
ffffffff810077a5:	5a                   	pop    %rdx
ffffffff810077a6:	59                   	pop    %rcx
ffffffff810077a7:	5b                   	pop    %rbx
ffffffff810077a8:	58                   	pop    %rax
ffffffff810077a9:	9d                   	popfq  
ffffffff810077aa:	48 cf                	iretq  

ffffffff810077ac <isr_246>:
ffffffff810077ac:	9c                   	pushfq 
ffffffff810077ad:	50                   	push   %rax
ffffffff810077ae:	53                   	push   %rbx
ffffffff810077af:	51                   	push   %rcx
ffffffff810077b0:	52                   	push   %rdx
ffffffff810077b1:	56                   	push   %rsi
ffffffff810077b2:	57                   	push   %rdi
ffffffff810077b3:	54                   	push   %rsp
ffffffff810077b4:	55                   	push   %rbp
ffffffff810077b5:	41 50                	push   %r8
ffffffff810077b7:	41 51                	push   %r9
ffffffff810077b9:	41 52                	push   %r10
ffffffff810077bb:	41 53                	push   %r11
ffffffff810077bd:	41 54                	push   %r12
ffffffff810077bf:	41 55                	push   %r13
ffffffff810077c1:	41 56                	push   %r14
ffffffff810077c3:	41 57                	push   %r15
ffffffff810077c5:	fc                   	cld    
ffffffff810077c6:	bf f6 00 00 00       	mov    $0xf6,%edi
ffffffff810077cb:	be 00 00 00 00       	mov    $0x0,%esi
ffffffff810077d0:	e8 22 bd ff ff       	callq  ffffffff810034f7 <isr_dispatcher>
ffffffff810077d5:	41 5f                	pop    %r15
ffffffff810077d7:	41 5e                	pop    %r14
ffffffff810077d9:	41 5d                	pop    %r13
ffffffff810077db:	41 5c                	pop    %r12
ffffffff810077dd:	41 5b                	pop    %r11
ffffffff810077df:	41 5a                	pop    %r10
ffffffff810077e1:	41 59                	pop    %r9
ffffffff810077e3:	41 58                	pop    %r8
ffffffff810077e5:	5d                   	pop    %rbp
ffffffff810077e6:	5c                   	pop    %rsp
ffffffff810077e7:	5f                   	pop    %rdi
ffffffff810077e8:	5e                   	pop    %rsi
ffffffff810077e9:	5a                   	pop    %rdx
ffffffff810077ea:	59                   	pop    %rcx
ffffffff810077eb:	5b                   	pop    %rbx
ffffffff810077ec:	58                   	pop    %rax
ffffffff810077ed:	9d                   	popfq  
ffffffff810077ee:	48 cf                	iretq  

ffffffff810077f0 <isr_247>:
ffffffff810077f0:	9c                   	pushfq 
ffffffff810077f1:	50                   	push   %rax
ffffffff810077f2:	53                   	push   %rbx
ffffffff810077f3:	51                   	push   %rcx
ffffffff810077f4:	52                   	push   %rdx
ffffffff810077f5:	56                   	push   %rsi
ffffffff810077f6:	57                   	push   %rdi
ffffffff810077f7:	54                   	push   %rsp
ffffffff810077f8:	55                   	push   %rbp
ffffffff810077f9:	41 50                	push   %r8
ffffffff810077fb:	41 51                	push   %r9
ffffffff810077fd:	41 52                	push   %r10
ffffffff810077ff:	41 53                	push   %r11
ffffffff81007801:	41 54                	push   %r12
ffffffff81007803:	41 55                	push   %r13
ffffffff81007805:	41 56                	push   %r14
ffffffff81007807:	41 57                	push   %r15
ffffffff81007809:	fc                   	cld    
ffffffff8100780a:	bf f7 00 00 00       	mov    $0xf7,%edi
ffffffff8100780f:	be 00 00 00 00       	mov    $0x0,%esi
ffffffff81007814:	e8 de bc ff ff       	callq  ffffffff810034f7 <isr_dispatcher>
ffffffff81007819:	41 5f                	pop    %r15
ffffffff8100781b:	41 5e                	pop    %r14
ffffffff8100781d:	41 5d                	pop    %r13
ffffffff8100781f:	41 5c                	pop    %r12
ffffffff81007821:	41 5b                	pop    %r11
ffffffff81007823:	41 5a                	pop    %r10
ffffffff81007825:	41 59                	pop    %r9
ffffffff81007827:	41 58                	pop    %r8
ffffffff81007829:	5d                   	pop    %rbp
ffffffff8100782a:	5c                   	pop    %rsp
ffffffff8100782b:	5f                   	pop    %rdi
ffffffff8100782c:	5e                   	pop    %rsi
ffffffff8100782d:	5a                   	pop    %rdx
ffffffff8100782e:	59                   	pop    %rcx
ffffffff8100782f:	5b                   	pop    %rbx
ffffffff81007830:	58                   	pop    %rax
ffffffff81007831:	9d                   	popfq  
ffffffff81007832:	48 cf                	iretq  

ffffffff81007834 <isr_248>:
ffffffff81007834:	9c                   	pushfq 
ffffffff81007835:	50                   	push   %rax
ffffffff81007836:	53                   	push   %rbx
ffffffff81007837:	51                   	push   %rcx
ffffffff81007838:	52                   	push   %rdx
ffffffff81007839:	56                   	push   %rsi
ffffffff8100783a:	57                   	push   %rdi
ffffffff8100783b:	54                   	push   %rsp
ffffffff8100783c:	55                   	push   %rbp
ffffffff8100783d:	41 50                	push   %r8
ffffffff8100783f:	41 51                	push   %r9
ffffffff81007841:	41 52                	push   %r10
ffffffff81007843:	41 53                	push   %r11
ffffffff81007845:	41 54                	push   %r12
ffffffff81007847:	41 55                	push   %r13
ffffffff81007849:	41 56                	push   %r14
ffffffff8100784b:	41 57                	push   %r15
ffffffff8100784d:	fc                   	cld    
ffffffff8100784e:	bf f8 00 00 00       	mov    $0xf8,%edi
ffffffff81007853:	be 00 00 00 00       	mov    $0x0,%esi
ffffffff81007858:	e8 9a bc ff ff       	callq  ffffffff810034f7 <isr_dispatcher>
ffffffff8100785d:	41 5f                	pop    %r15
ffffffff8100785f:	41 5e                	pop    %r14
ffffffff81007861:	41 5d                	pop    %r13
ffffffff81007863:	41 5c                	pop    %r12
ffffffff81007865:	41 5b                	pop    %r11
ffffffff81007867:	41 5a                	pop    %r10
ffffffff81007869:	41 59                	pop    %r9
ffffffff8100786b:	41 58                	pop    %r8
ffffffff8100786d:	5d                   	pop    %rbp
ffffffff8100786e:	5c                   	pop    %rsp
ffffffff8100786f:	5f                   	pop    %rdi
ffffffff81007870:	5e                   	pop    %rsi
ffffffff81007871:	5a                   	pop    %rdx
ffffffff81007872:	59                   	pop    %rcx
ffffffff81007873:	5b                   	pop    %rbx
ffffffff81007874:	58                   	pop    %rax
ffffffff81007875:	9d                   	popfq  
ffffffff81007876:	48 cf                	iretq  

ffffffff81007878 <isr_249>:
ffffffff81007878:	9c                   	pushfq 
ffffffff81007879:	50                   	push   %rax
ffffffff8100787a:	53                   	push   %rbx
ffffffff8100787b:	51                   	push   %rcx
ffffffff8100787c:	52                   	push   %rdx
ffffffff8100787d:	56                   	push   %rsi
ffffffff8100787e:	57                   	push   %rdi
ffffffff8100787f:	54                   	push   %rsp
ffffffff81007880:	55                   	push   %rbp
ffffffff81007881:	41 50                	push   %r8
ffffffff81007883:	41 51                	push   %r9
ffffffff81007885:	41 52                	push   %r10
ffffffff81007887:	41 53                	push   %r11
ffffffff81007889:	41 54                	push   %r12
ffffffff8100788b:	41 55                	push   %r13
ffffffff8100788d:	41 56                	push   %r14
ffffffff8100788f:	41 57                	push   %r15
ffffffff81007891:	fc                   	cld    
ffffffff81007892:	bf f9 00 00 00       	mov    $0xf9,%edi
ffffffff81007897:	be 00 00 00 00       	mov    $0x0,%esi
ffffffff8100789c:	e8 56 bc ff ff       	callq  ffffffff810034f7 <isr_dispatcher>
ffffffff810078a1:	41 5f                	pop    %r15
ffffffff810078a3:	41 5e                	pop    %r14
ffffffff810078a5:	41 5d                	pop    %r13
ffffffff810078a7:	41 5c                	pop    %r12
ffffffff810078a9:	41 5b                	pop    %r11
ffffffff810078ab:	41 5a                	pop    %r10
ffffffff810078ad:	41 59                	pop    %r9
ffffffff810078af:	41 58                	pop    %r8
ffffffff810078b1:	5d                   	pop    %rbp
ffffffff810078b2:	5c                   	pop    %rsp
ffffffff810078b3:	5f                   	pop    %rdi
ffffffff810078b4:	5e                   	pop    %rsi
ffffffff810078b5:	5a                   	pop    %rdx
ffffffff810078b6:	59                   	pop    %rcx
ffffffff810078b7:	5b                   	pop    %rbx
ffffffff810078b8:	58                   	pop    %rax
ffffffff810078b9:	9d                   	popfq  
ffffffff810078ba:	48 cf                	iretq  

ffffffff810078bc <isr_250>:
ffffffff810078bc:	9c                   	pushfq 
ffffffff810078bd:	50                   	push   %rax
ffffffff810078be:	53                   	push   %rbx
ffffffff810078bf:	51                   	push   %rcx
ffffffff810078c0:	52                   	push   %rdx
ffffffff810078c1:	56                   	push   %rsi
ffffffff810078c2:	57                   	push   %rdi
ffffffff810078c3:	54                   	push   %rsp
ffffffff810078c4:	55                   	push   %rbp
ffffffff810078c5:	41 50                	push   %r8
ffffffff810078c7:	41 51                	push   %r9
ffffffff810078c9:	41 52                	push   %r10
ffffffff810078cb:	41 53                	push   %r11
ffffffff810078cd:	41 54                	push   %r12
ffffffff810078cf:	41 55                	push   %r13
ffffffff810078d1:	41 56                	push   %r14
ffffffff810078d3:	41 57                	push   %r15
ffffffff810078d5:	fc                   	cld    
ffffffff810078d6:	bf fa 00 00 00       	mov    $0xfa,%edi
ffffffff810078db:	be 00 00 00 00       	mov    $0x0,%esi
ffffffff810078e0:	e8 12 bc ff ff       	callq  ffffffff810034f7 <isr_dispatcher>
ffffffff810078e5:	41 5f                	pop    %r15
ffffffff810078e7:	41 5e                	pop    %r14
ffffffff810078e9:	41 5d                	pop    %r13
ffffffff810078eb:	41 5c                	pop    %r12
ffffffff810078ed:	41 5b                	pop    %r11
ffffffff810078ef:	41 5a                	pop    %r10
ffffffff810078f1:	41 59                	pop    %r9
ffffffff810078f3:	41 58                	pop    %r8
ffffffff810078f5:	5d                   	pop    %rbp
ffffffff810078f6:	5c                   	pop    %rsp
ffffffff810078f7:	5f                   	pop    %rdi
ffffffff810078f8:	5e                   	pop    %rsi
ffffffff810078f9:	5a                   	pop    %rdx
ffffffff810078fa:	59                   	pop    %rcx
ffffffff810078fb:	5b                   	pop    %rbx
ffffffff810078fc:	58                   	pop    %rax
ffffffff810078fd:	9d                   	popfq  
ffffffff810078fe:	48 cf                	iretq  

ffffffff81007900 <isr_251>:
ffffffff81007900:	9c                   	pushfq 
ffffffff81007901:	50                   	push   %rax
ffffffff81007902:	53                   	push   %rbx
ffffffff81007903:	51                   	push   %rcx
ffffffff81007904:	52                   	push   %rdx
ffffffff81007905:	56                   	push   %rsi
ffffffff81007906:	57                   	push   %rdi
ffffffff81007907:	54                   	push   %rsp
ffffffff81007908:	55                   	push   %rbp
ffffffff81007909:	41 50                	push   %r8
ffffffff8100790b:	41 51                	push   %r9
ffffffff8100790d:	41 52                	push   %r10
ffffffff8100790f:	41 53                	push   %r11
ffffffff81007911:	41 54                	push   %r12
ffffffff81007913:	41 55                	push   %r13
ffffffff81007915:	41 56                	push   %r14
ffffffff81007917:	41 57                	push   %r15
ffffffff81007919:	fc                   	cld    
ffffffff8100791a:	bf fb 00 00 00       	mov    $0xfb,%edi
ffffffff8100791f:	be 00 00 00 00       	mov    $0x0,%esi
ffffffff81007924:	e8 ce bb ff ff       	callq  ffffffff810034f7 <isr_dispatcher>
ffffffff81007929:	41 5f                	pop    %r15
ffffffff8100792b:	41 5e                	pop    %r14
ffffffff8100792d:	41 5d                	pop    %r13
ffffffff8100792f:	41 5c                	pop    %r12
ffffffff81007931:	41 5b                	pop    %r11
ffffffff81007933:	41 5a                	pop    %r10
ffffffff81007935:	41 59                	pop    %r9
ffffffff81007937:	41 58                	pop    %r8
ffffffff81007939:	5d                   	pop    %rbp
ffffffff8100793a:	5c                   	pop    %rsp
ffffffff8100793b:	5f                   	pop    %rdi
ffffffff8100793c:	5e                   	pop    %rsi
ffffffff8100793d:	5a                   	pop    %rdx
ffffffff8100793e:	59                   	pop    %rcx
ffffffff8100793f:	5b                   	pop    %rbx
ffffffff81007940:	58                   	pop    %rax
ffffffff81007941:	9d                   	popfq  
ffffffff81007942:	48 cf                	iretq  

ffffffff81007944 <isr_252>:
ffffffff81007944:	9c                   	pushfq 
ffffffff81007945:	50                   	push   %rax
ffffffff81007946:	53                   	push   %rbx
ffffffff81007947:	51                   	push   %rcx
ffffffff81007948:	52                   	push   %rdx
ffffffff81007949:	56                   	push   %rsi
ffffffff8100794a:	57                   	push   %rdi
ffffffff8100794b:	54                   	push   %rsp
ffffffff8100794c:	55                   	push   %rbp
ffffffff8100794d:	41 50                	push   %r8
ffffffff8100794f:	41 51                	push   %r9
ffffffff81007951:	41 52                	push   %r10
ffffffff81007953:	41 53                	push   %r11
ffffffff81007955:	41 54                	push   %r12
ffffffff81007957:	41 55                	push   %r13
ffffffff81007959:	41 56                	push   %r14
ffffffff8100795b:	41 57                	push   %r15
ffffffff8100795d:	fc                   	cld    
ffffffff8100795e:	bf fc 00 00 00       	mov    $0xfc,%edi
ffffffff81007963:	be 00 00 00 00       	mov    $0x0,%esi
ffffffff81007968:	e8 8a bb ff ff       	callq  ffffffff810034f7 <isr_dispatcher>
ffffffff8100796d:	41 5f                	pop    %r15
ffffffff8100796f:	41 5e                	pop    %r14
ffffffff81007971:	41 5d                	pop    %r13
ffffffff81007973:	41 5c                	pop    %r12
ffffffff81007975:	41 5b                	pop    %r11
ffffffff81007977:	41 5a                	pop    %r10
ffffffff81007979:	41 59                	pop    %r9
ffffffff8100797b:	41 58                	pop    %r8
ffffffff8100797d:	5d                   	pop    %rbp
ffffffff8100797e:	5c                   	pop    %rsp
ffffffff8100797f:	5f                   	pop    %rdi
ffffffff81007980:	5e                   	pop    %rsi
ffffffff81007981:	5a                   	pop    %rdx
ffffffff81007982:	59                   	pop    %rcx
ffffffff81007983:	5b                   	pop    %rbx
ffffffff81007984:	58                   	pop    %rax
ffffffff81007985:	9d                   	popfq  
ffffffff81007986:	48 cf                	iretq  

ffffffff81007988 <isr_253>:
ffffffff81007988:	9c                   	pushfq 
ffffffff81007989:	50                   	push   %rax
ffffffff8100798a:	53                   	push   %rbx
ffffffff8100798b:	51                   	push   %rcx
ffffffff8100798c:	52                   	push   %rdx
ffffffff8100798d:	56                   	push   %rsi
ffffffff8100798e:	57                   	push   %rdi
ffffffff8100798f:	54                   	push   %rsp
ffffffff81007990:	55                   	push   %rbp
ffffffff81007991:	41 50                	push   %r8
ffffffff81007993:	41 51                	push   %r9
ffffffff81007995:	41 52                	push   %r10
ffffffff81007997:	41 53                	push   %r11
ffffffff81007999:	41 54                	push   %r12
ffffffff8100799b:	41 55                	push   %r13
ffffffff8100799d:	41 56                	push   %r14
ffffffff8100799f:	41 57                	push   %r15
ffffffff810079a1:	fc                   	cld    
ffffffff810079a2:	bf fd 00 00 00       	mov    $0xfd,%edi
ffffffff810079a7:	be 00 00 00 00       	mov    $0x0,%esi
ffffffff810079ac:	e8 46 bb ff ff       	callq  ffffffff810034f7 <isr_dispatcher>
ffffffff810079b1:	41 5f                	pop    %r15
ffffffff810079b3:	41 5e                	pop    %r14
ffffffff810079b5:	41 5d                	pop    %r13
ffffffff810079b7:	41 5c                	pop    %r12
ffffffff810079b9:	41 5b                	pop    %r11
ffffffff810079bb:	41 5a                	pop    %r10
ffffffff810079bd:	41 59                	pop    %r9
ffffffff810079bf:	41 58                	pop    %r8
ffffffff810079c1:	5d                   	pop    %rbp
ffffffff810079c2:	5c                   	pop    %rsp
ffffffff810079c3:	5f                   	pop    %rdi
ffffffff810079c4:	5e                   	pop    %rsi
ffffffff810079c5:	5a                   	pop    %rdx
ffffffff810079c6:	59                   	pop    %rcx
ffffffff810079c7:	5b                   	pop    %rbx
ffffffff810079c8:	58                   	pop    %rax
ffffffff810079c9:	9d                   	popfq  
ffffffff810079ca:	48 cf                	iretq  

ffffffff810079cc <isr_254>:
ffffffff810079cc:	9c                   	pushfq 
ffffffff810079cd:	50                   	push   %rax
ffffffff810079ce:	53                   	push   %rbx
ffffffff810079cf:	51                   	push   %rcx
ffffffff810079d0:	52                   	push   %rdx
ffffffff810079d1:	56                   	push   %rsi
ffffffff810079d2:	57                   	push   %rdi
ffffffff810079d3:	54                   	push   %rsp
ffffffff810079d4:	55                   	push   %rbp
ffffffff810079d5:	41 50                	push   %r8
ffffffff810079d7:	41 51                	push   %r9
ffffffff810079d9:	41 52                	push   %r10
ffffffff810079db:	41 53                	push   %r11
ffffffff810079dd:	41 54                	push   %r12
ffffffff810079df:	41 55                	push   %r13
ffffffff810079e1:	41 56                	push   %r14
ffffffff810079e3:	41 57                	push   %r15
ffffffff810079e5:	fc                   	cld    
ffffffff810079e6:	bf fe 00 00 00       	mov    $0xfe,%edi
ffffffff810079eb:	be 00 00 00 00       	mov    $0x0,%esi
ffffffff810079f0:	e8 02 bb ff ff       	callq  ffffffff810034f7 <isr_dispatcher>
ffffffff810079f5:	41 5f                	pop    %r15
ffffffff810079f7:	41 5e                	pop    %r14
ffffffff810079f9:	41 5d                	pop    %r13
ffffffff810079fb:	41 5c                	pop    %r12
ffffffff810079fd:	41 5b                	pop    %r11
ffffffff810079ff:	41 5a                	pop    %r10
ffffffff81007a01:	41 59                	pop    %r9
ffffffff81007a03:	41 58                	pop    %r8
ffffffff81007a05:	5d                   	pop    %rbp
ffffffff81007a06:	5c                   	pop    %rsp
ffffffff81007a07:	5f                   	pop    %rdi
ffffffff81007a08:	5e                   	pop    %rsi
ffffffff81007a09:	5a                   	pop    %rdx
ffffffff81007a0a:	59                   	pop    %rcx
ffffffff81007a0b:	5b                   	pop    %rbx
ffffffff81007a0c:	58                   	pop    %rax
ffffffff81007a0d:	9d                   	popfq  
ffffffff81007a0e:	48 cf                	iretq  

ffffffff81007a10 <isr_255>:
ffffffff81007a10:	9c                   	pushfq 
ffffffff81007a11:	50                   	push   %rax
ffffffff81007a12:	53                   	push   %rbx
ffffffff81007a13:	51                   	push   %rcx
ffffffff81007a14:	52                   	push   %rdx
ffffffff81007a15:	56                   	push   %rsi
ffffffff81007a16:	57                   	push   %rdi
ffffffff81007a17:	54                   	push   %rsp
ffffffff81007a18:	55                   	push   %rbp
ffffffff81007a19:	41 50                	push   %r8
ffffffff81007a1b:	41 51                	push   %r9
ffffffff81007a1d:	41 52                	push   %r10
ffffffff81007a1f:	41 53                	push   %r11
ffffffff81007a21:	41 54                	push   %r12
ffffffff81007a23:	41 55                	push   %r13
ffffffff81007a25:	41 56                	push   %r14
ffffffff81007a27:	41 57                	push   %r15
ffffffff81007a29:	fc                   	cld    
ffffffff81007a2a:	bf ff 00 00 00       	mov    $0xff,%edi
ffffffff81007a2f:	be 00 00 00 00       	mov    $0x0,%esi
ffffffff81007a34:	e8 be ba ff ff       	callq  ffffffff810034f7 <isr_dispatcher>
ffffffff81007a39:	41 5f                	pop    %r15
ffffffff81007a3b:	41 5e                	pop    %r14
ffffffff81007a3d:	41 5d                	pop    %r13
ffffffff81007a3f:	41 5c                	pop    %r12
ffffffff81007a41:	41 5b                	pop    %r11
ffffffff81007a43:	41 5a                	pop    %r10
ffffffff81007a45:	41 59                	pop    %r9
ffffffff81007a47:	41 58                	pop    %r8
ffffffff81007a49:	5d                   	pop    %rbp
ffffffff81007a4a:	5c                   	pop    %rsp
ffffffff81007a4b:	5f                   	pop    %rdi
ffffffff81007a4c:	5e                   	pop    %rsi
ffffffff81007a4d:	5a                   	pop    %rdx
ffffffff81007a4e:	59                   	pop    %rcx
ffffffff81007a4f:	5b                   	pop    %rbx
ffffffff81007a50:	58                   	pop    %rax
ffffffff81007a51:	9d                   	popfq  
ffffffff81007a52:	48 cf                	iretq  

ffffffff81007a54 <isr_ec_begin>:
ffffffff81007a54:	58                   	pop    %rax
ffffffff81007a55:	9c                   	pushfq 
ffffffff81007a56:	53                   	push   %rbx
ffffffff81007a57:	51                   	push   %rcx
ffffffff81007a58:	52                   	push   %rdx
ffffffff81007a59:	56                   	push   %rsi
ffffffff81007a5a:	57                   	push   %rdi
ffffffff81007a5b:	54                   	push   %rsp
ffffffff81007a5c:	55                   	push   %rbp
ffffffff81007a5d:	41 50                	push   %r8
ffffffff81007a5f:	41 51                	push   %r9
ffffffff81007a61:	41 52                	push   %r10
ffffffff81007a63:	41 53                	push   %r11
ffffffff81007a65:	41 54                	push   %r12
ffffffff81007a67:	41 55                	push   %r13
ffffffff81007a69:	41 56                	push   %r14
ffffffff81007a6b:	41 57                	push   %r15
ffffffff81007a6d:	fc                   	cld    
ffffffff81007a6e:	bf 08 00 00 00       	mov    $0x8,%edi
ffffffff81007a73:	48 89 c6             	mov    %rax,%rsi
ffffffff81007a76:	e8 07 b6 ff ff       	callq  ffffffff81003082 <dummy_isr>
ffffffff81007a7b:	fd                   	std    
ffffffff81007a7c:	41 5f                	pop    %r15
ffffffff81007a7e:	41 5e                	pop    %r14
ffffffff81007a80:	41 5d                	pop    %r13
ffffffff81007a82:	41 5c                	pop    %r12
ffffffff81007a84:	41 5b                	pop    %r11
ffffffff81007a86:	41 5a                	pop    %r10
ffffffff81007a88:	41 59                	pop    %r9
ffffffff81007a8a:	41 58                	pop    %r8
ffffffff81007a8c:	5d                   	pop    %rbp
ffffffff81007a8d:	5c                   	pop    %rsp
ffffffff81007a8e:	5f                   	pop    %rdi
ffffffff81007a8f:	5e                   	pop    %rsi
ffffffff81007a90:	5a                   	pop    %rdx
ffffffff81007a91:	59                   	pop    %rcx
ffffffff81007a92:	5b                   	pop    %rbx
ffffffff81007a93:	9d                   	popfq  
ffffffff81007a94:	48 cf                	iretq  

ffffffff81007a96 <isr_10>:
ffffffff81007a96:	58                   	pop    %rax
ffffffff81007a97:	9c                   	pushfq 
ffffffff81007a98:	53                   	push   %rbx
ffffffff81007a99:	51                   	push   %rcx
ffffffff81007a9a:	52                   	push   %rdx
ffffffff81007a9b:	56                   	push   %rsi
ffffffff81007a9c:	57                   	push   %rdi
ffffffff81007a9d:	54                   	push   %rsp
ffffffff81007a9e:	55                   	push   %rbp
ffffffff81007a9f:	41 50                	push   %r8
ffffffff81007aa1:	41 51                	push   %r9
ffffffff81007aa3:	41 52                	push   %r10
ffffffff81007aa5:	41 53                	push   %r11
ffffffff81007aa7:	41 54                	push   %r12
ffffffff81007aa9:	41 55                	push   %r13
ffffffff81007aab:	41 56                	push   %r14
ffffffff81007aad:	41 57                	push   %r15
ffffffff81007aaf:	fc                   	cld    
ffffffff81007ab0:	bf 0a 00 00 00       	mov    $0xa,%edi
ffffffff81007ab5:	48 89 c6             	mov    %rax,%rsi
ffffffff81007ab8:	e8 c5 b5 ff ff       	callq  ffffffff81003082 <dummy_isr>
ffffffff81007abd:	fd                   	std    
ffffffff81007abe:	41 5f                	pop    %r15
ffffffff81007ac0:	41 5e                	pop    %r14
ffffffff81007ac2:	41 5d                	pop    %r13
ffffffff81007ac4:	41 5c                	pop    %r12
ffffffff81007ac6:	41 5b                	pop    %r11
ffffffff81007ac8:	41 5a                	pop    %r10
ffffffff81007aca:	41 59                	pop    %r9
ffffffff81007acc:	41 58                	pop    %r8
ffffffff81007ace:	5d                   	pop    %rbp
ffffffff81007acf:	5c                   	pop    %rsp
ffffffff81007ad0:	5f                   	pop    %rdi
ffffffff81007ad1:	5e                   	pop    %rsi
ffffffff81007ad2:	5a                   	pop    %rdx
ffffffff81007ad3:	59                   	pop    %rcx
ffffffff81007ad4:	5b                   	pop    %rbx
ffffffff81007ad5:	9d                   	popfq  
ffffffff81007ad6:	48 cf                	iretq  

ffffffff81007ad8 <isr_11>:
ffffffff81007ad8:	58                   	pop    %rax
ffffffff81007ad9:	9c                   	pushfq 
ffffffff81007ada:	53                   	push   %rbx
ffffffff81007adb:	51                   	push   %rcx
ffffffff81007adc:	52                   	push   %rdx
ffffffff81007add:	56                   	push   %rsi
ffffffff81007ade:	57                   	push   %rdi
ffffffff81007adf:	54                   	push   %rsp
ffffffff81007ae0:	55                   	push   %rbp
ffffffff81007ae1:	41 50                	push   %r8
ffffffff81007ae3:	41 51                	push   %r9
ffffffff81007ae5:	41 52                	push   %r10
ffffffff81007ae7:	41 53                	push   %r11
ffffffff81007ae9:	41 54                	push   %r12
ffffffff81007aeb:	41 55                	push   %r13
ffffffff81007aed:	41 56                	push   %r14
ffffffff81007aef:	41 57                	push   %r15
ffffffff81007af1:	fc                   	cld    
ffffffff81007af2:	bf 0b 00 00 00       	mov    $0xb,%edi
ffffffff81007af7:	48 89 c6             	mov    %rax,%rsi
ffffffff81007afa:	e8 83 b5 ff ff       	callq  ffffffff81003082 <dummy_isr>
ffffffff81007aff:	fd                   	std    
ffffffff81007b00:	41 5f                	pop    %r15
ffffffff81007b02:	41 5e                	pop    %r14
ffffffff81007b04:	41 5d                	pop    %r13
ffffffff81007b06:	41 5c                	pop    %r12
ffffffff81007b08:	41 5b                	pop    %r11
ffffffff81007b0a:	41 5a                	pop    %r10
ffffffff81007b0c:	41 59                	pop    %r9
ffffffff81007b0e:	41 58                	pop    %r8
ffffffff81007b10:	5d                   	pop    %rbp
ffffffff81007b11:	5c                   	pop    %rsp
ffffffff81007b12:	5f                   	pop    %rdi
ffffffff81007b13:	5e                   	pop    %rsi
ffffffff81007b14:	5a                   	pop    %rdx
ffffffff81007b15:	59                   	pop    %rcx
ffffffff81007b16:	5b                   	pop    %rbx
ffffffff81007b17:	9d                   	popfq  
ffffffff81007b18:	48 cf                	iretq  

ffffffff81007b1a <isr_12>:
ffffffff81007b1a:	58                   	pop    %rax
ffffffff81007b1b:	9c                   	pushfq 
ffffffff81007b1c:	53                   	push   %rbx
ffffffff81007b1d:	51                   	push   %rcx
ffffffff81007b1e:	52                   	push   %rdx
ffffffff81007b1f:	56                   	push   %rsi
ffffffff81007b20:	57                   	push   %rdi
ffffffff81007b21:	54                   	push   %rsp
ffffffff81007b22:	55                   	push   %rbp
ffffffff81007b23:	41 50                	push   %r8
ffffffff81007b25:	41 51                	push   %r9
ffffffff81007b27:	41 52                	push   %r10
ffffffff81007b29:	41 53                	push   %r11
ffffffff81007b2b:	41 54                	push   %r12
ffffffff81007b2d:	41 55                	push   %r13
ffffffff81007b2f:	41 56                	push   %r14
ffffffff81007b31:	41 57                	push   %r15
ffffffff81007b33:	fc                   	cld    
ffffffff81007b34:	bf 0c 00 00 00       	mov    $0xc,%edi
ffffffff81007b39:	48 89 c6             	mov    %rax,%rsi
ffffffff81007b3c:	e8 41 b5 ff ff       	callq  ffffffff81003082 <dummy_isr>
ffffffff81007b41:	fd                   	std    
ffffffff81007b42:	41 5f                	pop    %r15
ffffffff81007b44:	41 5e                	pop    %r14
ffffffff81007b46:	41 5d                	pop    %r13
ffffffff81007b48:	41 5c                	pop    %r12
ffffffff81007b4a:	41 5b                	pop    %r11
ffffffff81007b4c:	41 5a                	pop    %r10
ffffffff81007b4e:	41 59                	pop    %r9
ffffffff81007b50:	41 58                	pop    %r8
ffffffff81007b52:	5d                   	pop    %rbp
ffffffff81007b53:	5c                   	pop    %rsp
ffffffff81007b54:	5f                   	pop    %rdi
ffffffff81007b55:	5e                   	pop    %rsi
ffffffff81007b56:	5a                   	pop    %rdx
ffffffff81007b57:	59                   	pop    %rcx
ffffffff81007b58:	5b                   	pop    %rbx
ffffffff81007b59:	9d                   	popfq  
ffffffff81007b5a:	48 cf                	iretq  

ffffffff81007b5c <isr_13>:
ffffffff81007b5c:	58                   	pop    %rax
ffffffff81007b5d:	9c                   	pushfq 
ffffffff81007b5e:	53                   	push   %rbx
ffffffff81007b5f:	51                   	push   %rcx
ffffffff81007b60:	52                   	push   %rdx
ffffffff81007b61:	56                   	push   %rsi
ffffffff81007b62:	57                   	push   %rdi
ffffffff81007b63:	54                   	push   %rsp
ffffffff81007b64:	55                   	push   %rbp
ffffffff81007b65:	41 50                	push   %r8
ffffffff81007b67:	41 51                	push   %r9
ffffffff81007b69:	41 52                	push   %r10
ffffffff81007b6b:	41 53                	push   %r11
ffffffff81007b6d:	41 54                	push   %r12
ffffffff81007b6f:	41 55                	push   %r13
ffffffff81007b71:	41 56                	push   %r14
ffffffff81007b73:	41 57                	push   %r15
ffffffff81007b75:	fc                   	cld    
ffffffff81007b76:	bf 0d 00 00 00       	mov    $0xd,%edi
ffffffff81007b7b:	48 89 c6             	mov    %rax,%rsi
ffffffff81007b7e:	e8 ff b4 ff ff       	callq  ffffffff81003082 <dummy_isr>
ffffffff81007b83:	fd                   	std    
ffffffff81007b84:	41 5f                	pop    %r15
ffffffff81007b86:	41 5e                	pop    %r14
ffffffff81007b88:	41 5d                	pop    %r13
ffffffff81007b8a:	41 5c                	pop    %r12
ffffffff81007b8c:	41 5b                	pop    %r11
ffffffff81007b8e:	41 5a                	pop    %r10
ffffffff81007b90:	41 59                	pop    %r9
ffffffff81007b92:	41 58                	pop    %r8
ffffffff81007b94:	5d                   	pop    %rbp
ffffffff81007b95:	5c                   	pop    %rsp
ffffffff81007b96:	5f                   	pop    %rdi
ffffffff81007b97:	5e                   	pop    %rsi
ffffffff81007b98:	5a                   	pop    %rdx
ffffffff81007b99:	59                   	pop    %rcx
ffffffff81007b9a:	5b                   	pop    %rbx
ffffffff81007b9b:	9d                   	popfq  
ffffffff81007b9c:	48 cf                	iretq  

ffffffff81007b9e <isr_14>:
ffffffff81007b9e:	58                   	pop    %rax
ffffffff81007b9f:	9c                   	pushfq 
ffffffff81007ba0:	53                   	push   %rbx
ffffffff81007ba1:	51                   	push   %rcx
ffffffff81007ba2:	52                   	push   %rdx
ffffffff81007ba3:	56                   	push   %rsi
ffffffff81007ba4:	57                   	push   %rdi
ffffffff81007ba5:	54                   	push   %rsp
ffffffff81007ba6:	55                   	push   %rbp
ffffffff81007ba7:	41 50                	push   %r8
ffffffff81007ba9:	41 51                	push   %r9
ffffffff81007bab:	41 52                	push   %r10
ffffffff81007bad:	41 53                	push   %r11
ffffffff81007baf:	41 54                	push   %r12
ffffffff81007bb1:	41 55                	push   %r13
ffffffff81007bb3:	41 56                	push   %r14
ffffffff81007bb5:	41 57                	push   %r15
ffffffff81007bb7:	fc                   	cld    
ffffffff81007bb8:	bf 0e 00 00 00       	mov    $0xe,%edi
ffffffff81007bbd:	48 89 c6             	mov    %rax,%rsi
ffffffff81007bc0:	e8 bd b4 ff ff       	callq  ffffffff81003082 <dummy_isr>
ffffffff81007bc5:	fd                   	std    
ffffffff81007bc6:	41 5f                	pop    %r15
ffffffff81007bc8:	41 5e                	pop    %r14
ffffffff81007bca:	41 5d                	pop    %r13
ffffffff81007bcc:	41 5c                	pop    %r12
ffffffff81007bce:	41 5b                	pop    %r11
ffffffff81007bd0:	41 5a                	pop    %r10
ffffffff81007bd2:	41 59                	pop    %r9
ffffffff81007bd4:	41 58                	pop    %r8
ffffffff81007bd6:	5d                   	pop    %rbp
ffffffff81007bd7:	5c                   	pop    %rsp
ffffffff81007bd8:	5f                   	pop    %rdi
ffffffff81007bd9:	5e                   	pop    %rsi
ffffffff81007bda:	5a                   	pop    %rdx
ffffffff81007bdb:	59                   	pop    %rcx
ffffffff81007bdc:	5b                   	pop    %rbx
ffffffff81007bdd:	9d                   	popfq  
ffffffff81007bde:	48 cf                	iretq  

ffffffff81007be0 <isr_ec_sz_start>:
ffffffff81007be0:	58                   	pop    %rax
ffffffff81007be1:	9c                   	pushfq 
ffffffff81007be2:	53                   	push   %rbx
ffffffff81007be3:	51                   	push   %rcx
ffffffff81007be4:	52                   	push   %rdx
ffffffff81007be5:	56                   	push   %rsi
ffffffff81007be6:	57                   	push   %rdi
ffffffff81007be7:	54                   	push   %rsp
ffffffff81007be8:	55                   	push   %rbp
ffffffff81007be9:	41 50                	push   %r8
ffffffff81007beb:	41 51                	push   %r9
ffffffff81007bed:	41 52                	push   %r10
ffffffff81007bef:	41 53                	push   %r11
ffffffff81007bf1:	41 54                	push   %r12
ffffffff81007bf3:	41 55                	push   %r13
ffffffff81007bf5:	41 56                	push   %r14
ffffffff81007bf7:	41 57                	push   %r15
ffffffff81007bf9:	fc                   	cld    
ffffffff81007bfa:	bf 11 00 00 00       	mov    $0x11,%edi
ffffffff81007bff:	48 89 c6             	mov    %rax,%rsi
ffffffff81007c02:	e8 7b b4 ff ff       	callq  ffffffff81003082 <dummy_isr>
ffffffff81007c07:	fd                   	std    
ffffffff81007c08:	41 5f                	pop    %r15
ffffffff81007c0a:	41 5e                	pop    %r14
ffffffff81007c0c:	41 5d                	pop    %r13
ffffffff81007c0e:	41 5c                	pop    %r12
ffffffff81007c10:	41 5b                	pop    %r11
ffffffff81007c12:	41 5a                	pop    %r10
ffffffff81007c14:	41 59                	pop    %r9
ffffffff81007c16:	41 58                	pop    %r8
ffffffff81007c18:	5d                   	pop    %rbp
ffffffff81007c19:	5c                   	pop    %rsp
ffffffff81007c1a:	5f                   	pop    %rdi
ffffffff81007c1b:	5e                   	pop    %rsi
ffffffff81007c1c:	5a                   	pop    %rdx
ffffffff81007c1d:	59                   	pop    %rcx
ffffffff81007c1e:	5b                   	pop    %rbx
ffffffff81007c1f:	9d                   	popfq  
ffffffff81007c20:	48 cf                	iretq  

ffffffff81007c22 <_cli>:
ffffffff81007c22:	fa                   	cli    
ffffffff81007c23:	c3                   	retq   

ffffffff81007c24 <_sti>:
ffffffff81007c24:	fb                   	sti    
ffffffff81007c25:	c3                   	retq   

ffffffff81007c26 <_lidt>:
ffffffff81007c26:	0f 01 1f             	lidt   (%rdi)
ffffffff81007c29:	c3                   	retq   

ffffffff81007c2a <_lgdt>:
ffffffff81007c2a:	0f 01 17             	lgdt   (%rdi)
ffffffff81007c2d:	c3                   	retq   

ffffffff81007c2e <_ltr>:
ffffffff81007c2e:	0f 00 df             	ltr    %di
ffffffff81007c31:	c3                   	retq   
ffffffff81007c32:	66 2e 0f 1f 84 00 00 	nopw   %cs:0x0(%rax,%rax,1)
ffffffff81007c39:	00 00 00 
ffffffff81007c3c:	0f 1f 40 00          	nopl   0x0(%rax)

ffffffff81007c40 <kernel_higher_half>:
ffffffff81007c40:	0f 01 14 25 00 20 00 	lgdt   0x1002000
ffffffff81007c47:	01 
ffffffff81007c48:	b8 10 00 00 00       	mov    $0x10,%eax
ffffffff81007c4d:	8e d8                	mov    %eax,%ds
ffffffff81007c4f:	8e d0                	mov    %eax,%ss
ffffffff81007c51:	8e c0                	mov    %eax,%es
ffffffff81007c53:	8e e0                	mov    %eax,%fs
ffffffff81007c55:	8e e8                	mov    %eax,%gs
ffffffff81007c57:	48 bd 80 00 01 81 ff 	movabs $0xffffffff81010080,%rbp
ffffffff81007c5e:	ff ff ff 
ffffffff81007c61:	48 bc 80 40 01 81 ff 	movabs $0xffffffff81014080,%rsp
ffffffff81007c68:	ff ff ff 
ffffffff81007c6b:	0f 01 3c 25 00 00 00 	invlpg 0x0
ffffffff81007c72:	00 
ffffffff81007c73:	e8 03 00 00 00       	callq  ffffffff81007c7b <kmain>

ffffffff81007c78 <halt>:
ffffffff81007c78:	f4                   	hlt    
ffffffff81007c79:	eb fd                	jmp    ffffffff81007c78 <halt>

ffffffff81007c7b <kmain>:
ffffffff81007c7b:	55                   	push   %rbp
ffffffff81007c7c:	48 89 e5             	mov    %rsp,%rbp
ffffffff81007c7f:	48 83 ec 10          	sub    $0x10,%rsp
ffffffff81007c83:	48 c7 c7 80 d0 00 81 	mov    $0xffffffff8100d080,%rdi
ffffffff81007c8a:	b8 00 00 00 00       	mov    $0x0,%eax
ffffffff81007c8f:	e8 82 03 00 00       	callq  ffffffff81008016 <kprintf>
ffffffff81007c94:	e8 fa 13 00 00       	callq  ffffffff81009093 <init_serial>
ffffffff81007c99:	e8 8a 1a 00 00       	callq  ffffffff81009728 <physmm_early_init>
ffffffff81007c9e:	e8 0d 38 00 00       	callq  ffffffff8100b4b0 <pagemgr_init>
ffffffff81007ca3:	85 c0                	test   %eax,%eax
ffffffff81007ca5:	75 4d                	jne    ffffffff81007cf4 <kmain+0x79>
ffffffff81007ca7:	e8 06 08 00 00       	callq  ffffffff810084b2 <vmmgr_init>
ffffffff81007cac:	85 c0                	test   %eax,%eax
ffffffff81007cae:	75 47                	jne    ffffffff81007cf7 <kmain+0x7c>
ffffffff81007cb0:	e8 eb 1f 00 00       	callq  ffffffff81009ca0 <physmm_init>
ffffffff81007cb5:	85 c0                	test   %eax,%eax
ffffffff81007cb7:	75 41                	jne    ffffffff81007cfa <kmain+0x7f>
ffffffff81007cb9:	b8 00 00 00 00       	mov    $0x0,%eax
ffffffff81007cbe:	e8 c4 bc ff ff       	callq  ffffffff81003987 <gdt_init>
ffffffff81007cc3:	85 c0                	test   %eax,%eax
ffffffff81007cc5:	75 36                	jne    ffffffff81007cfd <kmain+0x82>
ffffffff81007cc7:	e8 24 b4 ff ff       	callq  ffffffff810030f0 <isr_init>
ffffffff81007ccc:	85 c0                	test   %eax,%eax
ffffffff81007cce:	75 30                	jne    ffffffff81007d00 <kmain+0x85>
ffffffff81007cd0:	e8 83 38 00 00       	callq  ffffffff8100b558 <pagemgr_install_handler>
ffffffff81007cd5:	85 c0                	test   %eax,%eax
ffffffff81007cd7:	75 2a                	jne    ffffffff81007d03 <kmain+0x88>
ffffffff81007cd9:	b8 00 00 00 00       	mov    $0x0,%eax
ffffffff81007cde:	e8 06 47 00 00       	callq  ffffffff8100c3e9 <disable_pic>
ffffffff81007ce3:	48 c7 45 f8 00 10 00 	movq   $0x1000,-0x8(%rbp)
ffffffff81007cea:	00 
ffffffff81007ceb:	48 8b 45 f8          	mov    -0x8(%rbp),%rax
ffffffff81007cef:	c6 00 00             	movb   $0x0,(%rax)
ffffffff81007cf2:	eb 10                	jmp    ffffffff81007d04 <kmain+0x89>
ffffffff81007cf4:	90                   	nop
ffffffff81007cf5:	eb 0d                	jmp    ffffffff81007d04 <kmain+0x89>
ffffffff81007cf7:	90                   	nop
ffffffff81007cf8:	eb 0a                	jmp    ffffffff81007d04 <kmain+0x89>
ffffffff81007cfa:	90                   	nop
ffffffff81007cfb:	eb 07                	jmp    ffffffff81007d04 <kmain+0x89>
ffffffff81007cfd:	90                   	nop
ffffffff81007cfe:	eb 04                	jmp    ffffffff81007d04 <kmain+0x89>
ffffffff81007d00:	90                   	nop
ffffffff81007d01:	eb 01                	jmp    ffffffff81007d04 <kmain+0x89>
ffffffff81007d03:	90                   	nop
ffffffff81007d04:	c9                   	leaveq 
ffffffff81007d05:	c3                   	retq   

ffffffff81007d06 <vga_init>:
ffffffff81007d06:	55                   	push   %rbp
ffffffff81007d07:	48 89 e5             	mov    %rsp,%rbp
ffffffff81007d0a:	b9 01 00 00 00       	mov    $0x1,%ecx
ffffffff81007d0f:	ba a0 0f 00 00       	mov    $0xfa0,%edx
ffffffff81007d14:	be 00 00 00 00       	mov    $0x0,%esi
ffffffff81007d19:	bf 00 80 0b 00       	mov    $0xb8000,%edi
ffffffff81007d1e:	e8 b4 0e 00 00       	callq  ffffffff81008bd7 <vmmgr_map>
ffffffff81007d23:	48 89 05 56 c3 00 00 	mov    %rax,0xc356(%rip)        # ffffffff81014080 <vga>
ffffffff81007d2a:	c6 05 58 c3 00 00 00 	movb   $0x0,0xc358(%rip)        # ffffffff81014089 <vga+0x9>
ffffffff81007d31:	c6 05 50 c3 00 00 00 	movb   $0x0,0xc350(%rip)        # ffffffff81014088 <vga+0x8>
ffffffff81007d38:	90                   	nop
ffffffff81007d39:	5d                   	pop    %rbp
ffffffff81007d3a:	c3                   	retq   

ffffffff81007d3b <vga_scroll>:
ffffffff81007d3b:	55                   	push   %rbp
ffffffff81007d3c:	48 89 e5             	mov    %rsp,%rbp
ffffffff81007d3f:	90                   	nop
ffffffff81007d40:	5d                   	pop    %rbp
ffffffff81007d41:	c3                   	retq   

ffffffff81007d42 <vga_print>:
ffffffff81007d42:	55                   	push   %rbp
ffffffff81007d43:	48 89 e5             	mov    %rsp,%rbp
ffffffff81007d46:	48 83 ec 38          	sub    $0x38,%rsp
ffffffff81007d4a:	48 89 7d d8          	mov    %rdi,-0x28(%rbp)
ffffffff81007d4e:	89 f0                	mov    %esi,%eax
ffffffff81007d50:	48 89 55 c8          	mov    %rdx,-0x38(%rbp)
ffffffff81007d54:	88 45 d4             	mov    %al,-0x2c(%rbp)
ffffffff81007d57:	0f b6 45 d4          	movzbl -0x2c(%rbp),%eax
ffffffff81007d5b:	c1 e0 08             	shl    $0x8,%eax
ffffffff81007d5e:	66 89 45 fe          	mov    %ax,-0x2(%rbp)
ffffffff81007d62:	c6 45 ef 00          	movb   $0x0,-0x11(%rbp)
ffffffff81007d66:	80 7d d4 00          	cmpb   $0x0,-0x2c(%rbp)
ffffffff81007d6a:	75 04                	jne    ffffffff81007d70 <vga_print+0x2e>
ffffffff81007d6c:	c6 45 d4 07          	movb   $0x7,-0x2c(%rbp)
ffffffff81007d70:	48 c7 45 f0 00 00 00 	movq   $0x0,-0x10(%rbp)
ffffffff81007d77:	00 
ffffffff81007d78:	e9 c7 00 00 00       	jmpq   ffffffff81007e44 <vga_print+0x102>
ffffffff81007d7d:	48 8b 55 d8          	mov    -0x28(%rbp),%rdx
ffffffff81007d81:	48 8b 45 f0          	mov    -0x10(%rbp),%rax
ffffffff81007d85:	48 01 d0             	add    %rdx,%rax
ffffffff81007d88:	0f b6 00             	movzbl (%rax),%eax
ffffffff81007d8b:	88 45 ef             	mov    %al,-0x11(%rbp)
ffffffff81007d8e:	80 7d ef 0a          	cmpb   $0xa,-0x11(%rbp)
ffffffff81007d92:	75 1c                	jne    ffffffff81007db0 <vga_print+0x6e>
ffffffff81007d94:	0f b6 05 ed c2 00 00 	movzbl 0xc2ed(%rip),%eax        # ffffffff81014088 <vga+0x8>
ffffffff81007d9b:	83 c0 01             	add    $0x1,%eax
ffffffff81007d9e:	88 05 e4 c2 00 00    	mov    %al,0xc2e4(%rip)        # ffffffff81014088 <vga+0x8>
ffffffff81007da4:	c6 05 de c2 00 00 00 	movb   $0x0,0xc2de(%rip)        # ffffffff81014089 <vga+0x9>
ffffffff81007dab:	e9 8f 00 00 00       	jmpq   ffffffff81007e3f <vga_print+0xfd>
ffffffff81007db0:	0f b6 05 d2 c2 00 00 	movzbl 0xc2d2(%rip),%eax        # ffffffff81014089 <vga+0x9>
ffffffff81007db7:	3c 4f                	cmp    $0x4f,%al
ffffffff81007db9:	76 17                	jbe    ffffffff81007dd2 <vga_print+0x90>
ffffffff81007dbb:	0f b6 05 c6 c2 00 00 	movzbl 0xc2c6(%rip),%eax        # ffffffff81014088 <vga+0x8>
ffffffff81007dc2:	83 c0 01             	add    $0x1,%eax
ffffffff81007dc5:	88 05 bd c2 00 00    	mov    %al,0xc2bd(%rip)        # ffffffff81014088 <vga+0x8>
ffffffff81007dcb:	c6 05 b7 c2 00 00 00 	movb   $0x0,0xc2b7(%rip)        # ffffffff81014089 <vga+0x9>
ffffffff81007dd2:	0f b6 05 af c2 00 00 	movzbl 0xc2af(%rip),%eax        # ffffffff81014088 <vga+0x8>
ffffffff81007dd9:	3c 18                	cmp    $0x18,%al
ffffffff81007ddb:	76 0a                	jbe    ffffffff81007de7 <vga_print+0xa5>
ffffffff81007ddd:	b8 00 00 00 00       	mov    $0x0,%eax
ffffffff81007de2:	e8 54 ff ff ff       	callq  ffffffff81007d3b <vga_scroll>
ffffffff81007de7:	0f b6 05 9a c2 00 00 	movzbl 0xc29a(%rip),%eax        # ffffffff81014088 <vga+0x8>
ffffffff81007dee:	0f b6 d0             	movzbl %al,%edx
ffffffff81007df1:	89 d0                	mov    %edx,%eax
ffffffff81007df3:	c1 e0 02             	shl    $0x2,%eax
ffffffff81007df6:	01 d0                	add    %edx,%eax
ffffffff81007df8:	c1 e0 04             	shl    $0x4,%eax
ffffffff81007dfb:	89 c2                	mov    %eax,%edx
ffffffff81007dfd:	0f b6 05 85 c2 00 00 	movzbl 0xc285(%rip),%eax        # ffffffff81014089 <vga+0x9>
ffffffff81007e04:	0f b6 c0             	movzbl %al,%eax
ffffffff81007e07:	01 d0                	add    %edx,%eax
ffffffff81007e09:	66 89 45 ec          	mov    %ax,-0x14(%rbp)
ffffffff81007e0d:	66 81 65 fe 00 ff    	andw   $0xff00,-0x2(%rbp)
ffffffff81007e13:	0f b6 45 ef          	movzbl -0x11(%rbp),%eax
ffffffff81007e17:	48 8b 15 62 c2 00 00 	mov    0xc262(%rip),%rdx        # ffffffff81014080 <vga>
ffffffff81007e1e:	0f b7 4d ec          	movzwl -0x14(%rbp),%ecx
ffffffff81007e22:	48 01 c9             	add    %rcx,%rcx
ffffffff81007e25:	48 01 ca             	add    %rcx,%rdx
ffffffff81007e28:	66 0b 45 fe          	or     -0x2(%rbp),%ax
ffffffff81007e2c:	66 89 02             	mov    %ax,(%rdx)
ffffffff81007e2f:	0f b6 05 53 c2 00 00 	movzbl 0xc253(%rip),%eax        # ffffffff81014089 <vga+0x9>
ffffffff81007e36:	83 c0 01             	add    $0x1,%eax
ffffffff81007e39:	88 05 4a c2 00 00    	mov    %al,0xc24a(%rip)        # ffffffff81014089 <vga+0x9>
ffffffff81007e3f:	48 83 45 f0 01       	addq   $0x1,-0x10(%rbp)
ffffffff81007e44:	48 8b 45 f0          	mov    -0x10(%rbp),%rax
ffffffff81007e48:	48 3b 45 c8          	cmp    -0x38(%rbp),%rax
ffffffff81007e4c:	73 16                	jae    ffffffff81007e64 <vga_print+0x122>
ffffffff81007e4e:	48 8b 55 d8          	mov    -0x28(%rbp),%rdx
ffffffff81007e52:	48 8b 45 f0          	mov    -0x10(%rbp),%rax
ffffffff81007e56:	48 01 d0             	add    %rdx,%rax
ffffffff81007e59:	0f b6 00             	movzbl (%rax),%eax
ffffffff81007e5c:	84 c0                	test   %al,%al
ffffffff81007e5e:	0f 85 19 ff ff ff    	jne    ffffffff81007d7d <vga_print+0x3b>
ffffffff81007e64:	90                   	nop
ffffffff81007e65:	c9                   	leaveq 
ffffffff81007e66:	c3                   	retq   

ffffffff81007e67 <vga_print_ch>:
ffffffff81007e67:	55                   	push   %rbp
ffffffff81007e68:	48 89 e5             	mov    %rsp,%rbp
ffffffff81007e6b:	48 83 ec 18          	sub    $0x18,%rsp
ffffffff81007e6f:	89 f8                	mov    %edi,%eax
ffffffff81007e71:	88 45 ec             	mov    %al,-0x14(%rbp)
ffffffff81007e74:	66 c7 45 fe 00 07    	movw   $0x700,-0x2(%rbp)
ffffffff81007e7a:	80 7d ec 0a          	cmpb   $0xa,-0x14(%rbp)
ffffffff81007e7e:	75 21                	jne    ffffffff81007ea1 <vga_print_ch+0x3a>
ffffffff81007e80:	0f b6 05 01 c2 00 00 	movzbl 0xc201(%rip),%eax        # ffffffff81014088 <vga+0x8>
ffffffff81007e87:	83 c0 01             	add    $0x1,%eax
ffffffff81007e8a:	88 05 f8 c1 00 00    	mov    %al,0xc1f8(%rip)        # ffffffff81014088 <vga+0x8>
ffffffff81007e90:	c6 05 f2 c1 00 00 00 	movb   $0x0,0xc1f2(%rip)        # ffffffff81014089 <vga+0x9>
ffffffff81007e97:	b8 00 00 00 00       	mov    $0x0,%eax
ffffffff81007e9c:	e9 8f 00 00 00       	jmpq   ffffffff81007f30 <vga_print_ch+0xc9>
ffffffff81007ea1:	0f b6 05 e1 c1 00 00 	movzbl 0xc1e1(%rip),%eax        # ffffffff81014089 <vga+0x9>
ffffffff81007ea8:	3c 4f                	cmp    $0x4f,%al
ffffffff81007eaa:	76 17                	jbe    ffffffff81007ec3 <vga_print_ch+0x5c>
ffffffff81007eac:	0f b6 05 d5 c1 00 00 	movzbl 0xc1d5(%rip),%eax        # ffffffff81014088 <vga+0x8>
ffffffff81007eb3:	83 c0 01             	add    $0x1,%eax
ffffffff81007eb6:	88 05 cc c1 00 00    	mov    %al,0xc1cc(%rip)        # ffffffff81014088 <vga+0x8>
ffffffff81007ebc:	c6 05 c6 c1 00 00 00 	movb   $0x0,0xc1c6(%rip)        # ffffffff81014089 <vga+0x9>
ffffffff81007ec3:	0f b6 05 be c1 00 00 	movzbl 0xc1be(%rip),%eax        # ffffffff81014088 <vga+0x8>
ffffffff81007eca:	3c 18                	cmp    $0x18,%al
ffffffff81007ecc:	76 0a                	jbe    ffffffff81007ed8 <vga_print_ch+0x71>
ffffffff81007ece:	b8 00 00 00 00       	mov    $0x0,%eax
ffffffff81007ed3:	e8 63 fe ff ff       	callq  ffffffff81007d3b <vga_scroll>
ffffffff81007ed8:	0f b6 05 a9 c1 00 00 	movzbl 0xc1a9(%rip),%eax        # ffffffff81014088 <vga+0x8>
ffffffff81007edf:	0f b6 d0             	movzbl %al,%edx
ffffffff81007ee2:	89 d0                	mov    %edx,%eax
ffffffff81007ee4:	c1 e0 02             	shl    $0x2,%eax
ffffffff81007ee7:	01 d0                	add    %edx,%eax
ffffffff81007ee9:	c1 e0 04             	shl    $0x4,%eax
ffffffff81007eec:	89 c2                	mov    %eax,%edx
ffffffff81007eee:	0f b6 05 94 c1 00 00 	movzbl 0xc194(%rip),%eax        # ffffffff81014089 <vga+0x9>
ffffffff81007ef5:	0f b6 c0             	movzbl %al,%eax
ffffffff81007ef8:	01 d0                	add    %edx,%eax
ffffffff81007efa:	66 89 45 fc          	mov    %ax,-0x4(%rbp)
ffffffff81007efe:	66 81 65 fe 00 ff    	andw   $0xff00,-0x2(%rbp)
ffffffff81007f04:	0f b6 45 ec          	movzbl -0x14(%rbp),%eax
ffffffff81007f08:	48 8b 15 71 c1 00 00 	mov    0xc171(%rip),%rdx        # ffffffff81014080 <vga>
ffffffff81007f0f:	0f b7 4d fc          	movzwl -0x4(%rbp),%ecx
ffffffff81007f13:	48 01 c9             	add    %rcx,%rcx
ffffffff81007f16:	48 01 ca             	add    %rcx,%rdx
ffffffff81007f19:	66 0b 45 fe          	or     -0x2(%rbp),%ax
ffffffff81007f1d:	66 89 02             	mov    %ax,(%rdx)
ffffffff81007f20:	0f b6 05 62 c1 00 00 	movzbl 0xc162(%rip),%eax        # ffffffff81014089 <vga+0x9>
ffffffff81007f27:	83 c0 01             	add    $0x1,%eax
ffffffff81007f2a:	88 05 59 c1 00 00    	mov    %al,0xc159(%rip)        # ffffffff81014089 <vga+0x9>
ffffffff81007f30:	c9                   	leaveq 
ffffffff81007f31:	c3                   	retq   

ffffffff81007f32 <itoa>:
ffffffff81007f32:	55                   	push   %rbp
ffffffff81007f33:	48 89 e5             	mov    %rsp,%rbp
ffffffff81007f36:	48 83 ec 38          	sub    $0x38,%rsp
ffffffff81007f3a:	48 89 7d d8          	mov    %rdi,-0x28(%rbp)
ffffffff81007f3e:	48 89 75 d0          	mov    %rsi,-0x30(%rbp)
ffffffff81007f42:	89 55 cc             	mov    %edx,-0x34(%rbp)
ffffffff81007f45:	83 7d cc 01          	cmpl   $0x1,-0x34(%rbp)
ffffffff81007f49:	7e 06                	jle    ffffffff81007f51 <itoa+0x1f>
ffffffff81007f4b:	83 7d cc 24          	cmpl   $0x24,-0x34(%rbp)
ffffffff81007f4f:	7e 10                	jle    ffffffff81007f61 <itoa+0x2f>
ffffffff81007f51:	48 8b 45 d0          	mov    -0x30(%rbp),%rax
ffffffff81007f55:	c6 00 00             	movb   $0x0,(%rax)
ffffffff81007f58:	48 8b 45 d0          	mov    -0x30(%rbp),%rax
ffffffff81007f5c:	e9 b3 00 00 00       	jmpq   ffffffff81008014 <itoa+0xe2>
ffffffff81007f61:	48 8b 45 d0          	mov    -0x30(%rbp),%rax
ffffffff81007f65:	48 89 45 f8          	mov    %rax,-0x8(%rbp)
ffffffff81007f69:	48 8b 45 f8          	mov    -0x8(%rbp),%rax
ffffffff81007f6d:	48 89 45 e8          	mov    %rax,-0x18(%rbp)
ffffffff81007f71:	48 8b 45 f8          	mov    -0x8(%rbp),%rax
ffffffff81007f75:	48 89 45 f0          	mov    %rax,-0x10(%rbp)
ffffffff81007f79:	8b 45 cc             	mov    -0x34(%rbp),%eax
ffffffff81007f7c:	48 63 c8             	movslq %eax,%rcx
ffffffff81007f7f:	48 8b 45 d8          	mov    -0x28(%rbp),%rax
ffffffff81007f83:	ba 00 00 00 00       	mov    $0x0,%edx
ffffffff81007f88:	48 f7 f1             	div    %rcx
ffffffff81007f8b:	48 89 d0             	mov    %rdx,%rax
ffffffff81007f8e:	48 8d 48 23          	lea    0x23(%rax),%rcx
ffffffff81007f92:	48 8b 45 f8          	mov    -0x8(%rbp),%rax
ffffffff81007f96:	48 8d 50 01          	lea    0x1(%rax),%rdx
ffffffff81007f9a:	48 89 55 f8          	mov    %rdx,-0x8(%rbp)
ffffffff81007f9e:	0f b6 91 90 d0 00 81 	movzbl -0x7eff2f70(%rcx),%edx
ffffffff81007fa5:	88 10                	mov    %dl,(%rax)
ffffffff81007fa7:	8b 45 cc             	mov    -0x34(%rbp),%eax
ffffffff81007faa:	48 63 f0             	movslq %eax,%rsi
ffffffff81007fad:	48 8b 45 d8          	mov    -0x28(%rbp),%rax
ffffffff81007fb1:	ba 00 00 00 00       	mov    $0x0,%edx
ffffffff81007fb6:	48 f7 f6             	div    %rsi
ffffffff81007fb9:	48 89 45 d8          	mov    %rax,-0x28(%rbp)
ffffffff81007fbd:	48 83 7d d8 00       	cmpq   $0x0,-0x28(%rbp)
ffffffff81007fc2:	75 b5                	jne    ffffffff81007f79 <itoa+0x47>
ffffffff81007fc4:	48 8b 45 f8          	mov    -0x8(%rbp),%rax
ffffffff81007fc8:	48 8d 50 ff          	lea    -0x1(%rax),%rdx
ffffffff81007fcc:	48 89 55 f8          	mov    %rdx,-0x8(%rbp)
ffffffff81007fd0:	c6 00 00             	movb   $0x0,(%rax)
ffffffff81007fd3:	eb 31                	jmp    ffffffff81008006 <itoa+0xd4>
ffffffff81007fd5:	48 8b 45 f0          	mov    -0x10(%rbp),%rax
ffffffff81007fd9:	0f b6 00             	movzbl (%rax),%eax
ffffffff81007fdc:	88 45 e7             	mov    %al,-0x19(%rbp)
ffffffff81007fdf:	48 8b 45 f0          	mov    -0x10(%rbp),%rax
ffffffff81007fe3:	48 8d 50 01          	lea    0x1(%rax),%rdx
ffffffff81007fe7:	48 89 55 f0          	mov    %rdx,-0x10(%rbp)
ffffffff81007feb:	48 8b 55 f8          	mov    -0x8(%rbp),%rdx
ffffffff81007fef:	0f b6 12             	movzbl (%rdx),%edx
ffffffff81007ff2:	88 10                	mov    %dl,(%rax)
ffffffff81007ff4:	48 8b 45 f8          	mov    -0x8(%rbp),%rax
ffffffff81007ff8:	48 8d 50 ff          	lea    -0x1(%rax),%rdx
ffffffff81007ffc:	48 89 55 f8          	mov    %rdx,-0x8(%rbp)
ffffffff81008000:	0f b6 55 e7          	movzbl -0x19(%rbp),%edx
ffffffff81008004:	88 10                	mov    %dl,(%rax)
ffffffff81008006:	48 8b 45 f0          	mov    -0x10(%rbp),%rax
ffffffff8100800a:	48 3b 45 f8          	cmp    -0x8(%rbp),%rax
ffffffff8100800e:	72 c5                	jb     ffffffff81007fd5 <itoa+0xa3>
ffffffff81008010:	48 8b 45 e8          	mov    -0x18(%rbp),%rax
ffffffff81008014:	c9                   	leaveq 
ffffffff81008015:	c3                   	retq   

ffffffff81008016 <kprintf>:
ffffffff81008016:	55                   	push   %rbp
ffffffff81008017:	48 89 e5             	mov    %rsp,%rbp
ffffffff8100801a:	48 81 ec c0 00 00 00 	sub    $0xc0,%rsp
ffffffff81008021:	48 89 bd 48 ff ff ff 	mov    %rdi,-0xb8(%rbp)
ffffffff81008028:	48 89 75 d8          	mov    %rsi,-0x28(%rbp)
ffffffff8100802c:	48 89 55 e0          	mov    %rdx,-0x20(%rbp)
ffffffff81008030:	48 89 4d e8          	mov    %rcx,-0x18(%rbp)
ffffffff81008034:	4c 89 45 f0          	mov    %r8,-0x10(%rbp)
ffffffff81008038:	4c 89 4d f8          	mov    %r9,-0x8(%rbp)
ffffffff8100803c:	c7 45 98 08 00 00 00 	movl   $0x8,-0x68(%rbp)
ffffffff81008043:	48 8d 45 10          	lea    0x10(%rbp),%rax
ffffffff81008047:	48 89 45 a0          	mov    %rax,-0x60(%rbp)
ffffffff8100804b:	48 8d 45 d0          	lea    -0x30(%rbp),%rax
ffffffff8100804f:	48 89 45 a8          	mov    %rax,-0x58(%rbp)
ffffffff81008053:	48 c7 45 c0 00 00 00 	movq   $0x0,-0x40(%rbp)
ffffffff8100805a:	00 
ffffffff8100805b:	c6 45 bf 00          	movb   $0x0,-0x41(%rbp)
ffffffff8100805f:	48 c7 45 b0 00 00 00 	movq   $0x0,-0x50(%rbp)
ffffffff81008066:	00 
ffffffff81008067:	e9 01 02 00 00       	jmpq   ffffffff8100826d <kprintf+0x257>
ffffffff8100806c:	48 8b 85 48 ff ff ff 	mov    -0xb8(%rbp),%rax
ffffffff81008073:	0f b6 00             	movzbl (%rax),%eax
ffffffff81008076:	3c 25                	cmp    $0x25,%al
ffffffff81008078:	0f 85 ce 01 00 00    	jne    ffffffff8100824c <kprintf+0x236>
ffffffff8100807e:	48 8b 85 48 ff ff ff 	mov    -0xb8(%rbp),%rax
ffffffff81008085:	48 83 c0 01          	add    $0x1,%rax
ffffffff81008089:	0f b6 00             	movzbl (%rax),%eax
ffffffff8100808c:	0f be c0             	movsbl %al,%eax
ffffffff8100808f:	83 f8 78             	cmp    $0x78,%eax
ffffffff81008092:	0f 84 ea 00 00 00    	je     ffffffff81008182 <kprintf+0x16c>
ffffffff81008098:	83 f8 78             	cmp    $0x78,%eax
ffffffff8100809b:	0f 8f 83 01 00 00    	jg     ffffffff81008224 <kprintf+0x20e>
ffffffff810080a1:	83 f8 73             	cmp    $0x73,%eax
ffffffff810080a4:	74 20                	je     ffffffff810080c6 <kprintf+0xb0>
ffffffff810080a6:	83 f8 73             	cmp    $0x73,%eax
ffffffff810080a9:	0f 8f 75 01 00 00    	jg     ffffffff81008224 <kprintf+0x20e>
ffffffff810080af:	83 f8 63             	cmp    $0x63,%eax
ffffffff810080b2:	0f 84 85 00 00 00    	je     ffffffff8100813d <kprintf+0x127>
ffffffff810080b8:	83 f8 64             	cmp    $0x64,%eax
ffffffff810080bb:	0f 84 c1 00 00 00    	je     ffffffff81008182 <kprintf+0x16c>
ffffffff810080c1:	e9 5e 01 00 00       	jmpq   ffffffff81008224 <kprintf+0x20e>
ffffffff810080c6:	8b 45 98             	mov    -0x68(%rbp),%eax
ffffffff810080c9:	83 f8 2f             	cmp    $0x2f,%eax
ffffffff810080cc:	77 17                	ja     ffffffff810080e5 <kprintf+0xcf>
ffffffff810080ce:	48 8b 45 a8          	mov    -0x58(%rbp),%rax
ffffffff810080d2:	8b 55 98             	mov    -0x68(%rbp),%edx
ffffffff810080d5:	89 d2                	mov    %edx,%edx
ffffffff810080d7:	48 01 d0             	add    %rdx,%rax
ffffffff810080da:	8b 55 98             	mov    -0x68(%rbp),%edx
ffffffff810080dd:	83 c2 08             	add    $0x8,%edx
ffffffff810080e0:	89 55 98             	mov    %edx,-0x68(%rbp)
ffffffff810080e3:	eb 0c                	jmp    ffffffff810080f1 <kprintf+0xdb>
ffffffff810080e5:	48 8b 45 a0          	mov    -0x60(%rbp),%rax
ffffffff810080e9:	48 8d 50 08          	lea    0x8(%rax),%rdx
ffffffff810080ed:	48 89 55 a0          	mov    %rdx,-0x60(%rbp)
ffffffff810080f1:	48 8b 00             	mov    (%rax),%rax
ffffffff810080f4:	48 89 45 c0          	mov    %rax,-0x40(%rbp)
ffffffff810080f8:	c7 45 cc 00 00 00 00 	movl   $0x0,-0x34(%rbp)
ffffffff810080ff:	eb 23                	jmp    ffffffff81008124 <kprintf+0x10e>
ffffffff81008101:	8b 45 cc             	mov    -0x34(%rbp),%eax
ffffffff81008104:	48 63 d0             	movslq %eax,%rdx
ffffffff81008107:	48 8b 45 c0          	mov    -0x40(%rbp),%rax
ffffffff8100810b:	48 01 d0             	add    %rdx,%rax
ffffffff8100810e:	0f b6 00             	movzbl (%rax),%eax
ffffffff81008111:	0f be c0             	movsbl %al,%eax
ffffffff81008114:	89 c7                	mov    %eax,%edi
ffffffff81008116:	b8 00 00 00 00       	mov    $0x0,%eax
ffffffff8100811b:	e8 f9 0f 00 00       	callq  ffffffff81009119 <write_serial>
ffffffff81008120:	83 45 cc 01          	addl   $0x1,-0x34(%rbp)
ffffffff81008124:	8b 45 cc             	mov    -0x34(%rbp),%eax
ffffffff81008127:	48 63 d0             	movslq %eax,%rdx
ffffffff8100812a:	48 8b 45 c0          	mov    -0x40(%rbp),%rax
ffffffff8100812e:	48 01 d0             	add    %rdx,%rax
ffffffff81008131:	0f b6 00             	movzbl (%rax),%eax
ffffffff81008134:	84 c0                	test   %al,%al
ffffffff81008136:	75 c9                	jne    ffffffff81008101 <kprintf+0xeb>
ffffffff81008138:	e9 05 01 00 00       	jmpq   ffffffff81008242 <kprintf+0x22c>
ffffffff8100813d:	8b 45 98             	mov    -0x68(%rbp),%eax
ffffffff81008140:	83 f8 2f             	cmp    $0x2f,%eax
ffffffff81008143:	77 17                	ja     ffffffff8100815c <kprintf+0x146>
ffffffff81008145:	48 8b 45 a8          	mov    -0x58(%rbp),%rax
ffffffff81008149:	8b 55 98             	mov    -0x68(%rbp),%edx
ffffffff8100814c:	89 d2                	mov    %edx,%edx
ffffffff8100814e:	48 01 d0             	add    %rdx,%rax
ffffffff81008151:	8b 55 98             	mov    -0x68(%rbp),%edx
ffffffff81008154:	83 c2 08             	add    $0x8,%edx
ffffffff81008157:	89 55 98             	mov    %edx,-0x68(%rbp)
ffffffff8100815a:	eb 0c                	jmp    ffffffff81008168 <kprintf+0x152>
ffffffff8100815c:	48 8b 45 a0          	mov    -0x60(%rbp),%rax
ffffffff81008160:	48 8d 50 08          	lea    0x8(%rax),%rdx
ffffffff81008164:	48 89 55 a0          	mov    %rdx,-0x60(%rbp)
ffffffff81008168:	8b 00                	mov    (%rax),%eax
ffffffff8100816a:	88 45 bf             	mov    %al,-0x41(%rbp)
ffffffff8100816d:	0f be 45 bf          	movsbl -0x41(%rbp),%eax
ffffffff81008171:	89 c7                	mov    %eax,%edi
ffffffff81008173:	b8 00 00 00 00       	mov    $0x0,%eax
ffffffff81008178:	e8 9c 0f 00 00       	callq  ffffffff81009119 <write_serial>
ffffffff8100817d:	e9 c0 00 00 00       	jmpq   ffffffff81008242 <kprintf+0x22c>
ffffffff81008182:	8b 45 98             	mov    -0x68(%rbp),%eax
ffffffff81008185:	83 f8 2f             	cmp    $0x2f,%eax
ffffffff81008188:	77 17                	ja     ffffffff810081a1 <kprintf+0x18b>
ffffffff8100818a:	48 8b 45 a8          	mov    -0x58(%rbp),%rax
ffffffff8100818e:	8b 55 98             	mov    -0x68(%rbp),%edx
ffffffff81008191:	89 d2                	mov    %edx,%edx
ffffffff81008193:	48 01 d0             	add    %rdx,%rax
ffffffff81008196:	8b 55 98             	mov    -0x68(%rbp),%edx
ffffffff81008199:	83 c2 08             	add    $0x8,%edx
ffffffff8100819c:	89 55 98             	mov    %edx,-0x68(%rbp)
ffffffff8100819f:	eb 0c                	jmp    ffffffff810081ad <kprintf+0x197>
ffffffff810081a1:	48 8b 45 a0          	mov    -0x60(%rbp),%rax
ffffffff810081a5:	48 8d 50 08          	lea    0x8(%rax),%rdx
ffffffff810081a9:	48 89 55 a0          	mov    %rdx,-0x60(%rbp)
ffffffff810081ad:	48 8b 00             	mov    (%rax),%rax
ffffffff810081b0:	48 89 45 b0          	mov    %rax,-0x50(%rbp)
ffffffff810081b4:	48 8b 85 48 ff ff ff 	mov    -0xb8(%rbp),%rax
ffffffff810081bb:	48 83 c0 01          	add    $0x1,%rax
ffffffff810081bf:	0f b6 00             	movzbl (%rax),%eax
ffffffff810081c2:	3c 64                	cmp    $0x64,%al
ffffffff810081c4:	75 07                	jne    ffffffff810081cd <kprintf+0x1b7>
ffffffff810081c6:	ba 0a 00 00 00       	mov    $0xa,%edx
ffffffff810081cb:	eb 05                	jmp    ffffffff810081d2 <kprintf+0x1bc>
ffffffff810081cd:	ba 10 00 00 00       	mov    $0x10,%edx
ffffffff810081d2:	48 8d 8d 58 ff ff ff 	lea    -0xa8(%rbp),%rcx
ffffffff810081d9:	48 8b 45 b0          	mov    -0x50(%rbp),%rax
ffffffff810081dd:	48 89 ce             	mov    %rcx,%rsi
ffffffff810081e0:	48 89 c7             	mov    %rax,%rdi
ffffffff810081e3:	e8 4a fd ff ff       	callq  ffffffff81007f32 <itoa>
ffffffff810081e8:	c7 45 c8 00 00 00 00 	movl   $0x0,-0x38(%rbp)
ffffffff810081ef:	eb 20                	jmp    ffffffff81008211 <kprintf+0x1fb>
ffffffff810081f1:	8b 45 c8             	mov    -0x38(%rbp),%eax
ffffffff810081f4:	48 98                	cltq   
ffffffff810081f6:	0f b6 84 05 58 ff ff 	movzbl -0xa8(%rbp,%rax,1),%eax
ffffffff810081fd:	ff 
ffffffff810081fe:	0f be c0             	movsbl %al,%eax
ffffffff81008201:	89 c7                	mov    %eax,%edi
ffffffff81008203:	b8 00 00 00 00       	mov    $0x0,%eax
ffffffff81008208:	e8 0c 0f 00 00       	callq  ffffffff81009119 <write_serial>
ffffffff8100820d:	83 45 c8 01          	addl   $0x1,-0x38(%rbp)
ffffffff81008211:	8b 45 c8             	mov    -0x38(%rbp),%eax
ffffffff81008214:	48 98                	cltq   
ffffffff81008216:	0f b6 84 05 58 ff ff 	movzbl -0xa8(%rbp,%rax,1),%eax
ffffffff8100821d:	ff 
ffffffff8100821e:	84 c0                	test   %al,%al
ffffffff81008220:	75 cf                	jne    ffffffff810081f1 <kprintf+0x1db>
ffffffff81008222:	eb 1e                	jmp    ffffffff81008242 <kprintf+0x22c>
ffffffff81008224:	48 8b 85 48 ff ff ff 	mov    -0xb8(%rbp),%rax
ffffffff8100822b:	48 83 c0 01          	add    $0x1,%rax
ffffffff8100822f:	0f b6 00             	movzbl (%rax),%eax
ffffffff81008232:	0f be c0             	movsbl %al,%eax
ffffffff81008235:	89 c7                	mov    %eax,%edi
ffffffff81008237:	b8 00 00 00 00       	mov    $0x0,%eax
ffffffff8100823c:	e8 d8 0e 00 00       	callq  ffffffff81009119 <write_serial>
ffffffff81008241:	90                   	nop
ffffffff81008242:	48 83 85 48 ff ff ff 	addq   $0x1,-0xb8(%rbp)
ffffffff81008249:	01 
ffffffff8100824a:	eb 19                	jmp    ffffffff81008265 <kprintf+0x24f>
ffffffff8100824c:	48 8b 85 48 ff ff ff 	mov    -0xb8(%rbp),%rax
ffffffff81008253:	0f b6 00             	movzbl (%rax),%eax
ffffffff81008256:	0f be c0             	movsbl %al,%eax
ffffffff81008259:	89 c7                	mov    %eax,%edi
ffffffff8100825b:	b8 00 00 00 00       	mov    $0x0,%eax
ffffffff81008260:	e8 b4 0e 00 00       	callq  ffffffff81009119 <write_serial>
ffffffff81008265:	48 83 85 48 ff ff ff 	addq   $0x1,-0xb8(%rbp)
ffffffff8100826c:	01 
ffffffff8100826d:	48 8b 85 48 ff ff ff 	mov    -0xb8(%rbp),%rax
ffffffff81008274:	0f b6 00             	movzbl (%rax),%eax
ffffffff81008277:	84 c0                	test   %al,%al
ffffffff81008279:	0f 85 ed fd ff ff    	jne    ffffffff8100806c <kprintf+0x56>
ffffffff8100827f:	90                   	nop
ffffffff81008280:	c9                   	leaveq 
ffffffff81008281:	c3                   	retq   

ffffffff81008282 <vmmgr_list_entries>:
ffffffff81008282:	55                   	push   %rbp
ffffffff81008283:	48 89 e5             	mov    %rsp,%rbp
ffffffff81008286:	48 83 ec 30          	sub    $0x30,%rsp
ffffffff8100828a:	48 c7 45 f8 00 00 00 	movq   $0x0,-0x8(%rbp)
ffffffff81008291:	00 
ffffffff81008292:	48 c7 45 e8 00 00 00 	movq   $0x0,-0x18(%rbp)
ffffffff81008299:	00 
ffffffff8100829a:	48 c7 45 e0 00 00 00 	movq   $0x0,-0x20(%rbp)
ffffffff810082a1:	00 
ffffffff810082a2:	48 c7 45 d8 00 00 00 	movq   $0x0,-0x28(%rbp)
ffffffff810082a9:	00 
ffffffff810082aa:	48 c7 c7 a0 40 01 81 	mov    $0xffffffff810140a0,%rdi
ffffffff810082b1:	e8 78 43 00 00       	callq  ffffffff8100c62e <linked_list_first>
ffffffff810082b6:	48 89 45 f8          	mov    %rax,-0x8(%rbp)
ffffffff810082ba:	48 c7 c7 d8 d0 00 81 	mov    $0xffffffff8100d0d8,%rdi
ffffffff810082c1:	b8 00 00 00 00       	mov    $0x0,%eax
ffffffff810082c6:	e8 4b fd ff ff       	callq  ffffffff81008016 <kprintf>
ffffffff810082cb:	e9 bc 00 00 00       	jmpq   ffffffff8100838c <vmmgr_list_entries+0x10a>
ffffffff810082d0:	48 8b 45 f8          	mov    -0x8(%rbp),%rax
ffffffff810082d4:	48 83 c0 10          	add    $0x10,%rax
ffffffff810082d8:	48 89 45 e0          	mov    %rax,-0x20(%rbp)
ffffffff810082dc:	48 8b 45 f8          	mov    -0x8(%rbp),%rax
ffffffff810082e0:	48 89 c7             	mov    %rax,%rdi
ffffffff810082e3:	e8 5c 43 00 00       	callq  ffffffff8100c644 <linked_list_next>
ffffffff810082e8:	48 89 45 e8          	mov    %rax,-0x18(%rbp)
ffffffff810082ec:	66 c7 45 f6 00 00    	movw   $0x0,-0xa(%rbp)
ffffffff810082f2:	eb 7f                	jmp    ffffffff81008373 <vmmgr_list_entries+0xf1>
ffffffff810082f4:	0f b7 45 f6          	movzwl -0xa(%rbp),%eax
ffffffff810082f8:	48 c1 e0 04          	shl    $0x4,%rax
ffffffff810082fc:	48 89 c2             	mov    %rax,%rdx
ffffffff810082ff:	48 8b 45 e0          	mov    -0x20(%rbp),%rax
ffffffff81008303:	48 01 d0             	add    %rdx,%rax
ffffffff81008306:	48 8b 00             	mov    (%rax),%rax
ffffffff81008309:	48 85 c0             	test   %rax,%rax
ffffffff8100830c:	74 5a                	je     ffffffff81008368 <vmmgr_list_entries+0xe6>
ffffffff8100830e:	0f b7 45 f6          	movzwl -0xa(%rbp),%eax
ffffffff81008312:	48 c1 e0 04          	shl    $0x4,%rax
ffffffff81008316:	48 89 c2             	mov    %rax,%rdx
ffffffff81008319:	48 8b 45 e0          	mov    -0x20(%rbp),%rax
ffffffff8100831d:	48 01 d0             	add    %rdx,%rax
ffffffff81008320:	48 8b 40 08          	mov    0x8(%rax),%rax
ffffffff81008324:	48 85 c0             	test   %rax,%rax
ffffffff81008327:	74 3f                	je     ffffffff81008368 <vmmgr_list_entries+0xe6>
ffffffff81008329:	0f b7 45 f6          	movzwl -0xa(%rbp),%eax
ffffffff8100832d:	48 c1 e0 04          	shl    $0x4,%rax
ffffffff81008331:	48 89 c2             	mov    %rax,%rdx
ffffffff81008334:	48 8b 45 e0          	mov    -0x20(%rbp),%rax
ffffffff81008338:	48 01 d0             	add    %rdx,%rax
ffffffff8100833b:	48 8b 50 08          	mov    0x8(%rax),%rdx
ffffffff8100833f:	0f b7 45 f6          	movzwl -0xa(%rbp),%eax
ffffffff81008343:	48 c1 e0 04          	shl    $0x4,%rax
ffffffff81008347:	48 89 c1             	mov    %rax,%rcx
ffffffff8100834a:	48 8b 45 e0          	mov    -0x20(%rbp),%rax
ffffffff8100834e:	48 01 c8             	add    %rcx,%rax
ffffffff81008351:	48 8b 00             	mov    (%rax),%rax
ffffffff81008354:	48 89 c6             	mov    %rax,%rsi
ffffffff81008357:	48 c7 c7 ed d0 00 81 	mov    $0xffffffff8100d0ed,%rdi
ffffffff8100835e:	b8 00 00 00 00       	mov    $0x0,%eax
ffffffff81008363:	e8 ae fc ff ff       	callq  ffffffff81008016 <kprintf>
ffffffff81008368:	0f b7 45 f6          	movzwl -0xa(%rbp),%eax
ffffffff8100836c:	83 c0 01             	add    $0x1,%eax
ffffffff8100836f:	66 89 45 f6          	mov    %ax,-0xa(%rbp)
ffffffff81008373:	0f b7 05 56 bd 00 00 	movzwl 0xbd56(%rip),%eax        # ffffffff810140d0 <vmem_mgr+0x30>
ffffffff8100837a:	66 39 45 f6          	cmp    %ax,-0xa(%rbp)
ffffffff8100837e:	0f 82 70 ff ff ff    	jb     ffffffff810082f4 <vmmgr_list_entries+0x72>
ffffffff81008384:	48 8b 45 e8          	mov    -0x18(%rbp),%rax
ffffffff81008388:	48 89 45 f8          	mov    %rax,-0x8(%rbp)
ffffffff8100838c:	48 83 7d f8 00       	cmpq   $0x0,-0x8(%rbp)
ffffffff81008391:	0f 85 39 ff ff ff    	jne    ffffffff810082d0 <vmmgr_list_entries+0x4e>
ffffffff81008397:	48 c7 c7 b8 40 01 81 	mov    $0xffffffff810140b8,%rdi
ffffffff8100839e:	e8 8b 42 00 00       	callq  ffffffff8100c62e <linked_list_first>
ffffffff810083a3:	48 89 45 f8          	mov    %rax,-0x8(%rbp)
ffffffff810083a7:	48 c7 c7 04 d1 00 81 	mov    $0xffffffff8100d104,%rdi
ffffffff810083ae:	b8 00 00 00 00       	mov    $0x0,%eax
ffffffff810083b3:	e8 5e fc ff ff       	callq  ffffffff81008016 <kprintf>
ffffffff810083b8:	e9 e6 00 00 00       	jmpq   ffffffff810084a3 <vmmgr_list_entries+0x221>
ffffffff810083bd:	48 8b 45 f8          	mov    -0x8(%rbp),%rax
ffffffff810083c1:	48 89 c7             	mov    %rax,%rdi
ffffffff810083c4:	e8 7b 42 00 00       	callq  ffffffff8100c644 <linked_list_next>
ffffffff810083c9:	48 89 45 e8          	mov    %rax,-0x18(%rbp)
ffffffff810083cd:	48 8b 45 f8          	mov    -0x8(%rbp),%rax
ffffffff810083d1:	48 83 c0 10          	add    $0x10,%rax
ffffffff810083d5:	48 89 45 d8          	mov    %rax,-0x28(%rbp)
ffffffff810083d9:	66 c7 45 f4 00 00    	movw   $0x0,-0xc(%rbp)
ffffffff810083df:	e9 a6 00 00 00       	jmpq   ffffffff8100848a <vmmgr_list_entries+0x208>
ffffffff810083e4:	0f b7 55 f4          	movzwl -0xc(%rbp),%edx
ffffffff810083e8:	48 89 d0             	mov    %rdx,%rax
ffffffff810083eb:	48 01 c0             	add    %rax,%rax
ffffffff810083ee:	48 01 d0             	add    %rdx,%rax
ffffffff810083f1:	48 c1 e0 03          	shl    $0x3,%rax
ffffffff810083f5:	48 89 c2             	mov    %rax,%rdx
ffffffff810083f8:	48 8b 45 d8          	mov    -0x28(%rbp),%rax
ffffffff810083fc:	48 01 d0             	add    %rdx,%rax
ffffffff810083ff:	48 8b 00             	mov    (%rax),%rax
ffffffff81008402:	48 85 c0             	test   %rax,%rax
ffffffff81008405:	74 78                	je     ffffffff8100847f <vmmgr_list_entries+0x1fd>
ffffffff81008407:	0f b7 55 f4          	movzwl -0xc(%rbp),%edx
ffffffff8100840b:	48 89 d0             	mov    %rdx,%rax
ffffffff8100840e:	48 01 c0             	add    %rax,%rax
ffffffff81008411:	48 01 d0             	add    %rdx,%rax
ffffffff81008414:	48 c1 e0 03          	shl    $0x3,%rax
ffffffff81008418:	48 89 c2             	mov    %rax,%rdx
ffffffff8100841b:	48 8b 45 d8          	mov    -0x28(%rbp),%rax
ffffffff8100841f:	48 01 d0             	add    %rdx,%rax
ffffffff81008422:	48 8b 40 08          	mov    0x8(%rax),%rax
ffffffff81008426:	48 85 c0             	test   %rax,%rax
ffffffff81008429:	74 54                	je     ffffffff8100847f <vmmgr_list_entries+0x1fd>
ffffffff8100842b:	0f b7 55 f4          	movzwl -0xc(%rbp),%edx
ffffffff8100842f:	48 89 d0             	mov    %rdx,%rax
ffffffff81008432:	48 01 c0             	add    %rax,%rax
ffffffff81008435:	48 01 d0             	add    %rdx,%rax
ffffffff81008438:	48 c1 e0 03          	shl    $0x3,%rax
ffffffff8100843c:	48 89 c2             	mov    %rax,%rdx
ffffffff8100843f:	48 8b 45 d8          	mov    -0x28(%rbp),%rax
ffffffff81008443:	48 01 d0             	add    %rdx,%rax
ffffffff81008446:	48 8b 48 08          	mov    0x8(%rax),%rcx
ffffffff8100844a:	0f b7 55 f4          	movzwl -0xc(%rbp),%edx
ffffffff8100844e:	48 89 d0             	mov    %rdx,%rax
ffffffff81008451:	48 01 c0             	add    %rax,%rax
ffffffff81008454:	48 01 d0             	add    %rdx,%rax
ffffffff81008457:	48 c1 e0 03          	shl    $0x3,%rax
ffffffff8100845b:	48 89 c2             	mov    %rax,%rdx
ffffffff8100845e:	48 8b 45 d8          	mov    -0x28(%rbp),%rax
ffffffff81008462:	48 01 d0             	add    %rdx,%rax
ffffffff81008465:	48 8b 00             	mov    (%rax),%rax
ffffffff81008468:	48 89 ca             	mov    %rcx,%rdx
ffffffff8100846b:	48 89 c6             	mov    %rax,%rsi
ffffffff8100846e:	48 c7 c7 ed d0 00 81 	mov    $0xffffffff8100d0ed,%rdi
ffffffff81008475:	b8 00 00 00 00       	mov    $0x0,%eax
ffffffff8100847a:	e8 97 fb ff ff       	callq  ffffffff81008016 <kprintf>
ffffffff8100847f:	0f b7 45 f4          	movzwl -0xc(%rbp),%eax
ffffffff81008483:	83 c0 01             	add    $0x1,%eax
ffffffff81008486:	66 89 45 f4          	mov    %ax,-0xc(%rbp)
ffffffff8100848a:	0f b7 05 41 bc 00 00 	movzwl 0xbc41(%rip),%eax        # ffffffff810140d2 <vmem_mgr+0x32>
ffffffff81008491:	66 39 45 f4          	cmp    %ax,-0xc(%rbp)
ffffffff81008495:	0f 82 49 ff ff ff    	jb     ffffffff810083e4 <vmmgr_list_entries+0x162>
ffffffff8100849b:	48 8b 45 e8          	mov    -0x18(%rbp),%rax
ffffffff8100849f:	48 89 45 f8          	mov    %rax,-0x8(%rbp)
ffffffff810084a3:	48 83 7d f8 00       	cmpq   $0x0,-0x8(%rbp)
ffffffff810084a8:	0f 85 0f ff ff ff    	jne    ffffffff810083bd <vmmgr_list_entries+0x13b>
ffffffff810084ae:	90                   	nop
ffffffff810084af:	90                   	nop
ffffffff810084b0:	c9                   	leaveq 
ffffffff810084b1:	c3                   	retq   

ffffffff810084b2 <vmmgr_init>:
ffffffff810084b2:	55                   	push   %rbp
ffffffff810084b3:	48 89 e5             	mov    %rsp,%rbp
ffffffff810084b6:	48 83 ec 20          	sub    $0x20,%rsp
ffffffff810084ba:	48 c7 45 f8 00 00 00 	movq   $0x0,-0x8(%rbp)
ffffffff810084c1:	00 
ffffffff810084c2:	48 c7 45 f0 00 00 00 	movq   $0x0,-0x10(%rbp)
ffffffff810084c9:	00 
ffffffff810084ca:	48 c7 45 e8 00 00 00 	movq   $0x0,-0x18(%rbp)
ffffffff810084d1:	00 
ffffffff810084d2:	48 c7 45 e0 00 00 00 	movq   $0x0,-0x20(%rbp)
ffffffff810084d9:	00 
ffffffff810084da:	ba 40 00 00 00       	mov    $0x40,%edx
ffffffff810084df:	be 00 00 00 00       	mov    $0x0,%esi
ffffffff810084e4:	48 c7 c7 a0 40 01 81 	mov    $0xffffffff810140a0,%rdi
ffffffff810084eb:	e8 97 26 00 00       	callq  ffffffff8100ab87 <memset>
ffffffff810084f0:	48 b8 00 00 00 00 00 	movabs $0xffff800000000000,%rax
ffffffff810084f7:	80 ff ff 
ffffffff810084fa:	48 89 05 d7 bb 00 00 	mov    %rax,0xbbd7(%rip)        # ffffffff810140d8 <vmem_mgr+0x38>
ffffffff81008501:	48 c7 c7 a0 40 01 81 	mov    $0xffffffff810140a0,%rdi
ffffffff81008508:	e8 fb 3e 00 00       	callq  ffffffff8100c408 <linked_list_init>
ffffffff8100850d:	48 c7 c7 b8 40 01 81 	mov    $0xffffffff810140b8,%rdi
ffffffff81008514:	e8 ef 3e 00 00       	callq  ffffffff8100c408 <linked_list_init>
ffffffff81008519:	e8 d3 3d 00 00       	callq  ffffffff8100c2f1 <pagemgr_get>
ffffffff8100851e:	48 89 05 bb bb 00 00 	mov    %rax,0xbbbb(%rip)        # ffffffff810140e0 <pagemgr>
ffffffff81008525:	48 8b 05 b4 bb 00 00 	mov    0xbbb4(%rip),%rax        # ffffffff810140e0 <pagemgr>
ffffffff8100852c:	48 8b 08             	mov    (%rax),%rcx
ffffffff8100852f:	48 8b 05 a2 bb 00 00 	mov    0xbba2(%rip),%rax        # ffffffff810140d8 <vmem_mgr+0x38>
ffffffff81008536:	ba 01 00 00 00       	mov    $0x1,%edx
ffffffff8100853b:	be 00 10 00 00       	mov    $0x1000,%esi
ffffffff81008540:	48 89 c7             	mov    %rax,%rdi
ffffffff81008543:	ff d1                	callq  *%rcx
ffffffff81008545:	48 89 45 e8          	mov    %rax,-0x18(%rbp)
ffffffff81008549:	48 8b 05 90 bb 00 00 	mov    0xbb90(%rip),%rax        # ffffffff810140e0 <pagemgr>
ffffffff81008550:	48 8b 00             	mov    (%rax),%rax
ffffffff81008553:	48 8b 15 7e bb 00 00 	mov    0xbb7e(%rip),%rdx        # ffffffff810140d8 <vmem_mgr+0x38>
ffffffff8100855a:	48 8d 8a 00 10 00 00 	lea    0x1000(%rdx),%rcx
ffffffff81008561:	ba 01 00 00 00       	mov    $0x1,%edx
ffffffff81008566:	be 00 10 00 00       	mov    $0x1000,%esi
ffffffff8100856b:	48 89 cf             	mov    %rcx,%rdi
ffffffff8100856e:	ff d0                	callq  *%rax
ffffffff81008570:	48 89 45 e0          	mov    %rax,-0x20(%rbp)
ffffffff81008574:	48 83 7d e8 00       	cmpq   $0x0,-0x18(%rbp)
ffffffff81008579:	74 07                	je     ffffffff81008582 <vmmgr_init+0xd0>
ffffffff8100857b:	48 83 7d e0 00       	cmpq   $0x0,-0x20(%rbp)
ffffffff81008580:	75 0a                	jne    ffffffff8100858c <vmmgr_init+0xda>
ffffffff81008582:	b8 ff ff ff ff       	mov    $0xffffffff,%eax
ffffffff81008587:	e9 40 01 00 00       	jmpq   ffffffff810086cc <vmmgr_init+0x21a>
ffffffff8100858c:	48 8b 45 e8          	mov    -0x18(%rbp),%rax
ffffffff81008590:	48 89 c6             	mov    %rax,%rsi
ffffffff81008593:	48 c7 c7 1d d1 00 81 	mov    $0xffffffff8100d11d,%rdi
ffffffff8100859a:	b8 00 00 00 00       	mov    $0x0,%eax
ffffffff8100859f:	e8 72 fa ff ff       	callq  ffffffff81008016 <kprintf>
ffffffff810085a4:	48 8b 45 e0          	mov    -0x20(%rbp),%rax
ffffffff810085a8:	48 89 c6             	mov    %rax,%rsi
ffffffff810085ab:	48 c7 c7 2f d1 00 81 	mov    $0xffffffff8100d12f,%rdi
ffffffff810085b2:	b8 00 00 00 00       	mov    $0x0,%eax
ffffffff810085b7:	e8 5a fa ff ff       	callq  ffffffff81008016 <kprintf>
ffffffff810085bc:	48 8b 45 e8          	mov    -0x18(%rbp),%rax
ffffffff810085c0:	ba 04 00 00 00       	mov    $0x4,%edx
ffffffff810085c5:	be 00 00 00 00       	mov    $0x0,%esi
ffffffff810085ca:	48 89 c7             	mov    %rax,%rdi
ffffffff810085cd:	e8 b5 25 00 00       	callq  ffffffff8100ab87 <memset>
ffffffff810085d2:	48 8b 45 e0          	mov    -0x20(%rbp),%rax
ffffffff810085d6:	ba 04 00 00 00       	mov    $0x4,%edx
ffffffff810085db:	be 00 00 00 00       	mov    $0x0,%esi
ffffffff810085e0:	48 89 c7             	mov    %rax,%rdi
ffffffff810085e3:	e8 9f 25 00 00       	callq  ffffffff8100ab87 <memset>
ffffffff810085e8:	48 8b 45 e8          	mov    -0x18(%rbp),%rax
ffffffff810085ec:	48 89 45 f8          	mov    %rax,-0x8(%rbp)
ffffffff810085f0:	48 8b 45 f8          	mov    -0x8(%rbp),%rax
ffffffff810085f4:	48 89 c6             	mov    %rax,%rsi
ffffffff810085f7:	48 c7 c7 b8 40 01 81 	mov    $0xffffffff810140b8,%rdi
ffffffff810085fe:	e8 49 3e 00 00       	callq  ffffffff8100c44c <linked_list_add_head>
ffffffff81008603:	48 8b 45 e0          	mov    -0x20(%rbp),%rax
ffffffff81008607:	48 89 45 f8          	mov    %rax,-0x8(%rbp)
ffffffff8100860b:	48 8b 45 f8          	mov    -0x8(%rbp),%rax
ffffffff8100860f:	48 89 c6             	mov    %rax,%rsi
ffffffff81008612:	48 c7 c7 a0 40 01 81 	mov    $0xffffffff810140a0,%rdi
ffffffff81008619:	e8 2e 3e 00 00       	callq  ffffffff8100c44c <linked_list_add_head>
ffffffff8100861e:	66 c7 05 a9 ba 00 00 	movw   $0xff,0xbaa9(%rip)        # ffffffff810140d0 <vmem_mgr+0x30>
ffffffff81008625:	ff 00 
ffffffff81008627:	66 c7 05 a2 ba 00 00 	movw   $0xaa,0xbaa2(%rip)        # ffffffff810140d2 <vmem_mgr+0x32>
ffffffff8100862e:	aa 00 
ffffffff81008630:	48 8b 45 e0          	mov    -0x20(%rbp),%rax
ffffffff81008634:	48 83 c0 10          	add    $0x10,%rax
ffffffff81008638:	48 89 45 f0          	mov    %rax,-0x10(%rbp)
ffffffff8100863c:	48 8b 15 95 ba 00 00 	mov    0xba95(%rip),%rdx        # ffffffff810140d8 <vmem_mgr+0x38>
ffffffff81008643:	48 8b 45 f0          	mov    -0x10(%rbp),%rax
ffffffff81008647:	48 89 10             	mov    %rdx,(%rax)
ffffffff8100864a:	48 8b 45 f0          	mov    -0x10(%rbp),%rax
ffffffff8100864e:	48 8b 00             	mov    (%rax),%rax
ffffffff81008651:	48 f7 d8             	neg    %rax
ffffffff81008654:	48 89 c2             	mov    %rax,%rdx
ffffffff81008657:	48 8b 45 f0          	mov    -0x10(%rbp),%rax
ffffffff8100865b:	48 89 50 08          	mov    %rdx,0x8(%rax)
ffffffff8100865f:	48 c7 c2 00 50 01 81 	mov    $0xffffffff81015000,%rdx
ffffffff81008666:	48 c7 c0 00 00 00 80 	mov    $0xffffffff80000000,%rax
ffffffff8100866d:	48 29 c2             	sub    %rax,%rdx
ffffffff81008670:	48 89 d0             	mov    %rdx,%rax
ffffffff81008673:	48 c7 c1 00 00 00 80 	mov    $0xffffffff80000000,%rcx
ffffffff8100867a:	ba 02 00 00 00       	mov    $0x2,%edx
ffffffff8100867f:	48 89 c6             	mov    %rax,%rsi
ffffffff81008682:	48 89 cf             	mov    %rcx,%rdi
ffffffff81008685:	e8 ab 03 00 00       	callq  ffffffff81008a35 <vmmgr_reserve>
ffffffff8100868a:	ba 08 00 00 00       	mov    $0x8,%edx
ffffffff8100868f:	be 00 00 20 00       	mov    $0x200000,%esi
ffffffff81008694:	48 c7 c7 00 00 e0 ff 	mov    $0xffffffffffe00000,%rdi
ffffffff8100869b:	e8 95 03 00 00       	callq  ffffffff81008a35 <vmmgr_reserve>
ffffffff810086a0:	48 8b 45 e0          	mov    -0x20(%rbp),%rax
ffffffff810086a4:	ba 10 00 00 00       	mov    $0x10,%edx
ffffffff810086a9:	be 00 10 00 00       	mov    $0x1000,%esi
ffffffff810086ae:	48 89 c7             	mov    %rax,%rdi
ffffffff810086b1:	e8 7f 03 00 00       	callq  ffffffff81008a35 <vmmgr_reserve>
ffffffff810086b6:	48 8b 45 e8          	mov    -0x18(%rbp),%rax
ffffffff810086ba:	ba 10 00 00 00       	mov    $0x10,%edx
ffffffff810086bf:	be 00 10 00 00       	mov    $0x1000,%esi
ffffffff810086c4:	48 89 c7             	mov    %rax,%rdi
ffffffff810086c7:	e8 69 03 00 00       	callq  ffffffff81008a35 <vmmgr_reserve>
ffffffff810086cc:	c9                   	leaveq 
ffffffff810086cd:	c3                   	retq   

ffffffff810086ce <vmmgr_add_reserved>:
ffffffff810086ce:	55                   	push   %rbp
ffffffff810086cf:	48 89 e5             	mov    %rsp,%rbp
ffffffff810086d2:	48 83 ec 40          	sub    $0x40,%rsp
ffffffff810086d6:	48 89 7d c8          	mov    %rdi,-0x38(%rbp)
ffffffff810086da:	48 c7 45 f8 00 00 00 	movq   $0x0,-0x8(%rbp)
ffffffff810086e1:	00 
ffffffff810086e2:	48 c7 45 e0 00 00 00 	movq   $0x0,-0x20(%rbp)
ffffffff810086e9:	00 
ffffffff810086ea:	48 c7 45 d8 00 00 00 	movq   $0x0,-0x28(%rbp)
ffffffff810086f1:	00 
ffffffff810086f2:	48 c7 45 f0 00 00 00 	movq   $0x0,-0x10(%rbp)
ffffffff810086f9:	00 
ffffffff810086fa:	c6 45 ef 00          	movb   $0x0,-0x11(%rbp)
ffffffff810086fe:	48 c7 c7 b8 40 01 81 	mov    $0xffffffff810140b8,%rdi
ffffffff81008705:	e8 24 3f 00 00       	callq  ffffffff8100c62e <linked_list_first>
ffffffff8100870a:	48 89 45 f8          	mov    %rax,-0x8(%rbp)
ffffffff8100870e:	e9 ee 00 00 00       	jmpq   ffffffff81008801 <vmmgr_add_reserved+0x133>
ffffffff81008713:	48 8b 45 f8          	mov    -0x8(%rbp),%rax
ffffffff81008717:	48 89 c7             	mov    %rax,%rdi
ffffffff8100871a:	e8 25 3f 00 00       	callq  ffffffff8100c644 <linked_list_next>
ffffffff8100871f:	48 89 45 e0          	mov    %rax,-0x20(%rbp)
ffffffff81008723:	48 8b 45 f8          	mov    -0x8(%rbp),%rax
ffffffff81008727:	48 83 c0 10          	add    $0x10,%rax
ffffffff8100872b:	48 89 45 d8          	mov    %rax,-0x28(%rbp)
ffffffff8100872f:	66 c7 45 ec 00 00    	movw   $0x0,-0x14(%rbp)
ffffffff81008735:	e9 a8 00 00 00       	jmpq   ffffffff810087e2 <vmmgr_add_reserved+0x114>
ffffffff8100873a:	48 83 7d f0 00       	cmpq   $0x0,-0x10(%rbp)
ffffffff8100873f:	75 6c                	jne    ffffffff810087ad <vmmgr_add_reserved+0xdf>
ffffffff81008741:	0f b7 55 ec          	movzwl -0x14(%rbp),%edx
ffffffff81008745:	48 89 d0             	mov    %rdx,%rax
ffffffff81008748:	48 01 c0             	add    %rax,%rax
ffffffff8100874b:	48 01 d0             	add    %rdx,%rax
ffffffff8100874e:	48 c1 e0 03          	shl    $0x3,%rax
ffffffff81008752:	48 89 c2             	mov    %rax,%rdx
ffffffff81008755:	48 8b 45 d8          	mov    -0x28(%rbp),%rax
ffffffff81008759:	48 01 d0             	add    %rdx,%rax
ffffffff8100875c:	48 8b 00             	mov    (%rax),%rax
ffffffff8100875f:	48 85 c0             	test   %rax,%rax
ffffffff81008762:	75 73                	jne    ffffffff810087d7 <vmmgr_add_reserved+0x109>
ffffffff81008764:	0f b7 55 ec          	movzwl -0x14(%rbp),%edx
ffffffff81008768:	48 89 d0             	mov    %rdx,%rax
ffffffff8100876b:	48 01 c0             	add    %rax,%rax
ffffffff8100876e:	48 01 d0             	add    %rdx,%rax
ffffffff81008771:	48 c1 e0 03          	shl    $0x3,%rax
ffffffff81008775:	48 89 c2             	mov    %rax,%rdx
ffffffff81008778:	48 8b 45 d8          	mov    -0x28(%rbp),%rax
ffffffff8100877c:	48 01 d0             	add    %rdx,%rax
ffffffff8100877f:	48 8b 40 08          	mov    0x8(%rax),%rax
ffffffff81008783:	48 85 c0             	test   %rax,%rax
ffffffff81008786:	75 4f                	jne    ffffffff810087d7 <vmmgr_add_reserved+0x109>
ffffffff81008788:	0f b7 55 ec          	movzwl -0x14(%rbp),%edx
ffffffff8100878c:	48 89 d0             	mov    %rdx,%rax
ffffffff8100878f:	48 01 c0             	add    %rax,%rax
ffffffff81008792:	48 01 d0             	add    %rdx,%rax
ffffffff81008795:	48 c1 e0 03          	shl    $0x3,%rax
ffffffff81008799:	48 89 c2             	mov    %rax,%rdx
ffffffff8100879c:	48 8b 45 d8          	mov    -0x28(%rbp),%rax
ffffffff810087a0:	48 01 d0             	add    %rdx,%rax
ffffffff810087a3:	48 89 45 f0          	mov    %rax,-0x10(%rbp)
ffffffff810087a7:	c6 45 ef 01          	movb   $0x1,-0x11(%rbp)
ffffffff810087ab:	eb 46                	jmp    ffffffff810087f3 <vmmgr_add_reserved+0x125>
ffffffff810087ad:	48 8b 4d f0          	mov    -0x10(%rbp),%rcx
ffffffff810087b1:	48 8b 45 c8          	mov    -0x38(%rbp),%rax
ffffffff810087b5:	ba 18 00 00 00       	mov    $0x18,%edx
ffffffff810087ba:	48 89 ce             	mov    %rcx,%rsi
ffffffff810087bd:	48 89 c7             	mov    %rax,%rdi
ffffffff810087c0:	e8 52 24 00 00       	callq  ffffffff8100ac17 <memcmp>
ffffffff810087c5:	85 c0                	test   %eax,%eax
ffffffff810087c7:	75 0e                	jne    ffffffff810087d7 <vmmgr_add_reserved+0x109>
ffffffff810087c9:	48 c7 45 f0 00 00 00 	movq   $0x0,-0x10(%rbp)
ffffffff810087d0:	00 
ffffffff810087d1:	c6 45 ef 01          	movb   $0x1,-0x11(%rbp)
ffffffff810087d5:	eb 1c                	jmp    ffffffff810087f3 <vmmgr_add_reserved+0x125>
ffffffff810087d7:	0f b7 45 ec          	movzwl -0x14(%rbp),%eax
ffffffff810087db:	83 c0 01             	add    $0x1,%eax
ffffffff810087de:	66 89 45 ec          	mov    %ax,-0x14(%rbp)
ffffffff810087e2:	0f b7 05 e9 b8 00 00 	movzwl 0xb8e9(%rip),%eax        # ffffffff810140d2 <vmem_mgr+0x32>
ffffffff810087e9:	66 39 45 ec          	cmp    %ax,-0x14(%rbp)
ffffffff810087ed:	0f 82 47 ff ff ff    	jb     ffffffff8100873a <vmmgr_add_reserved+0x6c>
ffffffff810087f3:	80 7d ef 00          	cmpb   $0x0,-0x11(%rbp)
ffffffff810087f7:	75 15                	jne    ffffffff8100880e <vmmgr_add_reserved+0x140>
ffffffff810087f9:	48 8b 45 e0          	mov    -0x20(%rbp),%rax
ffffffff810087fd:	48 89 45 f8          	mov    %rax,-0x8(%rbp)
ffffffff81008801:	48 83 7d f8 00       	cmpq   $0x0,-0x8(%rbp)
ffffffff81008806:	0f 85 07 ff ff ff    	jne    ffffffff81008713 <vmmgr_add_reserved+0x45>
ffffffff8100880c:	eb 01                	jmp    ffffffff8100880f <vmmgr_add_reserved+0x141>
ffffffff8100880e:	90                   	nop
ffffffff8100880f:	48 83 7d f0 00       	cmpq   $0x0,-0x10(%rbp)
ffffffff81008814:	74 25                	je     ffffffff8100883b <vmmgr_add_reserved+0x16d>
ffffffff81008816:	48 8b 45 f0          	mov    -0x10(%rbp),%rax
ffffffff8100881a:	48 8b 55 c8          	mov    -0x38(%rbp),%rdx
ffffffff8100881e:	48 8b 0a             	mov    (%rdx),%rcx
ffffffff81008821:	48 89 08             	mov    %rcx,(%rax)
ffffffff81008824:	48 8b 4a 08          	mov    0x8(%rdx),%rcx
ffffffff81008828:	48 89 48 08          	mov    %rcx,0x8(%rax)
ffffffff8100882c:	48 8b 52 10          	mov    0x10(%rdx),%rdx
ffffffff81008830:	48 89 50 10          	mov    %rdx,0x10(%rax)
ffffffff81008834:	b8 00 00 00 00       	mov    $0x0,%eax
ffffffff81008839:	eb 05                	jmp    ffffffff81008840 <vmmgr_add_reserved+0x172>
ffffffff8100883b:	b8 ff ff ff ff       	mov    $0xffffffff,%eax
ffffffff81008840:	c9                   	leaveq 
ffffffff81008841:	c3                   	retq   

ffffffff81008842 <vmmgr_split_free_block>:
ffffffff81008842:	55                   	push   %rbp
ffffffff81008843:	48 89 e5             	mov    %rsp,%rbp
ffffffff81008846:	48 83 ec 20          	sub    $0x20,%rsp
ffffffff8100884a:	48 89 7d f8          	mov    %rdi,-0x8(%rbp)
ffffffff8100884e:	48 89 75 f0          	mov    %rsi,-0x10(%rbp)
ffffffff81008852:	48 89 55 e8          	mov    %rdx,-0x18(%rbp)
ffffffff81008856:	48 89 4d e0          	mov    %rcx,-0x20(%rbp)
ffffffff8100885a:	48 8b 45 f8          	mov    -0x8(%rbp),%rax
ffffffff8100885e:	48 8b 00             	mov    (%rax),%rax
ffffffff81008861:	48 39 45 f0          	cmp    %rax,-0x10(%rbp)
ffffffff81008865:	0f 82 d3 00 00 00    	jb     ffffffff8100893e <vmmgr_split_free_block+0xfc>
ffffffff8100886b:	48 8b 45 f8          	mov    -0x8(%rbp),%rax
ffffffff8100886f:	48 8b 10             	mov    (%rax),%rdx
ffffffff81008872:	48 8b 45 f8          	mov    -0x8(%rbp),%rax
ffffffff81008876:	48 8b 40 08          	mov    0x8(%rax),%rax
ffffffff8100887a:	48 01 d0             	add    %rdx,%rax
ffffffff8100887d:	48 8d 48 ff          	lea    -0x1(%rax),%rcx
ffffffff81008881:	48 8b 55 f0          	mov    -0x10(%rbp),%rdx
ffffffff81008885:	48 8b 45 e8          	mov    -0x18(%rbp),%rax
ffffffff81008889:	48 01 d0             	add    %rdx,%rax
ffffffff8100888c:	48 83 e8 01          	sub    $0x1,%rax
ffffffff81008890:	48 39 c1             	cmp    %rax,%rcx
ffffffff81008893:	0f 82 a5 00 00 00    	jb     ffffffff8100893e <vmmgr_split_free_block+0xfc>
ffffffff81008899:	48 8b 55 f0          	mov    -0x10(%rbp),%rdx
ffffffff8100889d:	48 8b 45 e8          	mov    -0x18(%rbp),%rax
ffffffff810088a1:	48 01 c2             	add    %rax,%rdx
ffffffff810088a4:	48 8b 45 e0          	mov    -0x20(%rbp),%rax
ffffffff810088a8:	48 89 10             	mov    %rdx,(%rax)
ffffffff810088ab:	48 8b 45 f8          	mov    -0x8(%rbp),%rax
ffffffff810088af:	48 8b 10             	mov    (%rax),%rdx
ffffffff810088b2:	48 8b 45 f8          	mov    -0x8(%rbp),%rax
ffffffff810088b6:	48 8b 40 08          	mov    0x8(%rax),%rax
ffffffff810088ba:	48 01 c2             	add    %rax,%rdx
ffffffff810088bd:	48 8b 45 e0          	mov    -0x20(%rbp),%rax
ffffffff810088c1:	48 8b 00             	mov    (%rax),%rax
ffffffff810088c4:	48 29 c2             	sub    %rax,%rdx
ffffffff810088c7:	48 8b 45 e0          	mov    -0x20(%rbp),%rax
ffffffff810088cb:	48 89 50 08          	mov    %rdx,0x8(%rax)
ffffffff810088cf:	48 8b 45 f8          	mov    -0x8(%rbp),%rax
ffffffff810088d3:	48 8b 00             	mov    (%rax),%rax
ffffffff810088d6:	48 8b 55 f0          	mov    -0x10(%rbp),%rdx
ffffffff810088da:	48 29 c2             	sub    %rax,%rdx
ffffffff810088dd:	48 8b 45 f8          	mov    -0x8(%rbp),%rax
ffffffff810088e1:	48 89 50 08          	mov    %rdx,0x8(%rax)
ffffffff810088e5:	48 8b 45 e0          	mov    -0x20(%rbp),%rax
ffffffff810088e9:	48 8b 40 08          	mov    0x8(%rax),%rax
ffffffff810088ed:	48 85 c0             	test   %rax,%rax
ffffffff810088f0:	75 0b                	jne    ffffffff810088fd <vmmgr_split_free_block+0xbb>
ffffffff810088f2:	48 8b 45 e0          	mov    -0x20(%rbp),%rax
ffffffff810088f6:	48 c7 00 00 00 00 00 	movq   $0x0,(%rax)
ffffffff810088fd:	48 8b 45 f8          	mov    -0x8(%rbp),%rax
ffffffff81008901:	48 8b 40 08          	mov    0x8(%rax),%rax
ffffffff81008905:	48 85 c0             	test   %rax,%rax
ffffffff81008908:	75 2d                	jne    ffffffff81008937 <vmmgr_split_free_block+0xf5>
ffffffff8100890a:	48 8b 4d f8          	mov    -0x8(%rbp),%rcx
ffffffff8100890e:	48 8b 45 e0          	mov    -0x20(%rbp),%rax
ffffffff81008912:	48 8b 50 08          	mov    0x8(%rax),%rdx
ffffffff81008916:	48 8b 00             	mov    (%rax),%rax
ffffffff81008919:	48 89 01             	mov    %rax,(%rcx)
ffffffff8100891c:	48 89 51 08          	mov    %rdx,0x8(%rcx)
ffffffff81008920:	48 8b 45 e0          	mov    -0x20(%rbp),%rax
ffffffff81008924:	48 c7 00 00 00 00 00 	movq   $0x0,(%rax)
ffffffff8100892b:	48 8b 45 e0          	mov    -0x20(%rbp),%rax
ffffffff8100892f:	48 c7 40 08 00 00 00 	movq   $0x0,0x8(%rax)
ffffffff81008936:	00 
ffffffff81008937:	b8 00 00 00 00       	mov    $0x0,%eax
ffffffff8100893c:	eb 05                	jmp    ffffffff81008943 <vmmgr_split_free_block+0x101>
ffffffff8100893e:	b8 ff ff ff ff       	mov    $0xffffffff,%eax
ffffffff81008943:	c9                   	leaveq 
ffffffff81008944:	c3                   	retq   

ffffffff81008945 <vmmgr_put_free_mem>:
ffffffff81008945:	55                   	push   %rbp
ffffffff81008946:	48 89 e5             	mov    %rsp,%rbp
ffffffff81008949:	48 83 ec 30          	sub    $0x30,%rsp
ffffffff8100894d:	48 89 7d d8          	mov    %rdi,-0x28(%rbp)
ffffffff81008951:	48 c7 45 f8 00 00 00 	movq   $0x0,-0x8(%rbp)
ffffffff81008958:	00 
ffffffff81008959:	48 c7 45 e8 00 00 00 	movq   $0x0,-0x18(%rbp)
ffffffff81008960:	00 
ffffffff81008961:	48 c7 45 e0 00 00 00 	movq   $0x0,-0x20(%rbp)
ffffffff81008968:	00 
ffffffff81008969:	48 c7 c7 a0 40 01 81 	mov    $0xffffffff810140a0,%rdi
ffffffff81008970:	e8 b9 3c 00 00       	callq  ffffffff8100c62e <linked_list_first>
ffffffff81008975:	48 89 45 f8          	mov    %rax,-0x8(%rbp)
ffffffff81008979:	e9 a5 00 00 00       	jmpq   ffffffff81008a23 <vmmgr_put_free_mem+0xde>
ffffffff8100897e:	48 8b 45 f8          	mov    -0x8(%rbp),%rax
ffffffff81008982:	48 89 c7             	mov    %rax,%rdi
ffffffff81008985:	e8 ba 3c 00 00       	callq  ffffffff8100c644 <linked_list_next>
ffffffff8100898a:	48 89 45 e8          	mov    %rax,-0x18(%rbp)
ffffffff8100898e:	48 8b 45 f8          	mov    -0x8(%rbp),%rax
ffffffff81008992:	48 83 c0 10          	add    $0x10,%rax
ffffffff81008996:	48 89 45 e0          	mov    %rax,-0x20(%rbp)
ffffffff8100899a:	66 c7 45 f6 00 00    	movw   $0x0,-0xa(%rbp)
ffffffff810089a0:	eb 54                	jmp    ffffffff810089f6 <vmmgr_put_free_mem+0xb1>
ffffffff810089a2:	0f b7 45 f6          	movzwl -0xa(%rbp),%eax
ffffffff810089a6:	48 c1 e0 04          	shl    $0x4,%rax
ffffffff810089aa:	48 89 c2             	mov    %rax,%rdx
ffffffff810089ad:	48 8b 45 e0          	mov    -0x20(%rbp),%rax
ffffffff810089b1:	48 01 d0             	add    %rdx,%rax
ffffffff810089b4:	48 8b 40 08          	mov    0x8(%rax),%rax
ffffffff810089b8:	48 85 c0             	test   %rax,%rax
ffffffff810089bb:	75 2e                	jne    ffffffff810089eb <vmmgr_put_free_mem+0xa6>
ffffffff810089bd:	0f b7 45 f6          	movzwl -0xa(%rbp),%eax
ffffffff810089c1:	48 c1 e0 04          	shl    $0x4,%rax
ffffffff810089c5:	48 89 c2             	mov    %rax,%rdx
ffffffff810089c8:	48 8b 45 e0          	mov    -0x20(%rbp),%rax
ffffffff810089cc:	48 8d 0c 02          	lea    (%rdx,%rax,1),%rcx
ffffffff810089d0:	48 8b 45 d8          	mov    -0x28(%rbp),%rax
ffffffff810089d4:	ba 10 00 00 00       	mov    $0x10,%edx
ffffffff810089d9:	48 89 c6             	mov    %rax,%rsi
ffffffff810089dc:	48 89 cf             	mov    %rcx,%rdi
ffffffff810089df:	e8 e5 21 00 00       	callq  ffffffff8100abc9 <memcpy>
ffffffff810089e4:	b8 00 00 00 00       	mov    $0x0,%eax
ffffffff810089e9:	eb 48                	jmp    ffffffff81008a33 <vmmgr_put_free_mem+0xee>
ffffffff810089eb:	0f b7 45 f6          	movzwl -0xa(%rbp),%eax
ffffffff810089ef:	83 c0 01             	add    $0x1,%eax
ffffffff810089f2:	66 89 45 f6          	mov    %ax,-0xa(%rbp)
ffffffff810089f6:	0f b7 05 d3 b6 00 00 	movzwl 0xb6d3(%rip),%eax        # ffffffff810140d0 <vmem_mgr+0x30>
ffffffff810089fd:	66 39 45 f6          	cmp    %ax,-0xa(%rbp)
ffffffff81008a01:	72 9f                	jb     ffffffff810089a2 <vmmgr_put_free_mem+0x5d>
ffffffff81008a03:	48 83 7d e8 00       	cmpq   $0x0,-0x18(%rbp)
ffffffff81008a08:	75 11                	jne    ffffffff81008a1b <vmmgr_put_free_mem+0xd6>
ffffffff81008a0a:	48 c7 c7 40 d1 00 81 	mov    $0xffffffff8100d140,%rdi
ffffffff81008a11:	b8 00 00 00 00       	mov    $0x0,%eax
ffffffff81008a16:	e8 fb f5 ff ff       	callq  ffffffff81008016 <kprintf>
ffffffff81008a1b:	48 8b 45 e8          	mov    -0x18(%rbp),%rax
ffffffff81008a1f:	48 89 45 f8          	mov    %rax,-0x8(%rbp)
ffffffff81008a23:	48 83 7d f8 00       	cmpq   $0x0,-0x8(%rbp)
ffffffff81008a28:	0f 85 50 ff ff ff    	jne    ffffffff8100897e <vmmgr_put_free_mem+0x39>
ffffffff81008a2e:	b8 ff ff ff ff       	mov    $0xffffffff,%eax
ffffffff81008a33:	c9                   	leaveq 
ffffffff81008a34:	c3                   	retq   

ffffffff81008a35 <vmmgr_reserve>:
ffffffff81008a35:	55                   	push   %rbp
ffffffff81008a36:	48 89 e5             	mov    %rsp,%rbp
ffffffff81008a39:	48 83 ec 70          	sub    $0x70,%rsp
ffffffff81008a3d:	48 89 7d a8          	mov    %rdi,-0x58(%rbp)
ffffffff81008a41:	48 89 75 a0          	mov    %rsi,-0x60(%rbp)
ffffffff81008a45:	89 d0                	mov    %edx,%eax
ffffffff81008a47:	88 45 9c             	mov    %al,-0x64(%rbp)
ffffffff81008a4a:	48 c7 45 f8 00 00 00 	movq   $0x0,-0x8(%rbp)
ffffffff81008a51:	00 
ffffffff81008a52:	48 c7 45 e8 00 00 00 	movq   $0x0,-0x18(%rbp)
ffffffff81008a59:	00 
ffffffff81008a5a:	48 c7 45 e0 00 00 00 	movq   $0x0,-0x20(%rbp)
ffffffff81008a61:	00 
ffffffff81008a62:	48 c7 45 d8 00 00 00 	movq   $0x0,-0x28(%rbp)
ffffffff81008a69:	00 
ffffffff81008a6a:	48 8d 45 c8          	lea    -0x38(%rbp),%rax
ffffffff81008a6e:	ba 10 00 00 00       	mov    $0x10,%edx
ffffffff81008a73:	be 00 00 00 00       	mov    $0x0,%esi
ffffffff81008a78:	48 89 c7             	mov    %rax,%rdi
ffffffff81008a7b:	e8 07 21 00 00       	callq  ffffffff8100ab87 <memset>
ffffffff81008a80:	48 c7 c7 a0 40 01 81 	mov    $0xffffffff810140a0,%rdi
ffffffff81008a87:	e8 a2 3b 00 00       	callq  ffffffff8100c62e <linked_list_first>
ffffffff81008a8c:	48 89 45 f8          	mov    %rax,-0x8(%rbp)
ffffffff81008a90:	48 8b 45 a8          	mov    -0x58(%rbp),%rax
ffffffff81008a94:	48 89 45 b0          	mov    %rax,-0x50(%rbp)
ffffffff81008a98:	48 8b 45 a0          	mov    -0x60(%rbp),%rax
ffffffff81008a9c:	48 89 45 b8          	mov    %rax,-0x48(%rbp)
ffffffff81008aa0:	0f b6 45 9c          	movzbl -0x64(%rbp),%eax
ffffffff81008aa4:	88 45 c0             	mov    %al,-0x40(%rbp)
ffffffff81008aa7:	e9 19 01 00 00       	jmpq   ffffffff81008bc5 <vmmgr_reserve+0x190>
ffffffff81008aac:	48 8b 45 f8          	mov    -0x8(%rbp),%rax
ffffffff81008ab0:	48 89 c7             	mov    %rax,%rdi
ffffffff81008ab3:	e8 8c 3b 00 00       	callq  ffffffff8100c644 <linked_list_next>
ffffffff81008ab8:	48 89 45 e0          	mov    %rax,-0x20(%rbp)
ffffffff81008abc:	48 8b 45 f8          	mov    -0x8(%rbp),%rax
ffffffff81008ac0:	48 83 c0 10          	add    $0x10,%rax
ffffffff81008ac4:	48 89 45 d8          	mov    %rax,-0x28(%rbp)
ffffffff81008ac8:	66 c7 45 f6 00 00    	movw   $0x0,-0xa(%rbp)
ffffffff81008ace:	e9 bf 00 00 00       	jmpq   ffffffff81008b92 <vmmgr_reserve+0x15d>
ffffffff81008ad3:	0f b7 45 f6          	movzwl -0xa(%rbp),%eax
ffffffff81008ad7:	48 c1 e0 04          	shl    $0x4,%rax
ffffffff81008adb:	48 89 c2             	mov    %rax,%rdx
ffffffff81008ade:	48 8b 45 d8          	mov    -0x28(%rbp),%rax
ffffffff81008ae2:	48 01 d0             	add    %rdx,%rax
ffffffff81008ae5:	48 8b 00             	mov    (%rax),%rax
ffffffff81008ae8:	48 39 45 a8          	cmp    %rax,-0x58(%rbp)
ffffffff81008aec:	0f 82 95 00 00 00    	jb     ffffffff81008b87 <vmmgr_reserve+0x152>
ffffffff81008af2:	0f b7 45 f6          	movzwl -0xa(%rbp),%eax
ffffffff81008af6:	48 c1 e0 04          	shl    $0x4,%rax
ffffffff81008afa:	48 89 c2             	mov    %rax,%rdx
ffffffff81008afd:	48 8b 45 d8          	mov    -0x28(%rbp),%rax
ffffffff81008b01:	48 01 d0             	add    %rdx,%rax
ffffffff81008b04:	48 8b 10             	mov    (%rax),%rdx
ffffffff81008b07:	0f b7 45 f6          	movzwl -0xa(%rbp),%eax
ffffffff81008b0b:	48 c1 e0 04          	shl    $0x4,%rax
ffffffff81008b0f:	48 89 c1             	mov    %rax,%rcx
ffffffff81008b12:	48 8b 45 d8          	mov    -0x28(%rbp),%rax
ffffffff81008b16:	48 01 c8             	add    %rcx,%rax
ffffffff81008b19:	48 8b 40 08          	mov    0x8(%rax),%rax
ffffffff81008b1d:	48 01 d0             	add    %rdx,%rax
ffffffff81008b20:	48 8d 48 ff          	lea    -0x1(%rax),%rcx
ffffffff81008b24:	48 8b 55 a8          	mov    -0x58(%rbp),%rdx
ffffffff81008b28:	48 8b 45 a0          	mov    -0x60(%rbp),%rax
ffffffff81008b2c:	48 01 d0             	add    %rdx,%rax
ffffffff81008b2f:	48 83 e8 01          	sub    $0x1,%rax
ffffffff81008b33:	48 39 c1             	cmp    %rax,%rcx
ffffffff81008b36:	72 4f                	jb     ffffffff81008b87 <vmmgr_reserve+0x152>
ffffffff81008b38:	0f b7 45 f6          	movzwl -0xa(%rbp),%eax
ffffffff81008b3c:	48 c1 e0 04          	shl    $0x4,%rax
ffffffff81008b40:	48 89 c2             	mov    %rax,%rdx
ffffffff81008b43:	48 8b 45 d8          	mov    -0x28(%rbp),%rax
ffffffff81008b47:	48 8d 3c 02          	lea    (%rdx,%rax,1),%rdi
ffffffff81008b4b:	48 8d 4d c8          	lea    -0x38(%rbp),%rcx
ffffffff81008b4f:	48 8b 55 a0          	mov    -0x60(%rbp),%rdx
ffffffff81008b53:	48 8b 45 a8          	mov    -0x58(%rbp),%rax
ffffffff81008b57:	48 89 c6             	mov    %rax,%rsi
ffffffff81008b5a:	e8 e3 fc ff ff       	callq  ffffffff81008842 <vmmgr_split_free_block>
ffffffff81008b5f:	48 8d 45 b0          	lea    -0x50(%rbp),%rax
ffffffff81008b63:	48 89 c7             	mov    %rax,%rdi
ffffffff81008b66:	e8 63 fb ff ff       	callq  ffffffff810086ce <vmmgr_add_reserved>
ffffffff81008b6b:	48 8b 45 c8          	mov    -0x38(%rbp),%rax
ffffffff81008b6f:	48 85 c0             	test   %rax,%rax
ffffffff81008b72:	74 0c                	je     ffffffff81008b80 <vmmgr_reserve+0x14b>
ffffffff81008b74:	48 8d 45 c8          	lea    -0x38(%rbp),%rax
ffffffff81008b78:	48 89 c7             	mov    %rax,%rdi
ffffffff81008b7b:	e8 c5 fd ff ff       	callq  ffffffff81008945 <vmmgr_put_free_mem>
ffffffff81008b80:	b8 00 00 00 00       	mov    $0x0,%eax
ffffffff81008b85:	eb 4e                	jmp    ffffffff81008bd5 <vmmgr_reserve+0x1a0>
ffffffff81008b87:	0f b7 45 f6          	movzwl -0xa(%rbp),%eax
ffffffff81008b8b:	83 c0 01             	add    $0x1,%eax
ffffffff81008b8e:	66 89 45 f6          	mov    %ax,-0xa(%rbp)
ffffffff81008b92:	0f b7 05 37 b5 00 00 	movzwl 0xb537(%rip),%eax        # ffffffff810140d0 <vmem_mgr+0x30>
ffffffff81008b99:	66 39 45 f6          	cmp    %ax,-0xa(%rbp)
ffffffff81008b9d:	0f 82 30 ff ff ff    	jb     ffffffff81008ad3 <vmmgr_reserve+0x9e>
ffffffff81008ba3:	48 83 7d e0 00       	cmpq   $0x0,-0x20(%rbp)
ffffffff81008ba8:	75 13                	jne    ffffffff81008bbd <vmmgr_reserve+0x188>
ffffffff81008baa:	48 c7 c7 53 d1 00 81 	mov    $0xffffffff8100d153,%rdi
ffffffff81008bb1:	b8 00 00 00 00       	mov    $0x0,%eax
ffffffff81008bb6:	e8 5b f4 ff ff       	callq  ffffffff81008016 <kprintf>
ffffffff81008bbb:	eb 13                	jmp    ffffffff81008bd0 <vmmgr_reserve+0x19b>
ffffffff81008bbd:	48 8b 45 e0          	mov    -0x20(%rbp),%rax
ffffffff81008bc1:	48 89 45 f8          	mov    %rax,-0x8(%rbp)
ffffffff81008bc5:	48 83 7d f8 00       	cmpq   $0x0,-0x8(%rbp)
ffffffff81008bca:	0f 85 dc fe ff ff    	jne    ffffffff81008aac <vmmgr_reserve+0x77>
ffffffff81008bd0:	b8 ff ff ff ff       	mov    $0xffffffff,%eax
ffffffff81008bd5:	c9                   	leaveq 
ffffffff81008bd6:	c3                   	retq   

ffffffff81008bd7 <vmmgr_map>:
ffffffff81008bd7:	55                   	push   %rbp
ffffffff81008bd8:	48 89 e5             	mov    %rsp,%rbp
ffffffff81008bdb:	48 83 ec 70          	sub    $0x70,%rsp
ffffffff81008bdf:	48 89 7d a8          	mov    %rdi,-0x58(%rbp)
ffffffff81008be3:	48 89 75 a0          	mov    %rsi,-0x60(%rbp)
ffffffff81008be7:	48 89 55 98          	mov    %rdx,-0x68(%rbp)
ffffffff81008beb:	89 4d 94             	mov    %ecx,-0x6c(%rbp)
ffffffff81008bee:	48 c7 45 f8 00 00 00 	movq   $0x0,-0x8(%rbp)
ffffffff81008bf5:	00 
ffffffff81008bf6:	48 c7 45 d8 00 00 00 	movq   $0x0,-0x28(%rbp)
ffffffff81008bfd:	00 
ffffffff81008bfe:	48 c7 45 d0 00 00 00 	movq   $0x0,-0x30(%rbp)
ffffffff81008c05:	00 
ffffffff81008c06:	48 c7 45 f0 00 00 00 	movq   $0x0,-0x10(%rbp)
ffffffff81008c0d:	00 
ffffffff81008c0e:	48 8b 45 a0          	mov    -0x60(%rbp),%rax
ffffffff81008c12:	48 89 45 e8          	mov    %rax,-0x18(%rbp)
ffffffff81008c16:	48 c7 45 c8 00 00 00 	movq   $0x0,-0x38(%rbp)
ffffffff81008c1d:	00 
ffffffff81008c1e:	48 8b 45 98          	mov    -0x68(%rbp),%rax
ffffffff81008c22:	48 05 ff 0f 00 00    	add    $0xfff,%rax
ffffffff81008c28:	48 25 00 f0 ff ff    	and    $0xfffffffffffff000,%rax
ffffffff81008c2e:	48 89 45 98          	mov    %rax,-0x68(%rbp)
ffffffff81008c32:	48 8d 45 b8          	lea    -0x48(%rbp),%rax
ffffffff81008c36:	ba 10 00 00 00       	mov    $0x10,%edx
ffffffff81008c3b:	be 00 00 00 00       	mov    $0x0,%esi
ffffffff81008c40:	48 89 c7             	mov    %rax,%rdi
ffffffff81008c43:	e8 3f 1f 00 00       	callq  ffffffff8100ab87 <memset>
ffffffff81008c48:	48 c7 c7 a0 40 01 81 	mov    $0xffffffff810140a0,%rdi
ffffffff81008c4f:	e8 da 39 00 00       	callq  ffffffff8100c62e <linked_list_first>
ffffffff81008c54:	48 89 45 f8          	mov    %rax,-0x8(%rbp)
ffffffff81008c58:	e9 77 01 00 00       	jmpq   ffffffff81008dd4 <vmmgr_map+0x1fd>
ffffffff81008c5d:	48 8b 45 f8          	mov    -0x8(%rbp),%rax
ffffffff81008c61:	48 89 c7             	mov    %rax,%rdi
ffffffff81008c64:	e8 db 39 00 00       	callq  ffffffff8100c644 <linked_list_next>
ffffffff81008c69:	48 89 45 d8          	mov    %rax,-0x28(%rbp)
ffffffff81008c6d:	48 8b 45 f8          	mov    -0x8(%rbp),%rax
ffffffff81008c71:	48 83 c0 10          	add    $0x10,%rax
ffffffff81008c75:	48 89 45 d0          	mov    %rax,-0x30(%rbp)
ffffffff81008c79:	66 c7 45 e6 00 00    	movw   $0x0,-0x1a(%rbp)
ffffffff81008c7f:	e9 37 01 00 00       	jmpq   ffffffff81008dbb <vmmgr_map+0x1e4>
ffffffff81008c84:	0f b7 45 e6          	movzwl -0x1a(%rbp),%eax
ffffffff81008c88:	48 c1 e0 04          	shl    $0x4,%rax
ffffffff81008c8c:	48 89 c2             	mov    %rax,%rdx
ffffffff81008c8f:	48 8b 45 d0          	mov    -0x30(%rbp),%rax
ffffffff81008c93:	48 01 d0             	add    %rdx,%rax
ffffffff81008c96:	48 8b 40 08          	mov    0x8(%rax),%rax
ffffffff81008c9a:	48 85 c0             	test   %rax,%rax
ffffffff81008c9d:	0f 84 0c 01 00 00    	je     ffffffff81008daf <vmmgr_map+0x1d8>
ffffffff81008ca3:	48 83 7d f0 00       	cmpq   $0x0,-0x10(%rbp)
ffffffff81008ca8:	75 16                	jne    ffffffff81008cc0 <vmmgr_map+0xe9>
ffffffff81008caa:	0f b7 45 e6          	movzwl -0x1a(%rbp),%eax
ffffffff81008cae:	48 c1 e0 04          	shl    $0x4,%rax
ffffffff81008cb2:	48 89 c2             	mov    %rax,%rdx
ffffffff81008cb5:	48 8b 45 d0          	mov    -0x30(%rbp),%rax
ffffffff81008cb9:	48 01 d0             	add    %rdx,%rax
ffffffff81008cbc:	48 89 45 f0          	mov    %rax,-0x10(%rbp)
ffffffff81008cc0:	48 83 7d a0 00       	cmpq   $0x0,-0x60(%rbp)
ffffffff81008cc5:	74 44                	je     ffffffff81008d0b <vmmgr_map+0x134>
ffffffff81008cc7:	48 8b 45 f0          	mov    -0x10(%rbp),%rax
ffffffff81008ccb:	48 8b 00             	mov    (%rax),%rax
ffffffff81008cce:	48 39 45 a0          	cmp    %rax,-0x60(%rbp)
ffffffff81008cd2:	0f 82 d8 00 00 00    	jb     ffffffff81008db0 <vmmgr_map+0x1d9>
ffffffff81008cd8:	48 8b 45 f0          	mov    -0x10(%rbp),%rax
ffffffff81008cdc:	48 8b 10             	mov    (%rax),%rdx
ffffffff81008cdf:	48 8b 45 f0          	mov    -0x10(%rbp),%rax
ffffffff81008ce3:	48 8b 40 08          	mov    0x8(%rax),%rax
ffffffff81008ce7:	48 01 d0             	add    %rdx,%rax
ffffffff81008cea:	48 8d 48 ff          	lea    -0x1(%rax),%rcx
ffffffff81008cee:	48 8b 55 a0          	mov    -0x60(%rbp),%rdx
ffffffff81008cf2:	48 8b 45 98          	mov    -0x68(%rbp),%rax
ffffffff81008cf6:	48 01 d0             	add    %rdx,%rax
ffffffff81008cf9:	48 83 e8 01          	sub    $0x1,%rax
ffffffff81008cfd:	48 39 c1             	cmp    %rax,%rcx
ffffffff81008d00:	0f 82 aa 00 00 00    	jb     ffffffff81008db0 <vmmgr_map+0x1d9>
ffffffff81008d06:	e9 c1 00 00 00       	jmpq   ffffffff81008dcc <vmmgr_map+0x1f5>
ffffffff81008d0b:	48 83 7d f0 00       	cmpq   $0x0,-0x10(%rbp)
ffffffff81008d10:	0f 84 9a 00 00 00    	je     ffffffff81008db0 <vmmgr_map+0x1d9>
ffffffff81008d16:	48 8b 45 f0          	mov    -0x10(%rbp),%rax
ffffffff81008d1a:	48 8b 40 08          	mov    0x8(%rax),%rax
ffffffff81008d1e:	48 39 45 98          	cmp    %rax,-0x68(%rbp)
ffffffff81008d22:	76 34                	jbe    ffffffff81008d58 <vmmgr_map+0x181>
ffffffff81008d24:	0f b7 45 e6          	movzwl -0x1a(%rbp),%eax
ffffffff81008d28:	48 c1 e0 04          	shl    $0x4,%rax
ffffffff81008d2c:	48 89 c2             	mov    %rax,%rdx
ffffffff81008d2f:	48 8b 45 d0          	mov    -0x30(%rbp),%rax
ffffffff81008d33:	48 01 d0             	add    %rdx,%rax
ffffffff81008d36:	48 8b 40 08          	mov    0x8(%rax),%rax
ffffffff81008d3a:	48 39 45 98          	cmp    %rax,-0x68(%rbp)
ffffffff81008d3e:	77 18                	ja     ffffffff81008d58 <vmmgr_map+0x181>
ffffffff81008d40:	0f b7 45 e6          	movzwl -0x1a(%rbp),%eax
ffffffff81008d44:	48 c1 e0 04          	shl    $0x4,%rax
ffffffff81008d48:	48 89 c2             	mov    %rax,%rdx
ffffffff81008d4b:	48 8b 45 d0          	mov    -0x30(%rbp),%rax
ffffffff81008d4f:	48 01 d0             	add    %rdx,%rax
ffffffff81008d52:	48 89 45 f0          	mov    %rax,-0x10(%rbp)
ffffffff81008d56:	eb 58                	jmp    ffffffff81008db0 <vmmgr_map+0x1d9>
ffffffff81008d58:	48 8b 45 f0          	mov    -0x10(%rbp),%rax
ffffffff81008d5c:	48 8b 50 08          	mov    0x8(%rax),%rdx
ffffffff81008d60:	0f b7 45 e6          	movzwl -0x1a(%rbp),%eax
ffffffff81008d64:	48 c1 e0 04          	shl    $0x4,%rax
ffffffff81008d68:	48 89 c1             	mov    %rax,%rcx
ffffffff81008d6b:	48 8b 45 d0          	mov    -0x30(%rbp),%rax
ffffffff81008d6f:	48 01 c8             	add    %rcx,%rax
ffffffff81008d72:	48 8b 40 08          	mov    0x8(%rax),%rax
ffffffff81008d76:	48 39 c2             	cmp    %rax,%rdx
ffffffff81008d79:	76 35                	jbe    ffffffff81008db0 <vmmgr_map+0x1d9>
ffffffff81008d7b:	0f b7 45 e6          	movzwl -0x1a(%rbp),%eax
ffffffff81008d7f:	48 c1 e0 04          	shl    $0x4,%rax
ffffffff81008d83:	48 89 c2             	mov    %rax,%rdx
ffffffff81008d86:	48 8b 45 d0          	mov    -0x30(%rbp),%rax
ffffffff81008d8a:	48 01 d0             	add    %rdx,%rax
ffffffff81008d8d:	48 8b 40 08          	mov    0x8(%rax),%rax
ffffffff81008d91:	48 39 45 98          	cmp    %rax,-0x68(%rbp)
ffffffff81008d95:	73 19                	jae    ffffffff81008db0 <vmmgr_map+0x1d9>
ffffffff81008d97:	0f b7 45 e6          	movzwl -0x1a(%rbp),%eax
ffffffff81008d9b:	48 c1 e0 04          	shl    $0x4,%rax
ffffffff81008d9f:	48 89 c2             	mov    %rax,%rdx
ffffffff81008da2:	48 8b 45 d0          	mov    -0x30(%rbp),%rax
ffffffff81008da6:	48 01 d0             	add    %rdx,%rax
ffffffff81008da9:	48 89 45 f0          	mov    %rax,-0x10(%rbp)
ffffffff81008dad:	eb 01                	jmp    ffffffff81008db0 <vmmgr_map+0x1d9>
ffffffff81008daf:	90                   	nop
ffffffff81008db0:	0f b7 45 e6          	movzwl -0x1a(%rbp),%eax
ffffffff81008db4:	83 c0 01             	add    $0x1,%eax
ffffffff81008db7:	66 89 45 e6          	mov    %ax,-0x1a(%rbp)
ffffffff81008dbb:	0f b7 05 0e b3 00 00 	movzwl 0xb30e(%rip),%eax        # ffffffff810140d0 <vmem_mgr+0x30>
ffffffff81008dc2:	66 39 45 e6          	cmp    %ax,-0x1a(%rbp)
ffffffff81008dc6:	0f 82 b8 fe ff ff    	jb     ffffffff81008c84 <vmmgr_map+0xad>
ffffffff81008dcc:	48 8b 45 d8          	mov    -0x28(%rbp),%rax
ffffffff81008dd0:	48 89 45 f8          	mov    %rax,-0x8(%rbp)
ffffffff81008dd4:	48 83 7d f8 00       	cmpq   $0x0,-0x8(%rbp)
ffffffff81008dd9:	0f 85 7e fe ff ff    	jne    ffffffff81008c5d <vmmgr_map+0x86>
ffffffff81008ddf:	48 8b 45 f0          	mov    -0x10(%rbp),%rax
ffffffff81008de3:	48 8b 40 08          	mov    0x8(%rax),%rax
ffffffff81008de7:	48 39 45 98          	cmp    %rax,-0x68(%rbp)
ffffffff81008deb:	76 07                	jbe    ffffffff81008df4 <vmmgr_map+0x21d>
ffffffff81008ded:	b8 00 00 00 00       	mov    $0x0,%eax
ffffffff81008df2:	eb 75                	jmp    ffffffff81008e69 <vmmgr_map+0x292>
ffffffff81008df4:	48 83 7d e8 00       	cmpq   $0x0,-0x18(%rbp)
ffffffff81008df9:	75 0b                	jne    ffffffff81008e06 <vmmgr_map+0x22f>
ffffffff81008dfb:	48 8b 45 f0          	mov    -0x10(%rbp),%rax
ffffffff81008dff:	48 8b 00             	mov    (%rax),%rax
ffffffff81008e02:	48 89 45 e8          	mov    %rax,-0x18(%rbp)
ffffffff81008e06:	48 8b 05 d3 b2 00 00 	mov    0xb2d3(%rip),%rax        # ffffffff810140e0 <pagemgr>
ffffffff81008e0d:	4c 8b 40 08          	mov    0x8(%rax),%r8
ffffffff81008e11:	8b 4d 94             	mov    -0x6c(%rbp),%ecx
ffffffff81008e14:	48 8b 55 98          	mov    -0x68(%rbp),%rdx
ffffffff81008e18:	48 8b 75 a8          	mov    -0x58(%rbp),%rsi
ffffffff81008e1c:	48 8b 45 e8          	mov    -0x18(%rbp),%rax
ffffffff81008e20:	48 89 c7             	mov    %rax,%rdi
ffffffff81008e23:	41 ff d0             	callq  *%r8
ffffffff81008e26:	48 89 45 c8          	mov    %rax,-0x38(%rbp)
ffffffff81008e2a:	48 83 7d c8 00       	cmpq   $0x0,-0x38(%rbp)
ffffffff81008e2f:	75 07                	jne    ffffffff81008e38 <vmmgr_map+0x261>
ffffffff81008e31:	b8 00 00 00 00       	mov    $0x0,%eax
ffffffff81008e36:	eb 31                	jmp    ffffffff81008e69 <vmmgr_map+0x292>
ffffffff81008e38:	48 8d 4d b8          	lea    -0x48(%rbp),%rcx
ffffffff81008e3c:	48 8b 55 98          	mov    -0x68(%rbp),%rdx
ffffffff81008e40:	48 8b 75 e8          	mov    -0x18(%rbp),%rsi
ffffffff81008e44:	48 8b 45 f0          	mov    -0x10(%rbp),%rax
ffffffff81008e48:	48 89 c7             	mov    %rax,%rdi
ffffffff81008e4b:	e8 f2 f9 ff ff       	callq  ffffffff81008842 <vmmgr_split_free_block>
ffffffff81008e50:	48 8b 45 b8          	mov    -0x48(%rbp),%rax
ffffffff81008e54:	48 85 c0             	test   %rax,%rax
ffffffff81008e57:	74 0c                	je     ffffffff81008e65 <vmmgr_map+0x28e>
ffffffff81008e59:	48 8d 45 b8          	lea    -0x48(%rbp),%rax
ffffffff81008e5d:	48 89 c7             	mov    %rax,%rdi
ffffffff81008e60:	e8 e0 fa ff ff       	callq  ffffffff81008945 <vmmgr_put_free_mem>
ffffffff81008e65:	48 8b 45 e8          	mov    -0x18(%rbp),%rax
ffffffff81008e69:	c9                   	leaveq 
ffffffff81008e6a:	c3                   	retq   

ffffffff81008e6b <vmmgr_alloc>:
ffffffff81008e6b:	55                   	push   %rbp
ffffffff81008e6c:	48 89 e5             	mov    %rsp,%rbp
ffffffff81008e6f:	48 83 ec 50          	sub    $0x50,%rsp
ffffffff81008e73:	48 89 7d b8          	mov    %rdi,-0x48(%rbp)
ffffffff81008e77:	89 75 b4             	mov    %esi,-0x4c(%rbp)
ffffffff81008e7a:	48 c7 45 f8 00 00 00 	movq   $0x0,-0x8(%rbp)
ffffffff81008e81:	00 
ffffffff81008e82:	48 c7 45 e0 00 00 00 	movq   $0x0,-0x20(%rbp)
ffffffff81008e89:	00 
ffffffff81008e8a:	48 c7 45 d8 00 00 00 	movq   $0x0,-0x28(%rbp)
ffffffff81008e91:	00 
ffffffff81008e92:	48 c7 45 f0 00 00 00 	movq   $0x0,-0x10(%rbp)
ffffffff81008e99:	00 
ffffffff81008e9a:	48 c7 45 d0 00 00 00 	movq   $0x0,-0x30(%rbp)
ffffffff81008ea1:	00 
ffffffff81008ea2:	48 8b 45 b8          	mov    -0x48(%rbp),%rax
ffffffff81008ea6:	48 05 ff 0f 00 00    	add    $0xfff,%rax
ffffffff81008eac:	48 25 00 f0 ff ff    	and    $0xfffffffffffff000,%rax
ffffffff81008eb2:	48 89 45 b8          	mov    %rax,-0x48(%rbp)
ffffffff81008eb6:	48 8d 45 c0          	lea    -0x40(%rbp),%rax
ffffffff81008eba:	ba 10 00 00 00       	mov    $0x10,%edx
ffffffff81008ebf:	be 00 00 00 00       	mov    $0x0,%esi
ffffffff81008ec4:	48 89 c7             	mov    %rax,%rdi
ffffffff81008ec7:	e8 bb 1c 00 00       	callq  ffffffff8100ab87 <memset>
ffffffff81008ecc:	48 c7 c7 a0 40 01 81 	mov    $0xffffffff810140a0,%rdi
ffffffff81008ed3:	e8 56 37 00 00       	callq  ffffffff8100c62e <linked_list_first>
ffffffff81008ed8:	48 89 45 f8          	mov    %rax,-0x8(%rbp)
ffffffff81008edc:	e9 2c 01 00 00       	jmpq   ffffffff8100900d <vmmgr_alloc+0x1a2>
ffffffff81008ee1:	48 8b 45 f8          	mov    -0x8(%rbp),%rax
ffffffff81008ee5:	48 89 c7             	mov    %rax,%rdi
ffffffff81008ee8:	e8 57 37 00 00       	callq  ffffffff8100c644 <linked_list_next>
ffffffff81008eed:	48 89 45 e0          	mov    %rax,-0x20(%rbp)
ffffffff81008ef1:	48 8b 45 f8          	mov    -0x8(%rbp),%rax
ffffffff81008ef5:	48 83 c0 10          	add    $0x10,%rax
ffffffff81008ef9:	48 89 45 d8          	mov    %rax,-0x28(%rbp)
ffffffff81008efd:	66 c7 45 ee 00 00    	movw   $0x0,-0x12(%rbp)
ffffffff81008f03:	e9 ec 00 00 00       	jmpq   ffffffff81008ff4 <vmmgr_alloc+0x189>
ffffffff81008f08:	0f b7 45 ee          	movzwl -0x12(%rbp),%eax
ffffffff81008f0c:	48 c1 e0 04          	shl    $0x4,%rax
ffffffff81008f10:	48 89 c2             	mov    %rax,%rdx
ffffffff81008f13:	48 8b 45 d8          	mov    -0x28(%rbp),%rax
ffffffff81008f17:	48 01 d0             	add    %rdx,%rax
ffffffff81008f1a:	48 8b 40 08          	mov    0x8(%rax),%rax
ffffffff81008f1e:	48 85 c0             	test   %rax,%rax
ffffffff81008f21:	0f 84 c1 00 00 00    	je     ffffffff81008fe8 <vmmgr_alloc+0x17d>
ffffffff81008f27:	48 83 7d f0 00       	cmpq   $0x0,-0x10(%rbp)
ffffffff81008f2c:	75 16                	jne    ffffffff81008f44 <vmmgr_alloc+0xd9>
ffffffff81008f2e:	0f b7 45 ee          	movzwl -0x12(%rbp),%eax
ffffffff81008f32:	48 c1 e0 04          	shl    $0x4,%rax
ffffffff81008f36:	48 89 c2             	mov    %rax,%rdx
ffffffff81008f39:	48 8b 45 d8          	mov    -0x28(%rbp),%rax
ffffffff81008f3d:	48 01 d0             	add    %rdx,%rax
ffffffff81008f40:	48 89 45 f0          	mov    %rax,-0x10(%rbp)
ffffffff81008f44:	48 83 7d f0 00       	cmpq   $0x0,-0x10(%rbp)
ffffffff81008f49:	0f 84 9a 00 00 00    	je     ffffffff81008fe9 <vmmgr_alloc+0x17e>
ffffffff81008f4f:	48 8b 45 f0          	mov    -0x10(%rbp),%rax
ffffffff81008f53:	48 8b 40 08          	mov    0x8(%rax),%rax
ffffffff81008f57:	48 39 45 b8          	cmp    %rax,-0x48(%rbp)
ffffffff81008f5b:	76 34                	jbe    ffffffff81008f91 <vmmgr_alloc+0x126>
ffffffff81008f5d:	0f b7 45 ee          	movzwl -0x12(%rbp),%eax
ffffffff81008f61:	48 c1 e0 04          	shl    $0x4,%rax
ffffffff81008f65:	48 89 c2             	mov    %rax,%rdx
ffffffff81008f68:	48 8b 45 d8          	mov    -0x28(%rbp),%rax
ffffffff81008f6c:	48 01 d0             	add    %rdx,%rax
ffffffff81008f6f:	48 8b 40 08          	mov    0x8(%rax),%rax
ffffffff81008f73:	48 39 45 b8          	cmp    %rax,-0x48(%rbp)
ffffffff81008f77:	77 18                	ja     ffffffff81008f91 <vmmgr_alloc+0x126>
ffffffff81008f79:	0f b7 45 ee          	movzwl -0x12(%rbp),%eax
ffffffff81008f7d:	48 c1 e0 04          	shl    $0x4,%rax
ffffffff81008f81:	48 89 c2             	mov    %rax,%rdx
ffffffff81008f84:	48 8b 45 d8          	mov    -0x28(%rbp),%rax
ffffffff81008f88:	48 01 d0             	add    %rdx,%rax
ffffffff81008f8b:	48 89 45 f0          	mov    %rax,-0x10(%rbp)
ffffffff81008f8f:	eb 58                	jmp    ffffffff81008fe9 <vmmgr_alloc+0x17e>
ffffffff81008f91:	48 8b 45 f0          	mov    -0x10(%rbp),%rax
ffffffff81008f95:	48 8b 50 08          	mov    0x8(%rax),%rdx
ffffffff81008f99:	0f b7 45 ee          	movzwl -0x12(%rbp),%eax
ffffffff81008f9d:	48 c1 e0 04          	shl    $0x4,%rax
ffffffff81008fa1:	48 89 c1             	mov    %rax,%rcx
ffffffff81008fa4:	48 8b 45 d8          	mov    -0x28(%rbp),%rax
ffffffff81008fa8:	48 01 c8             	add    %rcx,%rax
ffffffff81008fab:	48 8b 40 08          	mov    0x8(%rax),%rax
ffffffff81008faf:	48 39 c2             	cmp    %rax,%rdx
ffffffff81008fb2:	76 35                	jbe    ffffffff81008fe9 <vmmgr_alloc+0x17e>
ffffffff81008fb4:	0f b7 45 ee          	movzwl -0x12(%rbp),%eax
ffffffff81008fb8:	48 c1 e0 04          	shl    $0x4,%rax
ffffffff81008fbc:	48 89 c2             	mov    %rax,%rdx
ffffffff81008fbf:	48 8b 45 d8          	mov    -0x28(%rbp),%rax
ffffffff81008fc3:	48 01 d0             	add    %rdx,%rax
ffffffff81008fc6:	48 8b 40 08          	mov    0x8(%rax),%rax
ffffffff81008fca:	48 39 45 b8          	cmp    %rax,-0x48(%rbp)
ffffffff81008fce:	73 19                	jae    ffffffff81008fe9 <vmmgr_alloc+0x17e>
ffffffff81008fd0:	0f b7 45 ee          	movzwl -0x12(%rbp),%eax
ffffffff81008fd4:	48 c1 e0 04          	shl    $0x4,%rax
ffffffff81008fd8:	48 89 c2             	mov    %rax,%rdx
ffffffff81008fdb:	48 8b 45 d8          	mov    -0x28(%rbp),%rax
ffffffff81008fdf:	48 01 d0             	add    %rdx,%rax
ffffffff81008fe2:	48 89 45 f0          	mov    %rax,-0x10(%rbp)
ffffffff81008fe6:	eb 01                	jmp    ffffffff81008fe9 <vmmgr_alloc+0x17e>
ffffffff81008fe8:	90                   	nop
ffffffff81008fe9:	0f b7 45 ee          	movzwl -0x12(%rbp),%eax
ffffffff81008fed:	83 c0 01             	add    $0x1,%eax
ffffffff81008ff0:	66 89 45 ee          	mov    %ax,-0x12(%rbp)
ffffffff81008ff4:	0f b7 05 d5 b0 00 00 	movzwl 0xb0d5(%rip),%eax        # ffffffff810140d0 <vmem_mgr+0x30>
ffffffff81008ffb:	66 39 45 ee          	cmp    %ax,-0x12(%rbp)
ffffffff81008fff:	0f 82 03 ff ff ff    	jb     ffffffff81008f08 <vmmgr_alloc+0x9d>
ffffffff81009005:	48 8b 45 e0          	mov    -0x20(%rbp),%rax
ffffffff81009009:	48 89 45 f8          	mov    %rax,-0x8(%rbp)
ffffffff8100900d:	48 83 7d f8 00       	cmpq   $0x0,-0x8(%rbp)
ffffffff81009012:	0f 85 c9 fe ff ff    	jne    ffffffff81008ee1 <vmmgr_alloc+0x76>
ffffffff81009018:	48 8b 45 f0          	mov    -0x10(%rbp),%rax
ffffffff8100901c:	48 8b 40 08          	mov    0x8(%rax),%rax
ffffffff81009020:	48 39 45 b8          	cmp    %rax,-0x48(%rbp)
ffffffff81009024:	76 07                	jbe    ffffffff8100902d <vmmgr_alloc+0x1c2>
ffffffff81009026:	b8 00 00 00 00       	mov    $0x0,%eax
ffffffff8100902b:	eb 64                	jmp    ffffffff81009091 <vmmgr_alloc+0x226>
ffffffff8100902d:	48 8b 05 ac b0 00 00 	mov    0xb0ac(%rip),%rax        # ffffffff810140e0 <pagemgr>
ffffffff81009034:	4c 8b 00             	mov    (%rax),%r8
ffffffff81009037:	48 8b 45 f0          	mov    -0x10(%rbp),%rax
ffffffff8100903b:	48 8b 00             	mov    (%rax),%rax
ffffffff8100903e:	8b 55 b4             	mov    -0x4c(%rbp),%edx
ffffffff81009041:	48 8b 4d b8          	mov    -0x48(%rbp),%rcx
ffffffff81009045:	48 89 ce             	mov    %rcx,%rsi
ffffffff81009048:	48 89 c7             	mov    %rax,%rdi
ffffffff8100904b:	41 ff d0             	callq  *%r8
ffffffff8100904e:	48 89 45 d0          	mov    %rax,-0x30(%rbp)
ffffffff81009052:	48 83 7d d0 00       	cmpq   $0x0,-0x30(%rbp)
ffffffff81009057:	75 07                	jne    ffffffff81009060 <vmmgr_alloc+0x1f5>
ffffffff81009059:	b8 00 00 00 00       	mov    $0x0,%eax
ffffffff8100905e:	eb 31                	jmp    ffffffff81009091 <vmmgr_alloc+0x226>
ffffffff81009060:	48 8d 4d c0          	lea    -0x40(%rbp),%rcx
ffffffff81009064:	48 8b 55 b8          	mov    -0x48(%rbp),%rdx
ffffffff81009068:	48 8b 75 d0          	mov    -0x30(%rbp),%rsi
ffffffff8100906c:	48 8b 45 f0          	mov    -0x10(%rbp),%rax
ffffffff81009070:	48 89 c7             	mov    %rax,%rdi
ffffffff81009073:	e8 ca f7 ff ff       	callq  ffffffff81008842 <vmmgr_split_free_block>
ffffffff81009078:	48 8b 45 c0          	mov    -0x40(%rbp),%rax
ffffffff8100907c:	48 85 c0             	test   %rax,%rax
ffffffff8100907f:	74 0c                	je     ffffffff8100908d <vmmgr_alloc+0x222>
ffffffff81009081:	48 8d 45 c0          	lea    -0x40(%rbp),%rax
ffffffff81009085:	48 89 c7             	mov    %rax,%rdi
ffffffff81009088:	e8 b8 f8 ff ff       	callq  ffffffff81008945 <vmmgr_put_free_mem>
ffffffff8100908d:	48 8b 45 d0          	mov    -0x30(%rbp),%rax
ffffffff81009091:	c9                   	leaveq 
ffffffff81009092:	c3                   	retq   

ffffffff81009093 <init_serial>:
ffffffff81009093:	55                   	push   %rbp
ffffffff81009094:	48 89 e5             	mov    %rsp,%rbp
ffffffff81009097:	be 01 00 00 00       	mov    $0x1,%esi
ffffffff8100909c:	bf f9 03 00 00       	mov    $0x3f9,%edi
ffffffff810090a1:	e8 b2 19 00 00       	callq  ffffffff8100aa58 <write_port_b>
ffffffff810090a6:	be 80 00 00 00       	mov    $0x80,%esi
ffffffff810090ab:	bf fb 03 00 00       	mov    $0x3fb,%edi
ffffffff810090b0:	e8 a3 19 00 00       	callq  ffffffff8100aa58 <write_port_b>
ffffffff810090b5:	be 03 00 00 00       	mov    $0x3,%esi
ffffffff810090ba:	bf f8 03 00 00       	mov    $0x3f8,%edi
ffffffff810090bf:	e8 94 19 00 00       	callq  ffffffff8100aa58 <write_port_b>
ffffffff810090c4:	be 00 00 00 00       	mov    $0x0,%esi
ffffffff810090c9:	bf f9 03 00 00       	mov    $0x3f9,%edi
ffffffff810090ce:	e8 85 19 00 00       	callq  ffffffff8100aa58 <write_port_b>
ffffffff810090d3:	be 03 00 00 00       	mov    $0x3,%esi
ffffffff810090d8:	bf fb 03 00 00       	mov    $0x3fb,%edi
ffffffff810090dd:	e8 76 19 00 00       	callq  ffffffff8100aa58 <write_port_b>
ffffffff810090e2:	be c7 00 00 00       	mov    $0xc7,%esi
ffffffff810090e7:	bf fa 03 00 00       	mov    $0x3fa,%edi
ffffffff810090ec:	e8 67 19 00 00       	callq  ffffffff8100aa58 <write_port_b>
ffffffff810090f1:	be 0b 00 00 00       	mov    $0xb,%esi
ffffffff810090f6:	bf fc 03 00 00       	mov    $0x3fc,%edi
ffffffff810090fb:	e8 58 19 00 00       	callq  ffffffff8100aa58 <write_port_b>
ffffffff81009100:	90                   	nop
ffffffff81009101:	5d                   	pop    %rbp
ffffffff81009102:	c3                   	retq   

ffffffff81009103 <is_transmit_empty>:
ffffffff81009103:	55                   	push   %rbp
ffffffff81009104:	48 89 e5             	mov    %rsp,%rbp
ffffffff81009107:	bf fd 03 00 00       	mov    $0x3fd,%edi
ffffffff8100910c:	e8 3f 19 00 00       	callq  ffffffff8100aa50 <read_port_b>
ffffffff81009111:	0f b6 c0             	movzbl %al,%eax
ffffffff81009114:	83 e0 20             	and    $0x20,%eax
ffffffff81009117:	5d                   	pop    %rbp
ffffffff81009118:	c3                   	retq   

ffffffff81009119 <write_serial>:
ffffffff81009119:	55                   	push   %rbp
ffffffff8100911a:	48 89 e5             	mov    %rsp,%rbp
ffffffff8100911d:	48 83 ec 10          	sub    $0x10,%rsp
ffffffff81009121:	89 f8                	mov    %edi,%eax
ffffffff81009123:	88 45 fc             	mov    %al,-0x4(%rbp)
ffffffff81009126:	90                   	nop
ffffffff81009127:	b8 00 00 00 00       	mov    $0x0,%eax
ffffffff8100912c:	e8 d2 ff ff ff       	callq  ffffffff81009103 <is_transmit_empty>
ffffffff81009131:	85 c0                	test   %eax,%eax
ffffffff81009133:	74 f2                	je     ffffffff81009127 <write_serial+0xe>
ffffffff81009135:	0f b6 45 fc          	movzbl -0x4(%rbp),%eax
ffffffff81009139:	0f b6 c0             	movzbl %al,%eax
ffffffff8100913c:	89 c6                	mov    %eax,%esi
ffffffff8100913e:	bf f8 03 00 00       	mov    $0x3f8,%edi
ffffffff81009143:	e8 10 19 00 00       	callq  ffffffff8100aa58 <write_port_b>
ffffffff81009148:	90                   	nop
ffffffff81009149:	c9                   	leaveq 
ffffffff8100914a:	c3                   	retq   

ffffffff8100914b <mem_iter_fill_root>:
ffffffff8100914b:	55                   	push   %rbp
ffffffff8100914c:	48 89 e5             	mov    %rsp,%rbp
ffffffff8100914f:	48 83 ec 10          	sub    $0x10,%rsp
ffffffff81009153:	48 89 7d f8          	mov    %rdi,-0x8(%rbp)
ffffffff81009157:	48 89 75 f0          	mov    %rsi,-0x10(%rbp)
ffffffff8100915b:	48 8b 45 f8          	mov    -0x8(%rbp),%rax
ffffffff8100915f:	8b 40 10             	mov    0x10(%rax),%eax
ffffffff81009162:	83 f8 01             	cmp    $0x1,%eax
ffffffff81009165:	75 3c                	jne    ffffffff810091a3 <mem_iter_fill_root+0x58>
ffffffff81009167:	8b 05 9f af 00 00    	mov    0xaf9f(%rip),%eax        # ffffffff8101410c <physmm_root+0xc>
ffffffff8100916d:	83 c0 01             	add    $0x1,%eax
ffffffff81009170:	89 05 96 af 00 00    	mov    %eax,0xaf96(%rip)        # ffffffff8101410c <physmm_root+0xc>
ffffffff81009176:	48 8b 15 83 af 00 00 	mov    0xaf83(%rip),%rdx        # ffffffff81014100 <physmm_root>
ffffffff8100917d:	48 8b 45 f8          	mov    -0x8(%rbp),%rax
ffffffff81009181:	48 8b 40 08          	mov    0x8(%rax),%rax
ffffffff81009185:	48 01 d0             	add    %rdx,%rax
ffffffff81009188:	48 89 05 71 af 00 00 	mov    %rax,0xaf71(%rip)        # ffffffff81014100 <physmm_root>
ffffffff8100918f:	48 8b 05 9a af 00 00 	mov    0xaf9a(%rip),%rax        # ffffffff81014130 <physmm_root+0x30>
ffffffff81009196:	48 83 c0 30          	add    $0x30,%rax
ffffffff8100919a:	48 89 05 8f af 00 00 	mov    %rax,0xaf8f(%rip)        # ffffffff81014130 <physmm_root+0x30>
ffffffff810091a1:	eb 0f                	jmp    ffffffff810091b2 <mem_iter_fill_root+0x67>
ffffffff810091a3:	8b 05 5f af 00 00    	mov    0xaf5f(%rip),%eax        # ffffffff81014108 <physmm_root+0x8>
ffffffff810091a9:	83 c0 01             	add    $0x1,%eax
ffffffff810091ac:	89 05 56 af 00 00    	mov    %eax,0xaf56(%rip)        # ffffffff81014108 <physmm_root+0x8>
ffffffff810091b2:	48 8b 05 7f af 00 00 	mov    0xaf7f(%rip),%rax        # ffffffff81014138 <physmm_root+0x38>
ffffffff810091b9:	48 83 c0 28          	add    $0x28,%rax
ffffffff810091bd:	48 89 05 74 af 00 00 	mov    %rax,0xaf74(%rip)        # ffffffff81014138 <physmm_root+0x38>
ffffffff810091c4:	48 8b 45 f8          	mov    -0x8(%rbp),%rax
ffffffff810091c8:	48 8b 10             	mov    (%rax),%rdx
ffffffff810091cb:	48 8b 05 7e af 00 00 	mov    0xaf7e(%rip),%rax        # ffffffff81014150 <physmm_root+0x50>
ffffffff810091d2:	48 39 c2             	cmp    %rax,%rdx
ffffffff810091d5:	73 42                	jae    ffffffff81009219 <mem_iter_fill_root+0xce>
ffffffff810091d7:	48 8b 45 f8          	mov    -0x8(%rbp),%rax
ffffffff810091db:	48 8b 10             	mov    (%rax),%rdx
ffffffff810091de:	48 8b 45 f8          	mov    -0x8(%rbp),%rax
ffffffff810091e2:	48 8b 40 08          	mov    0x8(%rax),%rax
ffffffff810091e6:	48 01 c2             	add    %rax,%rdx
ffffffff810091e9:	48 8b 05 68 af 00 00 	mov    0xaf68(%rip),%rax        # ffffffff81014158 <physmm_root+0x58>
ffffffff810091f0:	48 39 c2             	cmp    %rax,%rdx
ffffffff810091f3:	76 24                	jbe    ffffffff81009219 <mem_iter_fill_root+0xce>
ffffffff810091f5:	48 8b 45 f8          	mov    -0x8(%rbp),%rax
ffffffff810091f9:	48 8b 10             	mov    (%rax),%rdx
ffffffff810091fc:	48 89 15 75 af 00 00 	mov    %rdx,0xaf75(%rip)        # ffffffff81014178 <physmm_root+0x78>
ffffffff81009203:	48 8b 50 08          	mov    0x8(%rax),%rdx
ffffffff81009207:	48 89 15 72 af 00 00 	mov    %rdx,0xaf72(%rip)        # ffffffff81014180 <physmm_root+0x80>
ffffffff8100920e:	48 8b 40 10          	mov    0x10(%rax),%rax
ffffffff81009212:	48 89 05 6f af 00 00 	mov    %rax,0xaf6f(%rip)        # ffffffff81014188 <physmm_root+0x88>
ffffffff81009219:	90                   	nop
ffffffff8100921a:	c9                   	leaveq 
ffffffff8100921b:	c3                   	retq   

ffffffff8100921c <mem_iter_build_structs>:
ffffffff8100921c:	55                   	push   %rbp
ffffffff8100921d:	48 89 e5             	mov    %rsp,%rbp
ffffffff81009220:	48 81 ec c0 00 00 00 	sub    $0xc0,%rsp
ffffffff81009227:	48 89 bd 48 ff ff ff 	mov    %rdi,-0xb8(%rbp)
ffffffff8100922e:	48 89 b5 40 ff ff ff 	mov    %rsi,-0xc0(%rbp)
ffffffff81009235:	48 8b 85 40 ff ff ff 	mov    -0xc0(%rbp),%rax
ffffffff8100923c:	48 89 45 e8          	mov    %rax,-0x18(%rbp)
ffffffff81009240:	48 8b 45 e8          	mov    -0x18(%rbp),%rax
ffffffff81009244:	48 8b 00             	mov    (%rax),%rax
ffffffff81009247:	48 89 45 e0          	mov    %rax,-0x20(%rbp)
ffffffff8100924b:	48 8b 45 e8          	mov    -0x18(%rbp),%rax
ffffffff8100924f:	48 8b 40 08          	mov    0x8(%rax),%rax
ffffffff81009253:	48 89 45 d8          	mov    %rax,-0x28(%rbp)
ffffffff81009257:	48 c7 45 d0 00 00 00 	movq   $0x0,-0x30(%rbp)
ffffffff8100925e:	00 
ffffffff8100925f:	48 c7 45 c8 00 00 00 	movq   $0x0,-0x38(%rbp)
ffffffff81009266:	00 
ffffffff81009267:	48 c7 45 f8 00 00 00 	movq   $0x0,-0x8(%rbp)
ffffffff8100926e:	00 
ffffffff8100926f:	48 c7 45 c0 00 00 00 	movq   $0x0,-0x40(%rbp)
ffffffff81009276:	00 
ffffffff81009277:	48 c7 45 88 00 00 00 	movq   $0x0,-0x78(%rbp)
ffffffff8100927e:	00 
ffffffff8100927f:	48 c7 45 90 00 00 00 	movq   $0x0,-0x70(%rbp)
ffffffff81009286:	00 
ffffffff81009287:	48 c7 45 98 00 00 00 	movq   $0x0,-0x68(%rbp)
ffffffff8100928e:	00 
ffffffff8100928f:	48 c7 45 a0 00 00 00 	movq   $0x0,-0x60(%rbp)
ffffffff81009296:	00 
ffffffff81009297:	48 c7 45 a8 00 00 00 	movq   $0x0,-0x58(%rbp)
ffffffff8100929e:	00 
ffffffff8100929f:	48 c7 45 b8 00 00 00 	movq   $0x0,-0x48(%rbp)
ffffffff810092a6:	00 
ffffffff810092a7:	48 8d 95 58 ff ff ff 	lea    -0xa8(%rbp),%rdx
ffffffff810092ae:	b8 00 00 00 00       	mov    $0x0,%eax
ffffffff810092b3:	b9 06 00 00 00       	mov    $0x6,%ecx
ffffffff810092b8:	48 89 d7             	mov    %rdx,%rdi
ffffffff810092bb:	f3 48 ab             	rep stos %rax,%es:(%rdi)
ffffffff810092be:	48 c7 45 b0 78 41 01 	movq   $0xffffffff81014178,-0x50(%rbp)
ffffffff810092c5:	81 
ffffffff810092c6:	48 8d 45 88          	lea    -0x78(%rbp),%rax
ffffffff810092ca:	ba 28 00 00 00       	mov    $0x28,%edx
ffffffff810092cf:	be 00 00 00 00       	mov    $0x0,%esi
ffffffff810092d4:	48 89 c7             	mov    %rax,%rdi
ffffffff810092d7:	e8 ab 18 00 00       	callq  ffffffff8100ab87 <memset>
ffffffff810092dc:	48 8d 85 58 ff ff ff 	lea    -0xa8(%rbp),%rax
ffffffff810092e3:	ba 30 00 00 00       	mov    $0x30,%edx
ffffffff810092e8:	be 00 00 00 00       	mov    $0x0,%esi
ffffffff810092ed:	48 89 c7             	mov    %rax,%rdi
ffffffff810092f0:	e8 92 18 00 00       	callq  ffffffff8100ab87 <memset>
ffffffff810092f5:	48 8b 85 48 ff ff ff 	mov    -0xb8(%rbp),%rax
ffffffff810092fc:	48 8b 00             	mov    (%rax),%rax
ffffffff810092ff:	48 89 45 90          	mov    %rax,-0x70(%rbp)
ffffffff81009303:	48 8b 85 48 ff ff ff 	mov    -0xb8(%rbp),%rax
ffffffff8100930a:	48 8b 40 08          	mov    0x8(%rax),%rax
ffffffff8100930e:	48 89 45 98          	mov    %rax,-0x68(%rbp)
ffffffff81009312:	48 8b 85 48 ff ff ff 	mov    -0xb8(%rbp),%rax
ffffffff81009319:	8b 40 10             	mov    0x10(%rax),%eax
ffffffff8100931c:	88 45 88             	mov    %al,-0x78(%rbp)
ffffffff8100931f:	0f b6 45 88          	movzbl -0x78(%rbp),%eax
ffffffff81009323:	3c 01                	cmp    $0x1,%al
ffffffff81009325:	0f 85 b3 03 00 00    	jne    ffffffff810096de <mem_iter_build_structs+0x4c2>
ffffffff8100932b:	48 8b 15 ee ad 00 00 	mov    0xadee(%rip),%rdx        # ffffffff81014120 <physmm_root+0x20>
ffffffff81009332:	48 8b 45 d8          	mov    -0x28(%rbp),%rax
ffffffff81009336:	48 8b 00             	mov    (%rax),%rax
ffffffff81009339:	48 01 d0             	add    %rdx,%rax
ffffffff8100933c:	48 89 45 a0          	mov    %rax,-0x60(%rbp)
ffffffff81009340:	48 8b 45 98          	mov    -0x68(%rbp),%rax
ffffffff81009344:	48 c1 e8 0f          	shr    $0xf,%rax
ffffffff81009348:	48 89 85 78 ff ff ff 	mov    %rax,-0x88(%rbp)
ffffffff8100934f:	48 8b 45 98          	mov    -0x68(%rbp),%rax
ffffffff81009353:	48 c1 e8 0c          	shr    $0xc,%rax
ffffffff81009357:	48 89 85 58 ff ff ff 	mov    %rax,-0xa8(%rbp)
ffffffff8100935e:	48 8b 85 58 ff ff ff 	mov    -0xa8(%rbp),%rax
ffffffff81009365:	48 89 85 60 ff ff ff 	mov    %rax,-0xa0(%rbp)
ffffffff8100936c:	48 8b 85 78 ff ff ff 	mov    -0x88(%rbp),%rax
ffffffff81009373:	48 05 ff 0f 00 00    	add    $0xfff,%rax
ffffffff81009379:	48 25 00 f0 ff ff    	and    $0xfffffffffffff000,%rax
ffffffff8100937f:	48 89 45 80          	mov    %rax,-0x80(%rbp)
ffffffff81009383:	48 8b 45 90          	mov    -0x70(%rbp),%rax
ffffffff81009387:	48 8b 4d 98          	mov    -0x68(%rbp),%rcx
ffffffff8100938b:	48 8b 55 80          	mov    -0x80(%rbp),%rdx
ffffffff8100938f:	48 29 d1             	sub    %rdx,%rcx
ffffffff81009392:	48 89 ca             	mov    %rcx,%rdx
ffffffff81009395:	48 01 d0             	add    %rdx,%rax
ffffffff81009398:	48 25 00 f0 ff ff    	and    $0xfffffffffffff000,%rax
ffffffff8100939e:	48 89 85 68 ff ff ff 	mov    %rax,-0x98(%rbp)
ffffffff810093a5:	48 8b 55 90          	mov    -0x70(%rbp),%rdx
ffffffff810093a9:	48 8b 45 b0          	mov    -0x50(%rbp),%rax
ffffffff810093ad:	48 8b 00             	mov    (%rax),%rax
ffffffff810093b0:	48 39 c2             	cmp    %rax,%rdx
ffffffff810093b3:	75 1e                	jne    ffffffff810093d3 <mem_iter_build_structs+0x1b7>
ffffffff810093b5:	48 8b 15 8c ad 00 00 	mov    0xad8c(%rip),%rdx        # ffffffff81014148 <physmm_root+0x48>
ffffffff810093bc:	48 8b 05 5d ad 00 00 	mov    0xad5d(%rip),%rax        # ffffffff81014120 <physmm_root+0x20>
ffffffff810093c3:	48 01 d0             	add    %rdx,%rax
ffffffff810093c6:	48 25 00 f0 ff ff    	and    $0xfffffffffffff000,%rax
ffffffff810093cc:	48 89 85 68 ff ff ff 	mov    %rax,-0x98(%rbp)
ffffffff810093d3:	48 8b 95 68 ff ff ff 	mov    -0x98(%rbp),%rdx
ffffffff810093da:	48 8b 45 80          	mov    -0x80(%rbp),%rax
ffffffff810093de:	48 8d 0c 02          	lea    (%rdx,%rax,1),%rcx
ffffffff810093e2:	48 8b 55 90          	mov    -0x70(%rbp),%rdx
ffffffff810093e6:	48 8b 45 98          	mov    -0x68(%rbp),%rax
ffffffff810093ea:	48 01 d0             	add    %rdx,%rax
ffffffff810093ed:	48 39 c1             	cmp    %rax,%rcx
ffffffff810093f0:	76 14                	jbe    ffffffff81009406 <mem_iter_build_structs+0x1ea>
ffffffff810093f2:	48 8b 85 68 ff ff ff 	mov    -0x98(%rbp),%rax
ffffffff810093f9:	48 2d 00 10 00 00    	sub    $0x1000,%rax
ffffffff810093ff:	48 89 85 68 ff ff ff 	mov    %rax,-0x98(%rbp)
ffffffff81009406:	48 8b 55 90          	mov    -0x70(%rbp),%rdx
ffffffff8100940a:	48 8b 45 98          	mov    -0x68(%rbp),%rax
ffffffff8100940e:	48 01 d0             	add    %rdx,%rax
ffffffff81009411:	48 89 c6             	mov    %rax,%rsi
ffffffff81009414:	48 c7 c7 68 d1 00 81 	mov    $0xffffffff8100d168,%rdi
ffffffff8100941b:	b8 00 00 00 00       	mov    $0x0,%eax
ffffffff81009420:	e8 f1 eb ff ff       	callq  ffffffff81008016 <kprintf>
ffffffff81009425:	48 8b 95 68 ff ff ff 	mov    -0x98(%rbp),%rdx
ffffffff8100942c:	48 8b 45 80          	mov    -0x80(%rbp),%rax
ffffffff81009430:	48 01 c2             	add    %rax,%rdx
ffffffff81009433:	48 8b 85 68 ff ff ff 	mov    -0x98(%rbp),%rax
ffffffff8100943a:	48 89 c6             	mov    %rax,%rsi
ffffffff8100943d:	48 c7 c7 80 d1 00 81 	mov    $0xffffffff8100d180,%rdi
ffffffff81009444:	b8 00 00 00 00       	mov    $0x0,%eax
ffffffff81009449:	e8 c8 eb ff ff       	callq  ffffffff81008016 <kprintf>
ffffffff8100944e:	48 c7 45 f0 00 00 00 	movq   $0x0,-0x10(%rbp)
ffffffff81009455:	00 
ffffffff81009456:	e9 20 02 00 00       	jmpq   ffffffff8100967b <mem_iter_build_structs+0x45f>
ffffffff8100945b:	48 8b 45 90          	mov    -0x70(%rbp),%rax
ffffffff8100945f:	48 8b 55 f0          	mov    -0x10(%rbp),%rdx
ffffffff81009463:	48 c1 e2 0c          	shl    $0xc,%rdx
ffffffff81009467:	48 01 d0             	add    %rdx,%rax
ffffffff8100946a:	48 89 45 d0          	mov    %rax,-0x30(%rbp)
ffffffff8100946e:	48 8b 45 d0          	mov    -0x30(%rbp),%rax
ffffffff81009472:	48 05 00 10 00 00    	add    $0x1000,%rax
ffffffff81009478:	48 89 45 c8          	mov    %rax,-0x38(%rbp)
ffffffff8100947c:	48 8b 45 f0          	mov    -0x10(%rbp),%rax
ffffffff81009480:	83 e0 3f             	and    $0x3f,%eax
ffffffff81009483:	48 85 c0             	test   %rax,%rax
ffffffff81009486:	75 2d                	jne    ffffffff810094b5 <mem_iter_build_structs+0x299>
ffffffff81009488:	48 8b 85 68 ff ff ff 	mov    -0x98(%rbp),%rax
ffffffff8100948f:	48 8b 55 f0          	mov    -0x10(%rbp),%rdx
ffffffff81009493:	48 c1 ea 06          	shr    $0x6,%rdx
ffffffff81009497:	48 c1 e2 03          	shl    $0x3,%rdx
ffffffff8100949b:	48 01 d0             	add    %rdx,%rax
ffffffff8100949e:	48 89 c7             	mov    %rax,%rdi
ffffffff810094a1:	e8 f5 17 00 00       	callq  ffffffff8100ac9b <pagemgr_boot_temp_map>
ffffffff810094a6:	48 89 45 f8          	mov    %rax,-0x8(%rbp)
ffffffff810094aa:	48 8b 45 f8          	mov    -0x8(%rbp),%rax
ffffffff810094ae:	48 c7 00 00 00 00 00 	movq   $0x0,(%rax)
ffffffff810094b5:	48 8b 05 94 ac 00 00 	mov    0xac94(%rip),%rax        # ffffffff81014150 <physmm_root+0x50>
ffffffff810094bc:	48 39 45 d0          	cmp    %rax,-0x30(%rbp)
ffffffff810094c0:	72 49                	jb     ffffffff8100950b <mem_iter_build_structs+0x2ef>
ffffffff810094c2:	48 8b 05 8f ac 00 00 	mov    0xac8f(%rip),%rax        # ffffffff81014158 <physmm_root+0x58>
ffffffff810094c9:	48 39 45 c8          	cmp    %rax,-0x38(%rbp)
ffffffff810094cd:	77 3c                	ja     ffffffff8100950b <mem_iter_build_structs+0x2ef>
ffffffff810094cf:	48 8b 45 f8          	mov    -0x8(%rbp),%rax
ffffffff810094d3:	48 8b 10             	mov    (%rax),%rdx
ffffffff810094d6:	48 8b 45 f0          	mov    -0x10(%rbp),%rax
ffffffff810094da:	83 e0 3f             	and    $0x3f,%eax
ffffffff810094dd:	be 01 00 00 00       	mov    $0x1,%esi
ffffffff810094e2:	89 c1                	mov    %eax,%ecx
ffffffff810094e4:	d3 e6                	shl    %cl,%esi
ffffffff810094e6:	89 f0                	mov    %esi,%eax
ffffffff810094e8:	48 98                	cltq   
ffffffff810094ea:	48 09 c2             	or     %rax,%rdx
ffffffff810094ed:	48 8b 45 f8          	mov    -0x8(%rbp),%rax
ffffffff810094f1:	48 89 10             	mov    %rdx,(%rax)
ffffffff810094f4:	48 8b 85 60 ff ff ff 	mov    -0xa0(%rbp),%rax
ffffffff810094fb:	48 83 e8 01          	sub    $0x1,%rax
ffffffff810094ff:	48 89 85 60 ff ff ff 	mov    %rax,-0xa0(%rbp)
ffffffff81009506:	e9 6b 01 00 00       	jmpq   ffffffff81009676 <mem_iter_build_structs+0x45a>
ffffffff8100950b:	48 8b 05 fe ab 00 00 	mov    0xabfe(%rip),%rax        # ffffffff81014110 <physmm_root+0x10>
ffffffff81009512:	48 39 45 d0          	cmp    %rax,-0x30(%rbp)
ffffffff81009516:	72 53                	jb     ffffffff8100956b <mem_iter_build_structs+0x34f>
ffffffff81009518:	48 8b 15 f1 ab 00 00 	mov    0xabf1(%rip),%rdx        # ffffffff81014110 <physmm_root+0x10>
ffffffff8100951f:	48 8b 05 1a ac 00 00 	mov    0xac1a(%rip),%rax        # ffffffff81014140 <physmm_root+0x40>
ffffffff81009526:	48 01 d0             	add    %rdx,%rax
ffffffff81009529:	48 39 45 c8          	cmp    %rax,-0x38(%rbp)
ffffffff8100952d:	77 3c                	ja     ffffffff8100956b <mem_iter_build_structs+0x34f>
ffffffff8100952f:	48 8b 45 f8          	mov    -0x8(%rbp),%rax
ffffffff81009533:	48 8b 10             	mov    (%rax),%rdx
ffffffff81009536:	48 8b 45 f0          	mov    -0x10(%rbp),%rax
ffffffff8100953a:	83 e0 3f             	and    $0x3f,%eax
ffffffff8100953d:	be 01 00 00 00       	mov    $0x1,%esi
ffffffff81009542:	89 c1                	mov    %eax,%ecx
ffffffff81009544:	d3 e6                	shl    %cl,%esi
ffffffff81009546:	89 f0                	mov    %esi,%eax
ffffffff81009548:	48 98                	cltq   
ffffffff8100954a:	48 09 c2             	or     %rax,%rdx
ffffffff8100954d:	48 8b 45 f8          	mov    -0x8(%rbp),%rax
ffffffff81009551:	48 89 10             	mov    %rdx,(%rax)
ffffffff81009554:	48 8b 85 60 ff ff ff 	mov    -0xa0(%rbp),%rax
ffffffff8100955b:	48 83 e8 01          	sub    $0x1,%rax
ffffffff8100955f:	48 89 85 60 ff ff ff 	mov    %rax,-0xa0(%rbp)
ffffffff81009566:	e9 0b 01 00 00       	jmpq   ffffffff81009676 <mem_iter_build_structs+0x45a>
ffffffff8100956b:	48 8b 05 ae ab 00 00 	mov    0xabae(%rip),%rax        # ffffffff81014120 <physmm_root+0x20>
ffffffff81009572:	48 39 45 d0          	cmp    %rax,-0x30(%rbp)
ffffffff81009576:	72 53                	jb     ffffffff810095cb <mem_iter_build_structs+0x3af>
ffffffff81009578:	48 8b 15 a1 ab 00 00 	mov    0xaba1(%rip),%rdx        # ffffffff81014120 <physmm_root+0x20>
ffffffff8100957f:	48 8b 05 c2 ab 00 00 	mov    0xabc2(%rip),%rax        # ffffffff81014148 <physmm_root+0x48>
ffffffff81009586:	48 01 d0             	add    %rdx,%rax
ffffffff81009589:	48 39 45 c8          	cmp    %rax,-0x38(%rbp)
ffffffff8100958d:	77 3c                	ja     ffffffff810095cb <mem_iter_build_structs+0x3af>
ffffffff8100958f:	48 8b 45 f8          	mov    -0x8(%rbp),%rax
ffffffff81009593:	48 8b 10             	mov    (%rax),%rdx
ffffffff81009596:	48 8b 45 f0          	mov    -0x10(%rbp),%rax
ffffffff8100959a:	83 e0 3f             	and    $0x3f,%eax
ffffffff8100959d:	be 01 00 00 00       	mov    $0x1,%esi
ffffffff810095a2:	89 c1                	mov    %eax,%ecx
ffffffff810095a4:	d3 e6                	shl    %cl,%esi
ffffffff810095a6:	89 f0                	mov    %esi,%eax
ffffffff810095a8:	48 98                	cltq   
ffffffff810095aa:	48 09 c2             	or     %rax,%rdx
ffffffff810095ad:	48 8b 45 f8          	mov    -0x8(%rbp),%rax
ffffffff810095b1:	48 89 10             	mov    %rdx,(%rax)
ffffffff810095b4:	48 8b 85 60 ff ff ff 	mov    -0xa0(%rbp),%rax
ffffffff810095bb:	48 83 e8 01          	sub    $0x1,%rax
ffffffff810095bf:	48 89 85 60 ff ff ff 	mov    %rax,-0xa0(%rbp)
ffffffff810095c6:	e9 ab 00 00 00       	jmpq   ffffffff81009676 <mem_iter_build_structs+0x45a>
ffffffff810095cb:	48 8b 85 68 ff ff ff 	mov    -0x98(%rbp),%rax
ffffffff810095d2:	48 39 45 d0          	cmp    %rax,-0x30(%rbp)
ffffffff810095d6:	72 4d                	jb     ffffffff81009625 <mem_iter_build_structs+0x409>
ffffffff810095d8:	48 8b 95 68 ff ff ff 	mov    -0x98(%rbp),%rdx
ffffffff810095df:	48 8b 45 80          	mov    -0x80(%rbp),%rax
ffffffff810095e3:	48 01 d0             	add    %rdx,%rax
ffffffff810095e6:	48 39 45 c8          	cmp    %rax,-0x38(%rbp)
ffffffff810095ea:	77 39                	ja     ffffffff81009625 <mem_iter_build_structs+0x409>
ffffffff810095ec:	48 8b 45 f8          	mov    -0x8(%rbp),%rax
ffffffff810095f0:	48 8b 10             	mov    (%rax),%rdx
ffffffff810095f3:	48 8b 45 f0          	mov    -0x10(%rbp),%rax
ffffffff810095f7:	83 e0 3f             	and    $0x3f,%eax
ffffffff810095fa:	be 01 00 00 00       	mov    $0x1,%esi
ffffffff810095ff:	89 c1                	mov    %eax,%ecx
ffffffff81009601:	d3 e6                	shl    %cl,%esi
ffffffff81009603:	89 f0                	mov    %esi,%eax
ffffffff81009605:	48 98                	cltq   
ffffffff81009607:	48 09 c2             	or     %rax,%rdx
ffffffff8100960a:	48 8b 45 f8          	mov    -0x8(%rbp),%rax
ffffffff8100960e:	48 89 10             	mov    %rdx,(%rax)
ffffffff81009611:	48 8b 85 60 ff ff ff 	mov    -0xa0(%rbp),%rax
ffffffff81009618:	48 83 e8 01          	sub    $0x1,%rax
ffffffff8100961c:	48 89 85 60 ff ff ff 	mov    %rax,-0xa0(%rbp)
ffffffff81009623:	eb 51                	jmp    ffffffff81009676 <mem_iter_build_structs+0x45a>
ffffffff81009625:	48 8b 05 d4 49 00 00 	mov    0x49d4(%rip),%rax        # ffffffff8100e000 <_rodata_end>
ffffffff8100962c:	48 39 45 d0          	cmp    %rax,-0x30(%rbp)
ffffffff81009630:	72 44                	jb     ffffffff81009676 <mem_iter_build_structs+0x45a>
ffffffff81009632:	48 8b 05 d7 49 00 00 	mov    0x49d7(%rip),%rax        # ffffffff8100e010 <boot_paging_end>
ffffffff81009639:	48 39 45 c8          	cmp    %rax,-0x38(%rbp)
ffffffff8100963d:	77 37                	ja     ffffffff81009676 <mem_iter_build_structs+0x45a>
ffffffff8100963f:	48 8b 45 f8          	mov    -0x8(%rbp),%rax
ffffffff81009643:	48 8b 10             	mov    (%rax),%rdx
ffffffff81009646:	48 8b 45 f0          	mov    -0x10(%rbp),%rax
ffffffff8100964a:	83 e0 3f             	and    $0x3f,%eax
ffffffff8100964d:	be 01 00 00 00       	mov    $0x1,%esi
ffffffff81009652:	89 c1                	mov    %eax,%ecx
ffffffff81009654:	d3 e6                	shl    %cl,%esi
ffffffff81009656:	89 f0                	mov    %esi,%eax
ffffffff81009658:	48 98                	cltq   
ffffffff8100965a:	48 09 c2             	or     %rax,%rdx
ffffffff8100965d:	48 8b 45 f8          	mov    -0x8(%rbp),%rax
ffffffff81009661:	48 89 10             	mov    %rdx,(%rax)
ffffffff81009664:	48 8b 85 60 ff ff ff 	mov    -0xa0(%rbp),%rax
ffffffff8100966b:	48 83 e8 01          	sub    $0x1,%rax
ffffffff8100966f:	48 89 85 60 ff ff ff 	mov    %rax,-0xa0(%rbp)
ffffffff81009676:	48 83 45 f0 01       	addq   $0x1,-0x10(%rbp)
ffffffff8100967b:	48 8b 85 58 ff ff ff 	mov    -0xa8(%rbp),%rax
ffffffff81009682:	48 39 45 f0          	cmp    %rax,-0x10(%rbp)
ffffffff81009686:	0f 82 cf fd ff ff    	jb     ffffffff8100945b <mem_iter_build_structs+0x23f>
ffffffff8100968c:	48 8b 15 8d aa 00 00 	mov    0xaa8d(%rip),%rdx        # ffffffff81014120 <physmm_root+0x20>
ffffffff81009693:	48 8b 45 d8          	mov    -0x28(%rbp),%rax
ffffffff81009697:	48 8b 00             	mov    (%rax),%rax
ffffffff8100969a:	48 01 d0             	add    %rdx,%rax
ffffffff8100969d:	48 89 45 a0          	mov    %rax,-0x60(%rbp)
ffffffff810096a1:	48 8b 45 a0          	mov    -0x60(%rbp),%rax
ffffffff810096a5:	48 89 c7             	mov    %rax,%rdi
ffffffff810096a8:	e8 ee 15 00 00       	callq  ffffffff8100ac9b <pagemgr_boot_temp_map>
ffffffff810096ad:	48 89 45 b8          	mov    %rax,-0x48(%rbp)
ffffffff810096b1:	48 8d 8d 58 ff ff ff 	lea    -0xa8(%rbp),%rcx
ffffffff810096b8:	48 8b 45 b8          	mov    -0x48(%rbp),%rax
ffffffff810096bc:	ba 30 00 00 00       	mov    $0x30,%edx
ffffffff810096c1:	48 89 ce             	mov    %rcx,%rsi
ffffffff810096c4:	48 89 c7             	mov    %rax,%rdi
ffffffff810096c7:	e8 fd 14 00 00       	callq  ffffffff8100abc9 <memcpy>
ffffffff810096cc:	48 8b 45 d8          	mov    -0x28(%rbp),%rax
ffffffff810096d0:	48 8b 00             	mov    (%rax),%rax
ffffffff810096d3:	48 8d 50 30          	lea    0x30(%rax),%rdx
ffffffff810096d7:	48 8b 45 d8          	mov    -0x28(%rbp),%rax
ffffffff810096db:	48 89 10             	mov    %rdx,(%rax)
ffffffff810096de:	48 8b 15 2b aa 00 00 	mov    0xaa2b(%rip),%rdx        # ffffffff81014110 <physmm_root+0x10>
ffffffff810096e5:	48 8b 45 e0          	mov    -0x20(%rbp),%rax
ffffffff810096e9:	48 8b 00             	mov    (%rax),%rax
ffffffff810096ec:	48 01 d0             	add    %rdx,%rax
ffffffff810096ef:	48 89 c7             	mov    %rax,%rdi
ffffffff810096f2:	e8 a4 15 00 00       	callq  ffffffff8100ac9b <pagemgr_boot_temp_map>
ffffffff810096f7:	48 89 45 c0          	mov    %rax,-0x40(%rbp)
ffffffff810096fb:	48 8d 4d 88          	lea    -0x78(%rbp),%rcx
ffffffff810096ff:	48 8b 45 c0          	mov    -0x40(%rbp),%rax
ffffffff81009703:	ba 28 00 00 00       	mov    $0x28,%edx
ffffffff81009708:	48 89 ce             	mov    %rcx,%rsi
ffffffff8100970b:	48 89 c7             	mov    %rax,%rdi
ffffffff8100970e:	e8 b6 14 00 00       	callq  ffffffff8100abc9 <memcpy>
ffffffff81009713:	48 8b 45 e0          	mov    -0x20(%rbp),%rax
ffffffff81009717:	48 8b 00             	mov    (%rax),%rax
ffffffff8100971a:	48 8d 50 28          	lea    0x28(%rax),%rdx
ffffffff8100971e:	48 8b 45 e0          	mov    -0x20(%rbp),%rax
ffffffff81009722:	48 89 10             	mov    %rdx,(%rax)
ffffffff81009725:	90                   	nop
ffffffff81009726:	c9                   	leaveq 
ffffffff81009727:	c3                   	retq   

ffffffff81009728 <physmm_early_init>:
ffffffff81009728:	55                   	push   %rbp
ffffffff81009729:	48 89 e5             	mov    %rsp,%rbp
ffffffff8100972c:	48 83 ec 30          	sub    $0x30,%rsp
ffffffff81009730:	48 c7 45 d8 00 00 00 	movq   $0x0,-0x28(%rbp)
ffffffff81009737:	00 
ffffffff81009738:	48 c7 45 d0 00 00 00 	movq   $0x0,-0x30(%rbp)
ffffffff8100973f:	00 
ffffffff81009740:	48 c7 45 f8 00 00 00 	movq   $0x0,-0x8(%rbp)
ffffffff81009747:	00 
ffffffff81009748:	48 c7 45 f0 00 00 00 	movq   $0x0,-0x10(%rbp)
ffffffff8100974f:	00 
ffffffff81009750:	48 c7 c7 a8 d1 00 81 	mov    $0xffffffff8100d1a8,%rdi
ffffffff81009757:	b8 00 00 00 00       	mov    $0x0,%eax
ffffffff8100975c:	e8 b5 e8 ff ff       	callq  ffffffff81008016 <kprintf>
ffffffff81009761:	ba 90 00 00 00       	mov    $0x90,%edx
ffffffff81009766:	be 00 00 00 00       	mov    $0x0,%esi
ffffffff8100976b:	48 c7 c7 00 41 01 81 	mov    $0xffffffff81014100,%rdi
ffffffff81009772:	e8 10 14 00 00       	callq  ffffffff8100ab87 <memset>
ffffffff81009777:	48 c7 c0 00 00 00 01 	mov    $0x1000000,%rax
ffffffff8100977e:	48 89 05 cb a9 00 00 	mov    %rax,0xa9cb(%rip)        # ffffffff81014150 <physmm_root+0x50>
ffffffff81009785:	48 c7 c0 00 50 01 01 	mov    $0x1015000,%rax
ffffffff8100978c:	48 89 05 c5 a9 00 00 	mov    %rax,0xa9c5(%rip)        # ffffffff81014158 <physmm_root+0x58>
ffffffff81009793:	48 c7 c0 00 00 00 80 	mov    $0xffffffff80000000,%rax
ffffffff8100979a:	48 89 05 c7 a9 00 00 	mov    %rax,0xa9c7(%rip)        # ffffffff81014168 <physmm_root+0x68>
ffffffff810097a1:	48 c7 c0 00 50 01 81 	mov    $0xffffffff81015000,%rax
ffffffff810097a8:	48 89 05 c1 a9 00 00 	mov    %rax,0xa9c1(%rip)        # ffffffff81014170 <physmm_root+0x70>
ffffffff810097af:	48 8b 15 a2 a9 00 00 	mov    0xa9a2(%rip),%rdx        # ffffffff81014158 <physmm_root+0x58>
ffffffff810097b6:	48 8b 05 93 a9 00 00 	mov    0xa993(%rip),%rax        # ffffffff81014150 <physmm_root+0x50>
ffffffff810097bd:	48 29 c2             	sub    %rax,%rdx
ffffffff810097c0:	48 89 d0             	mov    %rdx,%rax
ffffffff810097c3:	48 89 05 96 a9 00 00 	mov    %rax,0xa996(%rip)        # ffffffff81014160 <physmm_root+0x60>
ffffffff810097ca:	be 00 00 00 00       	mov    $0x0,%esi
ffffffff810097cf:	48 c7 c7 4b 91 00 81 	mov    $0xffffffff8100914b,%rdi
ffffffff810097d6:	e8 d3 12 00 00       	callq  ffffffff8100aaae <mem_map_iter>
ffffffff810097db:	48 8b 05 4e a9 00 00 	mov    0xa94e(%rip),%rax        # ffffffff81014130 <physmm_root+0x30>
ffffffff810097e2:	48 05 ff 0f 00 00    	add    $0xfff,%rax
ffffffff810097e8:	48 25 00 f0 ff ff    	and    $0xfffffffffffff000,%rax
ffffffff810097ee:	48 89 05 53 a9 00 00 	mov    %rax,0xa953(%rip)        # ffffffff81014148 <physmm_root+0x48>
ffffffff810097f5:	48 8b 05 3c a9 00 00 	mov    0xa93c(%rip),%rax        # ffffffff81014138 <physmm_root+0x38>
ffffffff810097fc:	48 05 ff 0f 00 00    	add    $0xfff,%rax
ffffffff81009802:	48 25 00 f0 ff ff    	and    $0xfffffffffffff000,%rax
ffffffff81009808:	48 89 05 31 a9 00 00 	mov    %rax,0xa931(%rip)        # ffffffff81014140 <physmm_root+0x40>
ffffffff8100980f:	48 8b 05 6a a9 00 00 	mov    0xa96a(%rip),%rax        # ffffffff81014180 <physmm_root+0x80>
ffffffff81009816:	48 c1 e8 0f          	shr    $0xf,%rax
ffffffff8100981a:	48 89 45 f8          	mov    %rax,-0x8(%rbp)
ffffffff8100981e:	48 8b 15 1b a9 00 00 	mov    0xa91b(%rip),%rdx        # ffffffff81014140 <physmm_root+0x40>
ffffffff81009825:	48 8b 05 1c a9 00 00 	mov    0xa91c(%rip),%rax        # ffffffff81014148 <physmm_root+0x48>
ffffffff8100982c:	48 01 c2             	add    %rax,%rdx
ffffffff8100982f:	48 8b 45 f8          	mov    -0x8(%rbp),%rax
ffffffff81009833:	48 05 ff 0f 00 00    	add    $0xfff,%rax
ffffffff81009839:	48 25 00 f0 ff ff    	and    $0xfffffffffffff000,%rax
ffffffff8100983f:	48 01 d0             	add    %rdx,%rax
ffffffff81009842:	48 89 45 f0          	mov    %rax,-0x10(%rbp)
ffffffff81009846:	48 8b 15 0b a9 00 00 	mov    0xa90b(%rip),%rdx        # ffffffff81014158 <physmm_root+0x58>
ffffffff8100984d:	48 8b 45 f0          	mov    -0x10(%rbp),%rax
ffffffff81009851:	48 8d 0c 02          	lea    (%rdx,%rax,1),%rcx
ffffffff81009855:	48 8b 15 1c a9 00 00 	mov    0xa91c(%rip),%rdx        # ffffffff81014178 <physmm_root+0x78>
ffffffff8100985c:	48 8b 05 1d a9 00 00 	mov    0xa91d(%rip),%rax        # ffffffff81014180 <physmm_root+0x80>
ffffffff81009863:	48 01 d0             	add    %rdx,%rax
ffffffff81009866:	48 39 c1             	cmp    %rax,%rcx
ffffffff81009869:	72 49                	jb     ffffffff810098b4 <physmm_early_init+0x18c>
ffffffff8100986b:	48 8b 05 de a8 00 00 	mov    0xa8de(%rip),%rax        # ffffffff81014150 <physmm_root+0x50>
ffffffff81009872:	48 2b 45 f0          	sub    -0x10(%rbp),%rax
ffffffff81009876:	48 25 00 f0 ff ff    	and    $0xfffffffffffff000,%rax
ffffffff8100987c:	48 89 05 8d a8 00 00 	mov    %rax,0xa88d(%rip)        # ffffffff81014110 <physmm_root+0x10>
ffffffff81009883:	48 8b 05 86 a8 00 00 	mov    0xa886(%rip),%rax        # ffffffff81014110 <physmm_root+0x10>
ffffffff8100988a:	48 3d ff ff ff 00    	cmp    $0xffffff,%rax
ffffffff81009890:	77 50                	ja     ffffffff810098e2 <physmm_early_init+0x1ba>
ffffffff81009892:	48 8b 05 77 a8 00 00 	mov    0xa877(%rip),%rax        # ffffffff81014110 <physmm_root+0x10>
ffffffff81009899:	48 3d ff ff ff 00    	cmp    $0xffffff,%rax
ffffffff8100989f:	76 41                	jbe    ffffffff810098e2 <physmm_early_init+0x1ba>
ffffffff810098a1:	48 c7 c7 d8 d1 00 81 	mov    $0xffffffff8100d1d8,%rdi
ffffffff810098a8:	b8 00 00 00 00       	mov    $0x0,%eax
ffffffff810098ad:	e8 64 e7 ff ff       	callq  ffffffff81008016 <kprintf>
ffffffff810098b2:	eb fe                	jmp    ffffffff810098b2 <physmm_early_init+0x18a>
ffffffff810098b4:	48 8b 15 bd a8 00 00 	mov    0xa8bd(%rip),%rdx        # ffffffff81014178 <physmm_root+0x78>
ffffffff810098bb:	48 8b 05 be a8 00 00 	mov    0xa8be(%rip),%rax        # ffffffff81014180 <physmm_root+0x80>
ffffffff810098c2:	48 2b 45 f0          	sub    -0x10(%rbp),%rax
ffffffff810098c6:	48 05 ff 0f 00 00    	add    $0xfff,%rax
ffffffff810098cc:	48 25 00 f0 ff ff    	and    $0xfffffffffffff000,%rax
ffffffff810098d2:	48 01 d0             	add    %rdx,%rax
ffffffff810098d5:	48 25 00 f0 ff ff    	and    $0xfffffffffffff000,%rax
ffffffff810098db:	48 89 05 2e a8 00 00 	mov    %rax,0xa82e(%rip)        # ffffffff81014110 <physmm_root+0x10>
ffffffff810098e2:	48 8b 15 27 a8 00 00 	mov    0xa827(%rip),%rdx        # ffffffff81014110 <physmm_root+0x10>
ffffffff810098e9:	48 8b 05 50 a8 00 00 	mov    0xa850(%rip),%rax        # ffffffff81014140 <physmm_root+0x40>
ffffffff810098f0:	48 01 d0             	add    %rdx,%rax
ffffffff810098f3:	48 89 05 26 a8 00 00 	mov    %rax,0xa826(%rip)        # ffffffff81014120 <physmm_root+0x20>
ffffffff810098fa:	48 8d 45 d8          	lea    -0x28(%rbp),%rax
ffffffff810098fe:	48 89 45 e0          	mov    %rax,-0x20(%rbp)
ffffffff81009902:	48 8d 45 d0          	lea    -0x30(%rbp),%rax
ffffffff81009906:	48 89 45 e8          	mov    %rax,-0x18(%rbp)
ffffffff8100990a:	48 8d 45 e0          	lea    -0x20(%rbp),%rax
ffffffff8100990e:	48 89 c6             	mov    %rax,%rsi
ffffffff81009911:	48 c7 c7 1c 92 00 81 	mov    $0xffffffff8100921c,%rdi
ffffffff81009918:	e8 91 11 00 00       	callq  ffffffff8100aaae <mem_map_iter>
ffffffff8100991d:	48 c7 c7 ff d1 00 81 	mov    $0xffffffff8100d1ff,%rdi
ffffffff81009924:	b8 00 00 00 00       	mov    $0x0,%eax
ffffffff81009929:	e8 e8 e6 ff ff       	callq  ffffffff81008016 <kprintf>
ffffffff8100992e:	48 8b 15 23 a8 00 00 	mov    0xa823(%rip),%rdx        # ffffffff81014158 <physmm_root+0x58>
ffffffff81009935:	48 8b 05 14 a8 00 00 	mov    0xa814(%rip),%rax        # ffffffff81014150 <physmm_root+0x50>
ffffffff8100993c:	48 89 c6             	mov    %rax,%rsi
ffffffff8100993f:	48 c7 c7 1a d2 00 81 	mov    $0xffffffff8100d21a,%rdi
ffffffff81009946:	b8 00 00 00 00       	mov    $0x0,%eax
ffffffff8100994b:	e8 c6 e6 ff ff       	callq  ffffffff81008016 <kprintf>
ffffffff81009950:	48 8b 15 e9 a7 00 00 	mov    0xa7e9(%rip),%rdx        # ffffffff81014140 <physmm_root+0x40>
ffffffff81009957:	48 8b 05 b2 a7 00 00 	mov    0xa7b2(%rip),%rax        # ffffffff81014110 <physmm_root+0x10>
ffffffff8100995e:	48 89 c6             	mov    %rax,%rsi
ffffffff81009961:	48 c7 c7 36 d2 00 81 	mov    $0xffffffff8100d236,%rdi
ffffffff81009968:	b8 00 00 00 00       	mov    $0x0,%eax
ffffffff8100996d:	e8 a4 e6 ff ff       	callq  ffffffff81008016 <kprintf>
ffffffff81009972:	48 8b 15 cf a7 00 00 	mov    0xa7cf(%rip),%rdx        # ffffffff81014148 <physmm_root+0x48>
ffffffff81009979:	48 8b 05 a0 a7 00 00 	mov    0xa7a0(%rip),%rax        # ffffffff81014120 <physmm_root+0x20>
ffffffff81009980:	48 89 c6             	mov    %rax,%rsi
ffffffff81009983:	48 c7 c7 52 d2 00 81 	mov    $0xffffffff8100d252,%rdi
ffffffff8100998a:	b8 00 00 00 00       	mov    $0x0,%eax
ffffffff8100998f:	e8 82 e6 ff ff       	callq  ffffffff81008016 <kprintf>
ffffffff81009994:	48 8b 45 f0          	mov    -0x10(%rbp),%rax
ffffffff81009998:	48 89 c6             	mov    %rax,%rsi
ffffffff8100999b:	48 c7 c7 6c d2 00 81 	mov    $0xffffffff8100d26c,%rdi
ffffffff810099a2:	b8 00 00 00 00       	mov    $0x0,%eax
ffffffff810099a7:	e8 6a e6 ff ff       	callq  ffffffff81008016 <kprintf>
ffffffff810099ac:	ba 10 00 00 00       	mov    $0x10,%edx
ffffffff810099b1:	be 00 00 00 00       	mov    $0x0,%esi
ffffffff810099b6:	48 c7 c7 90 41 01 81 	mov    $0xffffffff81014190,%rdi
ffffffff810099bd:	e8 c5 11 00 00       	callq  ffffffff8100ab87 <memset>
ffffffff810099c2:	48 c7 05 c3 a7 00 00 	movq   $0xffffffff810099d0,0xa7c3(%rip)        # ffffffff81014190 <physmm_if>
ffffffff810099c9:	d0 99 00 81 
ffffffff810099cd:	90                   	nop
ffffffff810099ce:	c9                   	leaveq 
ffffffff810099cf:	c3                   	retq   

ffffffff810099d0 <physmm_boot_alloc_pf>:
ffffffff810099d0:	55                   	push   %rbp
ffffffff810099d1:	48 89 e5             	mov    %rsp,%rbp
ffffffff810099d4:	48 81 ec b0 00 00 00 	sub    $0xb0,%rsp
ffffffff810099db:	48 89 bd 68 ff ff ff 	mov    %rdi,-0x98(%rbp)
ffffffff810099e2:	89 f0                	mov    %esi,%eax
ffffffff810099e4:	48 89 95 58 ff ff ff 	mov    %rdx,-0xa8(%rbp)
ffffffff810099eb:	48 89 8d 50 ff ff ff 	mov    %rcx,-0xb0(%rbp)
ffffffff810099f2:	88 85 64 ff ff ff    	mov    %al,-0x9c(%rbp)
ffffffff810099f8:	48 c7 45 f8 00 00 00 	movq   $0x0,-0x8(%rbp)
ffffffff810099ff:	00 
ffffffff81009a00:	48 c7 45 f0 00 00 00 	movq   $0x0,-0x10(%rbp)
ffffffff81009a07:	00 
ffffffff81009a08:	48 c7 45 e8 00 00 00 	movq   $0x0,-0x18(%rbp)
ffffffff81009a0f:	00 
ffffffff81009a10:	48 c7 45 d0 00 00 00 	movq   $0x0,-0x30(%rbp)
ffffffff81009a17:	00 
ffffffff81009a18:	48 c7 45 e0 00 00 00 	movq   $0x0,-0x20(%rbp)
ffffffff81009a1f:	00 
ffffffff81009a20:	48 c7 45 c8 00 00 00 	movq   $0x0,-0x38(%rbp)
ffffffff81009a27:	00 
ffffffff81009a28:	c7 45 dc 00 00 00 00 	movl   $0x0,-0x24(%rbp)
ffffffff81009a2f:	c7 45 d8 00 00 00 00 	movl   $0x0,-0x28(%rbp)
ffffffff81009a36:	e9 10 02 00 00       	jmpq   ffffffff81009c4b <physmm_boot_alloc_pf+0x27b>
ffffffff81009a3b:	48 8b 15 ce a6 00 00 	mov    0xa6ce(%rip),%rdx        # ffffffff81014110 <physmm_root+0x10>
ffffffff81009a42:	48 8b 45 f8          	mov    -0x8(%rbp),%rax
ffffffff81009a46:	48 01 d0             	add    %rdx,%rax
ffffffff81009a49:	48 89 c7             	mov    %rax,%rdi
ffffffff81009a4c:	e8 4a 12 00 00       	callq  ffffffff8100ac9b <pagemgr_boot_temp_map>
ffffffff81009a51:	48 8b 10             	mov    (%rax),%rdx
ffffffff81009a54:	48 89 55 a0          	mov    %rdx,-0x60(%rbp)
ffffffff81009a58:	48 8b 50 08          	mov    0x8(%rax),%rdx
ffffffff81009a5c:	48 89 55 a8          	mov    %rdx,-0x58(%rbp)
ffffffff81009a60:	48 8b 50 10          	mov    0x10(%rax),%rdx
ffffffff81009a64:	48 89 55 b0          	mov    %rdx,-0x50(%rbp)
ffffffff81009a68:	48 8b 50 18          	mov    0x18(%rax),%rdx
ffffffff81009a6c:	48 89 55 b8          	mov    %rdx,-0x48(%rbp)
ffffffff81009a70:	48 8b 40 20          	mov    0x20(%rax),%rax
ffffffff81009a74:	48 89 45 c0          	mov    %rax,-0x40(%rbp)
ffffffff81009a78:	0f b6 45 a0          	movzbl -0x60(%rbp),%eax
ffffffff81009a7c:	3c 01                	cmp    $0x1,%al
ffffffff81009a7e:	75 13                	jne    ffffffff81009a93 <physmm_boot_alloc_pf+0xc3>
ffffffff81009a80:	48 8b 55 a8          	mov    -0x58(%rbp),%rdx
ffffffff81009a84:	48 8b 45 b0          	mov    -0x50(%rbp),%rax
ffffffff81009a88:	48 01 d0             	add    %rdx,%rax
ffffffff81009a8b:	48 3d 00 00 10 00    	cmp    $0x100000,%rax
ffffffff81009a91:	77 0a                	ja     ffffffff81009a9d <physmm_boot_alloc_pf+0xcd>
ffffffff81009a93:	48 83 45 f8 28       	addq   $0x28,-0x8(%rbp)
ffffffff81009a98:	e9 ae 01 00 00       	jmpq   ffffffff81009c4b <physmm_boot_alloc_pf+0x27b>
ffffffff81009a9d:	48 8b 45 a8          	mov    -0x58(%rbp),%rax
ffffffff81009aa1:	48 3d 00 00 10 00    	cmp    $0x100000,%rax
ffffffff81009aa7:	77 1d                	ja     ffffffff81009ac6 <physmm_boot_alloc_pf+0xf6>
ffffffff81009aa9:	48 8b 55 a8          	mov    -0x58(%rbp),%rdx
ffffffff81009aad:	48 8b 45 b0          	mov    -0x50(%rbp),%rax
ffffffff81009ab1:	48 01 d0             	add    %rdx,%rax
ffffffff81009ab4:	48 3d 00 00 00 01    	cmp    $0x1000000,%rax
ffffffff81009aba:	76 0a                	jbe    ffffffff81009ac6 <physmm_boot_alloc_pf+0xf6>
ffffffff81009abc:	48 c7 45 f0 00 10 00 	movq   $0x1000,-0x10(%rbp)
ffffffff81009ac3:	00 
ffffffff81009ac4:	eb 08                	jmp    ffffffff81009ace <physmm_boot_alloc_pf+0xfe>
ffffffff81009ac6:	48 c7 45 f0 00 00 00 	movq   $0x0,-0x10(%rbp)
ffffffff81009acd:	00 
ffffffff81009ace:	48 8b 45 b8          	mov    -0x48(%rbp),%rax
ffffffff81009ad2:	48 89 c7             	mov    %rax,%rdi
ffffffff81009ad5:	e8 c1 11 00 00       	callq  ffffffff8100ac9b <pagemgr_boot_temp_map>
ffffffff81009ada:	48 8b 10             	mov    (%rax),%rdx
ffffffff81009add:	48 89 95 70 ff ff ff 	mov    %rdx,-0x90(%rbp)
ffffffff81009ae4:	48 8b 50 08          	mov    0x8(%rax),%rdx
ffffffff81009ae8:	48 89 95 78 ff ff ff 	mov    %rdx,-0x88(%rbp)
ffffffff81009aef:	48 8b 50 10          	mov    0x10(%rax),%rdx
ffffffff81009af3:	48 89 55 80          	mov    %rdx,-0x80(%rbp)
ffffffff81009af7:	48 8b 50 18          	mov    0x18(%rax),%rdx
ffffffff81009afb:	48 89 55 88          	mov    %rdx,-0x78(%rbp)
ffffffff81009aff:	48 8b 50 20          	mov    0x20(%rax),%rdx
ffffffff81009b03:	48 89 55 90          	mov    %rdx,-0x70(%rbp)
ffffffff81009b07:	48 8b 40 28          	mov    0x28(%rax),%rax
ffffffff81009b0b:	48 89 45 98          	mov    %rax,-0x68(%rbp)
ffffffff81009b0f:	48 8b 85 70 ff ff ff 	mov    -0x90(%rbp),%rax
ffffffff81009b16:	48 39 45 f0          	cmp    %rax,-0x10(%rbp)
ffffffff81009b1a:	73 0c                	jae    ffffffff81009b28 <physmm_boot_alloc_pf+0x158>
ffffffff81009b1c:	48 8b 85 78 ff ff ff 	mov    -0x88(%rbp),%rax
ffffffff81009b23:	48 85 c0             	test   %rax,%rax
ffffffff81009b26:	75 0a                	jne    ffffffff81009b32 <physmm_boot_alloc_pf+0x162>
ffffffff81009b28:	48 83 45 f8 28       	addq   $0x28,-0x8(%rbp)
ffffffff81009b2d:	e9 19 01 00 00       	jmpq   ffffffff81009c4b <physmm_boot_alloc_pf+0x27b>
ffffffff81009b32:	48 8b 45 80          	mov    -0x80(%rbp),%rax
ffffffff81009b36:	48 8b 55 f0          	mov    -0x10(%rbp),%rdx
ffffffff81009b3a:	48 c1 ea 06          	shr    $0x6,%rdx
ffffffff81009b3e:	48 c1 e2 03          	shl    $0x3,%rdx
ffffffff81009b42:	48 01 d0             	add    %rdx,%rax
ffffffff81009b45:	48 89 c7             	mov    %rax,%rdi
ffffffff81009b48:	e8 4e 11 00 00       	callq  ffffffff8100ac9b <pagemgr_boot_temp_map>
ffffffff81009b4d:	48 89 45 e8          	mov    %rax,-0x18(%rbp)
ffffffff81009b51:	e9 d1 00 00 00       	jmpq   ffffffff81009c27 <physmm_boot_alloc_pf+0x257>
ffffffff81009b56:	48 8b 45 f0          	mov    -0x10(%rbp),%rax
ffffffff81009b5a:	83 e0 3f             	and    $0x3f,%eax
ffffffff81009b5d:	48 85 c0             	test   %rax,%rax
ffffffff81009b60:	75 1f                	jne    ffffffff81009b81 <physmm_boot_alloc_pf+0x1b1>
ffffffff81009b62:	48 8b 45 80          	mov    -0x80(%rbp),%rax
ffffffff81009b66:	48 8b 55 f0          	mov    -0x10(%rbp),%rdx
ffffffff81009b6a:	48 c1 ea 06          	shr    $0x6,%rdx
ffffffff81009b6e:	48 c1 e2 03          	shl    $0x3,%rdx
ffffffff81009b72:	48 01 d0             	add    %rdx,%rax
ffffffff81009b75:	48 89 c7             	mov    %rax,%rdi
ffffffff81009b78:	e8 1e 11 00 00       	callq  ffffffff8100ac9b <pagemgr_boot_temp_map>
ffffffff81009b7d:	48 89 45 e8          	mov    %rax,-0x18(%rbp)
ffffffff81009b81:	48 8b 45 e8          	mov    -0x18(%rbp),%rax
ffffffff81009b85:	48 8b 00             	mov    (%rax),%rax
ffffffff81009b88:	48 f7 d0             	not    %rax
ffffffff81009b8b:	48 89 c2             	mov    %rax,%rdx
ffffffff81009b8e:	48 8b 45 f0          	mov    -0x10(%rbp),%rax
ffffffff81009b92:	83 e0 3f             	and    $0x3f,%eax
ffffffff81009b95:	be 01 00 00 00       	mov    $0x1,%esi
ffffffff81009b9a:	89 c1                	mov    %eax,%ecx
ffffffff81009b9c:	d3 e6                	shl    %cl,%esi
ffffffff81009b9e:	89 f0                	mov    %esi,%eax
ffffffff81009ba0:	48 98                	cltq   
ffffffff81009ba2:	48 21 d0             	and    %rdx,%rax
ffffffff81009ba5:	48 85 c0             	test   %rax,%rax
ffffffff81009ba8:	74 78                	je     ffffffff81009c22 <physmm_boot_alloc_pf+0x252>
ffffffff81009baa:	48 8b 45 a8          	mov    -0x58(%rbp),%rax
ffffffff81009bae:	48 8b 55 f0          	mov    -0x10(%rbp),%rdx
ffffffff81009bb2:	48 c1 e2 0c          	shl    $0xc,%rdx
ffffffff81009bb6:	48 01 d0             	add    %rdx,%rax
ffffffff81009bb9:	48 89 45 d0          	mov    %rax,-0x30(%rbp)
ffffffff81009bbd:	48 8b 95 50 ff ff ff 	mov    -0xb0(%rbp),%rdx
ffffffff81009bc4:	48 8b 45 d0          	mov    -0x30(%rbp),%rax
ffffffff81009bc8:	48 8b 8d 58 ff ff ff 	mov    -0xa8(%rbp),%rcx
ffffffff81009bcf:	be 01 00 00 00       	mov    $0x1,%esi
ffffffff81009bd4:	48 89 c7             	mov    %rax,%rdi
ffffffff81009bd7:	ff d1                	callq  *%rcx
ffffffff81009bd9:	84 c0                	test   %al,%al
ffffffff81009bdb:	75 09                	jne    ffffffff81009be6 <physmm_boot_alloc_pf+0x216>
ffffffff81009bdd:	c7 45 d8 01 00 00 00 	movl   $0x1,-0x28(%rbp)
ffffffff81009be4:	eb 52                	jmp    ffffffff81009c38 <physmm_boot_alloc_pf+0x268>
ffffffff81009be6:	48 8b 45 e8          	mov    -0x18(%rbp),%rax
ffffffff81009bea:	48 8b 10             	mov    (%rax),%rdx
ffffffff81009bed:	48 8b 45 f0          	mov    -0x10(%rbp),%rax
ffffffff81009bf1:	83 e0 3f             	and    $0x3f,%eax
ffffffff81009bf4:	be 01 00 00 00       	mov    $0x1,%esi
ffffffff81009bf9:	89 c1                	mov    %eax,%ecx
ffffffff81009bfb:	d3 e6                	shl    %cl,%esi
ffffffff81009bfd:	89 f0                	mov    %esi,%eax
ffffffff81009bff:	48 98                	cltq   
ffffffff81009c01:	48 09 c2             	or     %rax,%rdx
ffffffff81009c04:	48 8b 45 e8          	mov    -0x18(%rbp),%rax
ffffffff81009c08:	48 89 10             	mov    %rdx,(%rax)
ffffffff81009c0b:	48 8b 85 78 ff ff ff 	mov    -0x88(%rbp),%rax
ffffffff81009c12:	48 83 e8 01          	sub    $0x1,%rax
ffffffff81009c16:	48 89 85 78 ff ff ff 	mov    %rax,-0x88(%rbp)
ffffffff81009c1d:	48 83 45 e0 01       	addq   $0x1,-0x20(%rbp)
ffffffff81009c22:	48 83 45 f0 01       	addq   $0x1,-0x10(%rbp)
ffffffff81009c27:	48 8b 85 70 ff ff ff 	mov    -0x90(%rbp),%rax
ffffffff81009c2e:	48 39 45 f0          	cmp    %rax,-0x10(%rbp)
ffffffff81009c32:	0f 82 1e ff ff ff    	jb     ffffffff81009b56 <physmm_boot_alloc_pf+0x186>
ffffffff81009c38:	48 8b 45 e0          	mov    -0x20(%rbp),%rax
ffffffff81009c3c:	48 3b 85 68 ff ff ff 	cmp    -0x98(%rbp),%rax
ffffffff81009c43:	73 17                	jae    ffffffff81009c5c <physmm_boot_alloc_pf+0x28c>
ffffffff81009c45:	83 7d d8 00          	cmpl   $0x0,-0x28(%rbp)
ffffffff81009c49:	75 11                	jne    ffffffff81009c5c <physmm_boot_alloc_pf+0x28c>
ffffffff81009c4b:	48 8b 05 e6 a4 00 00 	mov    0xa4e6(%rip),%rax        # ffffffff81014138 <physmm_root+0x38>
ffffffff81009c52:	48 39 45 f8          	cmp    %rax,-0x8(%rbp)
ffffffff81009c56:	0f 82 df fd ff ff    	jb     ffffffff81009a3b <physmm_boot_alloc_pf+0x6b>
ffffffff81009c5c:	48 8b 45 b8          	mov    -0x48(%rbp),%rax
ffffffff81009c60:	48 89 c7             	mov    %rax,%rdi
ffffffff81009c63:	e8 33 10 00 00       	callq  ffffffff8100ac9b <pagemgr_boot_temp_map>
ffffffff81009c68:	48 89 45 c8          	mov    %rax,-0x38(%rbp)
ffffffff81009c6c:	48 8d 8d 70 ff ff ff 	lea    -0x90(%rbp),%rcx
ffffffff81009c73:	48 8b 45 c8          	mov    -0x38(%rbp),%rax
ffffffff81009c77:	ba 30 00 00 00       	mov    $0x30,%edx
ffffffff81009c7c:	48 89 ce             	mov    %rcx,%rsi
ffffffff81009c7f:	48 89 c7             	mov    %rax,%rdi
ffffffff81009c82:	e8 42 0f 00 00       	callq  ffffffff8100abc9 <memcpy>
ffffffff81009c87:	48 8b 45 e0          	mov    -0x20(%rbp),%rax
ffffffff81009c8b:	48 3b 85 68 ff ff ff 	cmp    -0x98(%rbp),%rax
ffffffff81009c92:	73 07                	jae    ffffffff81009c9b <physmm_boot_alloc_pf+0x2cb>
ffffffff81009c94:	c7 45 dc ff ff ff ff 	movl   $0xffffffff,-0x24(%rbp)
ffffffff81009c9b:	8b 45 dc             	mov    -0x24(%rbp),%eax
ffffffff81009c9e:	c9                   	leaveq 
ffffffff81009c9f:	c3                   	retq   

ffffffff81009ca0 <physmm_init>:
ffffffff81009ca0:	55                   	push   %rbp
ffffffff81009ca1:	48 89 e5             	mov    %rsp,%rbp
ffffffff81009ca4:	48 83 ec 40          	sub    $0x40,%rsp
ffffffff81009ca8:	48 c7 45 e8 00 00 00 	movq   $0x0,-0x18(%rbp)
ffffffff81009caf:	00 
ffffffff81009cb0:	48 c7 45 e0 00 00 00 	movq   $0x0,-0x20(%rbp)
ffffffff81009cb7:	00 
ffffffff81009cb8:	48 c7 45 d8 00 00 00 	movq   $0x0,-0x28(%rbp)
ffffffff81009cbf:	00 
ffffffff81009cc0:	48 c7 45 f8 00 00 00 	movq   $0x0,-0x8(%rbp)
ffffffff81009cc7:	00 
ffffffff81009cc8:	48 c7 45 d0 00 00 00 	movq   $0x0,-0x30(%rbp)
ffffffff81009ccf:	00 
ffffffff81009cd0:	48 c7 45 c8 00 00 00 	movq   $0x0,-0x38(%rbp)
ffffffff81009cd7:	00 
ffffffff81009cd8:	48 c7 45 c0 00 00 00 	movq   $0x0,-0x40(%rbp)
ffffffff81009cdf:	00 
ffffffff81009ce0:	48 8b 15 59 a4 00 00 	mov    0xa459(%rip),%rdx        # ffffffff81014140 <physmm_root+0x40>
ffffffff81009ce7:	48 8b 05 22 a4 00 00 	mov    0xa422(%rip),%rax        # ffffffff81014110 <physmm_root+0x10>
ffffffff81009cee:	b9 01 00 00 00       	mov    $0x1,%ecx
ffffffff81009cf3:	be 00 00 00 00       	mov    $0x0,%esi
ffffffff81009cf8:	48 89 c7             	mov    %rax,%rdi
ffffffff81009cfb:	e8 d7 ee ff ff       	callq  ffffffff81008bd7 <vmmgr_map>
ffffffff81009d00:	48 89 05 11 a4 00 00 	mov    %rax,0xa411(%rip)        # ffffffff81014118 <physmm_root+0x18>
ffffffff81009d07:	48 8b 15 3a a4 00 00 	mov    0xa43a(%rip),%rdx        # ffffffff81014148 <physmm_root+0x48>
ffffffff81009d0e:	48 8b 05 0b a4 00 00 	mov    0xa40b(%rip),%rax        # ffffffff81014120 <physmm_root+0x20>
ffffffff81009d15:	b9 01 00 00 00       	mov    $0x1,%ecx
ffffffff81009d1a:	be 00 00 00 00       	mov    $0x0,%esi
ffffffff81009d1f:	48 89 c7             	mov    %rax,%rdi
ffffffff81009d22:	e8 b0 ee ff ff       	callq  ffffffff81008bd7 <vmmgr_map>
ffffffff81009d27:	48 89 05 fa a3 00 00 	mov    %rax,0xa3fa(%rip)        # ffffffff81014128 <physmm_root+0x28>
ffffffff81009d2e:	48 8b 05 f3 a3 00 00 	mov    0xa3f3(%rip),%rax        # ffffffff81014128 <physmm_root+0x28>
ffffffff81009d35:	48 85 c0             	test   %rax,%rax
ffffffff81009d38:	74 10                	je     ffffffff81009d4a <physmm_init+0xaa>
ffffffff81009d3a:	48 8b 05 d7 a3 00 00 	mov    0xa3d7(%rip),%rax        # ffffffff81014118 <physmm_root+0x18>
ffffffff81009d41:	48 85 c0             	test   %rax,%rax
ffffffff81009d44:	0f 85 11 02 00 00    	jne    ffffffff81009f5b <physmm_init+0x2bb>
ffffffff81009d4a:	b8 ff ff ff ff       	mov    $0xffffffff,%eax
ffffffff81009d4f:	e9 55 02 00 00       	jmpq   ffffffff81009fa9 <physmm_init+0x309>
ffffffff81009d54:	48 8b 15 bd a3 00 00 	mov    0xa3bd(%rip),%rdx        # ffffffff81014118 <physmm_root+0x18>
ffffffff81009d5b:	48 8b 45 f8          	mov    -0x8(%rbp),%rax
ffffffff81009d5f:	48 01 d0             	add    %rdx,%rax
ffffffff81009d62:	48 89 45 e8          	mov    %rax,-0x18(%rbp)
ffffffff81009d66:	48 8b 45 e8          	mov    -0x18(%rbp),%rax
ffffffff81009d6a:	0f b6 00             	movzbl (%rax),%eax
ffffffff81009d6d:	0f b6 f0             	movzbl %al,%esi
ffffffff81009d70:	48 8b 45 e8          	mov    -0x18(%rbp),%rax
ffffffff81009d74:	48 8b 48 10          	mov    0x10(%rax),%rcx
ffffffff81009d78:	48 8b 45 e8          	mov    -0x18(%rbp),%rax
ffffffff81009d7c:	48 8b 50 08          	mov    0x8(%rax),%rdx
ffffffff81009d80:	48 8b 45 e8          	mov    -0x18(%rbp),%rax
ffffffff81009d84:	41 89 f0             	mov    %esi,%r8d
ffffffff81009d87:	48 89 c6             	mov    %rax,%rsi
ffffffff81009d8a:	48 c7 c7 88 d2 00 81 	mov    $0xffffffff8100d288,%rdi
ffffffff81009d91:	b8 00 00 00 00       	mov    $0x0,%eax
ffffffff81009d96:	e8 7b e2 ff ff       	callq  ffffffff81008016 <kprintf>
ffffffff81009d9b:	48 8b 45 e8          	mov    -0x18(%rbp),%rax
ffffffff81009d9f:	0f b6 00             	movzbl (%rax),%eax
ffffffff81009da2:	3c 01                	cmp    $0x1,%al
ffffffff81009da4:	0f 85 ac 01 00 00    	jne    ffffffff81009f56 <physmm_init+0x2b6>
ffffffff81009daa:	48 8b 15 77 a3 00 00 	mov    0xa377(%rip),%rdx        # ffffffff81014128 <physmm_root+0x28>
ffffffff81009db1:	48 8b 45 e8          	mov    -0x18(%rbp),%rax
ffffffff81009db5:	48 8b 40 18          	mov    0x18(%rax),%rax
ffffffff81009db9:	48 01 c2             	add    %rax,%rdx
ffffffff81009dbc:	48 8b 05 5d a3 00 00 	mov    0xa35d(%rip),%rax        # ffffffff81014120 <physmm_root+0x20>
ffffffff81009dc3:	48 29 c2             	sub    %rax,%rdx
ffffffff81009dc6:	48 89 d0             	mov    %rdx,%rax
ffffffff81009dc9:	48 89 c2             	mov    %rax,%rdx
ffffffff81009dcc:	48 8b 45 e8          	mov    -0x18(%rbp),%rax
ffffffff81009dd0:	48 89 50 20          	mov    %rdx,0x20(%rax)
ffffffff81009dd4:	48 8b 45 e8          	mov    -0x18(%rbp),%rax
ffffffff81009dd8:	48 8b 40 20          	mov    0x20(%rax),%rax
ffffffff81009ddc:	48 89 45 e0          	mov    %rax,-0x20(%rbp)
ffffffff81009de0:	48 8b 45 e0          	mov    -0x20(%rbp),%rax
ffffffff81009de4:	48 8b 50 28          	mov    0x28(%rax),%rdx
ffffffff81009de8:	48 8b 45 e0          	mov    -0x20(%rbp),%rax
ffffffff81009dec:	48 8b 40 10          	mov    0x10(%rax),%rax
ffffffff81009df0:	b9 01 00 00 00       	mov    $0x1,%ecx
ffffffff81009df5:	be 00 00 00 00       	mov    $0x0,%esi
ffffffff81009dfa:	48 89 c7             	mov    %rax,%rdi
ffffffff81009dfd:	e8 d5 ed ff ff       	callq  ffffffff81008bd7 <vmmgr_map>
ffffffff81009e02:	48 89 c2             	mov    %rax,%rdx
ffffffff81009e05:	48 8b 45 e0          	mov    -0x20(%rbp),%rax
ffffffff81009e09:	48 89 50 18          	mov    %rdx,0x18(%rax)
ffffffff81009e0d:	48 8b 45 e0          	mov    -0x20(%rbp),%rax
ffffffff81009e11:	48 8b 40 18          	mov    0x18(%rax),%rax
ffffffff81009e15:	48 85 c0             	test   %rax,%rax
ffffffff81009e18:	75 0a                	jne    ffffffff81009e24 <physmm_init+0x184>
ffffffff81009e1a:	b8 ff ff ff ff       	mov    $0xffffffff,%eax
ffffffff81009e1f:	e9 85 01 00 00       	jmpq   ffffffff81009fa9 <physmm_init+0x309>
ffffffff81009e24:	48 8b 45 e0          	mov    -0x20(%rbp),%rax
ffffffff81009e28:	48 8b 40 18          	mov    0x18(%rax),%rax
ffffffff81009e2c:	48 89 45 d8          	mov    %rax,-0x28(%rbp)
ffffffff81009e30:	48 8b 45 e8          	mov    -0x18(%rbp),%rax
ffffffff81009e34:	48 8b 50 08          	mov    0x8(%rax),%rdx
ffffffff81009e38:	48 8b 05 c1 41 00 00 	mov    0x41c1(%rip),%rax        # ffffffff8100e000 <_rodata_end>
ffffffff81009e3f:	48 39 c2             	cmp    %rax,%rdx
ffffffff81009e42:	0f 87 ea 00 00 00    	ja     ffffffff81009f32 <physmm_init+0x292>
ffffffff81009e48:	48 8b 45 e8          	mov    -0x18(%rbp),%rax
ffffffff81009e4c:	48 8b 50 08          	mov    0x8(%rax),%rdx
ffffffff81009e50:	48 8b 45 e8          	mov    -0x18(%rbp),%rax
ffffffff81009e54:	48 8b 40 10          	mov    0x10(%rax),%rax
ffffffff81009e58:	48 01 c2             	add    %rax,%rdx
ffffffff81009e5b:	48 8b 05 ae 41 00 00 	mov    0x41ae(%rip),%rax        # ffffffff8100e010 <boot_paging_end>
ffffffff81009e62:	48 39 c2             	cmp    %rax,%rdx
ffffffff81009e65:	0f 82 c7 00 00 00    	jb     ffffffff81009f32 <physmm_init+0x292>
ffffffff81009e6b:	48 8b 05 8e 41 00 00 	mov    0x418e(%rip),%rax        # ffffffff8100e000 <_rodata_end>
ffffffff81009e72:	48 89 45 f0          	mov    %rax,-0x10(%rbp)
ffffffff81009e76:	e9 a6 00 00 00       	jmpq   ffffffff81009f21 <physmm_init+0x281>
ffffffff81009e7b:	48 8b 45 e8          	mov    -0x18(%rbp),%rax
ffffffff81009e7f:	48 8b 40 08          	mov    0x8(%rax),%rax
ffffffff81009e83:	48 8b 55 f0          	mov    -0x10(%rbp),%rdx
ffffffff81009e87:	48 29 c2             	sub    %rax,%rdx
ffffffff81009e8a:	48 89 d0             	mov    %rdx,%rax
ffffffff81009e8d:	48 c1 e8 0c          	shr    $0xc,%rax
ffffffff81009e91:	48 89 45 c8          	mov    %rax,-0x38(%rbp)
ffffffff81009e95:	48 8b 45 c8          	mov    -0x38(%rbp),%rax
ffffffff81009e99:	48 c1 e8 06          	shr    $0x6,%rax
ffffffff81009e9d:	48 89 45 c0          	mov    %rax,-0x40(%rbp)
ffffffff81009ea1:	48 8b 45 c0          	mov    -0x40(%rbp),%rax
ffffffff81009ea5:	48 8d 14 c5 00 00 00 	lea    0x0(,%rax,8),%rdx
ffffffff81009eac:	00 
ffffffff81009ead:	48 8b 45 d8          	mov    -0x28(%rbp),%rax
ffffffff81009eb1:	48 01 d0             	add    %rdx,%rax
ffffffff81009eb4:	48 8b 10             	mov    (%rax),%rdx
ffffffff81009eb7:	48 8b 45 c8          	mov    -0x38(%rbp),%rax
ffffffff81009ebb:	83 e0 3f             	and    $0x3f,%eax
ffffffff81009ebe:	be 01 00 00 00       	mov    $0x1,%esi
ffffffff81009ec3:	89 c1                	mov    %eax,%ecx
ffffffff81009ec5:	d3 e6                	shl    %cl,%esi
ffffffff81009ec7:	89 f0                	mov    %esi,%eax
ffffffff81009ec9:	48 98                	cltq   
ffffffff81009ecb:	48 21 d0             	and    %rdx,%rax
ffffffff81009ece:	48 85 c0             	test   %rax,%rax
ffffffff81009ed1:	74 46                	je     ffffffff81009f19 <physmm_init+0x279>
ffffffff81009ed3:	48 8b 45 c0          	mov    -0x40(%rbp),%rax
ffffffff81009ed7:	48 8d 14 c5 00 00 00 	lea    0x0(,%rax,8),%rdx
ffffffff81009ede:	00 
ffffffff81009edf:	48 8b 45 d8          	mov    -0x28(%rbp),%rax
ffffffff81009ee3:	48 01 d0             	add    %rdx,%rax
ffffffff81009ee6:	48 8b 30             	mov    (%rax),%rsi
ffffffff81009ee9:	48 8b 45 c8          	mov    -0x38(%rbp),%rax
ffffffff81009eed:	83 e0 3f             	and    $0x3f,%eax
ffffffff81009ef0:	ba 01 00 00 00       	mov    $0x1,%edx
ffffffff81009ef5:	89 c1                	mov    %eax,%ecx
ffffffff81009ef7:	d3 e2                	shl    %cl,%edx
ffffffff81009ef9:	89 d0                	mov    %edx,%eax
ffffffff81009efb:	f7 d0                	not    %eax
ffffffff81009efd:	48 63 d0             	movslq %eax,%rdx
ffffffff81009f00:	48 8b 45 c0          	mov    -0x40(%rbp),%rax
ffffffff81009f04:	48 8d 0c c5 00 00 00 	lea    0x0(,%rax,8),%rcx
ffffffff81009f0b:	00 
ffffffff81009f0c:	48 8b 45 d8          	mov    -0x28(%rbp),%rax
ffffffff81009f10:	48 01 c8             	add    %rcx,%rax
ffffffff81009f13:	48 21 f2             	and    %rsi,%rdx
ffffffff81009f16:	48 89 10             	mov    %rdx,(%rax)
ffffffff81009f19:	48 81 45 f0 00 10 00 	addq   $0x1000,-0x10(%rbp)
ffffffff81009f20:	00 
ffffffff81009f21:	48 8b 05 e8 40 00 00 	mov    0x40e8(%rip),%rax        # ffffffff8100e010 <boot_paging_end>
ffffffff81009f28:	48 39 45 f0          	cmp    %rax,-0x10(%rbp)
ffffffff81009f2c:	0f 82 49 ff ff ff    	jb     ffffffff81009e7b <physmm_init+0x1db>
ffffffff81009f32:	48 8b 45 e0          	mov    -0x20(%rbp),%rax
ffffffff81009f36:	48 8b 50 20          	mov    0x20(%rax),%rdx
ffffffff81009f3a:	48 8b 45 e0          	mov    -0x20(%rbp),%rax
ffffffff81009f3e:	48 8b 40 18          	mov    0x18(%rax),%rax
ffffffff81009f42:	48 89 c6             	mov    %rax,%rsi
ffffffff81009f45:	48 c7 c7 af d2 00 81 	mov    $0xffffffff8100d2af,%rdi
ffffffff81009f4c:	b8 00 00 00 00       	mov    $0x0,%eax
ffffffff81009f51:	e8 c0 e0 ff ff       	callq  ffffffff81008016 <kprintf>
ffffffff81009f56:	48 83 45 f8 28       	addq   $0x28,-0x8(%rbp)
ffffffff81009f5b:	48 8b 05 d6 a1 00 00 	mov    0xa1d6(%rip),%rax        # ffffffff81014138 <physmm_root+0x38>
ffffffff81009f62:	48 39 45 f8          	cmp    %rax,-0x8(%rbp)
ffffffff81009f66:	0f 82 e8 fd ff ff    	jb     ffffffff81009d54 <physmm_init+0xb4>
ffffffff81009f6c:	48 8b 15 9d 40 00 00 	mov    0x409d(%rip),%rdx        # ffffffff8100e010 <boot_paging_end>
ffffffff81009f73:	48 8b 05 86 40 00 00 	mov    0x4086(%rip),%rax        # ffffffff8100e000 <_rodata_end>
ffffffff81009f7a:	48 89 c6             	mov    %rax,%rsi
ffffffff81009f7d:	48 c7 c7 ca d2 00 81 	mov    $0xffffffff8100d2ca,%rdi
ffffffff81009f84:	b8 00 00 00 00       	mov    $0x0,%eax
ffffffff81009f89:	e8 88 e0 ff ff       	callq  ffffffff81008016 <kprintf>
ffffffff81009f8e:	48 c7 05 f7 a1 00 00 	movq   $0xffffffff8100a337,0xa1f7(%rip)        # ffffffff81014190 <physmm_if>
ffffffff81009f95:	37 a3 00 81 
ffffffff81009f99:	48 c7 05 f4 a1 00 00 	movq   $0xffffffff8100a834,0xa1f4(%rip)        # ffffffff81014198 <physmm_if+0x8>
ffffffff81009fa0:	34 a8 00 81 
ffffffff81009fa4:	b8 00 00 00 00       	mov    $0x0,%eax
ffffffff81009fa9:	c9                   	leaveq 
ffffffff81009faa:	c3                   	retq   

ffffffff81009fab <physmm_has_contig>:
ffffffff81009fab:	55                   	push   %rbp
ffffffff81009fac:	48 89 e5             	mov    %rsp,%rbp
ffffffff81009faf:	48 83 ec 48          	sub    $0x48,%rsp
ffffffff81009fb3:	48 89 7d c8          	mov    %rdi,-0x38(%rbp)
ffffffff81009fb7:	48 89 75 c0          	mov    %rsi,-0x40(%rbp)
ffffffff81009fbb:	48 89 55 b8          	mov    %rdx,-0x48(%rbp)
ffffffff81009fbf:	48 c7 45 e0 00 00 00 	movq   $0x0,-0x20(%rbp)
ffffffff81009fc6:	00 
ffffffff81009fc7:	48 c7 45 f8 00 00 00 	movq   $0x0,-0x8(%rbp)
ffffffff81009fce:	00 
ffffffff81009fcf:	48 c7 45 f0 00 00 00 	movq   $0x0,-0x10(%rbp)
ffffffff81009fd6:	00 
ffffffff81009fd7:	48 c7 45 e8 00 00 00 	movq   $0x0,-0x18(%rbp)
ffffffff81009fde:	00 
ffffffff81009fdf:	48 c7 45 d8 00 00 00 	movq   $0x0,-0x28(%rbp)
ffffffff81009fe6:	00 
ffffffff81009fe7:	48 c7 45 d0 00 00 00 	movq   $0x0,-0x30(%rbp)
ffffffff81009fee:	00 
ffffffff81009fef:	48 8b 45 c8          	mov    -0x38(%rbp),%rax
ffffffff81009ff3:	0f b6 00             	movzbl (%rax),%eax
ffffffff81009ff6:	3c 01                	cmp    $0x1,%al
ffffffff81009ff8:	74 0a                	je     ffffffff8100a004 <physmm_has_contig+0x59>
ffffffff81009ffa:	b8 ff ff ff ff       	mov    $0xffffffff,%eax
ffffffff81009fff:	e9 40 01 00 00       	jmpq   ffffffff8100a144 <physmm_has_contig+0x199>
ffffffff8100a004:	48 8b 45 c8          	mov    -0x38(%rbp),%rax
ffffffff8100a008:	48 8b 40 20          	mov    0x20(%rax),%rax
ffffffff8100a00c:	48 89 45 d0          	mov    %rax,-0x30(%rbp)
ffffffff8100a010:	48 8b 45 d0          	mov    -0x30(%rbp),%rax
ffffffff8100a014:	48 8b 40 18          	mov    0x18(%rax),%rax
ffffffff8100a018:	48 89 45 e0          	mov    %rax,-0x20(%rbp)
ffffffff8100a01c:	48 8b 45 b8          	mov    -0x48(%rbp),%rax
ffffffff8100a020:	48 c7 00 00 00 00 00 	movq   $0x0,(%rax)
ffffffff8100a027:	e9 e7 00 00 00       	jmpq   ffffffff8100a113 <physmm_has_contig+0x168>
ffffffff8100a02c:	48 8b 45 c8          	mov    -0x38(%rbp),%rax
ffffffff8100a030:	48 8b 40 08          	mov    0x8(%rax),%rax
ffffffff8100a034:	48 8b 55 f8          	mov    -0x8(%rbp),%rdx
ffffffff8100a038:	48 c1 e2 0c          	shl    $0xc,%rdx
ffffffff8100a03c:	48 01 d0             	add    %rdx,%rax
ffffffff8100a03f:	48 3d ff ff 0f 00    	cmp    $0xfffff,%rax
ffffffff8100a045:	76 25                	jbe    ffffffff8100a06c <physmm_has_contig+0xc1>
ffffffff8100a047:	48 8b 45 c8          	mov    -0x38(%rbp),%rax
ffffffff8100a04b:	48 8b 40 08          	mov    0x8(%rax),%rax
ffffffff8100a04f:	48 8b 55 f8          	mov    -0x8(%rbp),%rdx
ffffffff8100a053:	48 c1 e2 0c          	shl    $0xc,%rdx
ffffffff8100a057:	48 01 d0             	add    %rdx,%rax
ffffffff8100a05a:	48 3d ff ff ff 00    	cmp    $0xffffff,%rax
ffffffff8100a060:	77 0a                	ja     ffffffff8100a06c <physmm_has_contig+0xc1>
ffffffff8100a062:	48 83 45 f8 01       	addq   $0x1,-0x8(%rbp)
ffffffff8100a067:	e9 a7 00 00 00       	jmpq   ffffffff8100a113 <physmm_has_contig+0x168>
ffffffff8100a06c:	48 8b 45 f8          	mov    -0x8(%rbp),%rax
ffffffff8100a070:	83 e0 3f             	and    $0x3f,%eax
ffffffff8100a073:	48 85 c0             	test   %rax,%rax
ffffffff8100a076:	74 5a                	je     ffffffff8100a0d2 <physmm_has_contig+0x127>
ffffffff8100a078:	48 8b 45 e8          	mov    -0x18(%rbp),%rax
ffffffff8100a07c:	48 8d 14 c5 00 00 00 	lea    0x0(,%rax,8),%rdx
ffffffff8100a083:	00 
ffffffff8100a084:	48 8b 45 e0          	mov    -0x20(%rbp),%rax
ffffffff8100a088:	48 01 d0             	add    %rdx,%rax
ffffffff8100a08b:	48 8b 10             	mov    (%rax),%rdx
ffffffff8100a08e:	48 8b 45 f8          	mov    -0x8(%rbp),%rax
ffffffff8100a092:	83 e0 3f             	and    $0x3f,%eax
ffffffff8100a095:	be 01 00 00 00       	mov    $0x1,%esi
ffffffff8100a09a:	89 c1                	mov    %eax,%ecx
ffffffff8100a09c:	d3 e6                	shl    %cl,%esi
ffffffff8100a09e:	89 f0                	mov    %esi,%eax
ffffffff8100a0a0:	48 98                	cltq   
ffffffff8100a0a2:	48 21 d0             	and    %rdx,%rax
ffffffff8100a0a5:	48 85 c0             	test   %rax,%rax
ffffffff8100a0a8:	74 0a                	je     ffffffff8100a0b4 <physmm_has_contig+0x109>
ffffffff8100a0aa:	48 c7 45 f0 00 00 00 	movq   $0x0,-0x10(%rbp)
ffffffff8100a0b1:	00 
ffffffff8100a0b2:	eb 17                	jmp    ffffffff8100a0cb <physmm_has_contig+0x120>
ffffffff8100a0b4:	48 83 7d f0 00       	cmpq   $0x0,-0x10(%rbp)
ffffffff8100a0b9:	75 0b                	jne    ffffffff8100a0c6 <physmm_has_contig+0x11b>
ffffffff8100a0bb:	48 8b 45 b8          	mov    -0x48(%rbp),%rax
ffffffff8100a0bf:	48 8b 55 f8          	mov    -0x8(%rbp),%rdx
ffffffff8100a0c3:	48 89 10             	mov    %rdx,(%rax)
ffffffff8100a0c6:	48 83 45 f0 01       	addq   $0x1,-0x10(%rbp)
ffffffff8100a0cb:	48 83 45 f8 01       	addq   $0x1,-0x8(%rbp)
ffffffff8100a0d0:	eb 30                	jmp    ffffffff8100a102 <physmm_has_contig+0x157>
ffffffff8100a0d2:	48 8b 45 e8          	mov    -0x18(%rbp),%rax
ffffffff8100a0d6:	48 8d 14 c5 00 00 00 	lea    0x0(,%rax,8),%rdx
ffffffff8100a0dd:	00 
ffffffff8100a0de:	48 8b 45 e0          	mov    -0x20(%rbp),%rax
ffffffff8100a0e2:	48 01 d0             	add    %rdx,%rax
ffffffff8100a0e5:	48 8b 00             	mov    (%rax),%rax
ffffffff8100a0e8:	48 85 c0             	test   %rax,%rax
ffffffff8100a0eb:	75 10                	jne    ffffffff8100a0fd <physmm_has_contig+0x152>
ffffffff8100a0ed:	48 83 45 f0 40       	addq   $0x40,-0x10(%rbp)
ffffffff8100a0f2:	48 8b 45 b8          	mov    -0x48(%rbp),%rax
ffffffff8100a0f6:	48 8b 55 f8          	mov    -0x8(%rbp),%rdx
ffffffff8100a0fa:	48 89 10             	mov    %rdx,(%rax)
ffffffff8100a0fd:	48 83 45 f8 40       	addq   $0x40,-0x8(%rbp)
ffffffff8100a102:	48 8b 45 f8          	mov    -0x8(%rbp),%rax
ffffffff8100a106:	83 e0 3f             	and    $0x3f,%eax
ffffffff8100a109:	48 85 c0             	test   %rax,%rax
ffffffff8100a10c:	75 05                	jne    ffffffff8100a113 <physmm_has_contig+0x168>
ffffffff8100a10e:	48 83 45 e8 01       	addq   $0x1,-0x18(%rbp)
ffffffff8100a113:	48 8b 45 d0          	mov    -0x30(%rbp),%rax
ffffffff8100a117:	48 8b 00             	mov    (%rax),%rax
ffffffff8100a11a:	48 39 45 f8          	cmp    %rax,-0x8(%rbp)
ffffffff8100a11e:	73 0e                	jae    ffffffff8100a12e <physmm_has_contig+0x183>
ffffffff8100a120:	48 8b 45 f0          	mov    -0x10(%rbp),%rax
ffffffff8100a124:	48 3b 45 c0          	cmp    -0x40(%rbp),%rax
ffffffff8100a128:	0f 82 fe fe ff ff    	jb     ffffffff8100a02c <physmm_has_contig+0x81>
ffffffff8100a12e:	48 8b 45 f0          	mov    -0x10(%rbp),%rax
ffffffff8100a132:	48 3b 45 c0          	cmp    -0x40(%rbp),%rax
ffffffff8100a136:	73 07                	jae    ffffffff8100a13f <physmm_has_contig+0x194>
ffffffff8100a138:	b8 ff ff ff ff       	mov    $0xffffffff,%eax
ffffffff8100a13d:	eb 05                	jmp    ffffffff8100a144 <physmm_has_contig+0x199>
ffffffff8100a13f:	b8 00 00 00 00       	mov    $0x0,%eax
ffffffff8100a144:	c9                   	leaveq 
ffffffff8100a145:	c3                   	retq   

ffffffff8100a146 <physmm_find_highest_mem>:
ffffffff8100a146:	55                   	push   %rbp
ffffffff8100a147:	48 89 e5             	mov    %rsp,%rbp
ffffffff8100a14a:	48 83 ec 38          	sub    $0x38,%rsp
ffffffff8100a14e:	48 89 7d c8          	mov    %rdi,-0x38(%rbp)
ffffffff8100a152:	48 8b 05 bf 9f 00 00 	mov    0x9fbf(%rip),%rax        # ffffffff81014118 <physmm_root+0x18>
ffffffff8100a159:	48 89 45 f0          	mov    %rax,-0x10(%rbp)
ffffffff8100a15d:	48 c7 45 e8 00 00 00 	movq   $0x0,-0x18(%rbp)
ffffffff8100a164:	00 
ffffffff8100a165:	c7 45 e4 00 00 00 00 	movl   $0x0,-0x1c(%rbp)
ffffffff8100a16c:	48 c7 45 d8 00 00 00 	movq   $0x0,-0x28(%rbp)
ffffffff8100a173:	00 
ffffffff8100a174:	48 8b 05 bd 9f 00 00 	mov    0x9fbd(%rip),%rax        # ffffffff81014138 <physmm_root+0x38>
ffffffff8100a17b:	48 ba cd cc cc cc cc 	movabs $0xcccccccccccccccd,%rdx
ffffffff8100a182:	cc cc cc 
ffffffff8100a185:	48 f7 e2             	mul    %rdx
ffffffff8100a188:	48 89 d0             	mov    %rdx,%rax
ffffffff8100a18b:	48 c1 e8 05          	shr    $0x5,%rax
ffffffff8100a18f:	89 45 e4             	mov    %eax,-0x1c(%rbp)
ffffffff8100a192:	8b 45 e4             	mov    -0x1c(%rbp),%eax
ffffffff8100a195:	89 45 fc             	mov    %eax,-0x4(%rbp)
ffffffff8100a198:	e9 ad 00 00 00       	jmpq   ffffffff8100a24a <physmm_find_highest_mem+0x104>
ffffffff8100a19d:	8b 45 fc             	mov    -0x4(%rbp),%eax
ffffffff8100a1a0:	83 e8 01             	sub    $0x1,%eax
ffffffff8100a1a3:	89 c2                	mov    %eax,%edx
ffffffff8100a1a5:	48 89 d0             	mov    %rdx,%rax
ffffffff8100a1a8:	48 c1 e0 02          	shl    $0x2,%rax
ffffffff8100a1ac:	48 01 d0             	add    %rdx,%rax
ffffffff8100a1af:	48 c1 e0 03          	shl    $0x3,%rax
ffffffff8100a1b3:	48 89 c2             	mov    %rax,%rdx
ffffffff8100a1b6:	48 8b 45 f0          	mov    -0x10(%rbp),%rax
ffffffff8100a1ba:	48 01 d0             	add    %rdx,%rax
ffffffff8100a1bd:	0f b6 00             	movzbl (%rax),%eax
ffffffff8100a1c0:	3c 01                	cmp    $0x1,%al
ffffffff8100a1c2:	75 7e                	jne    ffffffff8100a242 <physmm_find_highest_mem+0xfc>
ffffffff8100a1c4:	8b 45 fc             	mov    -0x4(%rbp),%eax
ffffffff8100a1c7:	83 e8 01             	sub    $0x1,%eax
ffffffff8100a1ca:	89 c2                	mov    %eax,%edx
ffffffff8100a1cc:	48 89 d0             	mov    %rdx,%rax
ffffffff8100a1cf:	48 c1 e0 02          	shl    $0x2,%rax
ffffffff8100a1d3:	48 01 d0             	add    %rdx,%rax
ffffffff8100a1d6:	48 c1 e0 03          	shl    $0x3,%rax
ffffffff8100a1da:	48 89 c2             	mov    %rax,%rdx
ffffffff8100a1dd:	48 8b 45 f0          	mov    -0x10(%rbp),%rax
ffffffff8100a1e1:	48 01 d0             	add    %rdx,%rax
ffffffff8100a1e4:	48 8b 40 08          	mov    0x8(%rax),%rax
ffffffff8100a1e8:	48 3d ff ff 0f 00    	cmp    $0xfffff,%rax
ffffffff8100a1ee:	76 55                	jbe    ffffffff8100a245 <physmm_find_highest_mem+0xff>
ffffffff8100a1f0:	8b 45 fc             	mov    -0x4(%rbp),%eax
ffffffff8100a1f3:	83 e8 01             	sub    $0x1,%eax
ffffffff8100a1f6:	89 c2                	mov    %eax,%edx
ffffffff8100a1f8:	48 89 d0             	mov    %rdx,%rax
ffffffff8100a1fb:	48 c1 e0 02          	shl    $0x2,%rax
ffffffff8100a1ff:	48 01 d0             	add    %rdx,%rax
ffffffff8100a202:	48 c1 e0 03          	shl    $0x3,%rax
ffffffff8100a206:	48 89 c2             	mov    %rax,%rdx
ffffffff8100a209:	48 8b 45 f0          	mov    -0x10(%rbp),%rax
ffffffff8100a20d:	48 01 d0             	add    %rdx,%rax
ffffffff8100a210:	48 8b 40 20          	mov    0x20(%rax),%rax
ffffffff8100a214:	48 89 45 e8          	mov    %rax,-0x18(%rbp)
ffffffff8100a218:	48 8b 45 e8          	mov    -0x18(%rbp),%rax
ffffffff8100a21c:	48 8b 40 08          	mov    0x8(%rax),%rax
ffffffff8100a220:	48 01 45 d8          	add    %rax,-0x28(%rbp)
ffffffff8100a224:	8b 55 fc             	mov    -0x4(%rbp),%edx
ffffffff8100a227:	48 89 d0             	mov    %rdx,%rax
ffffffff8100a22a:	48 c1 e0 02          	shl    $0x2,%rax
ffffffff8100a22e:	48 01 d0             	add    %rdx,%rax
ffffffff8100a231:	48 c1 e0 03          	shl    $0x3,%rax
ffffffff8100a235:	48 8d 50 d8          	lea    -0x28(%rax),%rdx
ffffffff8100a239:	48 8b 45 f0          	mov    -0x10(%rbp),%rax
ffffffff8100a23d:	48 01 d0             	add    %rdx,%rax
ffffffff8100a240:	eb 17                	jmp    ffffffff8100a259 <physmm_find_highest_mem+0x113>
ffffffff8100a242:	90                   	nop
ffffffff8100a243:	eb 01                	jmp    ffffffff8100a246 <physmm_find_highest_mem+0x100>
ffffffff8100a245:	90                   	nop
ffffffff8100a246:	83 6d fc 01          	subl   $0x1,-0x4(%rbp)
ffffffff8100a24a:	83 7d fc 00          	cmpl   $0x0,-0x4(%rbp)
ffffffff8100a24e:	0f 85 49 ff ff ff    	jne    ffffffff8100a19d <physmm_find_highest_mem+0x57>
ffffffff8100a254:	b8 00 00 00 00       	mov    $0x0,%eax
ffffffff8100a259:	c9                   	leaveq 
ffffffff8100a25a:	c3                   	retq   

ffffffff8100a25b <physmm_find_contig>:
ffffffff8100a25b:	55                   	push   %rbp
ffffffff8100a25c:	48 89 e5             	mov    %rsp,%rbp
ffffffff8100a25f:	48 83 ec 38          	sub    $0x38,%rsp
ffffffff8100a263:	48 89 7d d8          	mov    %rdi,-0x28(%rbp)
ffffffff8100a267:	89 f0                	mov    %esi,%eax
ffffffff8100a269:	48 89 55 c8          	mov    %rdx,-0x38(%rbp)
ffffffff8100a26d:	88 45 d4             	mov    %al,-0x2c(%rbp)
ffffffff8100a270:	48 8b 05 a1 9e 00 00 	mov    0x9ea1(%rip),%rax        # ffffffff81014118 <physmm_root+0x18>
ffffffff8100a277:	48 89 45 f0          	mov    %rax,-0x10(%rbp)
ffffffff8100a27b:	48 c7 45 e8 00 00 00 	movq   $0x0,-0x18(%rbp)
ffffffff8100a282:	00 
ffffffff8100a283:	c7 45 e4 00 00 00 00 	movl   $0x0,-0x1c(%rbp)
ffffffff8100a28a:	48 8b 05 a7 9e 00 00 	mov    0x9ea7(%rip),%rax        # ffffffff81014138 <physmm_root+0x38>
ffffffff8100a291:	48 ba cd cc cc cc cc 	movabs $0xcccccccccccccccd,%rdx
ffffffff8100a298:	cc cc cc 
ffffffff8100a29b:	48 f7 e2             	mul    %rdx
ffffffff8100a29e:	48 89 d0             	mov    %rdx,%rax
ffffffff8100a2a1:	48 c1 e8 05          	shr    $0x5,%rax
ffffffff8100a2a5:	89 45 e4             	mov    %eax,-0x1c(%rbp)
ffffffff8100a2a8:	c7 45 fc 00 00 00 00 	movl   $0x0,-0x4(%rbp)
ffffffff8100a2af:	eb 77                	jmp    ffffffff8100a328 <physmm_find_contig+0xcd>
ffffffff8100a2b1:	8b 55 fc             	mov    -0x4(%rbp),%edx
ffffffff8100a2b4:	48 89 d0             	mov    %rdx,%rax
ffffffff8100a2b7:	48 c1 e0 02          	shl    $0x2,%rax
ffffffff8100a2bb:	48 01 d0             	add    %rdx,%rax
ffffffff8100a2be:	48 c1 e0 03          	shl    $0x3,%rax
ffffffff8100a2c2:	48 89 c2             	mov    %rax,%rdx
ffffffff8100a2c5:	48 8b 45 f0          	mov    -0x10(%rbp),%rax
ffffffff8100a2c9:	48 01 d0             	add    %rdx,%rax
ffffffff8100a2cc:	0f b6 00             	movzbl (%rax),%eax
ffffffff8100a2cf:	3c 01                	cmp    $0x1,%al
ffffffff8100a2d1:	75 50                	jne    ffffffff8100a323 <physmm_find_contig+0xc8>
ffffffff8100a2d3:	8b 55 fc             	mov    -0x4(%rbp),%edx
ffffffff8100a2d6:	48 89 d0             	mov    %rdx,%rax
ffffffff8100a2d9:	48 c1 e0 02          	shl    $0x2,%rax
ffffffff8100a2dd:	48 01 d0             	add    %rdx,%rax
ffffffff8100a2e0:	48 c1 e0 03          	shl    $0x3,%rax
ffffffff8100a2e4:	48 89 c2             	mov    %rax,%rdx
ffffffff8100a2e7:	48 8b 45 f0          	mov    -0x10(%rbp),%rax
ffffffff8100a2eb:	48 8d 0c 02          	lea    (%rdx,%rax,1),%rcx
ffffffff8100a2ef:	48 8b 55 c8          	mov    -0x38(%rbp),%rdx
ffffffff8100a2f3:	48 8b 45 d8          	mov    -0x28(%rbp),%rax
ffffffff8100a2f7:	48 89 c6             	mov    %rax,%rsi
ffffffff8100a2fa:	48 89 cf             	mov    %rcx,%rdi
ffffffff8100a2fd:	e8 a9 fc ff ff       	callq  ffffffff81009fab <physmm_has_contig>
ffffffff8100a302:	85 c0                	test   %eax,%eax
ffffffff8100a304:	75 1e                	jne    ffffffff8100a324 <physmm_find_contig+0xc9>
ffffffff8100a306:	8b 55 fc             	mov    -0x4(%rbp),%edx
ffffffff8100a309:	48 89 d0             	mov    %rdx,%rax
ffffffff8100a30c:	48 c1 e0 02          	shl    $0x2,%rax
ffffffff8100a310:	48 01 d0             	add    %rdx,%rax
ffffffff8100a313:	48 c1 e0 03          	shl    $0x3,%rax
ffffffff8100a317:	48 89 c2             	mov    %rax,%rdx
ffffffff8100a31a:	48 8b 45 f0          	mov    -0x10(%rbp),%rax
ffffffff8100a31e:	48 01 d0             	add    %rdx,%rax
ffffffff8100a321:	eb 12                	jmp    ffffffff8100a335 <physmm_find_contig+0xda>
ffffffff8100a323:	90                   	nop
ffffffff8100a324:	83 45 fc 01          	addl   $0x1,-0x4(%rbp)
ffffffff8100a328:	8b 45 fc             	mov    -0x4(%rbp),%eax
ffffffff8100a32b:	3b 45 e4             	cmp    -0x1c(%rbp),%eax
ffffffff8100a32e:	72 81                	jb     ffffffff8100a2b1 <physmm_find_contig+0x56>
ffffffff8100a330:	b8 00 00 00 00       	mov    $0x0,%eax
ffffffff8100a335:	c9                   	leaveq 
ffffffff8100a336:	c3                   	retq   

ffffffff8100a337 <physmm_alloc_pf>:
ffffffff8100a337:	55                   	push   %rbp
ffffffff8100a338:	48 89 e5             	mov    %rsp,%rbp
ffffffff8100a33b:	48 81 ec 90 00 00 00 	sub    $0x90,%rsp
ffffffff8100a342:	48 89 7d 88          	mov    %rdi,-0x78(%rbp)
ffffffff8100a346:	89 f0                	mov    %esi,%eax
ffffffff8100a348:	48 89 95 78 ff ff ff 	mov    %rdx,-0x88(%rbp)
ffffffff8100a34f:	48 89 8d 70 ff ff ff 	mov    %rcx,-0x90(%rbp)
ffffffff8100a356:	88 45 84             	mov    %al,-0x7c(%rbp)
ffffffff8100a359:	48 8b 05 b8 9d 00 00 	mov    0x9db8(%rip),%rax        # ffffffff81014118 <physmm_root+0x18>
ffffffff8100a360:	48 89 45 f8          	mov    %rax,-0x8(%rbp)
ffffffff8100a364:	48 c7 45 c8 00 00 00 	movq   $0x0,-0x38(%rbp)
ffffffff8100a36b:	00 
ffffffff8100a36c:	48 c7 45 c0 00 00 00 	movq   $0x0,-0x40(%rbp)
ffffffff8100a373:	00 
ffffffff8100a374:	48 c7 45 f0 00 00 00 	movq   $0x0,-0x10(%rbp)
ffffffff8100a37b:	00 
ffffffff8100a37c:	48 c7 45 98 00 00 00 	movq   $0x0,-0x68(%rbp)
ffffffff8100a383:	00 
ffffffff8100a384:	c7 45 bc 00 00 00 00 	movl   $0x0,-0x44(%rbp)
ffffffff8100a38b:	c7 45 b8 00 00 00 00 	movl   $0x0,-0x48(%rbp)
ffffffff8100a392:	48 c7 45 e8 00 00 00 	movq   $0x0,-0x18(%rbp)
ffffffff8100a399:	00 
ffffffff8100a39a:	48 c7 45 b0 00 00 00 	movq   $0x0,-0x50(%rbp)
ffffffff8100a3a1:	00 
ffffffff8100a3a2:	48 c7 45 a8 00 00 00 	movq   $0x0,-0x58(%rbp)
ffffffff8100a3a9:	00 
ffffffff8100a3aa:	c6 45 e7 00          	movb   $0x0,-0x19(%rbp)
ffffffff8100a3ae:	48 c7 45 d8 00 00 00 	movq   $0x0,-0x28(%rbp)
ffffffff8100a3b5:	00 
ffffffff8100a3b6:	c6 45 a7 00          	movb   $0x0,-0x59(%rbp)
ffffffff8100a3ba:	0f b6 45 84          	movzbl -0x7c(%rbp),%eax
ffffffff8100a3be:	83 e0 04             	and    $0x4,%eax
ffffffff8100a3c1:	85 c0                	test   %eax,%eax
ffffffff8100a3c3:	74 2c                	je     ffffffff8100a3f1 <physmm_alloc_pf+0xba>
ffffffff8100a3c5:	0f b6 45 84          	movzbl -0x7c(%rbp),%eax
ffffffff8100a3c9:	83 e0 01             	and    $0x1,%eax
ffffffff8100a3cc:	85 c0                	test   %eax,%eax
ffffffff8100a3ce:	75 21                	jne    ffffffff8100a3f1 <physmm_alloc_pf+0xba>
ffffffff8100a3d0:	48 8b 45 88          	mov    -0x78(%rbp),%rax
ffffffff8100a3d4:	48 89 c7             	mov    %rax,%rdi
ffffffff8100a3d7:	e8 6a fd ff ff       	callq  ffffffff8100a146 <physmm_find_highest_mem>
ffffffff8100a3dc:	48 89 45 f8          	mov    %rax,-0x8(%rbp)
ffffffff8100a3e0:	48 83 7d f8 00       	cmpq   $0x0,-0x8(%rbp)
ffffffff8100a3e5:	75 4b                	jne    ffffffff8100a432 <physmm_alloc_pf+0xfb>
ffffffff8100a3e7:	b8 ff ff ff ff       	mov    $0xffffffff,%eax
ffffffff8100a3ec:	e9 41 04 00 00       	jmpq   ffffffff8100a832 <physmm_alloc_pf+0x4fb>
ffffffff8100a3f1:	0f b6 45 84          	movzbl -0x7c(%rbp),%eax
ffffffff8100a3f5:	83 e0 01             	and    $0x1,%eax
ffffffff8100a3f8:	85 c0                	test   %eax,%eax
ffffffff8100a3fa:	74 36                	je     ffffffff8100a432 <physmm_alloc_pf+0xfb>
ffffffff8100a3fc:	0f b6 45 84          	movzbl -0x7c(%rbp),%eax
ffffffff8100a400:	83 e0 04             	and    $0x4,%eax
ffffffff8100a403:	85 c0                	test   %eax,%eax
ffffffff8100a405:	75 2b                	jne    ffffffff8100a432 <physmm_alloc_pf+0xfb>
ffffffff8100a407:	0f b6 4d 84          	movzbl -0x7c(%rbp),%ecx
ffffffff8100a40b:	48 8d 55 98          	lea    -0x68(%rbp),%rdx
ffffffff8100a40f:	48 8b 45 88          	mov    -0x78(%rbp),%rax
ffffffff8100a413:	89 ce                	mov    %ecx,%esi
ffffffff8100a415:	48 89 c7             	mov    %rax,%rdi
ffffffff8100a418:	e8 3e fe ff ff       	callq  ffffffff8100a25b <physmm_find_contig>
ffffffff8100a41d:	48 89 45 f8          	mov    %rax,-0x8(%rbp)
ffffffff8100a421:	48 83 7d f8 00       	cmpq   $0x0,-0x8(%rbp)
ffffffff8100a426:	75 0a                	jne    ffffffff8100a432 <physmm_alloc_pf+0xfb>
ffffffff8100a428:	b8 ff ff ff ff       	mov    $0xffffffff,%eax
ffffffff8100a42d:	e9 00 04 00 00       	jmpq   ffffffff8100a832 <physmm_alloc_pf+0x4fb>
ffffffff8100a432:	0f b6 45 84          	movzbl -0x7c(%rbp),%eax
ffffffff8100a436:	83 e0 10             	and    $0x10,%eax
ffffffff8100a439:	85 c0                	test   %eax,%eax
ffffffff8100a43b:	74 08                	je     ffffffff8100a445 <physmm_alloc_pf+0x10e>
ffffffff8100a43d:	48 c7 45 88 ff ff ff 	movq   $0xffffffffffffffff,-0x78(%rbp)
ffffffff8100a444:	ff 
ffffffff8100a445:	48 8b 55 f8          	mov    -0x8(%rbp),%rdx
ffffffff8100a449:	48 8b 05 c8 9c 00 00 	mov    0x9cc8(%rip),%rax        # ffffffff81014118 <physmm_root+0x18>
ffffffff8100a450:	48 29 c2             	sub    %rax,%rdx
ffffffff8100a453:	48 89 d0             	mov    %rdx,%rax
ffffffff8100a456:	48 ba cd cc cc cc cc 	movabs $0xcccccccccccccccd,%rdx
ffffffff8100a45d:	cc cc cc 
ffffffff8100a460:	48 f7 e2             	mul    %rdx
ffffffff8100a463:	48 89 d0             	mov    %rdx,%rax
ffffffff8100a466:	48 c1 e8 05          	shr    $0x5,%rax
ffffffff8100a46a:	89 45 bc             	mov    %eax,-0x44(%rbp)
ffffffff8100a46d:	48 8b 05 c4 9c 00 00 	mov    0x9cc4(%rip),%rax        # ffffffff81014138 <physmm_root+0x38>
ffffffff8100a474:	48 ba cd cc cc cc cc 	movabs $0xcccccccccccccccd,%rdx
ffffffff8100a47b:	cc cc cc 
ffffffff8100a47e:	48 f7 e2             	mul    %rdx
ffffffff8100a481:	48 89 d0             	mov    %rdx,%rax
ffffffff8100a484:	48 c1 e8 05          	shr    $0x5,%rax
ffffffff8100a488:	89 45 b8             	mov    %eax,-0x48(%rbp)
ffffffff8100a48b:	48 8b 05 86 9c 00 00 	mov    0x9c86(%rip),%rax        # ffffffff81014118 <physmm_root+0x18>
ffffffff8100a492:	48 89 45 f8          	mov    %rax,-0x8(%rbp)
ffffffff8100a496:	8b 45 bc             	mov    -0x44(%rbp),%eax
ffffffff8100a499:	89 45 d4             	mov    %eax,-0x2c(%rbp)
ffffffff8100a49c:	e9 64 03 00 00       	jmpq   ffffffff8100a805 <physmm_alloc_pf+0x4ce>
ffffffff8100a4a1:	8b 55 d4             	mov    -0x2c(%rbp),%edx
ffffffff8100a4a4:	48 89 d0             	mov    %rdx,%rax
ffffffff8100a4a7:	48 c1 e0 02          	shl    $0x2,%rax
ffffffff8100a4ab:	48 01 d0             	add    %rdx,%rax
ffffffff8100a4ae:	48 c1 e0 03          	shl    $0x3,%rax
ffffffff8100a4b2:	48 89 c2             	mov    %rax,%rdx
ffffffff8100a4b5:	48 8b 45 f8          	mov    -0x8(%rbp),%rax
ffffffff8100a4b9:	48 01 d0             	add    %rdx,%rax
ffffffff8100a4bc:	0f b6 00             	movzbl (%rax),%eax
ffffffff8100a4bf:	3c 01                	cmp    $0x1,%al
ffffffff8100a4c1:	0f 85 39 03 00 00    	jne    ffffffff8100a800 <physmm_alloc_pf+0x4c9>
ffffffff8100a4c7:	48 c7 45 98 00 00 00 	movq   $0x0,-0x68(%rbp)
ffffffff8100a4ce:	00 
ffffffff8100a4cf:	8b 55 d4             	mov    -0x2c(%rbp),%edx
ffffffff8100a4d2:	48 89 d0             	mov    %rdx,%rax
ffffffff8100a4d5:	48 c1 e0 02          	shl    $0x2,%rax
ffffffff8100a4d9:	48 01 d0             	add    %rdx,%rax
ffffffff8100a4dc:	48 c1 e0 03          	shl    $0x3,%rax
ffffffff8100a4e0:	48 89 c2             	mov    %rax,%rdx
ffffffff8100a4e3:	48 8b 45 f8          	mov    -0x8(%rbp),%rax
ffffffff8100a4e7:	48 01 d0             	add    %rdx,%rax
ffffffff8100a4ea:	48 8b 40 20          	mov    0x20(%rax),%rax
ffffffff8100a4ee:	48 89 45 c8          	mov    %rax,-0x38(%rbp)
ffffffff8100a4f2:	48 8b 45 c8          	mov    -0x38(%rbp),%rax
ffffffff8100a4f6:	48 8b 40 18          	mov    0x18(%rax),%rax
ffffffff8100a4fa:	48 89 45 c0          	mov    %rax,-0x40(%rbp)
ffffffff8100a4fe:	e9 bd 02 00 00       	jmpq   ffffffff8100a7c0 <physmm_alloc_pf+0x489>
ffffffff8100a503:	8b 55 d4             	mov    -0x2c(%rbp),%edx
ffffffff8100a506:	48 89 d0             	mov    %rdx,%rax
ffffffff8100a509:	48 c1 e0 02          	shl    $0x2,%rax
ffffffff8100a50d:	48 01 d0             	add    %rdx,%rax
ffffffff8100a510:	48 c1 e0 03          	shl    $0x3,%rax
ffffffff8100a514:	48 89 c2             	mov    %rax,%rdx
ffffffff8100a517:	48 8b 45 f8          	mov    -0x8(%rbp),%rax
ffffffff8100a51b:	48 01 d0             	add    %rdx,%rax
ffffffff8100a51e:	48 8b 40 08          	mov    0x8(%rax),%rax
ffffffff8100a522:	48 8b 55 98          	mov    -0x68(%rbp),%rdx
ffffffff8100a526:	48 c1 e2 0c          	shl    $0xc,%rdx
ffffffff8100a52a:	48 01 d0             	add    %rdx,%rax
ffffffff8100a52d:	48 89 45 b0          	mov    %rax,-0x50(%rbp)
ffffffff8100a531:	48 8b 45 98          	mov    -0x68(%rbp),%rax
ffffffff8100a535:	48 c1 e8 06          	shr    $0x6,%rax
ffffffff8100a539:	48 89 45 e8          	mov    %rax,-0x18(%rbp)
ffffffff8100a53d:	0f b6 45 84          	movzbl -0x7c(%rbp),%eax
ffffffff8100a541:	83 e0 08             	and    $0x8,%eax
ffffffff8100a544:	85 c0                	test   %eax,%eax
ffffffff8100a546:	75 21                	jne    ffffffff8100a569 <physmm_alloc_pf+0x232>
ffffffff8100a548:	48 81 7d b0 ff ff 0f 	cmpq   $0xfffff,-0x50(%rbp)
ffffffff8100a54f:	00 
ffffffff8100a550:	76 38                	jbe    ffffffff8100a58a <physmm_alloc_pf+0x253>
ffffffff8100a552:	48 81 7d b0 ff ff ff 	cmpq   $0xffffff,-0x50(%rbp)
ffffffff8100a559:	00 
ffffffff8100a55a:	77 2e                	ja     ffffffff8100a58a <physmm_alloc_pf+0x253>
ffffffff8100a55c:	48 c7 45 98 00 10 00 	movq   $0x1000,-0x68(%rbp)
ffffffff8100a563:	00 
ffffffff8100a564:	e9 57 02 00 00       	jmpq   ffffffff8100a7c0 <physmm_alloc_pf+0x489>
ffffffff8100a569:	48 81 7d b0 ff ff ff 	cmpq   $0xffffff,-0x50(%rbp)
ffffffff8100a570:	00 
ffffffff8100a571:	76 09                	jbe    ffffffff8100a57c <physmm_alloc_pf+0x245>
ffffffff8100a573:	c6 45 e7 01          	movb   $0x1,-0x19(%rbp)
ffffffff8100a577:	e9 72 02 00 00       	jmpq   ffffffff8100a7ee <physmm_alloc_pf+0x4b7>
ffffffff8100a57c:	48 81 7d b0 ff ff 0f 	cmpq   $0xfffff,-0x50(%rbp)
ffffffff8100a583:	00 
ffffffff8100a584:	0f 86 63 02 00 00    	jbe    ffffffff8100a7ed <physmm_alloc_pf+0x4b6>
ffffffff8100a58a:	48 81 7d b0 ff ff 0f 	cmpq   $0xfffff,-0x50(%rbp)
ffffffff8100a591:	00 
ffffffff8100a592:	77 11                	ja     ffffffff8100a5a5 <physmm_alloc_pf+0x26e>
ffffffff8100a594:	48 8b 45 98          	mov    -0x68(%rbp),%rax
ffffffff8100a598:	48 83 c0 01          	add    $0x1,%rax
ffffffff8100a59c:	48 89 45 98          	mov    %rax,-0x68(%rbp)
ffffffff8100a5a0:	e9 1b 02 00 00       	jmpq   ffffffff8100a7c0 <physmm_alloc_pf+0x489>
ffffffff8100a5a5:	48 8b 45 98          	mov    -0x68(%rbp),%rax
ffffffff8100a5a9:	83 e0 3f             	and    $0x3f,%eax
ffffffff8100a5ac:	48 85 c0             	test   %rax,%rax
ffffffff8100a5af:	0f 85 2d 01 00 00    	jne    ffffffff8100a6e2 <physmm_alloc_pf+0x3ab>
ffffffff8100a5b5:	48 8b 45 98          	mov    -0x68(%rbp),%rax
ffffffff8100a5b9:	48 c1 e8 06          	shr    $0x6,%rax
ffffffff8100a5bd:	48 89 45 e8          	mov    %rax,-0x18(%rbp)
ffffffff8100a5c1:	48 8b 45 e8          	mov    -0x18(%rbp),%rax
ffffffff8100a5c5:	48 8d 14 c5 00 00 00 	lea    0x0(,%rax,8),%rdx
ffffffff8100a5cc:	00 
ffffffff8100a5cd:	48 8b 45 c0          	mov    -0x40(%rbp),%rax
ffffffff8100a5d1:	48 01 d0             	add    %rdx,%rax
ffffffff8100a5d4:	48 8b 00             	mov    (%rax),%rax
ffffffff8100a5d7:	48 85 c0             	test   %rax,%rax
ffffffff8100a5da:	0f 85 02 01 00 00    	jne    ffffffff8100a6e2 <physmm_alloc_pf+0x3ab>
ffffffff8100a5e0:	48 8b 45 88          	mov    -0x78(%rbp),%rax
ffffffff8100a5e4:	48 2b 45 f0          	sub    -0x10(%rbp),%rax
ffffffff8100a5e8:	ba 40 00 00 00       	mov    $0x40,%edx
ffffffff8100a5ed:	48 83 f8 40          	cmp    $0x40,%rax
ffffffff8100a5f1:	48 0f 47 c2          	cmova  %rdx,%rax
ffffffff8100a5f5:	48 89 45 a8          	mov    %rax,-0x58(%rbp)
ffffffff8100a5f9:	48 8b 95 70 ff ff ff 	mov    -0x90(%rbp),%rdx
ffffffff8100a600:	48 8b 4d a8          	mov    -0x58(%rbp),%rcx
ffffffff8100a604:	48 8b 45 b0          	mov    -0x50(%rbp),%rax
ffffffff8100a608:	4c 8b 85 78 ff ff ff 	mov    -0x88(%rbp),%r8
ffffffff8100a60f:	48 89 ce             	mov    %rcx,%rsi
ffffffff8100a612:	48 89 c7             	mov    %rax,%rdi
ffffffff8100a615:	41 ff d0             	callq  *%r8
ffffffff8100a618:	88 45 a7             	mov    %al,-0x59(%rbp)
ffffffff8100a61b:	80 7d a7 00          	cmpb   $0x0,-0x59(%rbp)
ffffffff8100a61f:	75 09                	jne    ffffffff8100a62a <physmm_alloc_pf+0x2f3>
ffffffff8100a621:	c6 45 e7 01          	movb   $0x1,-0x19(%rbp)
ffffffff8100a625:	e9 c4 01 00 00       	jmpq   ffffffff8100a7ee <physmm_alloc_pf+0x4b7>
ffffffff8100a62a:	ba 40 00 00 00       	mov    $0x40,%edx
ffffffff8100a62f:	0f b6 45 a7          	movzbl -0x59(%rbp),%eax
ffffffff8100a633:	80 7d a7 40          	cmpb   $0x40,-0x59(%rbp)
ffffffff8100a637:	0f 47 c2             	cmova  %edx,%eax
ffffffff8100a63a:	88 45 a7             	mov    %al,-0x59(%rbp)
ffffffff8100a63d:	48 c7 45 d8 00 00 00 	movq   $0x0,-0x28(%rbp)
ffffffff8100a644:	00 
ffffffff8100a645:	c6 45 d3 00          	movb   $0x0,-0x2d(%rbp)
ffffffff8100a649:	eb 1f                	jmp    ffffffff8100a66a <physmm_alloc_pf+0x333>
ffffffff8100a64b:	0f b6 45 d3          	movzbl -0x2d(%rbp),%eax
ffffffff8100a64f:	ba 01 00 00 00       	mov    $0x1,%edx
ffffffff8100a654:	89 c1                	mov    %eax,%ecx
ffffffff8100a656:	d3 e2                	shl    %cl,%edx
ffffffff8100a658:	89 d0                	mov    %edx,%eax
ffffffff8100a65a:	48 98                	cltq   
ffffffff8100a65c:	48 09 45 d8          	or     %rax,-0x28(%rbp)
ffffffff8100a660:	0f b6 45 d3          	movzbl -0x2d(%rbp),%eax
ffffffff8100a664:	83 c0 01             	add    $0x1,%eax
ffffffff8100a667:	88 45 d3             	mov    %al,-0x2d(%rbp)
ffffffff8100a66a:	0f b6 45 d3          	movzbl -0x2d(%rbp),%eax
ffffffff8100a66e:	3a 45 a7             	cmp    -0x59(%rbp),%al
ffffffff8100a671:	72 d8                	jb     ffffffff8100a64b <physmm_alloc_pf+0x314>
ffffffff8100a673:	48 8b 45 e8          	mov    -0x18(%rbp),%rax
ffffffff8100a677:	48 8d 14 c5 00 00 00 	lea    0x0(,%rax,8),%rdx
ffffffff8100a67e:	00 
ffffffff8100a67f:	48 8b 45 c0          	mov    -0x40(%rbp),%rax
ffffffff8100a683:	48 01 c2             	add    %rax,%rdx
ffffffff8100a686:	48 8b 45 d8          	mov    -0x28(%rbp),%rax
ffffffff8100a68a:	48 89 02             	mov    %rax,(%rdx)
ffffffff8100a68d:	0f b6 45 a7          	movzbl -0x59(%rbp),%eax
ffffffff8100a691:	48 01 45 f0          	add    %rax,-0x10(%rbp)
ffffffff8100a695:	0f b6 55 a7          	movzbl -0x59(%rbp),%edx
ffffffff8100a699:	48 8b 45 98          	mov    -0x68(%rbp),%rax
ffffffff8100a69d:	48 01 d0             	add    %rdx,%rax
ffffffff8100a6a0:	48 89 45 98          	mov    %rax,-0x68(%rbp)
ffffffff8100a6a4:	48 8b 45 c8          	mov    -0x38(%rbp),%rax
ffffffff8100a6a8:	48 8b 50 08          	mov    0x8(%rax),%rdx
ffffffff8100a6ac:	0f b6 45 a7          	movzbl -0x59(%rbp),%eax
ffffffff8100a6b0:	48 39 c2             	cmp    %rax,%rdx
ffffffff8100a6b3:	72 1c                	jb     ffffffff8100a6d1 <physmm_alloc_pf+0x39a>
ffffffff8100a6b5:	48 8b 45 c8          	mov    -0x38(%rbp),%rax
ffffffff8100a6b9:	48 8b 50 08          	mov    0x8(%rax),%rdx
ffffffff8100a6bd:	0f b6 45 a7          	movzbl -0x59(%rbp),%eax
ffffffff8100a6c1:	48 29 c2             	sub    %rax,%rdx
ffffffff8100a6c4:	48 8b 45 c8          	mov    -0x38(%rbp),%rax
ffffffff8100a6c8:	48 89 50 08          	mov    %rdx,0x8(%rax)
ffffffff8100a6cc:	e9 ef 00 00 00       	jmpq   ffffffff8100a7c0 <physmm_alloc_pf+0x489>
ffffffff8100a6d1:	48 8b 45 c8          	mov    -0x38(%rbp),%rax
ffffffff8100a6d5:	48 c7 40 08 00 00 00 	movq   $0x0,0x8(%rax)
ffffffff8100a6dc:	00 
ffffffff8100a6dd:	e9 de 00 00 00       	jmpq   ffffffff8100a7c0 <physmm_alloc_pf+0x489>
ffffffff8100a6e2:	48 8b 45 e8          	mov    -0x18(%rbp),%rax
ffffffff8100a6e6:	48 8d 14 c5 00 00 00 	lea    0x0(,%rax,8),%rdx
ffffffff8100a6ed:	00 
ffffffff8100a6ee:	48 8b 45 c0          	mov    -0x40(%rbp),%rax
ffffffff8100a6f2:	48 01 d0             	add    %rdx,%rax
ffffffff8100a6f5:	48 8b 00             	mov    (%rax),%rax
ffffffff8100a6f8:	48 f7 d0             	not    %rax
ffffffff8100a6fb:	48 89 c2             	mov    %rax,%rdx
ffffffff8100a6fe:	48 8b 45 98          	mov    -0x68(%rbp),%rax
ffffffff8100a702:	83 e0 3f             	and    $0x3f,%eax
ffffffff8100a705:	be 01 00 00 00       	mov    $0x1,%esi
ffffffff8100a70a:	89 c1                	mov    %eax,%ecx
ffffffff8100a70c:	d3 e6                	shl    %cl,%esi
ffffffff8100a70e:	89 f0                	mov    %esi,%eax
ffffffff8100a710:	48 98                	cltq   
ffffffff8100a712:	48 21 d0             	and    %rdx,%rax
ffffffff8100a715:	48 85 c0             	test   %rax,%rax
ffffffff8100a718:	0f 84 96 00 00 00    	je     ffffffff8100a7b4 <physmm_alloc_pf+0x47d>
ffffffff8100a71e:	48 c7 45 a8 01 00 00 	movq   $0x1,-0x58(%rbp)
ffffffff8100a725:	00 
ffffffff8100a726:	48 8b 95 70 ff ff ff 	mov    -0x90(%rbp),%rdx
ffffffff8100a72d:	48 8b 4d a8          	mov    -0x58(%rbp),%rcx
ffffffff8100a731:	48 8b 45 b0          	mov    -0x50(%rbp),%rax
ffffffff8100a735:	4c 8b 85 78 ff ff ff 	mov    -0x88(%rbp),%r8
ffffffff8100a73c:	48 89 ce             	mov    %rcx,%rsi
ffffffff8100a73f:	48 89 c7             	mov    %rax,%rdi
ffffffff8100a742:	41 ff d0             	callq  *%r8
ffffffff8100a745:	88 45 a7             	mov    %al,-0x59(%rbp)
ffffffff8100a748:	80 7d a7 00          	cmpb   $0x0,-0x59(%rbp)
ffffffff8100a74c:	75 09                	jne    ffffffff8100a757 <physmm_alloc_pf+0x420>
ffffffff8100a74e:	c6 45 e7 01          	movb   $0x1,-0x19(%rbp)
ffffffff8100a752:	e9 97 00 00 00       	jmpq   ffffffff8100a7ee <physmm_alloc_pf+0x4b7>
ffffffff8100a757:	48 8b 45 e8          	mov    -0x18(%rbp),%rax
ffffffff8100a75b:	48 8d 14 c5 00 00 00 	lea    0x0(,%rax,8),%rdx
ffffffff8100a762:	00 
ffffffff8100a763:	48 8b 45 c0          	mov    -0x40(%rbp),%rax
ffffffff8100a767:	48 01 d0             	add    %rdx,%rax
ffffffff8100a76a:	48 8b 30             	mov    (%rax),%rsi
ffffffff8100a76d:	48 8b 45 98          	mov    -0x68(%rbp),%rax
ffffffff8100a771:	83 e0 3f             	and    $0x3f,%eax
ffffffff8100a774:	ba 01 00 00 00       	mov    $0x1,%edx
ffffffff8100a779:	89 c1                	mov    %eax,%ecx
ffffffff8100a77b:	d3 e2                	shl    %cl,%edx
ffffffff8100a77d:	89 d0                	mov    %edx,%eax
ffffffff8100a77f:	48 63 d0             	movslq %eax,%rdx
ffffffff8100a782:	48 8b 45 e8          	mov    -0x18(%rbp),%rax
ffffffff8100a786:	48 8d 0c c5 00 00 00 	lea    0x0(,%rax,8),%rcx
ffffffff8100a78d:	00 
ffffffff8100a78e:	48 8b 45 c0          	mov    -0x40(%rbp),%rax
ffffffff8100a792:	48 01 c8             	add    %rcx,%rax
ffffffff8100a795:	48 09 f2             	or     %rsi,%rdx
ffffffff8100a798:	48 89 10             	mov    %rdx,(%rax)
ffffffff8100a79b:	48 8b 45 c8          	mov    -0x38(%rbp),%rax
ffffffff8100a79f:	48 8b 40 08          	mov    0x8(%rax),%rax
ffffffff8100a7a3:	48 8d 50 ff          	lea    -0x1(%rax),%rdx
ffffffff8100a7a7:	48 8b 45 c8          	mov    -0x38(%rbp),%rax
ffffffff8100a7ab:	48 89 50 08          	mov    %rdx,0x8(%rax)
ffffffff8100a7af:	48 83 45 f0 01       	addq   $0x1,-0x10(%rbp)
ffffffff8100a7b4:	48 8b 45 98          	mov    -0x68(%rbp),%rax
ffffffff8100a7b8:	48 83 c0 01          	add    $0x1,%rax
ffffffff8100a7bc:	48 89 45 98          	mov    %rax,-0x68(%rbp)
ffffffff8100a7c0:	48 8b 45 c8          	mov    -0x38(%rbp),%rax
ffffffff8100a7c4:	48 8b 10             	mov    (%rax),%rdx
ffffffff8100a7c7:	48 8b 45 98          	mov    -0x68(%rbp),%rax
ffffffff8100a7cb:	48 39 c2             	cmp    %rax,%rdx
ffffffff8100a7ce:	76 1e                	jbe    ffffffff8100a7ee <physmm_alloc_pf+0x4b7>
ffffffff8100a7d0:	48 8b 45 f0          	mov    -0x10(%rbp),%rax
ffffffff8100a7d4:	48 3b 45 88          	cmp    -0x78(%rbp),%rax
ffffffff8100a7d8:	73 14                	jae    ffffffff8100a7ee <physmm_alloc_pf+0x4b7>
ffffffff8100a7da:	48 8b 45 c8          	mov    -0x38(%rbp),%rax
ffffffff8100a7de:	48 8b 40 08          	mov    0x8(%rax),%rax
ffffffff8100a7e2:	48 85 c0             	test   %rax,%rax
ffffffff8100a7e5:	0f 85 18 fd ff ff    	jne    ffffffff8100a503 <physmm_alloc_pf+0x1cc>
ffffffff8100a7eb:	eb 01                	jmp    ffffffff8100a7ee <physmm_alloc_pf+0x4b7>
ffffffff8100a7ed:	90                   	nop
ffffffff8100a7ee:	48 8b 45 f0          	mov    -0x10(%rbp),%rax
ffffffff8100a7f2:	48 3b 45 88          	cmp    -0x78(%rbp),%rax
ffffffff8100a7f6:	73 19                	jae    ffffffff8100a811 <physmm_alloc_pf+0x4da>
ffffffff8100a7f8:	80 7d e7 00          	cmpb   $0x0,-0x19(%rbp)
ffffffff8100a7fc:	75 13                	jne    ffffffff8100a811 <physmm_alloc_pf+0x4da>
ffffffff8100a7fe:	eb 01                	jmp    ffffffff8100a801 <physmm_alloc_pf+0x4ca>
ffffffff8100a800:	90                   	nop
ffffffff8100a801:	83 45 d4 01          	addl   $0x1,-0x2c(%rbp)
ffffffff8100a805:	8b 45 d4             	mov    -0x2c(%rbp),%eax
ffffffff8100a808:	3b 45 b8             	cmp    -0x48(%rbp),%eax
ffffffff8100a80b:	0f 82 90 fc ff ff    	jb     ffffffff8100a4a1 <physmm_alloc_pf+0x16a>
ffffffff8100a811:	48 8b 45 f0          	mov    -0x10(%rbp),%rax
ffffffff8100a815:	48 3b 45 88          	cmp    -0x78(%rbp),%rax
ffffffff8100a819:	73 12                	jae    ffffffff8100a82d <physmm_alloc_pf+0x4f6>
ffffffff8100a81b:	0f b6 45 84          	movzbl -0x7c(%rbp),%eax
ffffffff8100a81f:	83 e0 10             	and    $0x10,%eax
ffffffff8100a822:	85 c0                	test   %eax,%eax
ffffffff8100a824:	75 07                	jne    ffffffff8100a82d <physmm_alloc_pf+0x4f6>
ffffffff8100a826:	b8 ff ff ff ff       	mov    $0xffffffff,%eax
ffffffff8100a82b:	eb 05                	jmp    ffffffff8100a832 <physmm_alloc_pf+0x4fb>
ffffffff8100a82d:	b8 00 00 00 00       	mov    $0x0,%eax
ffffffff8100a832:	c9                   	leaveq 
ffffffff8100a833:	c3                   	retq   

ffffffff8100a834 <physmm_free_pf>:
ffffffff8100a834:	55                   	push   %rbp
ffffffff8100a835:	48 89 e5             	mov    %rsp,%rbp
ffffffff8100a838:	48 83 ec 50          	sub    $0x50,%rsp
ffffffff8100a83c:	48 89 7d b8          	mov    %rdi,-0x48(%rbp)
ffffffff8100a840:	48 89 75 b0          	mov    %rsi,-0x50(%rbp)
ffffffff8100a844:	48 c7 45 f0 00 00 00 	movq   $0x0,-0x10(%rbp)
ffffffff8100a84b:	00 
ffffffff8100a84c:	48 c7 45 e8 00 00 00 	movq   $0x0,-0x18(%rbp)
ffffffff8100a853:	00 
ffffffff8100a854:	48 c7 45 c8 00 00 00 	movq   $0x0,-0x38(%rbp)
ffffffff8100a85b:	00 
ffffffff8100a85c:	48 c7 45 c0 00 00 00 	movq   $0x0,-0x40(%rbp)
ffffffff8100a863:	00 
ffffffff8100a864:	c7 45 e4 00 00 00 00 	movl   $0x0,-0x1c(%rbp)
ffffffff8100a86b:	48 c7 45 d8 00 00 00 	movq   $0x0,-0x28(%rbp)
ffffffff8100a872:	00 
ffffffff8100a873:	48 c7 45 d0 00 00 00 	movq   $0x0,-0x30(%rbp)
ffffffff8100a87a:	00 
ffffffff8100a87b:	c7 45 fc 01 00 00 00 	movl   $0x1,-0x4(%rbp)
ffffffff8100a882:	48 8b 05 af 98 00 00 	mov    0x98af(%rip),%rax        # ffffffff81014138 <physmm_root+0x38>
ffffffff8100a889:	48 ba cd cc cc cc cc 	movabs $0xcccccccccccccccd,%rdx
ffffffff8100a890:	cc cc cc 
ffffffff8100a893:	48 f7 e2             	mul    %rdx
ffffffff8100a896:	48 89 d0             	mov    %rdx,%rax
ffffffff8100a899:	48 c1 e8 05          	shr    $0x5,%rax
ffffffff8100a89d:	89 45 e4             	mov    %eax,-0x1c(%rbp)
ffffffff8100a8a0:	e9 1c 01 00 00       	jmpq   ffffffff8100a9c1 <physmm_free_pf+0x18d>
ffffffff8100a8a5:	48 8b 55 b0          	mov    -0x50(%rbp),%rdx
ffffffff8100a8a9:	48 8d 4d c8          	lea    -0x38(%rbp),%rcx
ffffffff8100a8ad:	48 8d 45 c0          	lea    -0x40(%rbp),%rax
ffffffff8100a8b1:	4c 8b 45 b8          	mov    -0x48(%rbp),%r8
ffffffff8100a8b5:	48 89 ce             	mov    %rcx,%rsi
ffffffff8100a8b8:	48 89 c7             	mov    %rax,%rdi
ffffffff8100a8bb:	41 ff d0             	callq  *%r8
ffffffff8100a8be:	89 45 fc             	mov    %eax,-0x4(%rbp)
ffffffff8100a8c1:	48 8b 45 c8          	mov    -0x38(%rbp),%rax
ffffffff8100a8c5:	48 85 c0             	test   %rax,%rax
ffffffff8100a8c8:	0f 84 fd 00 00 00    	je     ffffffff8100a9cb <physmm_free_pf+0x197>
ffffffff8100a8ce:	83 7d fc 00          	cmpl   $0x0,-0x4(%rbp)
ffffffff8100a8d2:	0f 84 f3 00 00 00    	je     ffffffff8100a9cb <physmm_free_pf+0x197>
ffffffff8100a8d8:	48 8b 05 39 98 00 00 	mov    0x9839(%rip),%rax        # ffffffff81014118 <physmm_root+0x18>
ffffffff8100a8df:	48 89 45 d8          	mov    %rax,-0x28(%rbp)
ffffffff8100a8e3:	c7 45 f8 00 00 00 00 	movl   $0x0,-0x8(%rbp)
ffffffff8100a8ea:	e9 c6 00 00 00       	jmpq   ffffffff8100a9b5 <physmm_free_pf+0x181>
ffffffff8100a8ef:	8b 55 f8             	mov    -0x8(%rbp),%edx
ffffffff8100a8f2:	48 89 d0             	mov    %rdx,%rax
ffffffff8100a8f5:	48 c1 e0 02          	shl    $0x2,%rax
ffffffff8100a8f9:	48 01 d0             	add    %rdx,%rax
ffffffff8100a8fc:	48 c1 e0 03          	shl    $0x3,%rax
ffffffff8100a900:	48 89 c2             	mov    %rax,%rdx
ffffffff8100a903:	48 8b 45 d8          	mov    -0x28(%rbp),%rax
ffffffff8100a907:	48 01 d0             	add    %rdx,%rax
ffffffff8100a90a:	0f b6 00             	movzbl (%rax),%eax
ffffffff8100a90d:	3c 01                	cmp    $0x1,%al
ffffffff8100a90f:	0f 85 98 00 00 00    	jne    ffffffff8100a9ad <physmm_free_pf+0x179>
ffffffff8100a915:	8b 55 f8             	mov    -0x8(%rbp),%edx
ffffffff8100a918:	48 89 d0             	mov    %rdx,%rax
ffffffff8100a91b:	48 c1 e0 02          	shl    $0x2,%rax
ffffffff8100a91f:	48 01 d0             	add    %rdx,%rax
ffffffff8100a922:	48 c1 e0 03          	shl    $0x3,%rax
ffffffff8100a926:	48 89 c2             	mov    %rax,%rdx
ffffffff8100a929:	48 8b 45 d8          	mov    -0x28(%rbp),%rax
ffffffff8100a92d:	48 01 d0             	add    %rdx,%rax
ffffffff8100a930:	48 8b 50 08          	mov    0x8(%rax),%rdx
ffffffff8100a934:	48 8b 45 c0          	mov    -0x40(%rbp),%rax
ffffffff8100a938:	48 39 c2             	cmp    %rax,%rdx
ffffffff8100a93b:	77 73                	ja     ffffffff8100a9b0 <physmm_free_pf+0x17c>
ffffffff8100a93d:	8b 55 f8             	mov    -0x8(%rbp),%edx
ffffffff8100a940:	48 89 d0             	mov    %rdx,%rax
ffffffff8100a943:	48 c1 e0 02          	shl    $0x2,%rax
ffffffff8100a947:	48 01 d0             	add    %rdx,%rax
ffffffff8100a94a:	48 c1 e0 03          	shl    $0x3,%rax
ffffffff8100a94e:	48 89 c2             	mov    %rax,%rdx
ffffffff8100a951:	48 8b 45 d8          	mov    -0x28(%rbp),%rax
ffffffff8100a955:	48 01 d0             	add    %rdx,%rax
ffffffff8100a958:	48 8b 48 08          	mov    0x8(%rax),%rcx
ffffffff8100a95c:	8b 55 f8             	mov    -0x8(%rbp),%edx
ffffffff8100a95f:	48 89 d0             	mov    %rdx,%rax
ffffffff8100a962:	48 c1 e0 02          	shl    $0x2,%rax
ffffffff8100a966:	48 01 d0             	add    %rdx,%rax
ffffffff8100a969:	48 c1 e0 03          	shl    $0x3,%rax
ffffffff8100a96d:	48 89 c2             	mov    %rax,%rdx
ffffffff8100a970:	48 8b 45 d8          	mov    -0x28(%rbp),%rax
ffffffff8100a974:	48 01 d0             	add    %rdx,%rax
ffffffff8100a977:	48 8b 40 10          	mov    0x10(%rax),%rax
ffffffff8100a97b:	48 8d 14 01          	lea    (%rcx,%rax,1),%rdx
ffffffff8100a97f:	48 8b 45 c0          	mov    -0x40(%rbp),%rax
ffffffff8100a983:	48 39 c2             	cmp    %rax,%rdx
ffffffff8100a986:	72 28                	jb     ffffffff8100a9b0 <physmm_free_pf+0x17c>
ffffffff8100a988:	8b 55 f8             	mov    -0x8(%rbp),%edx
ffffffff8100a98b:	48 89 d0             	mov    %rdx,%rax
ffffffff8100a98e:	48 c1 e0 02          	shl    $0x2,%rax
ffffffff8100a992:	48 01 d0             	add    %rdx,%rax
ffffffff8100a995:	48 c1 e0 03          	shl    $0x3,%rax
ffffffff8100a999:	48 89 c2             	mov    %rax,%rdx
ffffffff8100a99c:	48 8b 45 d8          	mov    -0x28(%rbp),%rax
ffffffff8100a9a0:	48 01 d0             	add    %rdx,%rax
ffffffff8100a9a3:	48 8b 40 20          	mov    0x20(%rax),%rax
ffffffff8100a9a7:	48 89 45 d0          	mov    %rax,-0x30(%rbp)
ffffffff8100a9ab:	eb 04                	jmp    ffffffff8100a9b1 <physmm_free_pf+0x17d>
ffffffff8100a9ad:	90                   	nop
ffffffff8100a9ae:	eb 01                	jmp    ffffffff8100a9b1 <physmm_free_pf+0x17d>
ffffffff8100a9b0:	90                   	nop
ffffffff8100a9b1:	83 45 f8 01          	addl   $0x1,-0x8(%rbp)
ffffffff8100a9b5:	8b 45 f8             	mov    -0x8(%rbp),%eax
ffffffff8100a9b8:	3b 45 e4             	cmp    -0x1c(%rbp),%eax
ffffffff8100a9bb:	0f 82 2e ff ff ff    	jb     ffffffff8100a8ef <physmm_free_pf+0xbb>
ffffffff8100a9c1:	83 7d fc 00          	cmpl   $0x0,-0x4(%rbp)
ffffffff8100a9c5:	0f 85 da fe ff ff    	jne    ffffffff8100a8a5 <physmm_free_pf+0x71>
ffffffff8100a9cb:	90                   	nop
ffffffff8100a9cc:	c9                   	leaveq 
ffffffff8100a9cd:	c3                   	retq   

ffffffff8100a9ce <physmm_get>:
ffffffff8100a9ce:	55                   	push   %rbp
ffffffff8100a9cf:	48 89 e5             	mov    %rsp,%rbp
ffffffff8100a9d2:	48 c7 c0 90 41 01 81 	mov    $0xffffffff81014190,%rax
ffffffff8100a9d9:	5d                   	pop    %rbp
ffffffff8100a9da:	c3                   	retq   

ffffffff8100a9db <test>:
ffffffff8100a9db:	55                   	push   %rbp
ffffffff8100a9dc:	48 89 e5             	mov    %rsp,%rbp
ffffffff8100a9df:	48 83 ec 18          	sub    $0x18,%rsp
ffffffff8100a9e3:	48 89 7d f8          	mov    %rdi,-0x8(%rbp)
ffffffff8100a9e7:	48 89 75 f0          	mov    %rsi,-0x10(%rbp)
ffffffff8100a9eb:	48 89 55 e8          	mov    %rdx,-0x18(%rbp)
ffffffff8100a9ef:	48 8b 45 f0          	mov    -0x10(%rbp),%rax
ffffffff8100a9f3:	89 c2                	mov    %eax,%edx
ffffffff8100a9f5:	8b 05 a5 97 00 00    	mov    0x97a5(%rip),%eax        # ffffffff810141a0 <allocs.1630>
ffffffff8100a9fb:	01 d0                	add    %edx,%eax
ffffffff8100a9fd:	89 05 9d 97 00 00    	mov    %eax,0x979d(%rip)        # ffffffff810141a0 <allocs.1630>
ffffffff8100aa03:	48 8b 45 f0          	mov    -0x10(%rbp),%rax
ffffffff8100aa07:	c9                   	leaveq 
ffffffff8100aa08:	c3                   	retq   

ffffffff8100aa09 <physmm_test>:
ffffffff8100aa09:	55                   	push   %rbp
ffffffff8100aa0a:	48 89 e5             	mov    %rsp,%rbp
ffffffff8100aa0d:	48 83 ec 10          	sub    $0x10,%rsp
ffffffff8100aa11:	b9 00 00 00 00       	mov    $0x0,%ecx
ffffffff8100aa16:	48 c7 c2 db a9 00 81 	mov    $0xffffffff8100a9db,%rdx
ffffffff8100aa1d:	be 00 00 00 00       	mov    $0x0,%esi
ffffffff8100aa22:	bf 00 00 40 00       	mov    $0x400000,%edi
ffffffff8100aa27:	e8 0b f9 ff ff       	callq  ffffffff8100a337 <physmm_alloc_pf>
ffffffff8100aa2c:	89 45 fc             	mov    %eax,-0x4(%rbp)
ffffffff8100aa2f:	8b 45 fc             	mov    -0x4(%rbp),%eax
ffffffff8100aa32:	89 c6                	mov    %eax,%esi
ffffffff8100aa34:	48 c7 c7 e7 d2 00 81 	mov    $0xffffffff8100d2e7,%rdi
ffffffff8100aa3b:	b8 00 00 00 00       	mov    $0x0,%eax
ffffffff8100aa40:	e8 d1 d5 ff ff       	callq  ffffffff81008016 <kprintf>
ffffffff8100aa45:	90                   	nop
ffffffff8100aa46:	c9                   	leaveq 
ffffffff8100aa47:	c3                   	retq   
ffffffff8100aa48:	0f 1f 84 00 00 00 00 	nopl   0x0(%rax,%rax,1)
ffffffff8100aa4f:	00 

ffffffff8100aa50 <read_port_b>:
ffffffff8100aa50:	48 89 fa             	mov    %rdi,%rdx
ffffffff8100aa53:	48 31 c0             	xor    %rax,%rax
ffffffff8100aa56:	ec                   	in     (%dx),%al
ffffffff8100aa57:	c3                   	retq   

ffffffff8100aa58 <write_port_b>:
ffffffff8100aa58:	48 89 fa             	mov    %rdi,%rdx
ffffffff8100aa5b:	48 89 f0             	mov    %rsi,%rax
ffffffff8100aa5e:	ee                   	out    %al,(%dx)
ffffffff8100aa5f:	c3                   	retq   

ffffffff8100aa60 <read_port_w>:
ffffffff8100aa60:	48 89 fa             	mov    %rdi,%rdx
ffffffff8100aa63:	48 31 c0             	xor    %rax,%rax
ffffffff8100aa66:	66 ed                	in     (%dx),%ax
ffffffff8100aa68:	c3                   	retq   

ffffffff8100aa69 <write_port_w>:
ffffffff8100aa69:	48 89 fa             	mov    %rdi,%rdx
ffffffff8100aa6c:	48 89 f0             	mov    %rsi,%rax
ffffffff8100aa6f:	66 ef                	out    %ax,(%dx)
ffffffff8100aa71:	c3                   	retq   

ffffffff8100aa72 <read_port_dw>:
ffffffff8100aa72:	48 89 fa             	mov    %rdi,%rdx
ffffffff8100aa75:	48 31 c0             	xor    %rax,%rax
ffffffff8100aa78:	ed                   	in     (%dx),%eax
ffffffff8100aa79:	c3                   	retq   

ffffffff8100aa7a <write_port_dw>:
ffffffff8100aa7a:	48 89 fa             	mov    %rdi,%rdx
ffffffff8100aa7d:	48 89 f0             	mov    %rsi,%rax
ffffffff8100aa80:	ef                   	out    %eax,(%dx)
ffffffff8100aa81:	c3                   	retq   
ffffffff8100aa82:	66 2e 0f 1f 84 00 00 	nopw   %cs:0x0(%rax,%rax,1)
ffffffff8100aa89:	00 00 00 
ffffffff8100aa8c:	0f 1f 40 00          	nopl   0x0(%rax)

ffffffff8100aa90 <reload_pages>:
ffffffff8100aa90:	0f 20 d8             	mov    %cr3,%rax
ffffffff8100aa93:	0f 22 d8             	mov    %rax,%cr3
ffffffff8100aa96:	c3                   	retq   

ffffffff8100aa97 <write_cr3>:
ffffffff8100aa97:	0f 22 df             	mov    %rdi,%cr3
ffffffff8100aa9a:	c3                   	retq   

ffffffff8100aa9b <read_cr3>:
ffffffff8100aa9b:	0f 20 d8             	mov    %cr3,%rax
ffffffff8100aa9e:	c3                   	retq   

ffffffff8100aa9f <write_cr2>:
ffffffff8100aa9f:	48 89 f8             	mov    %rdi,%rax
ffffffff8100aaa2:	0f 22 d0             	mov    %rax,%cr2
ffffffff8100aaa5:	c3                   	retq   

ffffffff8100aaa6 <read_cr2>:
ffffffff8100aaa6:	0f 20 d0             	mov    %cr2,%rax
ffffffff8100aaa9:	c3                   	retq   

ffffffff8100aaaa <__invlpg>:
ffffffff8100aaaa:	0f 01 3f             	invlpg (%rdi)
ffffffff8100aaad:	c3                   	retq   

ffffffff8100aaae <mem_map_iter>:
ffffffff8100aaae:	55                   	push   %rbp
ffffffff8100aaaf:	48 89 e5             	mov    %rsp,%rbp
ffffffff8100aab2:	48 83 ec 60          	sub    $0x60,%rsp
ffffffff8100aab6:	48 89 7d a8          	mov    %rdi,-0x58(%rbp)
ffffffff8100aaba:	48 89 75 a0          	mov    %rsi,-0x60(%rbp)
ffffffff8100aabe:	48 c7 45 f0 00 00 00 	movq   $0x0,-0x10(%rbp)
ffffffff8100aac5:	00 
ffffffff8100aac6:	48 c7 45 e8 00 00 00 	movq   $0x0,-0x18(%rbp)
ffffffff8100aacd:	00 
ffffffff8100aace:	c7 45 e4 00 00 00 00 	movl   $0x0,-0x1c(%rbp)
ffffffff8100aad5:	48 c7 45 d8 00 00 00 	movq   $0x0,-0x28(%rbp)
ffffffff8100aadc:	00 
ffffffff8100aadd:	48 c7 45 d0 00 00 00 	movq   $0x0,-0x30(%rbp)
ffffffff8100aae4:	00 
ffffffff8100aae5:	8b 05 25 75 ff 7f    	mov    0x7fff7525(%rip),%eax        # 1002010 <mem_map_sig>
ffffffff8100aaeb:	3d 02 b0 ad 2b       	cmp    $0x2badb002,%eax
ffffffff8100aaf0:	0f 85 8e 00 00 00    	jne    ffffffff8100ab84 <mem_map_iter+0xd6>
ffffffff8100aaf6:	8b 05 10 75 ff 7f    	mov    0x7fff7510(%rip),%eax        # 100200c <mem_map_addr>
ffffffff8100aafc:	89 c0                	mov    %eax,%eax
ffffffff8100aafe:	48 89 45 f0          	mov    %rax,-0x10(%rbp)
ffffffff8100ab02:	48 8b 45 f0          	mov    -0x10(%rbp),%rax
ffffffff8100ab06:	8b 40 2c             	mov    0x2c(%rax),%eax
ffffffff8100ab09:	89 c0                	mov    %eax,%eax
ffffffff8100ab0b:	48 89 45 d0          	mov    %rax,-0x30(%rbp)
ffffffff8100ab0f:	48 c7 45 f8 00 00 00 	movq   $0x0,-0x8(%rbp)
ffffffff8100ab16:	00 
ffffffff8100ab17:	eb 61                	jmp    ffffffff8100ab7a <mem_map_iter+0xcc>
ffffffff8100ab19:	48 8b 45 f0          	mov    -0x10(%rbp),%rax
ffffffff8100ab1d:	8b 40 30             	mov    0x30(%rax),%eax
ffffffff8100ab20:	89 c2                	mov    %eax,%edx
ffffffff8100ab22:	48 8b 45 f8          	mov    -0x8(%rbp),%rax
ffffffff8100ab26:	48 01 d0             	add    %rdx,%rax
ffffffff8100ab29:	48 89 45 e8          	mov    %rax,-0x18(%rbp)
ffffffff8100ab2d:	48 8b 45 e8          	mov    -0x18(%rbp),%rax
ffffffff8100ab31:	48 8b 40 04          	mov    0x4(%rax),%rax
ffffffff8100ab35:	48 89 45 b8          	mov    %rax,-0x48(%rbp)
ffffffff8100ab39:	48 8b 45 e8          	mov    -0x18(%rbp),%rax
ffffffff8100ab3d:	48 8b 40 0c          	mov    0xc(%rax),%rax
ffffffff8100ab41:	48 89 45 c0          	mov    %rax,-0x40(%rbp)
ffffffff8100ab45:	48 8b 45 e8          	mov    -0x18(%rbp),%rax
ffffffff8100ab49:	8b 40 14             	mov    0x14(%rax),%eax
ffffffff8100ab4c:	89 45 c8             	mov    %eax,-0x38(%rbp)
ffffffff8100ab4f:	48 8b 45 e8          	mov    -0x18(%rbp),%rax
ffffffff8100ab53:	8b 00                	mov    (%rax),%eax
ffffffff8100ab55:	89 c2                	mov    %eax,%edx
ffffffff8100ab57:	48 8b 45 f8          	mov    -0x8(%rbp),%rax
ffffffff8100ab5b:	48 01 d0             	add    %rdx,%rax
ffffffff8100ab5e:	48 83 c0 04          	add    $0x4,%rax
ffffffff8100ab62:	48 89 45 f8          	mov    %rax,-0x8(%rbp)
ffffffff8100ab66:	48 8b 55 a0          	mov    -0x60(%rbp),%rdx
ffffffff8100ab6a:	48 8d 45 b8          	lea    -0x48(%rbp),%rax
ffffffff8100ab6e:	48 8b 4d a8          	mov    -0x58(%rbp),%rcx
ffffffff8100ab72:	48 89 d6             	mov    %rdx,%rsi
ffffffff8100ab75:	48 89 c7             	mov    %rax,%rdi
ffffffff8100ab78:	ff d1                	callq  *%rcx
ffffffff8100ab7a:	48 8b 45 f8          	mov    -0x8(%rbp),%rax
ffffffff8100ab7e:	48 3b 45 d0          	cmp    -0x30(%rbp),%rax
ffffffff8100ab82:	72 95                	jb     ffffffff8100ab19 <mem_map_iter+0x6b>
ffffffff8100ab84:	90                   	nop
ffffffff8100ab85:	c9                   	leaveq 
ffffffff8100ab86:	c3                   	retq   

ffffffff8100ab87 <memset>:
ffffffff8100ab87:	55                   	push   %rbp
ffffffff8100ab88:	48 89 e5             	mov    %rsp,%rbp
ffffffff8100ab8b:	48 83 ec 28          	sub    $0x28,%rsp
ffffffff8100ab8f:	48 89 7d e8          	mov    %rdi,-0x18(%rbp)
ffffffff8100ab93:	89 75 e4             	mov    %esi,-0x1c(%rbp)
ffffffff8100ab96:	48 89 55 d8          	mov    %rdx,-0x28(%rbp)
ffffffff8100ab9a:	48 c7 45 f8 00 00 00 	movq   $0x0,-0x8(%rbp)
ffffffff8100aba1:	00 
ffffffff8100aba2:	eb 15                	jmp    ffffffff8100abb9 <memset+0x32>
ffffffff8100aba4:	48 8b 55 e8          	mov    -0x18(%rbp),%rdx
ffffffff8100aba8:	48 8b 45 f8          	mov    -0x8(%rbp),%rax
ffffffff8100abac:	48 01 d0             	add    %rdx,%rax
ffffffff8100abaf:	8b 55 e4             	mov    -0x1c(%rbp),%edx
ffffffff8100abb2:	88 10                	mov    %dl,(%rax)
ffffffff8100abb4:	48 83 45 f8 01       	addq   $0x1,-0x8(%rbp)
ffffffff8100abb9:	48 8b 45 f8          	mov    -0x8(%rbp),%rax
ffffffff8100abbd:	48 3b 45 d8          	cmp    -0x28(%rbp),%rax
ffffffff8100abc1:	72 e1                	jb     ffffffff8100aba4 <memset+0x1d>
ffffffff8100abc3:	48 8b 45 e8          	mov    -0x18(%rbp),%rax
ffffffff8100abc7:	c9                   	leaveq 
ffffffff8100abc8:	c3                   	retq   

ffffffff8100abc9 <memcpy>:
ffffffff8100abc9:	55                   	push   %rbp
ffffffff8100abca:	48 89 e5             	mov    %rsp,%rbp
ffffffff8100abcd:	48 83 ec 28          	sub    $0x28,%rsp
ffffffff8100abd1:	48 89 7d e8          	mov    %rdi,-0x18(%rbp)
ffffffff8100abd5:	48 89 75 e0          	mov    %rsi,-0x20(%rbp)
ffffffff8100abd9:	48 89 55 d8          	mov    %rdx,-0x28(%rbp)
ffffffff8100abdd:	48 c7 45 f8 00 00 00 	movq   $0x0,-0x8(%rbp)
ffffffff8100abe4:	00 
ffffffff8100abe5:	eb 20                	jmp    ffffffff8100ac07 <memcpy+0x3e>
ffffffff8100abe7:	48 8b 55 e0          	mov    -0x20(%rbp),%rdx
ffffffff8100abeb:	48 8b 45 f8          	mov    -0x8(%rbp),%rax
ffffffff8100abef:	48 01 d0             	add    %rdx,%rax
ffffffff8100abf2:	48 8b 4d e8          	mov    -0x18(%rbp),%rcx
ffffffff8100abf6:	48 8b 55 f8          	mov    -0x8(%rbp),%rdx
ffffffff8100abfa:	48 01 ca             	add    %rcx,%rdx
ffffffff8100abfd:	0f b6 00             	movzbl (%rax),%eax
ffffffff8100ac00:	88 02                	mov    %al,(%rdx)
ffffffff8100ac02:	48 83 45 f8 01       	addq   $0x1,-0x8(%rbp)
ffffffff8100ac07:	48 8b 45 f8          	mov    -0x8(%rbp),%rax
ffffffff8100ac0b:	48 3b 45 d8          	cmp    -0x28(%rbp),%rax
ffffffff8100ac0f:	72 d6                	jb     ffffffff8100abe7 <memcpy+0x1e>
ffffffff8100ac11:	48 8b 45 e8          	mov    -0x18(%rbp),%rax
ffffffff8100ac15:	c9                   	leaveq 
ffffffff8100ac16:	c3                   	retq   

ffffffff8100ac17 <memcmp>:
ffffffff8100ac17:	55                   	push   %rbp
ffffffff8100ac18:	48 89 e5             	mov    %rsp,%rbp
ffffffff8100ac1b:	48 83 ec 28          	sub    $0x28,%rsp
ffffffff8100ac1f:	48 89 7d e8          	mov    %rdi,-0x18(%rbp)
ffffffff8100ac23:	48 89 75 e0          	mov    %rsi,-0x20(%rbp)
ffffffff8100ac27:	48 89 55 d8          	mov    %rdx,-0x28(%rbp)
ffffffff8100ac2b:	c6 45 f7 00          	movb   $0x0,-0x9(%rbp)
ffffffff8100ac2f:	c6 45 f6 00          	movb   $0x0,-0xa(%rbp)
ffffffff8100ac33:	48 c7 45 f8 00 00 00 	movq   $0x0,-0x8(%rbp)
ffffffff8100ac3a:	00 
ffffffff8100ac3b:	eb 4d                	jmp    ffffffff8100ac8a <memcmp+0x73>
ffffffff8100ac3d:	48 8b 55 e8          	mov    -0x18(%rbp),%rdx
ffffffff8100ac41:	48 8b 45 f8          	mov    -0x8(%rbp),%rax
ffffffff8100ac45:	48 01 d0             	add    %rdx,%rax
ffffffff8100ac48:	0f b6 10             	movzbl (%rax),%edx
ffffffff8100ac4b:	48 8b 4d e0          	mov    -0x20(%rbp),%rcx
ffffffff8100ac4f:	48 8b 45 f8          	mov    -0x8(%rbp),%rax
ffffffff8100ac53:	48 01 c8             	add    %rcx,%rax
ffffffff8100ac56:	0f b6 00             	movzbl (%rax),%eax
ffffffff8100ac59:	38 c2                	cmp    %al,%dl
ffffffff8100ac5b:	74 28                	je     ffffffff8100ac85 <memcmp+0x6e>
ffffffff8100ac5d:	48 8b 55 e8          	mov    -0x18(%rbp),%rdx
ffffffff8100ac61:	48 8b 45 f8          	mov    -0x8(%rbp),%rax
ffffffff8100ac65:	48 01 d0             	add    %rdx,%rax
ffffffff8100ac68:	0f b6 00             	movzbl (%rax),%eax
ffffffff8100ac6b:	0f be d0             	movsbl %al,%edx
ffffffff8100ac6e:	48 8b 4d e0          	mov    -0x20(%rbp),%rcx
ffffffff8100ac72:	48 8b 45 f8          	mov    -0x8(%rbp),%rax
ffffffff8100ac76:	48 01 c8             	add    %rcx,%rax
ffffffff8100ac79:	0f b6 00             	movzbl (%rax),%eax
ffffffff8100ac7c:	0f be c0             	movsbl %al,%eax
ffffffff8100ac7f:	29 c2                	sub    %eax,%edx
ffffffff8100ac81:	89 d0                	mov    %edx,%eax
ffffffff8100ac83:	eb 14                	jmp    ffffffff8100ac99 <memcmp+0x82>
ffffffff8100ac85:	48 83 45 f8 01       	addq   $0x1,-0x8(%rbp)
ffffffff8100ac8a:	48 8b 45 f8          	mov    -0x8(%rbp),%rax
ffffffff8100ac8e:	48 3b 45 d8          	cmp    -0x28(%rbp),%rax
ffffffff8100ac92:	72 a9                	jb     ffffffff8100ac3d <memcmp+0x26>
ffffffff8100ac94:	b8 00 00 00 00       	mov    $0x0,%eax
ffffffff8100ac99:	c9                   	leaveq 
ffffffff8100ac9a:	c3                   	retq   

ffffffff8100ac9b <pagemgr_boot_temp_map>:
ffffffff8100ac9b:	55                   	push   %rbp
ffffffff8100ac9c:	48 89 e5             	mov    %rsp,%rbp
ffffffff8100ac9f:	48 83 ec 30          	sub    $0x30,%rsp
ffffffff8100aca3:	48 89 7d d8          	mov    %rdi,-0x28(%rbp)
ffffffff8100aca7:	66 c7 45 f6 00 00    	movw   $0x0,-0xa(%rbp)
ffffffff8100acad:	48 c7 45 f8 00 00 00 	movq   $0x0,-0x8(%rbp)
ffffffff8100acb4:	00 
ffffffff8100acb5:	48 c7 45 e8 00 00 00 	movq   $0x0,-0x18(%rbp)
ffffffff8100acbc:	00 
ffffffff8100acbd:	48 c7 45 e0 00 00 00 	movq   $0x0,-0x20(%rbp)
ffffffff8100acc4:	00 
ffffffff8100acc5:	48 8b 45 d8          	mov    -0x28(%rbp),%rax
ffffffff8100acc9:	66 25 ff 0f          	and    $0xfff,%ax
ffffffff8100accd:	66 89 45 f6          	mov    %ax,-0xa(%rbp)
ffffffff8100acd1:	0f b7 45 f6          	movzwl -0xa(%rbp),%eax
ffffffff8100acd5:	48 29 45 d8          	sub    %rax,-0x28(%rbp)
ffffffff8100acd9:	48 8b 05 d8 94 00 00 	mov    0x94d8(%rip),%rax        # ffffffff810141b8 <page_manager+0x8>
ffffffff8100ace0:	48 85 c0             	test   %rax,%rax
ffffffff8100ace3:	75 73                	jne    ffffffff8100ad58 <pagemgr_boot_temp_map+0xbd>
ffffffff8100ace5:	48 c7 45 e8 00 00 10 	movq   $0x100000,-0x18(%rbp)
ffffffff8100acec:	00 
ffffffff8100aced:	48 c7 c0 00 00 00 80 	mov    $0xffffffff80000000,%rax
ffffffff8100acf4:	48 0d 00 e0 ff 3f    	or     $0x3fffe000,%rax
ffffffff8100acfa:	48 89 45 f8          	mov    %rax,-0x8(%rbp)
ffffffff8100acfe:	48 8b 45 e8          	mov    -0x18(%rbp),%rax
ffffffff8100ad02:	48 05 f0 2f 20 00    	add    $0x202ff0,%rax
ffffffff8100ad08:	48 89 45 e0          	mov    %rax,-0x20(%rbp)
ffffffff8100ad0c:	48 8b 45 d8          	mov    -0x28(%rbp),%rax
ffffffff8100ad10:	48 83 c8 1b          	or     $0x1b,%rax
ffffffff8100ad14:	48 89 c2             	mov    %rax,%rdx
ffffffff8100ad17:	48 8b 45 e0          	mov    -0x20(%rbp),%rax
ffffffff8100ad1b:	48 89 10             	mov    %rdx,(%rax)
ffffffff8100ad1e:	48 8b 45 d8          	mov    -0x28(%rbp),%rax
ffffffff8100ad22:	48 8d 90 00 10 00 00 	lea    0x1000(%rax),%rdx
ffffffff8100ad29:	48 8b 45 e0          	mov    -0x20(%rbp),%rax
ffffffff8100ad2d:	48 83 c0 08          	add    $0x8,%rax
ffffffff8100ad31:	48 83 ca 1b          	or     $0x1b,%rdx
ffffffff8100ad35:	48 89 10             	mov    %rdx,(%rax)
ffffffff8100ad38:	48 8b 45 f8          	mov    -0x8(%rbp),%rax
ffffffff8100ad3c:	48 89 c7             	mov    %rax,%rdi
ffffffff8100ad3f:	e8 66 fd ff ff       	callq  ffffffff8100aaaa <__invlpg>
ffffffff8100ad44:	48 8b 45 f8          	mov    -0x8(%rbp),%rax
ffffffff8100ad48:	48 05 00 10 00 00    	add    $0x1000,%rax
ffffffff8100ad4e:	48 89 c7             	mov    %rax,%rdi
ffffffff8100ad51:	e8 54 fd ff ff       	callq  ffffffff8100aaaa <__invlpg>
ffffffff8100ad56:	eb 2c                	jmp    ffffffff8100ad84 <pagemgr_boot_temp_map+0xe9>
ffffffff8100ad58:	48 8b 45 d8          	mov    -0x28(%rbp),%rax
ffffffff8100ad5c:	be fe 01 00 00       	mov    $0x1fe,%esi
ffffffff8100ad61:	48 89 c7             	mov    %rax,%rdi
ffffffff8100ad64:	e8 0d 08 00 00       	callq  ffffffff8100b576 <pagemgr_temp_map>
ffffffff8100ad69:	48 89 45 f8          	mov    %rax,-0x8(%rbp)
ffffffff8100ad6d:	48 8b 45 d8          	mov    -0x28(%rbp),%rax
ffffffff8100ad71:	48 05 00 10 00 00    	add    $0x1000,%rax
ffffffff8100ad77:	be ff 01 00 00       	mov    $0x1ff,%esi
ffffffff8100ad7c:	48 89 c7             	mov    %rax,%rdi
ffffffff8100ad7f:	e8 f2 07 00 00       	callq  ffffffff8100b576 <pagemgr_temp_map>
ffffffff8100ad84:	0f b7 55 f6          	movzwl -0xa(%rbp),%edx
ffffffff8100ad88:	48 8b 45 f8          	mov    -0x8(%rbp),%rax
ffffffff8100ad8c:	48 01 d0             	add    %rdx,%rax
ffffffff8100ad8f:	c9                   	leaveq 
ffffffff8100ad90:	c3                   	retq   

ffffffff8100ad91 <pagemgr_boot_alloc_cb>:
ffffffff8100ad91:	55                   	push   %rbp
ffffffff8100ad92:	48 89 e5             	mov    %rsp,%rbp
ffffffff8100ad95:	48 83 ec 28          	sub    $0x28,%rsp
ffffffff8100ad99:	48 89 7d e8          	mov    %rdi,-0x18(%rbp)
ffffffff8100ad9d:	48 89 75 e0          	mov    %rsi,-0x20(%rbp)
ffffffff8100ada1:	48 89 55 d8          	mov    %rdx,-0x28(%rbp)
ffffffff8100ada5:	48 8b 45 d8          	mov    -0x28(%rbp),%rax
ffffffff8100ada9:	48 89 45 f8          	mov    %rax,-0x8(%rbp)
ffffffff8100adad:	48 8b 45 f8          	mov    -0x8(%rbp),%rax
ffffffff8100adb1:	48 8b 00             	mov    (%rax),%rax
ffffffff8100adb4:	48 85 c0             	test   %rax,%rax
ffffffff8100adb7:	74 07                	je     ffffffff8100adc0 <pagemgr_boot_alloc_cb+0x2f>
ffffffff8100adb9:	b8 00 00 00 00       	mov    $0x0,%eax
ffffffff8100adbe:	eb 10                	jmp    ffffffff8100add0 <pagemgr_boot_alloc_cb+0x3f>
ffffffff8100adc0:	48 8b 45 f8          	mov    -0x8(%rbp),%rax
ffffffff8100adc4:	48 8b 55 e8          	mov    -0x18(%rbp),%rdx
ffffffff8100adc8:	48 89 10             	mov    %rdx,(%rax)
ffffffff8100adcb:	b8 01 00 00 00       	mov    $0x1,%eax
ffffffff8100add0:	c9                   	leaveq 
ffffffff8100add1:	c3                   	retq   

ffffffff8100add2 <pagemgr_boot_alloc_pf>:
ffffffff8100add2:	55                   	push   %rbp
ffffffff8100add3:	48 89 e5             	mov    %rsp,%rbp
ffffffff8100add6:	48 83 ec 10          	sub    $0x10,%rsp
ffffffff8100adda:	48 c7 45 f8 00 00 00 	movq   $0x0,-0x8(%rbp)
ffffffff8100ade1:	00 
ffffffff8100ade2:	48 8b 05 ff 93 00 00 	mov    0x93ff(%rip),%rax        # ffffffff810141e8 <physmm>
ffffffff8100ade9:	4c 8b 00             	mov    (%rax),%r8
ffffffff8100adec:	48 8d 45 f8          	lea    -0x8(%rbp),%rax
ffffffff8100adf0:	48 89 c1             	mov    %rax,%rcx
ffffffff8100adf3:	48 c7 c2 91 ad 00 81 	mov    $0xffffffff8100ad91,%rdx
ffffffff8100adfa:	be 00 00 00 00       	mov    $0x0,%esi
ffffffff8100adff:	bf 01 00 00 00       	mov    $0x1,%edi
ffffffff8100ae04:	41 ff d0             	callq  *%r8
ffffffff8100ae07:	48 8b 45 f8          	mov    -0x8(%rbp),%rax
ffffffff8100ae0b:	c9                   	leaveq 
ffffffff8100ae0c:	c3                   	retq   

ffffffff8100ae0d <pagemgr_attr_translate>:
ffffffff8100ae0d:	55                   	push   %rbp
ffffffff8100ae0e:	48 89 e5             	mov    %rsp,%rbp
ffffffff8100ae11:	48 83 ec 10          	sub    $0x10,%rsp
ffffffff8100ae15:	48 89 7d f8          	mov    %rdi,-0x8(%rbp)
ffffffff8100ae19:	89 75 f4             	mov    %esi,-0xc(%rbp)
ffffffff8100ae1c:	8b 45 f4             	mov    -0xc(%rbp),%eax
ffffffff8100ae1f:	83 e0 01             	and    $0x1,%eax
ffffffff8100ae22:	85 c0                	test   %eax,%eax
ffffffff8100ae24:	0f 95 c2             	setne  %dl
ffffffff8100ae27:	48 8b 45 f8          	mov    -0x8(%rbp),%rax
ffffffff8100ae2b:	83 e2 01             	and    $0x1,%edx
ffffffff8100ae2e:	8d 0c 12             	lea    (%rdx,%rdx,1),%ecx
ffffffff8100ae31:	0f b6 10             	movzbl (%rax),%edx
ffffffff8100ae34:	83 e2 fd             	and    $0xfffffffd,%edx
ffffffff8100ae37:	09 ca                	or     %ecx,%edx
ffffffff8100ae39:	88 10                	mov    %dl,(%rax)
ffffffff8100ae3b:	8b 45 f4             	mov    -0xc(%rbp),%eax
ffffffff8100ae3e:	83 e0 02             	and    $0x2,%eax
ffffffff8100ae41:	85 c0                	test   %eax,%eax
ffffffff8100ae43:	0f 95 c2             	setne  %dl
ffffffff8100ae46:	48 8b 45 f8          	mov    -0x8(%rbp),%rax
ffffffff8100ae4a:	83 e2 01             	and    $0x1,%edx
ffffffff8100ae4d:	8d 0c 95 00 00 00 00 	lea    0x0(,%rdx,4),%ecx
ffffffff8100ae54:	0f b6 10             	movzbl (%rax),%edx
ffffffff8100ae57:	83 e2 fb             	and    $0xfffffffb,%edx
ffffffff8100ae5a:	09 ca                	or     %ecx,%edx
ffffffff8100ae5c:	88 10                	mov    %dl,(%rax)
ffffffff8100ae5e:	8b 45 f4             	mov    -0xc(%rbp),%eax
ffffffff8100ae61:	83 e0 04             	and    $0x4,%eax
ffffffff8100ae64:	85 c0                	test   %eax,%eax
ffffffff8100ae66:	0f 95 c2             	setne  %dl
ffffffff8100ae69:	48 8b 45 f8          	mov    -0x8(%rbp),%rax
ffffffff8100ae6d:	83 e2 01             	and    $0x1,%edx
ffffffff8100ae70:	8d 0c d5 00 00 00 00 	lea    0x0(,%rdx,8),%ecx
ffffffff8100ae77:	0f b6 10             	movzbl (%rax),%edx
ffffffff8100ae7a:	83 e2 f7             	and    $0xfffffff7,%edx
ffffffff8100ae7d:	09 ca                	or     %ecx,%edx
ffffffff8100ae7f:	88 10                	mov    %dl,(%rax)
ffffffff8100ae81:	8b 45 f4             	mov    -0xc(%rbp),%eax
ffffffff8100ae84:	83 e0 08             	and    $0x8,%eax
ffffffff8100ae87:	85 c0                	test   %eax,%eax
ffffffff8100ae89:	0f 95 c2             	setne  %dl
ffffffff8100ae8c:	48 8b 45 f8          	mov    -0x8(%rbp),%rax
ffffffff8100ae90:	83 e2 01             	and    $0x1,%edx
ffffffff8100ae93:	89 d1                	mov    %edx,%ecx
ffffffff8100ae95:	c1 e1 04             	shl    $0x4,%ecx
ffffffff8100ae98:	0f b6 10             	movzbl (%rax),%edx
ffffffff8100ae9b:	83 e2 ef             	and    $0xffffffef,%edx
ffffffff8100ae9e:	09 ca                	or     %ecx,%edx
ffffffff8100aea0:	88 10                	mov    %dl,(%rax)
ffffffff8100aea2:	8b 45 f4             	mov    -0xc(%rbp),%eax
ffffffff8100aea5:	83 e0 10             	and    $0x10,%eax
ffffffff8100aea8:	85 c0                	test   %eax,%eax
ffffffff8100aeaa:	0f 94 c2             	sete   %dl
ffffffff8100aead:	48 8b 45 f8          	mov    -0x8(%rbp),%rax
ffffffff8100aeb1:	89 d1                	mov    %edx,%ecx
ffffffff8100aeb3:	c1 e1 07             	shl    $0x7,%ecx
ffffffff8100aeb6:	0f b6 50 07          	movzbl 0x7(%rax),%edx
ffffffff8100aeba:	83 e2 7f             	and    $0x7f,%edx
ffffffff8100aebd:	09 ca                	or     %ecx,%edx
ffffffff8100aebf:	88 50 07             	mov    %dl,0x7(%rax)
ffffffff8100aec2:	90                   	nop
ffffffff8100aec3:	c9                   	leaveq 
ffffffff8100aec4:	c3                   	retq   

ffffffff8100aec5 <pagemgr_build_init_pagetable>:
ffffffff8100aec5:	55                   	push   %rbp
ffffffff8100aec6:	48 89 e5             	mov    %rsp,%rbp
ffffffff8100aec9:	48 83 ec 70          	sub    $0x70,%rsp
ffffffff8100aecd:	48 c7 45 f8 00 30 00 	movq   $0x1003000,-0x8(%rbp)
ffffffff8100aed4:	01 
ffffffff8100aed5:	48 c7 45 f0 00 00 00 	movq   $0x0,-0x10(%rbp)
ffffffff8100aedc:	00 
ffffffff8100aedd:	48 c7 45 e8 00 00 00 	movq   $0x0,-0x18(%rbp)
ffffffff8100aee4:	00 
ffffffff8100aee5:	48 c7 45 e0 00 00 00 	movq   $0x0,-0x20(%rbp)
ffffffff8100aeec:	00 
ffffffff8100aeed:	48 c7 45 c8 00 00 00 	movq   $0x0,-0x38(%rbp)
ffffffff8100aef4:	00 
ffffffff8100aef5:	66 c7 45 de ff ff    	movw   $0xffff,-0x22(%rbp)
ffffffff8100aefb:	66 c7 45 dc ff ff    	movw   $0xffff,-0x24(%rbp)
ffffffff8100af01:	66 c7 45 da ff ff    	movw   $0xffff,-0x26(%rbp)
ffffffff8100af07:	66 c7 45 d8 ff ff    	movw   $0xffff,-0x28(%rbp)
ffffffff8100af0d:	66 c7 45 c6 ff ff    	movw   $0xffff,-0x3a(%rbp)
ffffffff8100af13:	c6 45 c5 00          	movb   $0x0,-0x3b(%rbp)
ffffffff8100af17:	0f b6 05 a2 92 00 00 	movzbl 0x92a2(%rip),%eax        # ffffffff810141c0 <page_manager+0x10>
ffffffff8100af1e:	88 45 c4             	mov    %al,-0x3c(%rbp)
ffffffff8100af21:	e8 66 14 00 00       	callq  ffffffff8100c38c <has_nx>
ffffffff8100af26:	84 c0                	test   %al,%al
ffffffff8100af28:	74 11                	je     ffffffff8100af3b <pagemgr_build_init_pagetable+0x76>
ffffffff8100af2a:	b8 00 00 00 00       	mov    $0x0,%eax
ffffffff8100af2f:	e8 71 14 00 00       	callq  ffffffff8100c3a5 <enable_nx>
ffffffff8100af34:	c6 05 86 92 00 00 01 	movb   $0x1,0x9286(%rip)        # ffffffff810141c1 <page_manager+0x11>
ffffffff8100af3b:	e8 30 14 00 00       	callq  ffffffff8100c370 <has_pml5>
ffffffff8100af40:	84 c0                	test   %al,%al
ffffffff8100af42:	74 11                	je     ffffffff8100af55 <pagemgr_build_init_pagetable+0x90>
ffffffff8100af44:	b8 00 00 00 00       	mov    $0x0,%eax
ffffffff8100af49:	e8 a2 14 00 00       	callq  ffffffff8100c3f0 <enable_pml5>
ffffffff8100af4e:	c6 05 6b 92 00 00 01 	movb   $0x1,0x926b(%rip)        # ffffffff810141c0 <page_manager+0x10>
ffffffff8100af55:	b8 00 00 00 00       	mov    $0x0,%eax
ffffffff8100af5a:	e8 9d 14 00 00       	callq  ffffffff8100c3fc <enable_wp>
ffffffff8100af5f:	48 8b 05 4a 92 00 00 	mov    0x924a(%rip),%rax        # ffffffff810141b0 <page_manager>
ffffffff8100af66:	48 89 c7             	mov    %rax,%rdi
ffffffff8100af69:	e8 2d fd ff ff       	callq  ffffffff8100ac9b <pagemgr_boot_temp_map>
ffffffff8100af6e:	48 89 45 e0          	mov    %rax,-0x20(%rbp)
ffffffff8100af72:	48 8b 45 e0          	mov    -0x20(%rbp),%rax
ffffffff8100af76:	ba 00 10 00 00       	mov    $0x1000,%edx
ffffffff8100af7b:	be 00 00 00 00       	mov    $0x0,%esi
ffffffff8100af80:	48 89 c7             	mov    %rax,%rdi
ffffffff8100af83:	e8 ff fb ff ff       	callq  ffffffff8100ab87 <memset>
ffffffff8100af88:	c6 45 d7 00          	movb   $0x0,-0x29(%rbp)
ffffffff8100af8c:	e9 03 05 00 00       	jmpq   ffffffff8100b494 <pagemgr_build_init_pagetable+0x5cf>
ffffffff8100af91:	80 7d d7 00          	cmpb   $0x0,-0x29(%rbp)
ffffffff8100af95:	75 1f                	jne    ffffffff8100afb6 <pagemgr_build_init_pagetable+0xf1>
ffffffff8100af97:	48 c7 c2 00 00 00 80 	mov    $0xffffffff80000000,%rdx
ffffffff8100af9e:	48 8b 45 f8          	mov    -0x8(%rbp),%rax
ffffffff8100afa2:	48 01 d0             	add    %rdx,%rax
ffffffff8100afa5:	48 89 45 f0          	mov    %rax,-0x10(%rbp)
ffffffff8100afa9:	48 c7 45 e8 00 50 01 	movq   $0xffffffff81015000,-0x18(%rbp)
ffffffff8100afb0:	81 
ffffffff8100afb1:	e9 bf 04 00 00       	jmpq   ffffffff8100b475 <pagemgr_build_init_pagetable+0x5b0>
ffffffff8100afb6:	48 c7 45 f0 00 00 e0 	movq   $0xffffffffffe00000,-0x10(%rbp)
ffffffff8100afbd:	ff 
ffffffff8100afbe:	48 c7 45 e8 ff ff ff 	movq   $0xffffffffffffffff,-0x18(%rbp)
ffffffff8100afc5:	ff 
ffffffff8100afc6:	e9 aa 04 00 00       	jmpq   ffffffff8100b475 <pagemgr_build_init_pagetable+0x5b0>
ffffffff8100afcb:	80 7d c4 00          	cmpb   $0x0,-0x3c(%rbp)
ffffffff8100afcf:	0f 84 c7 00 00 00    	je     ffffffff8100b09c <pagemgr_build_init_pagetable+0x1d7>
ffffffff8100afd5:	0f b7 45 de          	movzwl -0x22(%rbp),%eax
ffffffff8100afd9:	48 8b 55 f0          	mov    -0x10(%rbp),%rdx
ffffffff8100afdd:	48 c1 ea 2f          	shr    $0x2f,%rdx
ffffffff8100afe1:	81 e2 ff 01 00 00    	and    $0x1ff,%edx
ffffffff8100afe7:	48 39 d0             	cmp    %rdx,%rax
ffffffff8100afea:	0f 84 ac 00 00 00    	je     ffffffff8100b09c <pagemgr_build_init_pagetable+0x1d7>
ffffffff8100aff0:	48 8b 45 f0          	mov    -0x10(%rbp),%rax
ffffffff8100aff4:	48 c1 e8 2f          	shr    $0x2f,%rax
ffffffff8100aff8:	66 25 ff 01          	and    $0x1ff,%ax
ffffffff8100affc:	66 89 45 de          	mov    %ax,-0x22(%rbp)
ffffffff8100b000:	b8 00 00 00 00       	mov    $0x0,%eax
ffffffff8100b005:	e8 c8 fd ff ff       	callq  ffffffff8100add2 <pagemgr_boot_alloc_pf>
ffffffff8100b00a:	48 89 45 b8          	mov    %rax,-0x48(%rbp)
ffffffff8100b00e:	48 8b 45 b8          	mov    -0x48(%rbp),%rax
ffffffff8100b012:	48 85 c0             	test   %rax,%rax
ffffffff8100b015:	75 0a                	jne    ffffffff8100b021 <pagemgr_build_init_pagetable+0x15c>
ffffffff8100b017:	b8 ff ff ff ff       	mov    $0xffffffff,%eax
ffffffff8100b01c:	e9 8d 04 00 00       	jmpq   ffffffff8100b4ae <pagemgr_build_init_pagetable+0x5e9>
ffffffff8100b021:	0f b6 45 b8          	movzbl -0x48(%rbp),%eax
ffffffff8100b025:	83 c8 01             	or     $0x1,%eax
ffffffff8100b028:	88 45 b8             	mov    %al,-0x48(%rbp)
ffffffff8100b02b:	0f b6 45 b8          	movzbl -0x48(%rbp),%eax
ffffffff8100b02f:	83 c8 02             	or     $0x2,%eax
ffffffff8100b032:	88 45 b8             	mov    %al,-0x48(%rbp)
ffffffff8100b035:	48 8b 45 b8          	mov    -0x48(%rbp),%rax
ffffffff8100b039:	48 25 00 f0 ff ff    	and    $0xfffffffffffff000,%rax
ffffffff8100b03f:	48 89 c7             	mov    %rax,%rdi
ffffffff8100b042:	e8 54 fc ff ff       	callq  ffffffff8100ac9b <pagemgr_boot_temp_map>
ffffffff8100b047:	48 89 45 e0          	mov    %rax,-0x20(%rbp)
ffffffff8100b04b:	48 8b 45 e0          	mov    -0x20(%rbp),%rax
ffffffff8100b04f:	ba 00 10 00 00       	mov    $0x1000,%edx
ffffffff8100b054:	be 00 00 00 00       	mov    $0x0,%esi
ffffffff8100b059:	48 89 c7             	mov    %rax,%rdi
ffffffff8100b05c:	e8 26 fb ff ff       	callq  ffffffff8100ab87 <memset>
ffffffff8100b061:	48 8b 05 48 91 00 00 	mov    0x9148(%rip),%rax        # ffffffff810141b0 <page_manager>
ffffffff8100b068:	48 89 c7             	mov    %rax,%rdi
ffffffff8100b06b:	e8 2b fc ff ff       	callq  ffffffff8100ac9b <pagemgr_boot_temp_map>
ffffffff8100b070:	48 89 45 e0          	mov    %rax,-0x20(%rbp)
ffffffff8100b074:	0f b7 45 de          	movzwl -0x22(%rbp),%eax
ffffffff8100b078:	48 8d 14 c5 00 00 00 	lea    0x0(,%rax,8),%rdx
ffffffff8100b07f:	00 
ffffffff8100b080:	48 8b 45 e0          	mov    -0x20(%rbp),%rax
ffffffff8100b084:	48 8d 0c 02          	lea    (%rdx,%rax,1),%rcx
ffffffff8100b088:	48 8d 45 b8          	lea    -0x48(%rbp),%rax
ffffffff8100b08c:	ba 08 00 00 00       	mov    $0x8,%edx
ffffffff8100b091:	48 89 c6             	mov    %rax,%rsi
ffffffff8100b094:	48 89 cf             	mov    %rcx,%rdi
ffffffff8100b097:	e8 2d fb ff ff       	callq  ffffffff8100abc9 <memcpy>
ffffffff8100b09c:	0f b7 45 dc          	movzwl -0x24(%rbp),%eax
ffffffff8100b0a0:	48 8b 55 f0          	mov    -0x10(%rbp),%rdx
ffffffff8100b0a4:	48 c1 ea 27          	shr    $0x27,%rdx
ffffffff8100b0a8:	81 e2 ff 01 00 00    	and    $0x1ff,%edx
ffffffff8100b0ae:	48 39 d0             	cmp    %rdx,%rax
ffffffff8100b0b1:	0f 84 ca 00 00 00    	je     ffffffff8100b181 <pagemgr_build_init_pagetable+0x2bc>
ffffffff8100b0b7:	48 8b 45 f0          	mov    -0x10(%rbp),%rax
ffffffff8100b0bb:	48 c1 e8 27          	shr    $0x27,%rax
ffffffff8100b0bf:	66 25 ff 01          	and    $0x1ff,%ax
ffffffff8100b0c3:	66 89 45 dc          	mov    %ax,-0x24(%rbp)
ffffffff8100b0c7:	b8 00 00 00 00       	mov    $0x0,%eax
ffffffff8100b0cc:	e8 01 fd ff ff       	callq  ffffffff8100add2 <pagemgr_boot_alloc_pf>
ffffffff8100b0d1:	48 89 45 b0          	mov    %rax,-0x50(%rbp)
ffffffff8100b0d5:	48 8b 45 b0          	mov    -0x50(%rbp),%rax
ffffffff8100b0d9:	48 85 c0             	test   %rax,%rax
ffffffff8100b0dc:	75 0a                	jne    ffffffff8100b0e8 <pagemgr_build_init_pagetable+0x223>
ffffffff8100b0de:	b8 ff ff ff ff       	mov    $0xffffffff,%eax
ffffffff8100b0e3:	e9 c6 03 00 00       	jmpq   ffffffff8100b4ae <pagemgr_build_init_pagetable+0x5e9>
ffffffff8100b0e8:	0f b6 45 b0          	movzbl -0x50(%rbp),%eax
ffffffff8100b0ec:	83 c8 01             	or     $0x1,%eax
ffffffff8100b0ef:	88 45 b0             	mov    %al,-0x50(%rbp)
ffffffff8100b0f2:	0f b6 45 b0          	movzbl -0x50(%rbp),%eax
ffffffff8100b0f6:	83 c8 02             	or     $0x2,%eax
ffffffff8100b0f9:	88 45 b0             	mov    %al,-0x50(%rbp)
ffffffff8100b0fc:	48 8b 45 b0          	mov    -0x50(%rbp),%rax
ffffffff8100b100:	48 25 00 f0 ff ff    	and    $0xfffffffffffff000,%rax
ffffffff8100b106:	48 89 c7             	mov    %rax,%rdi
ffffffff8100b109:	e8 8d fb ff ff       	callq  ffffffff8100ac9b <pagemgr_boot_temp_map>
ffffffff8100b10e:	48 89 45 e0          	mov    %rax,-0x20(%rbp)
ffffffff8100b112:	48 8b 45 e0          	mov    -0x20(%rbp),%rax
ffffffff8100b116:	ba 00 10 00 00       	mov    $0x1000,%edx
ffffffff8100b11b:	be 00 00 00 00       	mov    $0x0,%esi
ffffffff8100b120:	48 89 c7             	mov    %rax,%rdi
ffffffff8100b123:	e8 5f fa ff ff       	callq  ffffffff8100ab87 <memset>
ffffffff8100b128:	80 7d c4 00          	cmpb   $0x0,-0x3c(%rbp)
ffffffff8100b12c:	74 18                	je     ffffffff8100b146 <pagemgr_build_init_pagetable+0x281>
ffffffff8100b12e:	48 8b 45 b8          	mov    -0x48(%rbp),%rax
ffffffff8100b132:	48 25 00 f0 ff ff    	and    $0xfffffffffffff000,%rax
ffffffff8100b138:	48 89 c7             	mov    %rax,%rdi
ffffffff8100b13b:	e8 5b fb ff ff       	callq  ffffffff8100ac9b <pagemgr_boot_temp_map>
ffffffff8100b140:	48 89 45 e0          	mov    %rax,-0x20(%rbp)
ffffffff8100b144:	eb 13                	jmp    ffffffff8100b159 <pagemgr_build_init_pagetable+0x294>
ffffffff8100b146:	48 8b 05 63 90 00 00 	mov    0x9063(%rip),%rax        # ffffffff810141b0 <page_manager>
ffffffff8100b14d:	48 89 c7             	mov    %rax,%rdi
ffffffff8100b150:	e8 46 fb ff ff       	callq  ffffffff8100ac9b <pagemgr_boot_temp_map>
ffffffff8100b155:	48 89 45 e0          	mov    %rax,-0x20(%rbp)
ffffffff8100b159:	0f b7 45 dc          	movzwl -0x24(%rbp),%eax
ffffffff8100b15d:	48 8d 14 c5 00 00 00 	lea    0x0(,%rax,8),%rdx
ffffffff8100b164:	00 
ffffffff8100b165:	48 8b 45 e0          	mov    -0x20(%rbp),%rax
ffffffff8100b169:	48 8d 0c 02          	lea    (%rdx,%rax,1),%rcx
ffffffff8100b16d:	48 8d 45 b0          	lea    -0x50(%rbp),%rax
ffffffff8100b171:	ba 08 00 00 00       	mov    $0x8,%edx
ffffffff8100b176:	48 89 c6             	mov    %rax,%rsi
ffffffff8100b179:	48 89 cf             	mov    %rcx,%rdi
ffffffff8100b17c:	e8 48 fa ff ff       	callq  ffffffff8100abc9 <memcpy>
ffffffff8100b181:	0f b7 45 da          	movzwl -0x26(%rbp),%eax
ffffffff8100b185:	48 8b 55 f0          	mov    -0x10(%rbp),%rdx
ffffffff8100b189:	48 c1 ea 1e          	shr    $0x1e,%rdx
ffffffff8100b18d:	81 e2 ff 01 00 00    	and    $0x1ff,%edx
ffffffff8100b193:	48 39 d0             	cmp    %rdx,%rax
ffffffff8100b196:	0f 84 af 00 00 00    	je     ffffffff8100b24b <pagemgr_build_init_pagetable+0x386>
ffffffff8100b19c:	48 8b 45 f0          	mov    -0x10(%rbp),%rax
ffffffff8100b1a0:	48 c1 e8 1e          	shr    $0x1e,%rax
ffffffff8100b1a4:	66 25 ff 01          	and    $0x1ff,%ax
ffffffff8100b1a8:	66 89 45 da          	mov    %ax,-0x26(%rbp)
ffffffff8100b1ac:	b8 00 00 00 00       	mov    $0x0,%eax
ffffffff8100b1b1:	e8 1c fc ff ff       	callq  ffffffff8100add2 <pagemgr_boot_alloc_pf>
ffffffff8100b1b6:	48 89 45 a8          	mov    %rax,-0x58(%rbp)
ffffffff8100b1ba:	48 8b 45 a8          	mov    -0x58(%rbp),%rax
ffffffff8100b1be:	48 85 c0             	test   %rax,%rax
ffffffff8100b1c1:	75 0a                	jne    ffffffff8100b1cd <pagemgr_build_init_pagetable+0x308>
ffffffff8100b1c3:	b8 ff ff ff ff       	mov    $0xffffffff,%eax
ffffffff8100b1c8:	e9 e1 02 00 00       	jmpq   ffffffff8100b4ae <pagemgr_build_init_pagetable+0x5e9>
ffffffff8100b1cd:	0f b6 45 a8          	movzbl -0x58(%rbp),%eax
ffffffff8100b1d1:	83 c8 01             	or     $0x1,%eax
ffffffff8100b1d4:	88 45 a8             	mov    %al,-0x58(%rbp)
ffffffff8100b1d7:	0f b6 45 a8          	movzbl -0x58(%rbp),%eax
ffffffff8100b1db:	83 c8 02             	or     $0x2,%eax
ffffffff8100b1de:	88 45 a8             	mov    %al,-0x58(%rbp)
ffffffff8100b1e1:	48 8b 45 a8          	mov    -0x58(%rbp),%rax
ffffffff8100b1e5:	48 25 00 f0 ff ff    	and    $0xfffffffffffff000,%rax
ffffffff8100b1eb:	48 89 c7             	mov    %rax,%rdi
ffffffff8100b1ee:	e8 a8 fa ff ff       	callq  ffffffff8100ac9b <pagemgr_boot_temp_map>
ffffffff8100b1f3:	48 89 45 e0          	mov    %rax,-0x20(%rbp)
ffffffff8100b1f7:	48 8b 45 e0          	mov    -0x20(%rbp),%rax
ffffffff8100b1fb:	ba 00 10 00 00       	mov    $0x1000,%edx
ffffffff8100b200:	be 00 00 00 00       	mov    $0x0,%esi
ffffffff8100b205:	48 89 c7             	mov    %rax,%rdi
ffffffff8100b208:	e8 7a f9 ff ff       	callq  ffffffff8100ab87 <memset>
ffffffff8100b20d:	48 8b 45 b0          	mov    -0x50(%rbp),%rax
ffffffff8100b211:	48 25 00 f0 ff ff    	and    $0xfffffffffffff000,%rax
ffffffff8100b217:	48 89 c7             	mov    %rax,%rdi
ffffffff8100b21a:	e8 7c fa ff ff       	callq  ffffffff8100ac9b <pagemgr_boot_temp_map>
ffffffff8100b21f:	48 89 45 e0          	mov    %rax,-0x20(%rbp)
ffffffff8100b223:	0f b7 45 da          	movzwl -0x26(%rbp),%eax
ffffffff8100b227:	48 8d 14 c5 00 00 00 	lea    0x0(,%rax,8),%rdx
ffffffff8100b22e:	00 
ffffffff8100b22f:	48 8b 45 e0          	mov    -0x20(%rbp),%rax
ffffffff8100b233:	48 8d 0c 02          	lea    (%rdx,%rax,1),%rcx
ffffffff8100b237:	48 8d 45 a8          	lea    -0x58(%rbp),%rax
ffffffff8100b23b:	ba 08 00 00 00       	mov    $0x8,%edx
ffffffff8100b240:	48 89 c6             	mov    %rax,%rsi
ffffffff8100b243:	48 89 cf             	mov    %rcx,%rdi
ffffffff8100b246:	e8 7e f9 ff ff       	callq  ffffffff8100abc9 <memcpy>
ffffffff8100b24b:	0f b7 45 d8          	movzwl -0x28(%rbp),%eax
ffffffff8100b24f:	48 8b 55 f0          	mov    -0x10(%rbp),%rdx
ffffffff8100b253:	48 c1 ea 15          	shr    $0x15,%rdx
ffffffff8100b257:	81 e2 ff 01 00 00    	and    $0x1ff,%edx
ffffffff8100b25d:	48 39 d0             	cmp    %rdx,%rax
ffffffff8100b260:	0f 84 af 00 00 00    	je     ffffffff8100b315 <pagemgr_build_init_pagetable+0x450>
ffffffff8100b266:	48 8b 45 f0          	mov    -0x10(%rbp),%rax
ffffffff8100b26a:	48 c1 e8 15          	shr    $0x15,%rax
ffffffff8100b26e:	66 25 ff 01          	and    $0x1ff,%ax
ffffffff8100b272:	66 89 45 d8          	mov    %ax,-0x28(%rbp)
ffffffff8100b276:	b8 00 00 00 00       	mov    $0x0,%eax
ffffffff8100b27b:	e8 52 fb ff ff       	callq  ffffffff8100add2 <pagemgr_boot_alloc_pf>
ffffffff8100b280:	48 89 45 a0          	mov    %rax,-0x60(%rbp)
ffffffff8100b284:	48 8b 45 a0          	mov    -0x60(%rbp),%rax
ffffffff8100b288:	48 85 c0             	test   %rax,%rax
ffffffff8100b28b:	75 0a                	jne    ffffffff8100b297 <pagemgr_build_init_pagetable+0x3d2>
ffffffff8100b28d:	b8 ff ff ff ff       	mov    $0xffffffff,%eax
ffffffff8100b292:	e9 17 02 00 00       	jmpq   ffffffff8100b4ae <pagemgr_build_init_pagetable+0x5e9>
ffffffff8100b297:	0f b6 45 a0          	movzbl -0x60(%rbp),%eax
ffffffff8100b29b:	83 c8 01             	or     $0x1,%eax
ffffffff8100b29e:	88 45 a0             	mov    %al,-0x60(%rbp)
ffffffff8100b2a1:	0f b6 45 a0          	movzbl -0x60(%rbp),%eax
ffffffff8100b2a5:	83 c8 02             	or     $0x2,%eax
ffffffff8100b2a8:	88 45 a0             	mov    %al,-0x60(%rbp)
ffffffff8100b2ab:	48 8b 45 a0          	mov    -0x60(%rbp),%rax
ffffffff8100b2af:	48 25 00 f0 ff ff    	and    $0xfffffffffffff000,%rax
ffffffff8100b2b5:	48 89 c7             	mov    %rax,%rdi
ffffffff8100b2b8:	e8 de f9 ff ff       	callq  ffffffff8100ac9b <pagemgr_boot_temp_map>
ffffffff8100b2bd:	48 89 45 e0          	mov    %rax,-0x20(%rbp)
ffffffff8100b2c1:	48 8b 45 e0          	mov    -0x20(%rbp),%rax
ffffffff8100b2c5:	ba 00 10 00 00       	mov    $0x1000,%edx
ffffffff8100b2ca:	be 00 00 00 00       	mov    $0x0,%esi
ffffffff8100b2cf:	48 89 c7             	mov    %rax,%rdi
ffffffff8100b2d2:	e8 b0 f8 ff ff       	callq  ffffffff8100ab87 <memset>
ffffffff8100b2d7:	48 8b 45 a8          	mov    -0x58(%rbp),%rax
ffffffff8100b2db:	48 25 00 f0 ff ff    	and    $0xfffffffffffff000,%rax
ffffffff8100b2e1:	48 89 c7             	mov    %rax,%rdi
ffffffff8100b2e4:	e8 b2 f9 ff ff       	callq  ffffffff8100ac9b <pagemgr_boot_temp_map>
ffffffff8100b2e9:	48 89 45 e0          	mov    %rax,-0x20(%rbp)
ffffffff8100b2ed:	0f b7 45 d8          	movzwl -0x28(%rbp),%eax
ffffffff8100b2f1:	48 8d 14 c5 00 00 00 	lea    0x0(,%rax,8),%rdx
ffffffff8100b2f8:	00 
ffffffff8100b2f9:	48 8b 45 e0          	mov    -0x20(%rbp),%rax
ffffffff8100b2fd:	48 8d 0c 02          	lea    (%rdx,%rax,1),%rcx
ffffffff8100b301:	48 8d 45 a0          	lea    -0x60(%rbp),%rax
ffffffff8100b305:	ba 08 00 00 00       	mov    $0x8,%edx
ffffffff8100b30a:	48 89 c6             	mov    %rax,%rsi
ffffffff8100b30d:	48 89 cf             	mov    %rcx,%rdi
ffffffff8100b310:	e8 b4 f8 ff ff       	callq  ffffffff8100abc9 <memcpy>
ffffffff8100b315:	48 8b 45 f0          	mov    -0x10(%rbp),%rax
ffffffff8100b319:	48 c1 e8 0c          	shr    $0xc,%rax
ffffffff8100b31d:	66 25 ff 01          	and    $0x1ff,%ax
ffffffff8100b321:	66 89 45 c6          	mov    %ax,-0x3a(%rbp)
ffffffff8100b325:	80 7d d7 00          	cmpb   $0x0,-0x29(%rbp)
ffffffff8100b329:	0f 85 9b 00 00 00    	jne    ffffffff8100b3ca <pagemgr_build_init_pagetable+0x505>
ffffffff8100b32f:	48 8b 45 f8          	mov    -0x8(%rbp),%rax
ffffffff8100b333:	48 89 45 98          	mov    %rax,-0x68(%rbp)
ffffffff8100b337:	0f b6 05 83 8e 00 00 	movzbl 0x8e83(%rip),%eax        # ffffffff810141c1 <page_manager+0x11>
ffffffff8100b33e:	83 e0 01             	and    $0x1,%eax
ffffffff8100b341:	c1 e0 07             	shl    $0x7,%eax
ffffffff8100b344:	89 c2                	mov    %eax,%edx
ffffffff8100b346:	0f b6 45 9f          	movzbl -0x61(%rbp),%eax
ffffffff8100b34a:	83 e0 7f             	and    $0x7f,%eax
ffffffff8100b34d:	09 d0                	or     %edx,%eax
ffffffff8100b34f:	88 45 9f             	mov    %al,-0x61(%rbp)
ffffffff8100b352:	48 c7 c0 00 30 00 81 	mov    $0xffffffff81003000,%rax
ffffffff8100b359:	48 39 45 f0          	cmp    %rax,-0x10(%rbp)
ffffffff8100b35d:	72 23                	jb     ffffffff8100b382 <pagemgr_build_init_pagetable+0x4bd>
ffffffff8100b35f:	48 c7 c0 00 d0 00 81 	mov    $0xffffffff8100d000,%rax
ffffffff8100b366:	48 39 45 f0          	cmp    %rax,-0x10(%rbp)
ffffffff8100b36a:	77 16                	ja     ffffffff8100b382 <pagemgr_build_init_pagetable+0x4bd>
ffffffff8100b36c:	0f b6 45 98          	movzbl -0x68(%rbp),%eax
ffffffff8100b370:	83 e0 fd             	and    $0xfffffffd,%eax
ffffffff8100b373:	88 45 98             	mov    %al,-0x68(%rbp)
ffffffff8100b376:	0f b6 45 9f          	movzbl -0x61(%rbp),%eax
ffffffff8100b37a:	83 e0 7f             	and    $0x7f,%eax
ffffffff8100b37d:	88 45 9f             	mov    %al,-0x61(%rbp)
ffffffff8100b380:	eb 3e                	jmp    ffffffff8100b3c0 <pagemgr_build_init_pagetable+0x4fb>
ffffffff8100b382:	48 c7 c0 00 e0 00 81 	mov    $0xffffffff8100e000,%rax
ffffffff8100b389:	48 39 45 f0          	cmp    %rax,-0x10(%rbp)
ffffffff8100b38d:	72 0d                	jb     ffffffff8100b39c <pagemgr_build_init_pagetable+0x4d7>
ffffffff8100b38f:	48 c7 c0 00 f0 00 81 	mov    $0xffffffff8100f000,%rax
ffffffff8100b396:	48 39 45 f0          	cmp    %rax,-0x10(%rbp)
ffffffff8100b39a:	76 1a                	jbe    ffffffff8100b3b6 <pagemgr_build_init_pagetable+0x4f1>
ffffffff8100b39c:	48 c7 c0 00 00 01 81 	mov    $0xffffffff81010000,%rax
ffffffff8100b3a3:	48 39 45 f0          	cmp    %rax,-0x10(%rbp)
ffffffff8100b3a7:	72 17                	jb     ffffffff8100b3c0 <pagemgr_build_init_pagetable+0x4fb>
ffffffff8100b3a9:	48 c7 c0 00 50 01 81 	mov    $0xffffffff81015000,%rax
ffffffff8100b3b0:	48 39 45 f0          	cmp    %rax,-0x10(%rbp)
ffffffff8100b3b4:	77 0a                	ja     ffffffff8100b3c0 <pagemgr_build_init_pagetable+0x4fb>
ffffffff8100b3b6:	0f b6 45 98          	movzbl -0x68(%rbp),%eax
ffffffff8100b3ba:	83 c8 02             	or     $0x2,%eax
ffffffff8100b3bd:	88 45 98             	mov    %al,-0x68(%rbp)
ffffffff8100b3c0:	48 81 45 f8 00 10 00 	addq   $0x1000,-0x8(%rbp)
ffffffff8100b3c7:	00 
ffffffff8100b3c8:	eb 44                	jmp    ffffffff8100b40e <pagemgr_build_init_pagetable+0x549>
ffffffff8100b3ca:	80 7d d7 01          	cmpb   $0x1,-0x29(%rbp)
ffffffff8100b3ce:	75 3e                	jne    ffffffff8100b40e <pagemgr_build_init_pagetable+0x549>
ffffffff8100b3d0:	0f b6 05 ea 8d 00 00 	movzbl 0x8dea(%rip),%eax        # ffffffff810141c1 <page_manager+0x11>
ffffffff8100b3d7:	83 e0 01             	and    $0x1,%eax
ffffffff8100b3da:	c1 e0 07             	shl    $0x7,%eax
ffffffff8100b3dd:	89 c2                	mov    %eax,%edx
ffffffff8100b3df:	0f b6 45 9f          	movzbl -0x61(%rbp),%eax
ffffffff8100b3e3:	83 e0 7f             	and    $0x7f,%eax
ffffffff8100b3e6:	09 d0                	or     %edx,%eax
ffffffff8100b3e8:	88 45 9f             	mov    %al,-0x61(%rbp)
ffffffff8100b3eb:	66 83 7d c6 00       	cmpw   $0x0,-0x3a(%rbp)
ffffffff8100b3f0:	75 14                	jne    ffffffff8100b406 <pagemgr_build_init_pagetable+0x541>
ffffffff8100b3f2:	48 8b 45 a0          	mov    -0x60(%rbp),%rax
ffffffff8100b3f6:	48 89 45 98          	mov    %rax,-0x68(%rbp)
ffffffff8100b3fa:	0f b6 45 98          	movzbl -0x68(%rbp),%eax
ffffffff8100b3fe:	83 c8 02             	or     $0x2,%eax
ffffffff8100b401:	88 45 98             	mov    %al,-0x68(%rbp)
ffffffff8100b404:	eb 08                	jmp    ffffffff8100b40e <pagemgr_build_init_pagetable+0x549>
ffffffff8100b406:	48 c7 45 98 00 00 00 	movq   $0x0,-0x68(%rbp)
ffffffff8100b40d:	00 
ffffffff8100b40e:	0f b6 45 98          	movzbl -0x68(%rbp),%eax
ffffffff8100b412:	83 c8 01             	or     $0x1,%eax
ffffffff8100b415:	88 45 98             	mov    %al,-0x68(%rbp)
ffffffff8100b418:	48 81 45 f0 00 10 00 	addq   $0x1000,-0x10(%rbp)
ffffffff8100b41f:	00 
ffffffff8100b420:	48 8b 45 a0          	mov    -0x60(%rbp),%rax
ffffffff8100b424:	48 25 00 f0 ff ff    	and    $0xfffffffffffff000,%rax
ffffffff8100b42a:	48 89 c7             	mov    %rax,%rdi
ffffffff8100b42d:	e8 69 f8 ff ff       	callq  ffffffff8100ac9b <pagemgr_boot_temp_map>
ffffffff8100b432:	48 89 45 e0          	mov    %rax,-0x20(%rbp)
ffffffff8100b436:	0f b7 45 c6          	movzwl -0x3a(%rbp),%eax
ffffffff8100b43a:	48 8d 14 c5 00 00 00 	lea    0x0(,%rax,8),%rdx
ffffffff8100b441:	00 
ffffffff8100b442:	48 8b 45 e0          	mov    -0x20(%rbp),%rax
ffffffff8100b446:	48 8d 0c 02          	lea    (%rdx,%rax,1),%rcx
ffffffff8100b44a:	48 8d 45 98          	lea    -0x68(%rbp),%rax
ffffffff8100b44e:	ba 08 00 00 00       	mov    $0x8,%edx
ffffffff8100b453:	48 89 c6             	mov    %rax,%rsi
ffffffff8100b456:	48 89 cf             	mov    %rcx,%rdi
ffffffff8100b459:	e8 6b f7 ff ff       	callq  ffffffff8100abc9 <memcpy>
ffffffff8100b45e:	80 7d d7 00          	cmpb   $0x0,-0x29(%rbp)
ffffffff8100b462:	75 11                	jne    ffffffff8100b475 <pagemgr_build_init_pagetable+0x5b0>
ffffffff8100b464:	48 81 7d f0 ff ff df 	cmpq   $0xffffffffffdfffff,-0x10(%rbp)
ffffffff8100b46b:	ff 
ffffffff8100b46c:	76 07                	jbe    ffffffff8100b475 <pagemgr_build_init_pagetable+0x5b0>
ffffffff8100b46e:	b8 ff ff ff ff       	mov    $0xffffffff,%eax
ffffffff8100b473:	eb 39                	jmp    ffffffff8100b4ae <pagemgr_build_init_pagetable+0x5e9>
ffffffff8100b475:	48 8b 45 f0          	mov    -0x10(%rbp),%rax
ffffffff8100b479:	48 3b 45 e8          	cmp    -0x18(%rbp),%rax
ffffffff8100b47d:	73 0b                	jae    ffffffff8100b48a <pagemgr_build_init_pagetable+0x5c5>
ffffffff8100b47f:	48 83 7d f0 00       	cmpq   $0x0,-0x10(%rbp)
ffffffff8100b484:	0f 85 41 fb ff ff    	jne    ffffffff8100afcb <pagemgr_build_init_pagetable+0x106>
ffffffff8100b48a:	0f b6 45 d7          	movzbl -0x29(%rbp),%eax
ffffffff8100b48e:	83 c0 01             	add    $0x1,%eax
ffffffff8100b491:	88 45 d7             	mov    %al,-0x29(%rbp)
ffffffff8100b494:	80 7d d7 01          	cmpb   $0x1,-0x29(%rbp)
ffffffff8100b498:	0f 86 f3 fa ff ff    	jbe    ffffffff8100af91 <pagemgr_build_init_pagetable+0xcc>
ffffffff8100b49e:	48 c7 05 0f 8d 00 00 	movq   $0xffffffffffe00000,0x8d0f(%rip)        # ffffffff810141b8 <page_manager+0x8>
ffffffff8100b4a5:	00 00 e0 ff 
ffffffff8100b4a9:	b8 00 00 00 00       	mov    $0x0,%eax
ffffffff8100b4ae:	c9                   	leaveq 
ffffffff8100b4af:	c3                   	retq   

ffffffff8100b4b0 <pagemgr_init>:
ffffffff8100b4b0:	55                   	push   %rbp
ffffffff8100b4b1:	48 89 e5             	mov    %rsp,%rbp
ffffffff8100b4b4:	e8 15 f5 ff ff       	callq  ffffffff8100a9ce <physmm_get>
ffffffff8100b4b9:	48 89 05 28 8d 00 00 	mov    %rax,0x8d28(%rip)        # ffffffff810141e8 <physmm>
ffffffff8100b4c0:	e8 ab 0e 00 00       	callq  ffffffff8100c370 <has_pml5>
ffffffff8100b4c5:	88 05 f5 8c 00 00    	mov    %al,0x8cf5(%rip)        # ffffffff810141c0 <page_manager+0x10>
ffffffff8100b4cb:	ba 18 00 00 00       	mov    $0x18,%edx
ffffffff8100b4d0:	be 00 00 00 00       	mov    $0x0,%esi
ffffffff8100b4d5:	48 c7 c7 b0 41 01 81 	mov    $0xffffffff810141b0,%rdi
ffffffff8100b4dc:	e8 a6 f6 ff ff       	callq  ffffffff8100ab87 <memset>
ffffffff8100b4e1:	b8 00 00 00 00       	mov    $0x0,%eax
ffffffff8100b4e6:	e8 e7 f8 ff ff       	callq  ffffffff8100add2 <pagemgr_boot_alloc_pf>
ffffffff8100b4eb:	48 89 05 be 8c 00 00 	mov    %rax,0x8cbe(%rip)        # ffffffff810141b0 <page_manager>
ffffffff8100b4f2:	48 8b 05 b7 8c 00 00 	mov    0x8cb7(%rip),%rax        # ffffffff810141b0 <page_manager>
ffffffff8100b4f9:	48 85 c0             	test   %rax,%rax
ffffffff8100b4fc:	75 07                	jne    ffffffff8100b505 <pagemgr_init+0x55>
ffffffff8100b4fe:	b8 ff ff ff ff       	mov    $0xffffffff,%eax
ffffffff8100b503:	eb 51                	jmp    ffffffff8100b556 <pagemgr_init+0xa6>
ffffffff8100b505:	e8 bb f9 ff ff       	callq  ffffffff8100aec5 <pagemgr_build_init_pagetable>
ffffffff8100b50a:	83 f8 ff             	cmp    $0xffffffff,%eax
ffffffff8100b50d:	75 07                	jne    ffffffff8100b516 <pagemgr_init+0x66>
ffffffff8100b50f:	b8 ff ff ff ff       	mov    $0xffffffff,%eax
ffffffff8100b514:	eb 40                	jmp    ffffffff8100b556 <pagemgr_init+0xa6>
ffffffff8100b516:	48 8b 05 93 8c 00 00 	mov    0x8c93(%rip),%rax        # ffffffff810141b0 <page_manager>
ffffffff8100b51d:	48 89 c7             	mov    %rax,%rdi
ffffffff8100b520:	e8 72 f5 ff ff       	callq  ffffffff8100aa97 <write_cr3>
ffffffff8100b525:	ba 18 00 00 00       	mov    $0x18,%edx
ffffffff8100b52a:	be 00 00 00 00       	mov    $0x0,%esi
ffffffff8100b52f:	48 c7 c7 d0 41 01 81 	mov    $0xffffffff810141d0,%rdi
ffffffff8100b536:	e8 4c f6 ff ff       	callq  ffffffff8100ab87 <memset>
ffffffff8100b53b:	48 c7 05 8a 8c 00 00 	movq   $0xffffffff8100c1ae,0x8c8a(%rip)        # ffffffff810141d0 <pagemgr_if>
ffffffff8100b542:	ae c1 00 81 
ffffffff8100b546:	48 c7 05 87 8c 00 00 	movq   $0xffffffff8100c082,0x8c87(%rip)        # ffffffff810141d8 <pagemgr_if+0x8>
ffffffff8100b54d:	82 c0 00 81 
ffffffff8100b551:	b8 00 00 00 00       	mov    $0x0,%eax
ffffffff8100b556:	5d                   	pop    %rbp
ffffffff8100b557:	c3                   	retq   

ffffffff8100b558 <pagemgr_install_handler>:
ffffffff8100b558:	55                   	push   %rbp
ffffffff8100b559:	48 89 e5             	mov    %rsp,%rbp
ffffffff8100b55c:	ba 0e 00 00 00       	mov    $0xe,%edx
ffffffff8100b561:	48 c7 c6 b0 41 01 81 	mov    $0xffffffff810141b0,%rsi
ffffffff8100b568:	48 c7 c7 fe c2 00 81 	mov    $0xffffffff8100c2fe,%rdi
ffffffff8100b56f:	e8 cb 7d ff ff       	callq  ffffffff8100333f <isr_install>
ffffffff8100b574:	5d                   	pop    %rbp
ffffffff8100b575:	c3                   	retq   

ffffffff8100b576 <pagemgr_temp_map>:
ffffffff8100b576:	55                   	push   %rbp
ffffffff8100b577:	48 89 e5             	mov    %rsp,%rbp
ffffffff8100b57a:	48 83 ec 30          	sub    $0x30,%rsp
ffffffff8100b57e:	48 89 7d d8          	mov    %rdi,-0x28(%rbp)
ffffffff8100b582:	89 f0                	mov    %esi,%eax
ffffffff8100b584:	66 89 45 d4          	mov    %ax,-0x2c(%rbp)
ffffffff8100b588:	48 c7 45 f8 00 00 e0 	movq   $0xffffffffffe00000,-0x8(%rbp)
ffffffff8100b58f:	ff 
ffffffff8100b590:	48 c7 45 f0 00 00 00 	movq   $0x0,-0x10(%rbp)
ffffffff8100b597:	00 
ffffffff8100b598:	48 c7 45 e8 00 00 00 	movq   $0x0,-0x18(%rbp)
ffffffff8100b59f:	00 
ffffffff8100b5a0:	48 81 65 d8 00 f0 ff 	andq   $0xfffffffffffff000,-0x28(%rbp)
ffffffff8100b5a7:	ff 
ffffffff8100b5a8:	48 8b 45 d8          	mov    -0x28(%rbp),%rax
ffffffff8100b5ac:	25 ff 0f 00 00       	and    $0xfff,%eax
ffffffff8100b5b1:	48 85 c0             	test   %rax,%rax
ffffffff8100b5b4:	74 20                	je     ffffffff8100b5d6 <pagemgr_temp_map+0x60>
ffffffff8100b5b6:	be bc 01 00 00       	mov    $0x1bc,%esi
ffffffff8100b5bb:	48 c7 c7 ef d2 00 81 	mov    $0xffffffff8100d2ef,%rdi
ffffffff8100b5c2:	b8 00 00 00 00       	mov    $0x0,%eax
ffffffff8100b5c7:	e8 4a ca ff ff       	callq  ffffffff81008016 <kprintf>
ffffffff8100b5cc:	b8 00 00 00 00       	mov    $0x0,%eax
ffffffff8100b5d1:	e9 85 00 00 00       	jmpq   ffffffff8100b65b <pagemgr_temp_map+0xe5>
ffffffff8100b5d6:	66 83 7d d4 00       	cmpw   $0x0,-0x2c(%rbp)
ffffffff8100b5db:	74 08                	je     ffffffff8100b5e5 <pagemgr_temp_map+0x6f>
ffffffff8100b5dd:	66 81 7d d4 ff 01    	cmpw   $0x1ff,-0x2c(%rbp)
ffffffff8100b5e3:	76 1d                	jbe    ffffffff8100b602 <pagemgr_temp_map+0x8c>
ffffffff8100b5e5:	be c6 01 00 00       	mov    $0x1c6,%esi
ffffffff8100b5ea:	48 c7 c7 ef d2 00 81 	mov    $0xffffffff8100d2ef,%rdi
ffffffff8100b5f1:	b8 00 00 00 00       	mov    $0x0,%eax
ffffffff8100b5f6:	e8 1b ca ff ff       	callq  ffffffff81008016 <kprintf>
ffffffff8100b5fb:	b8 00 00 00 00       	mov    $0x0,%eax
ffffffff8100b600:	eb 59                	jmp    ffffffff8100b65b <pagemgr_temp_map+0xe5>
ffffffff8100b602:	48 8b 45 d8          	mov    -0x28(%rbp),%rax
ffffffff8100b606:	48 89 45 e8          	mov    %rax,-0x18(%rbp)
ffffffff8100b60a:	0f b6 45 e8          	movzbl -0x18(%rbp),%eax
ffffffff8100b60e:	83 c8 02             	or     $0x2,%eax
ffffffff8100b611:	88 45 e8             	mov    %al,-0x18(%rbp)
ffffffff8100b614:	0f b6 45 e8          	movzbl -0x18(%rbp),%eax
ffffffff8100b618:	83 c8 01             	or     $0x1,%eax
ffffffff8100b61b:	88 45 e8             	mov    %al,-0x18(%rbp)
ffffffff8100b61e:	0f b7 45 d4          	movzwl -0x2c(%rbp),%eax
ffffffff8100b622:	48 8d 14 c5 00 00 00 	lea    0x0(,%rax,8),%rdx
ffffffff8100b629:	00 
ffffffff8100b62a:	48 8b 45 f8          	mov    -0x8(%rbp),%rax
ffffffff8100b62e:	48 01 c2             	add    %rax,%rdx
ffffffff8100b631:	48 8b 45 e8          	mov    -0x18(%rbp),%rax
ffffffff8100b635:	48 89 02             	mov    %rax,(%rdx)
ffffffff8100b638:	0f b7 45 d4          	movzwl -0x2c(%rbp),%eax
ffffffff8100b63c:	c1 e0 0c             	shl    $0xc,%eax
ffffffff8100b63f:	48 98                	cltq   
ffffffff8100b641:	48 2d 00 00 20 00    	sub    $0x200000,%rax
ffffffff8100b647:	48 89 45 f0          	mov    %rax,-0x10(%rbp)
ffffffff8100b64b:	48 8b 45 f0          	mov    -0x10(%rbp),%rax
ffffffff8100b64f:	48 89 c7             	mov    %rax,%rdi
ffffffff8100b652:	e8 53 f4 ff ff       	callq  ffffffff8100aaaa <__invlpg>
ffffffff8100b657:	48 8b 45 f0          	mov    -0x10(%rbp),%rax
ffffffff8100b65b:	c9                   	leaveq 
ffffffff8100b65c:	c3                   	retq   

ffffffff8100b65d <pagemgr_temp_unmap>:
ffffffff8100b65d:	55                   	push   %rbp
ffffffff8100b65e:	48 89 e5             	mov    %rsp,%rbp
ffffffff8100b661:	48 83 ec 20          	sub    $0x20,%rsp
ffffffff8100b665:	48 89 7d e8          	mov    %rdi,-0x18(%rbp)
ffffffff8100b669:	66 c7 45 fe 00 00    	movw   $0x0,-0x2(%rbp)
ffffffff8100b66f:	48 c7 45 f0 00 00 e0 	movq   $0xffffffffffe00000,-0x10(%rbp)
ffffffff8100b676:	ff 
ffffffff8100b677:	48 8b 45 e8          	mov    -0x18(%rbp),%rax
ffffffff8100b67b:	25 ff 0f 00 00       	and    $0xfff,%eax
ffffffff8100b680:	48 85 c0             	test   %rax,%rax
ffffffff8100b683:	75 0a                	jne    ffffffff8100b68f <pagemgr_temp_unmap+0x32>
ffffffff8100b685:	48 81 7d e8 00 00 e0 	cmpq   $0xffffffffffe00000,-0x18(%rbp)
ffffffff8100b68c:	ff 
ffffffff8100b68d:	77 07                	ja     ffffffff8100b696 <pagemgr_temp_unmap+0x39>
ffffffff8100b68f:	b8 ff ff ff ff       	mov    $0xffffffff,%eax
ffffffff8100b694:	eb 3d                	jmp    ffffffff8100b6d3 <pagemgr_temp_unmap+0x76>
ffffffff8100b696:	48 8b 45 e8          	mov    -0x18(%rbp),%rax
ffffffff8100b69a:	48 05 00 00 20 00    	add    $0x200000,%rax
ffffffff8100b6a0:	48 c1 e8 0c          	shr    $0xc,%rax
ffffffff8100b6a4:	66 89 45 fe          	mov    %ax,-0x2(%rbp)
ffffffff8100b6a8:	0f b7 45 fe          	movzwl -0x2(%rbp),%eax
ffffffff8100b6ac:	48 8d 14 c5 00 00 00 	lea    0x0(,%rax,8),%rdx
ffffffff8100b6b3:	00 
ffffffff8100b6b4:	48 8b 45 f0          	mov    -0x10(%rbp),%rax
ffffffff8100b6b8:	48 01 d0             	add    %rdx,%rax
ffffffff8100b6bb:	48 c7 00 00 00 00 00 	movq   $0x0,(%rax)
ffffffff8100b6c2:	48 8b 45 e8          	mov    -0x18(%rbp),%rax
ffffffff8100b6c6:	48 89 c7             	mov    %rax,%rdi
ffffffff8100b6c9:	e8 dc f3 ff ff       	callq  ffffffff8100aaaa <__invlpg>
ffffffff8100b6ce:	b8 00 00 00 00       	mov    $0x0,%eax
ffffffff8100b6d3:	c9                   	leaveq 
ffffffff8100b6d4:	c3                   	retq   

ffffffff8100b6d5 <pagemgr_alloc_pages_cb>:
ffffffff8100b6d5:	55                   	push   %rbp
ffffffff8100b6d6:	48 89 e5             	mov    %rsp,%rbp
ffffffff8100b6d9:	48 83 ec 30          	sub    $0x30,%rsp
ffffffff8100b6dd:	48 89 7d e8          	mov    %rdi,-0x18(%rbp)
ffffffff8100b6e1:	48 89 75 e0          	mov    %rsi,-0x20(%rbp)
ffffffff8100b6e5:	48 89 55 d8          	mov    %rdx,-0x28(%rbp)
ffffffff8100b6e9:	c6 45 ff 00          	movb   $0x0,-0x1(%rbp)
ffffffff8100b6ed:	c6 45 fe 00          	movb   $0x0,-0x2(%rbp)
ffffffff8100b6f1:	48 8b 45 d8          	mov    -0x28(%rbp),%rax
ffffffff8100b6f5:	48 89 45 f0          	mov    %rax,-0x10(%rbp)
ffffffff8100b6f9:	e9 9f 05 00 00       	jmpq   ffffffff8100bc9d <pagemgr_alloc_pages_cb+0x5c8>
ffffffff8100b6fe:	0f b6 05 bb 8a 00 00 	movzbl 0x8abb(%rip),%eax        # ffffffff810141c0 <page_manager+0x10>
ffffffff8100b705:	84 c0                	test   %al,%al
ffffffff8100b707:	0f 84 3b 01 00 00    	je     ffffffff8100b848 <pagemgr_alloc_pages_cb+0x173>
ffffffff8100b70d:	48 8b 45 f0          	mov    -0x10(%rbp),%rax
ffffffff8100b711:	0f b7 00             	movzwl (%rax),%eax
ffffffff8100b714:	0f b7 d0             	movzwl %ax,%edx
ffffffff8100b717:	48 8b 45 f0          	mov    -0x10(%rbp),%rax
ffffffff8100b71b:	48 8b 40 10          	mov    0x10(%rax),%rax
ffffffff8100b71f:	48 c1 e8 2f          	shr    $0x2f,%rax
ffffffff8100b723:	25 ff 01 00 00       	and    $0x1ff,%eax
ffffffff8100b728:	48 39 c2             	cmp    %rax,%rdx
ffffffff8100b72b:	0f 84 17 01 00 00    	je     ffffffff8100b848 <pagemgr_alloc_pages_cb+0x173>
ffffffff8100b731:	48 8b 45 f0          	mov    -0x10(%rbp),%rax
ffffffff8100b735:	48 8b 40 10          	mov    0x10(%rax),%rax
ffffffff8100b739:	48 c1 e8 2f          	shr    $0x2f,%rax
ffffffff8100b73d:	66 25 ff 01          	and    $0x1ff,%ax
ffffffff8100b741:	89 c2                	mov    %eax,%edx
ffffffff8100b743:	48 8b 45 f0          	mov    -0x10(%rbp),%rax
ffffffff8100b747:	66 89 10             	mov    %dx,(%rax)
ffffffff8100b74a:	48 8b 45 f0          	mov    -0x10(%rbp),%rax
ffffffff8100b74e:	48 8b 50 20          	mov    0x20(%rax),%rdx
ffffffff8100b752:	48 8b 45 f0          	mov    -0x10(%rbp),%rax
ffffffff8100b756:	0f b7 00             	movzwl (%rax),%eax
ffffffff8100b759:	0f b7 c0             	movzwl %ax,%eax
ffffffff8100b75c:	48 c1 e0 03          	shl    $0x3,%rax
ffffffff8100b760:	48 01 d0             	add    %rdx,%rax
ffffffff8100b763:	0f b6 00             	movzbl (%rax),%eax
ffffffff8100b766:	83 e0 01             	and    $0x1,%eax
ffffffff8100b769:	84 c0                	test   %al,%al
ffffffff8100b76b:	75 7d                	jne    ffffffff8100b7ea <pagemgr_alloc_pages_cb+0x115>
ffffffff8100b76d:	0f b6 45 ff          	movzbl -0x1(%rbp),%eax
ffffffff8100b771:	c1 e0 0c             	shl    $0xc,%eax
ffffffff8100b774:	48 63 c8             	movslq %eax,%rcx
ffffffff8100b777:	48 8b 45 f0          	mov    -0x10(%rbp),%rax
ffffffff8100b77b:	48 8b 50 20          	mov    0x20(%rax),%rdx
ffffffff8100b77f:	48 8b 45 f0          	mov    -0x10(%rbp),%rax
ffffffff8100b783:	0f b7 00             	movzwl (%rax),%eax
ffffffff8100b786:	0f b7 c0             	movzwl %ax,%eax
ffffffff8100b789:	48 c1 e0 03          	shl    $0x3,%rax
ffffffff8100b78d:	48 01 d0             	add    %rdx,%rax
ffffffff8100b790:	48 8b 55 e8          	mov    -0x18(%rbp),%rdx
ffffffff8100b794:	48 01 ca             	add    %rcx,%rdx
ffffffff8100b797:	48 89 10             	mov    %rdx,(%rax)
ffffffff8100b79a:	48 8b 45 f0          	mov    -0x10(%rbp),%rax
ffffffff8100b79e:	48 8b 50 20          	mov    0x20(%rax),%rdx
ffffffff8100b7a2:	48 8b 45 f0          	mov    -0x10(%rbp),%rax
ffffffff8100b7a6:	0f b7 00             	movzwl (%rax),%eax
ffffffff8100b7a9:	0f b7 c0             	movzwl %ax,%eax
ffffffff8100b7ac:	48 c1 e0 03          	shl    $0x3,%rax
ffffffff8100b7b0:	48 01 d0             	add    %rdx,%rax
ffffffff8100b7b3:	0f b6 10             	movzbl (%rax),%edx
ffffffff8100b7b6:	83 ca 02             	or     $0x2,%edx
ffffffff8100b7b9:	88 10                	mov    %dl,(%rax)
ffffffff8100b7bb:	48 8b 45 f0          	mov    -0x10(%rbp),%rax
ffffffff8100b7bf:	48 8b 50 20          	mov    0x20(%rax),%rdx
ffffffff8100b7c3:	48 8b 45 f0          	mov    -0x10(%rbp),%rax
ffffffff8100b7c7:	0f b7 00             	movzwl (%rax),%eax
ffffffff8100b7ca:	0f b7 c0             	movzwl %ax,%eax
ffffffff8100b7cd:	48 c1 e0 03          	shl    $0x3,%rax
ffffffff8100b7d1:	48 01 d0             	add    %rdx,%rax
ffffffff8100b7d4:	0f b6 10             	movzbl (%rax),%edx
ffffffff8100b7d7:	83 ca 01             	or     $0x1,%edx
ffffffff8100b7da:	88 10                	mov    %dl,(%rax)
ffffffff8100b7dc:	0f b6 45 ff          	movzbl -0x1(%rbp),%eax
ffffffff8100b7e0:	83 c0 01             	add    $0x1,%eax
ffffffff8100b7e3:	88 45 ff             	mov    %al,-0x1(%rbp)
ffffffff8100b7e6:	c6 45 fe 01          	movb   $0x1,-0x2(%rbp)
ffffffff8100b7ea:	48 8b 45 f0          	mov    -0x10(%rbp),%rax
ffffffff8100b7ee:	48 8b 50 20          	mov    0x20(%rax),%rdx
ffffffff8100b7f2:	48 8b 45 f0          	mov    -0x10(%rbp),%rax
ffffffff8100b7f6:	0f b7 00             	movzwl (%rax),%eax
ffffffff8100b7f9:	0f b7 c0             	movzwl %ax,%eax
ffffffff8100b7fc:	48 c1 e0 03          	shl    $0x3,%rax
ffffffff8100b800:	48 01 d0             	add    %rdx,%rax
ffffffff8100b803:	48 8b 00             	mov    (%rax),%rax
ffffffff8100b806:	48 25 00 f0 ff ff    	and    $0xfffffffffffff000,%rax
ffffffff8100b80c:	be 02 00 00 00       	mov    $0x2,%esi
ffffffff8100b811:	48 89 c7             	mov    %rax,%rdi
ffffffff8100b814:	e8 5d fd ff ff       	callq  ffffffff8100b576 <pagemgr_temp_map>
ffffffff8100b819:	48 89 c2             	mov    %rax,%rdx
ffffffff8100b81c:	48 8b 45 f0          	mov    -0x10(%rbp),%rax
ffffffff8100b820:	48 89 50 28          	mov    %rdx,0x28(%rax)
ffffffff8100b824:	80 7d fe 00          	cmpb   $0x0,-0x2(%rbp)
ffffffff8100b828:	74 1a                	je     ffffffff8100b844 <pagemgr_alloc_pages_cb+0x16f>
ffffffff8100b82a:	48 8b 45 f0          	mov    -0x10(%rbp),%rax
ffffffff8100b82e:	48 8b 40 28          	mov    0x28(%rax),%rax
ffffffff8100b832:	ba 00 10 00 00       	mov    $0x1000,%edx
ffffffff8100b837:	be 00 00 00 00       	mov    $0x0,%esi
ffffffff8100b83c:	48 89 c7             	mov    %rax,%rdi
ffffffff8100b83f:	e8 43 f3 ff ff       	callq  ffffffff8100ab87 <memset>
ffffffff8100b844:	c6 45 fe 00          	movb   $0x0,-0x2(%rbp)
ffffffff8100b848:	0f b6 45 ff          	movzbl -0x1(%rbp),%eax
ffffffff8100b84c:	48 39 45 e0          	cmp    %rax,-0x20(%rbp)
ffffffff8100b850:	77 09                	ja     ffffffff8100b85b <pagemgr_alloc_pages_cb+0x186>
ffffffff8100b852:	0f b6 45 ff          	movzbl -0x1(%rbp),%eax
ffffffff8100b856:	e9 69 04 00 00       	jmpq   ffffffff8100bcc4 <pagemgr_alloc_pages_cb+0x5ef>
ffffffff8100b85b:	48 8b 45 f0          	mov    -0x10(%rbp),%rax
ffffffff8100b85f:	48 8b 40 28          	mov    0x28(%rax),%rax
ffffffff8100b863:	48 85 c0             	test   %rax,%rax
ffffffff8100b866:	0f 84 46 01 00 00    	je     ffffffff8100b9b2 <pagemgr_alloc_pages_cb+0x2dd>
ffffffff8100b86c:	48 8b 45 f0          	mov    -0x10(%rbp),%rax
ffffffff8100b870:	0f b7 40 02          	movzwl 0x2(%rax),%eax
ffffffff8100b874:	0f b7 d0             	movzwl %ax,%edx
ffffffff8100b877:	48 8b 45 f0          	mov    -0x10(%rbp),%rax
ffffffff8100b87b:	48 8b 40 10          	mov    0x10(%rax),%rax
ffffffff8100b87f:	48 c1 e8 27          	shr    $0x27,%rax
ffffffff8100b883:	25 ff 01 00 00       	and    $0x1ff,%eax
ffffffff8100b888:	48 39 c2             	cmp    %rax,%rdx
ffffffff8100b88b:	0f 84 21 01 00 00    	je     ffffffff8100b9b2 <pagemgr_alloc_pages_cb+0x2dd>
ffffffff8100b891:	48 8b 45 f0          	mov    -0x10(%rbp),%rax
ffffffff8100b895:	48 8b 40 10          	mov    0x10(%rax),%rax
ffffffff8100b899:	48 c1 e8 27          	shr    $0x27,%rax
ffffffff8100b89d:	66 25 ff 01          	and    $0x1ff,%ax
ffffffff8100b8a1:	89 c2                	mov    %eax,%edx
ffffffff8100b8a3:	48 8b 45 f0          	mov    -0x10(%rbp),%rax
ffffffff8100b8a7:	66 89 50 02          	mov    %dx,0x2(%rax)
ffffffff8100b8ab:	48 8b 45 f0          	mov    -0x10(%rbp),%rax
ffffffff8100b8af:	48 8b 50 28          	mov    0x28(%rax),%rdx
ffffffff8100b8b3:	48 8b 45 f0          	mov    -0x10(%rbp),%rax
ffffffff8100b8b7:	0f b7 40 02          	movzwl 0x2(%rax),%eax
ffffffff8100b8bb:	0f b7 c0             	movzwl %ax,%eax
ffffffff8100b8be:	48 c1 e0 03          	shl    $0x3,%rax
ffffffff8100b8c2:	48 01 d0             	add    %rdx,%rax
ffffffff8100b8c5:	0f b6 00             	movzbl (%rax),%eax
ffffffff8100b8c8:	83 e0 01             	and    $0x1,%eax
ffffffff8100b8cb:	84 c0                	test   %al,%al
ffffffff8100b8cd:	0f 85 80 00 00 00    	jne    ffffffff8100b953 <pagemgr_alloc_pages_cb+0x27e>
ffffffff8100b8d3:	0f b6 45 ff          	movzbl -0x1(%rbp),%eax
ffffffff8100b8d7:	c1 e0 0c             	shl    $0xc,%eax
ffffffff8100b8da:	48 63 c8             	movslq %eax,%rcx
ffffffff8100b8dd:	48 8b 45 f0          	mov    -0x10(%rbp),%rax
ffffffff8100b8e1:	48 8b 50 28          	mov    0x28(%rax),%rdx
ffffffff8100b8e5:	48 8b 45 f0          	mov    -0x10(%rbp),%rax
ffffffff8100b8e9:	0f b7 40 02          	movzwl 0x2(%rax),%eax
ffffffff8100b8ed:	0f b7 c0             	movzwl %ax,%eax
ffffffff8100b8f0:	48 c1 e0 03          	shl    $0x3,%rax
ffffffff8100b8f4:	48 01 d0             	add    %rdx,%rax
ffffffff8100b8f7:	48 8b 55 e8          	mov    -0x18(%rbp),%rdx
ffffffff8100b8fb:	48 01 ca             	add    %rcx,%rdx
ffffffff8100b8fe:	48 89 10             	mov    %rdx,(%rax)
ffffffff8100b901:	48 8b 45 f0          	mov    -0x10(%rbp),%rax
ffffffff8100b905:	48 8b 50 28          	mov    0x28(%rax),%rdx
ffffffff8100b909:	48 8b 45 f0          	mov    -0x10(%rbp),%rax
ffffffff8100b90d:	0f b7 40 02          	movzwl 0x2(%rax),%eax
ffffffff8100b911:	0f b7 c0             	movzwl %ax,%eax
ffffffff8100b914:	48 c1 e0 03          	shl    $0x3,%rax
ffffffff8100b918:	48 01 d0             	add    %rdx,%rax
ffffffff8100b91b:	0f b6 10             	movzbl (%rax),%edx
ffffffff8100b91e:	83 ca 02             	or     $0x2,%edx
ffffffff8100b921:	88 10                	mov    %dl,(%rax)
ffffffff8100b923:	48 8b 45 f0          	mov    -0x10(%rbp),%rax
ffffffff8100b927:	48 8b 50 28          	mov    0x28(%rax),%rdx
ffffffff8100b92b:	48 8b 45 f0          	mov    -0x10(%rbp),%rax
ffffffff8100b92f:	0f b7 40 02          	movzwl 0x2(%rax),%eax
ffffffff8100b933:	0f b7 c0             	movzwl %ax,%eax
ffffffff8100b936:	48 c1 e0 03          	shl    $0x3,%rax
ffffffff8100b93a:	48 01 d0             	add    %rdx,%rax
ffffffff8100b93d:	0f b6 10             	movzbl (%rax),%edx
ffffffff8100b940:	83 ca 01             	or     $0x1,%edx
ffffffff8100b943:	88 10                	mov    %dl,(%rax)
ffffffff8100b945:	0f b6 45 ff          	movzbl -0x1(%rbp),%eax
ffffffff8100b949:	83 c0 01             	add    $0x1,%eax
ffffffff8100b94c:	88 45 ff             	mov    %al,-0x1(%rbp)
ffffffff8100b94f:	c6 45 fe 01          	movb   $0x1,-0x2(%rbp)
ffffffff8100b953:	48 8b 45 f0          	mov    -0x10(%rbp),%rax
ffffffff8100b957:	48 8b 50 28          	mov    0x28(%rax),%rdx
ffffffff8100b95b:	48 8b 45 f0          	mov    -0x10(%rbp),%rax
ffffffff8100b95f:	0f b7 40 02          	movzwl 0x2(%rax),%eax
ffffffff8100b963:	0f b7 c0             	movzwl %ax,%eax
ffffffff8100b966:	48 c1 e0 03          	shl    $0x3,%rax
ffffffff8100b96a:	48 01 d0             	add    %rdx,%rax
ffffffff8100b96d:	48 8b 00             	mov    (%rax),%rax
ffffffff8100b970:	48 25 00 f0 ff ff    	and    $0xfffffffffffff000,%rax
ffffffff8100b976:	be 03 00 00 00       	mov    $0x3,%esi
ffffffff8100b97b:	48 89 c7             	mov    %rax,%rdi
ffffffff8100b97e:	e8 f3 fb ff ff       	callq  ffffffff8100b576 <pagemgr_temp_map>
ffffffff8100b983:	48 89 c2             	mov    %rax,%rdx
ffffffff8100b986:	48 8b 45 f0          	mov    -0x10(%rbp),%rax
ffffffff8100b98a:	48 89 50 30          	mov    %rdx,0x30(%rax)
ffffffff8100b98e:	80 7d fe 00          	cmpb   $0x0,-0x2(%rbp)
ffffffff8100b992:	74 1e                	je     ffffffff8100b9b2 <pagemgr_alloc_pages_cb+0x2dd>
ffffffff8100b994:	48 8b 45 f0          	mov    -0x10(%rbp),%rax
ffffffff8100b998:	48 8b 40 30          	mov    0x30(%rax),%rax
ffffffff8100b99c:	ba 00 10 00 00       	mov    $0x1000,%edx
ffffffff8100b9a1:	be 00 00 00 00       	mov    $0x0,%esi
ffffffff8100b9a6:	48 89 c7             	mov    %rax,%rdi
ffffffff8100b9a9:	e8 d9 f1 ff ff       	callq  ffffffff8100ab87 <memset>
ffffffff8100b9ae:	c6 45 fe 00          	movb   $0x0,-0x2(%rbp)
ffffffff8100b9b2:	0f b6 45 ff          	movzbl -0x1(%rbp),%eax
ffffffff8100b9b6:	48 39 45 e0          	cmp    %rax,-0x20(%rbp)
ffffffff8100b9ba:	77 09                	ja     ffffffff8100b9c5 <pagemgr_alloc_pages_cb+0x2f0>
ffffffff8100b9bc:	0f b6 45 ff          	movzbl -0x1(%rbp),%eax
ffffffff8100b9c0:	e9 ff 02 00 00       	jmpq   ffffffff8100bcc4 <pagemgr_alloc_pages_cb+0x5ef>
ffffffff8100b9c5:	48 8b 45 f0          	mov    -0x10(%rbp),%rax
ffffffff8100b9c9:	48 8b 40 30          	mov    0x30(%rax),%rax
ffffffff8100b9cd:	48 85 c0             	test   %rax,%rax
ffffffff8100b9d0:	0f 84 46 01 00 00    	je     ffffffff8100bb1c <pagemgr_alloc_pages_cb+0x447>
ffffffff8100b9d6:	48 8b 45 f0          	mov    -0x10(%rbp),%rax
ffffffff8100b9da:	0f b7 40 04          	movzwl 0x4(%rax),%eax
ffffffff8100b9de:	0f b7 d0             	movzwl %ax,%edx
ffffffff8100b9e1:	48 8b 45 f0          	mov    -0x10(%rbp),%rax
ffffffff8100b9e5:	48 8b 40 10          	mov    0x10(%rax),%rax
ffffffff8100b9e9:	48 c1 e8 1e          	shr    $0x1e,%rax
ffffffff8100b9ed:	25 ff 01 00 00       	and    $0x1ff,%eax
ffffffff8100b9f2:	48 39 c2             	cmp    %rax,%rdx
ffffffff8100b9f5:	0f 84 21 01 00 00    	je     ffffffff8100bb1c <pagemgr_alloc_pages_cb+0x447>
ffffffff8100b9fb:	48 8b 45 f0          	mov    -0x10(%rbp),%rax
ffffffff8100b9ff:	48 8b 40 10          	mov    0x10(%rax),%rax
ffffffff8100ba03:	48 c1 e8 1e          	shr    $0x1e,%rax
ffffffff8100ba07:	66 25 ff 01          	and    $0x1ff,%ax
ffffffff8100ba0b:	89 c2                	mov    %eax,%edx
ffffffff8100ba0d:	48 8b 45 f0          	mov    -0x10(%rbp),%rax
ffffffff8100ba11:	66 89 50 04          	mov    %dx,0x4(%rax)
ffffffff8100ba15:	48 8b 45 f0          	mov    -0x10(%rbp),%rax
ffffffff8100ba19:	48 8b 50 30          	mov    0x30(%rax),%rdx
ffffffff8100ba1d:	48 8b 45 f0          	mov    -0x10(%rbp),%rax
ffffffff8100ba21:	0f b7 40 04          	movzwl 0x4(%rax),%eax
ffffffff8100ba25:	0f b7 c0             	movzwl %ax,%eax
ffffffff8100ba28:	48 c1 e0 03          	shl    $0x3,%rax
ffffffff8100ba2c:	48 01 d0             	add    %rdx,%rax
ffffffff8100ba2f:	0f b6 00             	movzbl (%rax),%eax
ffffffff8100ba32:	83 e0 01             	and    $0x1,%eax
ffffffff8100ba35:	84 c0                	test   %al,%al
ffffffff8100ba37:	0f 85 80 00 00 00    	jne    ffffffff8100babd <pagemgr_alloc_pages_cb+0x3e8>
ffffffff8100ba3d:	0f b6 45 ff          	movzbl -0x1(%rbp),%eax
ffffffff8100ba41:	c1 e0 0c             	shl    $0xc,%eax
ffffffff8100ba44:	48 63 c8             	movslq %eax,%rcx
ffffffff8100ba47:	48 8b 45 f0          	mov    -0x10(%rbp),%rax
ffffffff8100ba4b:	48 8b 50 30          	mov    0x30(%rax),%rdx
ffffffff8100ba4f:	48 8b 45 f0          	mov    -0x10(%rbp),%rax
ffffffff8100ba53:	0f b7 40 04          	movzwl 0x4(%rax),%eax
ffffffff8100ba57:	0f b7 c0             	movzwl %ax,%eax
ffffffff8100ba5a:	48 c1 e0 03          	shl    $0x3,%rax
ffffffff8100ba5e:	48 01 d0             	add    %rdx,%rax
ffffffff8100ba61:	48 8b 55 e8          	mov    -0x18(%rbp),%rdx
ffffffff8100ba65:	48 01 ca             	add    %rcx,%rdx
ffffffff8100ba68:	48 89 10             	mov    %rdx,(%rax)
ffffffff8100ba6b:	48 8b 45 f0          	mov    -0x10(%rbp),%rax
ffffffff8100ba6f:	48 8b 50 30          	mov    0x30(%rax),%rdx
ffffffff8100ba73:	48 8b 45 f0          	mov    -0x10(%rbp),%rax
ffffffff8100ba77:	0f b7 40 04          	movzwl 0x4(%rax),%eax
ffffffff8100ba7b:	0f b7 c0             	movzwl %ax,%eax
ffffffff8100ba7e:	48 c1 e0 03          	shl    $0x3,%rax
ffffffff8100ba82:	48 01 d0             	add    %rdx,%rax
ffffffff8100ba85:	0f b6 10             	movzbl (%rax),%edx
ffffffff8100ba88:	83 ca 02             	or     $0x2,%edx
ffffffff8100ba8b:	88 10                	mov    %dl,(%rax)
ffffffff8100ba8d:	48 8b 45 f0          	mov    -0x10(%rbp),%rax
ffffffff8100ba91:	48 8b 50 30          	mov    0x30(%rax),%rdx
ffffffff8100ba95:	48 8b 45 f0          	mov    -0x10(%rbp),%rax
ffffffff8100ba99:	0f b7 40 04          	movzwl 0x4(%rax),%eax
ffffffff8100ba9d:	0f b7 c0             	movzwl %ax,%eax
ffffffff8100baa0:	48 c1 e0 03          	shl    $0x3,%rax
ffffffff8100baa4:	48 01 d0             	add    %rdx,%rax
ffffffff8100baa7:	0f b6 10             	movzbl (%rax),%edx
ffffffff8100baaa:	83 ca 01             	or     $0x1,%edx
ffffffff8100baad:	88 10                	mov    %dl,(%rax)
ffffffff8100baaf:	0f b6 45 ff          	movzbl -0x1(%rbp),%eax
ffffffff8100bab3:	83 c0 01             	add    $0x1,%eax
ffffffff8100bab6:	88 45 ff             	mov    %al,-0x1(%rbp)
ffffffff8100bab9:	c6 45 fe 01          	movb   $0x1,-0x2(%rbp)
ffffffff8100babd:	48 8b 45 f0          	mov    -0x10(%rbp),%rax
ffffffff8100bac1:	48 8b 50 30          	mov    0x30(%rax),%rdx
ffffffff8100bac5:	48 8b 45 f0          	mov    -0x10(%rbp),%rax
ffffffff8100bac9:	0f b7 40 04          	movzwl 0x4(%rax),%eax
ffffffff8100bacd:	0f b7 c0             	movzwl %ax,%eax
ffffffff8100bad0:	48 c1 e0 03          	shl    $0x3,%rax
ffffffff8100bad4:	48 01 d0             	add    %rdx,%rax
ffffffff8100bad7:	48 8b 00             	mov    (%rax),%rax
ffffffff8100bada:	48 25 00 f0 ff ff    	and    $0xfffffffffffff000,%rax
ffffffff8100bae0:	be 04 00 00 00       	mov    $0x4,%esi
ffffffff8100bae5:	48 89 c7             	mov    %rax,%rdi
ffffffff8100bae8:	e8 89 fa ff ff       	callq  ffffffff8100b576 <pagemgr_temp_map>
ffffffff8100baed:	48 89 c2             	mov    %rax,%rdx
ffffffff8100baf0:	48 8b 45 f0          	mov    -0x10(%rbp),%rax
ffffffff8100baf4:	48 89 50 38          	mov    %rdx,0x38(%rax)
ffffffff8100baf8:	80 7d fe 00          	cmpb   $0x0,-0x2(%rbp)
ffffffff8100bafc:	74 1e                	je     ffffffff8100bb1c <pagemgr_alloc_pages_cb+0x447>
ffffffff8100bafe:	48 8b 45 f0          	mov    -0x10(%rbp),%rax
ffffffff8100bb02:	48 8b 40 38          	mov    0x38(%rax),%rax
ffffffff8100bb06:	ba 00 10 00 00       	mov    $0x1000,%edx
ffffffff8100bb0b:	be 00 00 00 00       	mov    $0x0,%esi
ffffffff8100bb10:	48 89 c7             	mov    %rax,%rdi
ffffffff8100bb13:	e8 6f f0 ff ff       	callq  ffffffff8100ab87 <memset>
ffffffff8100bb18:	c6 45 fe 00          	movb   $0x0,-0x2(%rbp)
ffffffff8100bb1c:	0f b6 45 ff          	movzbl -0x1(%rbp),%eax
ffffffff8100bb20:	48 39 45 e0          	cmp    %rax,-0x20(%rbp)
ffffffff8100bb24:	77 09                	ja     ffffffff8100bb2f <pagemgr_alloc_pages_cb+0x45a>
ffffffff8100bb26:	0f b6 45 ff          	movzbl -0x1(%rbp),%eax
ffffffff8100bb2a:	e9 95 01 00 00       	jmpq   ffffffff8100bcc4 <pagemgr_alloc_pages_cb+0x5ef>
ffffffff8100bb2f:	48 8b 45 f0          	mov    -0x10(%rbp),%rax
ffffffff8100bb33:	48 8b 40 38          	mov    0x38(%rax),%rax
ffffffff8100bb37:	48 85 c0             	test   %rax,%rax
ffffffff8100bb3a:	0f 84 46 01 00 00    	je     ffffffff8100bc86 <pagemgr_alloc_pages_cb+0x5b1>
ffffffff8100bb40:	48 8b 45 f0          	mov    -0x10(%rbp),%rax
ffffffff8100bb44:	0f b7 40 06          	movzwl 0x6(%rax),%eax
ffffffff8100bb48:	0f b7 d0             	movzwl %ax,%edx
ffffffff8100bb4b:	48 8b 45 f0          	mov    -0x10(%rbp),%rax
ffffffff8100bb4f:	48 8b 40 10          	mov    0x10(%rax),%rax
ffffffff8100bb53:	48 c1 e8 15          	shr    $0x15,%rax
ffffffff8100bb57:	25 ff 01 00 00       	and    $0x1ff,%eax
ffffffff8100bb5c:	48 39 c2             	cmp    %rax,%rdx
ffffffff8100bb5f:	0f 84 21 01 00 00    	je     ffffffff8100bc86 <pagemgr_alloc_pages_cb+0x5b1>
ffffffff8100bb65:	48 8b 45 f0          	mov    -0x10(%rbp),%rax
ffffffff8100bb69:	48 8b 40 10          	mov    0x10(%rax),%rax
ffffffff8100bb6d:	48 c1 e8 15          	shr    $0x15,%rax
ffffffff8100bb71:	66 25 ff 01          	and    $0x1ff,%ax
ffffffff8100bb75:	89 c2                	mov    %eax,%edx
ffffffff8100bb77:	48 8b 45 f0          	mov    -0x10(%rbp),%rax
ffffffff8100bb7b:	66 89 50 06          	mov    %dx,0x6(%rax)
ffffffff8100bb7f:	48 8b 45 f0          	mov    -0x10(%rbp),%rax
ffffffff8100bb83:	48 8b 50 38          	mov    0x38(%rax),%rdx
ffffffff8100bb87:	48 8b 45 f0          	mov    -0x10(%rbp),%rax
ffffffff8100bb8b:	0f b7 40 06          	movzwl 0x6(%rax),%eax
ffffffff8100bb8f:	0f b7 c0             	movzwl %ax,%eax
ffffffff8100bb92:	48 c1 e0 03          	shl    $0x3,%rax
ffffffff8100bb96:	48 01 d0             	add    %rdx,%rax
ffffffff8100bb99:	0f b6 00             	movzbl (%rax),%eax
ffffffff8100bb9c:	83 e0 01             	and    $0x1,%eax
ffffffff8100bb9f:	84 c0                	test   %al,%al
ffffffff8100bba1:	0f 85 80 00 00 00    	jne    ffffffff8100bc27 <pagemgr_alloc_pages_cb+0x552>
ffffffff8100bba7:	0f b6 45 ff          	movzbl -0x1(%rbp),%eax
ffffffff8100bbab:	c1 e0 0c             	shl    $0xc,%eax
ffffffff8100bbae:	48 63 c8             	movslq %eax,%rcx
ffffffff8100bbb1:	48 8b 45 f0          	mov    -0x10(%rbp),%rax
ffffffff8100bbb5:	48 8b 50 38          	mov    0x38(%rax),%rdx
ffffffff8100bbb9:	48 8b 45 f0          	mov    -0x10(%rbp),%rax
ffffffff8100bbbd:	0f b7 40 06          	movzwl 0x6(%rax),%eax
ffffffff8100bbc1:	0f b7 c0             	movzwl %ax,%eax
ffffffff8100bbc4:	48 c1 e0 03          	shl    $0x3,%rax
ffffffff8100bbc8:	48 01 d0             	add    %rdx,%rax
ffffffff8100bbcb:	48 8b 55 e8          	mov    -0x18(%rbp),%rdx
ffffffff8100bbcf:	48 01 ca             	add    %rcx,%rdx
ffffffff8100bbd2:	48 89 10             	mov    %rdx,(%rax)
ffffffff8100bbd5:	48 8b 45 f0          	mov    -0x10(%rbp),%rax
ffffffff8100bbd9:	48 8b 50 38          	mov    0x38(%rax),%rdx
ffffffff8100bbdd:	48 8b 45 f0          	mov    -0x10(%rbp),%rax
ffffffff8100bbe1:	0f b7 40 06          	movzwl 0x6(%rax),%eax
ffffffff8100bbe5:	0f b7 c0             	movzwl %ax,%eax
ffffffff8100bbe8:	48 c1 e0 03          	shl    $0x3,%rax
ffffffff8100bbec:	48 01 d0             	add    %rdx,%rax
ffffffff8100bbef:	0f b6 10             	movzbl (%rax),%edx
ffffffff8100bbf2:	83 ca 02             	or     $0x2,%edx
ffffffff8100bbf5:	88 10                	mov    %dl,(%rax)
ffffffff8100bbf7:	48 8b 45 f0          	mov    -0x10(%rbp),%rax
ffffffff8100bbfb:	48 8b 50 38          	mov    0x38(%rax),%rdx
ffffffff8100bbff:	48 8b 45 f0          	mov    -0x10(%rbp),%rax
ffffffff8100bc03:	0f b7 40 06          	movzwl 0x6(%rax),%eax
ffffffff8100bc07:	0f b7 c0             	movzwl %ax,%eax
ffffffff8100bc0a:	48 c1 e0 03          	shl    $0x3,%rax
ffffffff8100bc0e:	48 01 d0             	add    %rdx,%rax
ffffffff8100bc11:	0f b6 10             	movzbl (%rax),%edx
ffffffff8100bc14:	83 ca 01             	or     $0x1,%edx
ffffffff8100bc17:	88 10                	mov    %dl,(%rax)
ffffffff8100bc19:	0f b6 45 ff          	movzbl -0x1(%rbp),%eax
ffffffff8100bc1d:	83 c0 01             	add    $0x1,%eax
ffffffff8100bc20:	88 45 ff             	mov    %al,-0x1(%rbp)
ffffffff8100bc23:	c6 45 fe 01          	movb   $0x1,-0x2(%rbp)
ffffffff8100bc27:	48 8b 45 f0          	mov    -0x10(%rbp),%rax
ffffffff8100bc2b:	48 8b 50 38          	mov    0x38(%rax),%rdx
ffffffff8100bc2f:	48 8b 45 f0          	mov    -0x10(%rbp),%rax
ffffffff8100bc33:	0f b7 40 06          	movzwl 0x6(%rax),%eax
ffffffff8100bc37:	0f b7 c0             	movzwl %ax,%eax
ffffffff8100bc3a:	48 c1 e0 03          	shl    $0x3,%rax
ffffffff8100bc3e:	48 01 d0             	add    %rdx,%rax
ffffffff8100bc41:	48 8b 00             	mov    (%rax),%rax
ffffffff8100bc44:	48 25 00 f0 ff ff    	and    $0xfffffffffffff000,%rax
ffffffff8100bc4a:	be 05 00 00 00       	mov    $0x5,%esi
ffffffff8100bc4f:	48 89 c7             	mov    %rax,%rdi
ffffffff8100bc52:	e8 1f f9 ff ff       	callq  ffffffff8100b576 <pagemgr_temp_map>
ffffffff8100bc57:	48 89 c2             	mov    %rax,%rdx
ffffffff8100bc5a:	48 8b 45 f0          	mov    -0x10(%rbp),%rax
ffffffff8100bc5e:	48 89 50 40          	mov    %rdx,0x40(%rax)
ffffffff8100bc62:	80 7d fe 00          	cmpb   $0x0,-0x2(%rbp)
ffffffff8100bc66:	74 1e                	je     ffffffff8100bc86 <pagemgr_alloc_pages_cb+0x5b1>
ffffffff8100bc68:	48 8b 45 f0          	mov    -0x10(%rbp),%rax
ffffffff8100bc6c:	48 8b 40 40          	mov    0x40(%rax),%rax
ffffffff8100bc70:	ba 00 10 00 00       	mov    $0x1000,%edx
ffffffff8100bc75:	be 00 00 00 00       	mov    $0x0,%esi
ffffffff8100bc7a:	48 89 c7             	mov    %rax,%rdi
ffffffff8100bc7d:	e8 05 ef ff ff       	callq  ffffffff8100ab87 <memset>
ffffffff8100bc82:	c6 45 fe 00          	movb   $0x0,-0x2(%rbp)
ffffffff8100bc86:	48 8b 45 f0          	mov    -0x10(%rbp),%rax
ffffffff8100bc8a:	48 8b 40 10          	mov    0x10(%rax),%rax
ffffffff8100bc8e:	48 8d 90 00 10 00 00 	lea    0x1000(%rax),%rdx
ffffffff8100bc95:	48 8b 45 f0          	mov    -0x10(%rbp),%rax
ffffffff8100bc99:	48 89 50 10          	mov    %rdx,0x10(%rax)
ffffffff8100bc9d:	0f b6 45 ff          	movzbl -0x1(%rbp),%eax
ffffffff8100bca1:	48 39 45 e0          	cmp    %rax,-0x20(%rbp)
ffffffff8100bca5:	76 19                	jbe    ffffffff8100bcc0 <pagemgr_alloc_pages_cb+0x5eb>
ffffffff8100bca7:	48 8b 45 f0          	mov    -0x10(%rbp),%rax
ffffffff8100bcab:	48 8b 50 10          	mov    0x10(%rax),%rdx
ffffffff8100bcaf:	48 8b 45 f0          	mov    -0x10(%rbp),%rax
ffffffff8100bcb3:	48 8b 40 18          	mov    0x18(%rax),%rax
ffffffff8100bcb7:	48 39 c2             	cmp    %rax,%rdx
ffffffff8100bcba:	0f 82 3e fa ff ff    	jb     ffffffff8100b6fe <pagemgr_alloc_pages_cb+0x29>
ffffffff8100bcc0:	0f b6 45 ff          	movzbl -0x1(%rbp),%eax
ffffffff8100bcc4:	c9                   	leaveq 
ffffffff8100bcc5:	c3                   	retq   

ffffffff8100bcc6 <pagemgr_build_page_path>:
ffffffff8100bcc6:	55                   	push   %rbp
ffffffff8100bcc7:	48 89 e5             	mov    %rsp,%rbp
ffffffff8100bcca:	48 83 ec 20          	sub    $0x20,%rsp
ffffffff8100bcce:	48 89 7d e8          	mov    %rdi,-0x18(%rbp)
ffffffff8100bcd2:	c7 45 fc 00 00 00 00 	movl   $0x0,-0x4(%rbp)
ffffffff8100bcd9:	48 8b 45 e8          	mov    -0x18(%rbp),%rax
ffffffff8100bcdd:	66 c7 00 ff ff       	movw   $0xffff,(%rax)
ffffffff8100bce2:	48 8b 45 e8          	mov    -0x18(%rbp),%rax
ffffffff8100bce6:	66 c7 40 02 ff ff    	movw   $0xffff,0x2(%rax)
ffffffff8100bcec:	48 8b 45 e8          	mov    -0x18(%rbp),%rax
ffffffff8100bcf0:	66 c7 40 04 ff ff    	movw   $0xffff,0x4(%rax)
ffffffff8100bcf6:	48 8b 45 e8          	mov    -0x18(%rbp),%rax
ffffffff8100bcfa:	66 c7 40 06 ff ff    	movw   $0xffff,0x6(%rax)
ffffffff8100bd00:	48 8b 05 e1 84 00 00 	mov    0x84e1(%rip),%rax        # ffffffff810141e8 <physmm>
ffffffff8100bd07:	4c 8b 00             	mov    (%rax),%r8
ffffffff8100bd0a:	48 8b 45 e8          	mov    -0x18(%rbp),%rax
ffffffff8100bd0e:	48 89 c1             	mov    %rax,%rcx
ffffffff8100bd11:	48 c7 c2 d5 b6 00 81 	mov    $0xffffffff8100b6d5,%rdx
ffffffff8100bd18:	be 10 00 00 00       	mov    $0x10,%esi
ffffffff8100bd1d:	bf 00 00 00 00       	mov    $0x0,%edi
ffffffff8100bd22:	41 ff d0             	callq  *%r8
ffffffff8100bd25:	89 45 fc             	mov    %eax,-0x4(%rbp)
ffffffff8100bd28:	83 7d fc ff          	cmpl   $0xffffffff,-0x4(%rbp)
ffffffff8100bd2c:	74 15                	je     ffffffff8100bd43 <pagemgr_build_page_path+0x7d>
ffffffff8100bd2e:	48 8b 45 e8          	mov    -0x18(%rbp),%rax
ffffffff8100bd32:	48 8b 50 10          	mov    0x10(%rax),%rdx
ffffffff8100bd36:	48 8b 45 e8          	mov    -0x18(%rbp),%rax
ffffffff8100bd3a:	48 8b 40 18          	mov    0x18(%rax),%rax
ffffffff8100bd3e:	48 39 c2             	cmp    %rax,%rdx
ffffffff8100bd41:	73 07                	jae    ffffffff8100bd4a <pagemgr_build_page_path+0x84>
ffffffff8100bd43:	b8 ff ff ff ff       	mov    $0xffffffff,%eax
ffffffff8100bd48:	eb 05                	jmp    ffffffff8100bd4f <pagemgr_build_page_path+0x89>
ffffffff8100bd4a:	b8 00 00 00 00       	mov    $0x0,%eax
ffffffff8100bd4f:	c9                   	leaveq 
ffffffff8100bd50:	c3                   	retq   

ffffffff8100bd51 <pagemgr_alloc_or_map>:
ffffffff8100bd51:	55                   	push   %rbp
ffffffff8100bd52:	48 89 e5             	mov    %rsp,%rbp
ffffffff8100bd55:	48 83 ec 30          	sub    $0x30,%rsp
ffffffff8100bd59:	48 89 7d e8          	mov    %rdi,-0x18(%rbp)
ffffffff8100bd5d:	48 89 75 e0          	mov    %rsi,-0x20(%rbp)
ffffffff8100bd61:	48 89 55 d8          	mov    %rdx,-0x28(%rbp)
ffffffff8100bd65:	48 8b 45 d8          	mov    -0x28(%rbp),%rax
ffffffff8100bd69:	48 89 45 f0          	mov    %rax,-0x10(%rbp)
ffffffff8100bd6d:	48 c7 45 f8 00 00 00 	movq   $0x0,-0x8(%rbp)
ffffffff8100bd74:	00 
ffffffff8100bd75:	e9 df 02 00 00       	jmpq   ffffffff8100c059 <pagemgr_alloc_or_map+0x308>
ffffffff8100bd7a:	0f b6 05 3f 84 00 00 	movzbl 0x843f(%rip),%eax        # ffffffff810141c0 <page_manager+0x10>
ffffffff8100bd81:	84 c0                	test   %al,%al
ffffffff8100bd83:	0f 84 98 00 00 00    	je     ffffffff8100be21 <pagemgr_alloc_or_map+0xd0>
ffffffff8100bd89:	48 8b 45 f0          	mov    -0x10(%rbp),%rax
ffffffff8100bd8d:	0f b7 00             	movzwl (%rax),%eax
ffffffff8100bd90:	0f b7 d0             	movzwl %ax,%edx
ffffffff8100bd93:	48 8b 45 f0          	mov    -0x10(%rbp),%rax
ffffffff8100bd97:	48 8b 40 10          	mov    0x10(%rax),%rax
ffffffff8100bd9b:	48 c1 e8 2f          	shr    $0x2f,%rax
ffffffff8100bd9f:	25 ff 01 00 00       	and    $0x1ff,%eax
ffffffff8100bda4:	48 39 c2             	cmp    %rax,%rdx
ffffffff8100bda7:	74 78                	je     ffffffff8100be21 <pagemgr_alloc_or_map+0xd0>
ffffffff8100bda9:	48 8b 45 f0          	mov    -0x10(%rbp),%rax
ffffffff8100bdad:	48 8b 40 10          	mov    0x10(%rax),%rax
ffffffff8100bdb1:	48 c1 e8 2f          	shr    $0x2f,%rax
ffffffff8100bdb5:	66 25 ff 01          	and    $0x1ff,%ax
ffffffff8100bdb9:	89 c2                	mov    %eax,%edx
ffffffff8100bdbb:	48 8b 45 f0          	mov    -0x10(%rbp),%rax
ffffffff8100bdbf:	66 89 10             	mov    %dx,(%rax)
ffffffff8100bdc2:	48 8b 05 e7 83 00 00 	mov    0x83e7(%rip),%rax        # ffffffff810141b0 <page_manager>
ffffffff8100bdc9:	48 25 00 f0 ff ff    	and    $0xfffffffffffff000,%rax
ffffffff8100bdcf:	be 01 00 00 00       	mov    $0x1,%esi
ffffffff8100bdd4:	48 89 c7             	mov    %rax,%rdi
ffffffff8100bdd7:	e8 9a f7 ff ff       	callq  ffffffff8100b576 <pagemgr_temp_map>
ffffffff8100bddc:	48 89 c2             	mov    %rax,%rdx
ffffffff8100bddf:	48 8b 45 f0          	mov    -0x10(%rbp),%rax
ffffffff8100bde3:	48 89 50 20          	mov    %rdx,0x20(%rax)
ffffffff8100bde7:	48 8b 45 f0          	mov    -0x10(%rbp),%rax
ffffffff8100bdeb:	48 8b 50 20          	mov    0x20(%rax),%rdx
ffffffff8100bdef:	48 8b 45 f0          	mov    -0x10(%rbp),%rax
ffffffff8100bdf3:	0f b7 00             	movzwl (%rax),%eax
ffffffff8100bdf6:	0f b7 c0             	movzwl %ax,%eax
ffffffff8100bdf9:	48 c1 e0 03          	shl    $0x3,%rax
ffffffff8100bdfd:	48 01 d0             	add    %rdx,%rax
ffffffff8100be00:	48 8b 00             	mov    (%rax),%rax
ffffffff8100be03:	48 25 00 f0 ff ff    	and    $0xfffffffffffff000,%rax
ffffffff8100be09:	be 02 00 00 00       	mov    $0x2,%esi
ffffffff8100be0e:	48 89 c7             	mov    %rax,%rdi
ffffffff8100be11:	e8 60 f7 ff ff       	callq  ffffffff8100b576 <pagemgr_temp_map>
ffffffff8100be16:	48 89 c2             	mov    %rax,%rdx
ffffffff8100be19:	48 8b 45 f0          	mov    -0x10(%rbp),%rax
ffffffff8100be1d:	48 89 50 28          	mov    %rdx,0x28(%rax)
ffffffff8100be21:	48 8b 45 f0          	mov    -0x10(%rbp),%rax
ffffffff8100be25:	0f b7 40 02          	movzwl 0x2(%rax),%eax
ffffffff8100be29:	0f b7 d0             	movzwl %ax,%edx
ffffffff8100be2c:	48 8b 45 f0          	mov    -0x10(%rbp),%rax
ffffffff8100be30:	48 8b 40 10          	mov    0x10(%rax),%rax
ffffffff8100be34:	48 c1 e8 27          	shr    $0x27,%rax
ffffffff8100be38:	25 ff 01 00 00       	and    $0x1ff,%eax
ffffffff8100be3d:	48 39 c2             	cmp    %rax,%rdx
ffffffff8100be40:	74 55                	je     ffffffff8100be97 <pagemgr_alloc_or_map+0x146>
ffffffff8100be42:	48 8b 45 f0          	mov    -0x10(%rbp),%rax
ffffffff8100be46:	48 8b 40 10          	mov    0x10(%rax),%rax
ffffffff8100be4a:	48 c1 e8 27          	shr    $0x27,%rax
ffffffff8100be4e:	66 25 ff 01          	and    $0x1ff,%ax
ffffffff8100be52:	89 c2                	mov    %eax,%edx
ffffffff8100be54:	48 8b 45 f0          	mov    -0x10(%rbp),%rax
ffffffff8100be58:	66 89 50 02          	mov    %dx,0x2(%rax)
ffffffff8100be5c:	48 8b 45 f0          	mov    -0x10(%rbp),%rax
ffffffff8100be60:	48 8b 50 28          	mov    0x28(%rax),%rdx
ffffffff8100be64:	48 8b 45 f0          	mov    -0x10(%rbp),%rax
ffffffff8100be68:	0f b7 40 02          	movzwl 0x2(%rax),%eax
ffffffff8100be6c:	0f b7 c0             	movzwl %ax,%eax
ffffffff8100be6f:	48 c1 e0 03          	shl    $0x3,%rax
ffffffff8100be73:	48 01 d0             	add    %rdx,%rax
ffffffff8100be76:	48 8b 00             	mov    (%rax),%rax
ffffffff8100be79:	48 25 00 f0 ff ff    	and    $0xfffffffffffff000,%rax
ffffffff8100be7f:	be 03 00 00 00       	mov    $0x3,%esi
ffffffff8100be84:	48 89 c7             	mov    %rax,%rdi
ffffffff8100be87:	e8 ea f6 ff ff       	callq  ffffffff8100b576 <pagemgr_temp_map>
ffffffff8100be8c:	48 89 c2             	mov    %rax,%rdx
ffffffff8100be8f:	48 8b 45 f0          	mov    -0x10(%rbp),%rax
ffffffff8100be93:	48 89 50 30          	mov    %rdx,0x30(%rax)
ffffffff8100be97:	48 8b 45 f0          	mov    -0x10(%rbp),%rax
ffffffff8100be9b:	0f b7 40 04          	movzwl 0x4(%rax),%eax
ffffffff8100be9f:	0f b7 d0             	movzwl %ax,%edx
ffffffff8100bea2:	48 8b 45 f0          	mov    -0x10(%rbp),%rax
ffffffff8100bea6:	48 8b 40 10          	mov    0x10(%rax),%rax
ffffffff8100beaa:	48 c1 e8 1e          	shr    $0x1e,%rax
ffffffff8100beae:	25 ff 01 00 00       	and    $0x1ff,%eax
ffffffff8100beb3:	48 39 c2             	cmp    %rax,%rdx
ffffffff8100beb6:	74 55                	je     ffffffff8100bf0d <pagemgr_alloc_or_map+0x1bc>
ffffffff8100beb8:	48 8b 45 f0          	mov    -0x10(%rbp),%rax
ffffffff8100bebc:	48 8b 40 10          	mov    0x10(%rax),%rax
ffffffff8100bec0:	48 c1 e8 1e          	shr    $0x1e,%rax
ffffffff8100bec4:	66 25 ff 01          	and    $0x1ff,%ax
ffffffff8100bec8:	89 c2                	mov    %eax,%edx
ffffffff8100beca:	48 8b 45 f0          	mov    -0x10(%rbp),%rax
ffffffff8100bece:	66 89 50 04          	mov    %dx,0x4(%rax)
ffffffff8100bed2:	48 8b 45 f0          	mov    -0x10(%rbp),%rax
ffffffff8100bed6:	48 8b 50 30          	mov    0x30(%rax),%rdx
ffffffff8100beda:	48 8b 45 f0          	mov    -0x10(%rbp),%rax
ffffffff8100bede:	0f b7 40 04          	movzwl 0x4(%rax),%eax
ffffffff8100bee2:	0f b7 c0             	movzwl %ax,%eax
ffffffff8100bee5:	48 c1 e0 03          	shl    $0x3,%rax
ffffffff8100bee9:	48 01 d0             	add    %rdx,%rax
ffffffff8100beec:	48 8b 00             	mov    (%rax),%rax
ffffffff8100beef:	48 25 00 f0 ff ff    	and    $0xfffffffffffff000,%rax
ffffffff8100bef5:	be 04 00 00 00       	mov    $0x4,%esi
ffffffff8100befa:	48 89 c7             	mov    %rax,%rdi
ffffffff8100befd:	e8 74 f6 ff ff       	callq  ffffffff8100b576 <pagemgr_temp_map>
ffffffff8100bf02:	48 89 c2             	mov    %rax,%rdx
ffffffff8100bf05:	48 8b 45 f0          	mov    -0x10(%rbp),%rax
ffffffff8100bf09:	48 89 50 38          	mov    %rdx,0x38(%rax)
ffffffff8100bf0d:	48 8b 45 f0          	mov    -0x10(%rbp),%rax
ffffffff8100bf11:	0f b7 40 06          	movzwl 0x6(%rax),%eax
ffffffff8100bf15:	0f b7 d0             	movzwl %ax,%edx
ffffffff8100bf18:	48 8b 45 f0          	mov    -0x10(%rbp),%rax
ffffffff8100bf1c:	48 8b 40 10          	mov    0x10(%rax),%rax
ffffffff8100bf20:	48 c1 e8 15          	shr    $0x15,%rax
ffffffff8100bf24:	25 ff 01 00 00       	and    $0x1ff,%eax
ffffffff8100bf29:	48 39 c2             	cmp    %rax,%rdx
ffffffff8100bf2c:	74 55                	je     ffffffff8100bf83 <pagemgr_alloc_or_map+0x232>
ffffffff8100bf2e:	48 8b 45 f0          	mov    -0x10(%rbp),%rax
ffffffff8100bf32:	48 8b 40 10          	mov    0x10(%rax),%rax
ffffffff8100bf36:	48 c1 e8 15          	shr    $0x15,%rax
ffffffff8100bf3a:	66 25 ff 01          	and    $0x1ff,%ax
ffffffff8100bf3e:	89 c2                	mov    %eax,%edx
ffffffff8100bf40:	48 8b 45 f0          	mov    -0x10(%rbp),%rax
ffffffff8100bf44:	66 89 50 06          	mov    %dx,0x6(%rax)
ffffffff8100bf48:	48 8b 45 f0          	mov    -0x10(%rbp),%rax
ffffffff8100bf4c:	48 8b 50 38          	mov    0x38(%rax),%rdx
ffffffff8100bf50:	48 8b 45 f0          	mov    -0x10(%rbp),%rax
ffffffff8100bf54:	0f b7 40 06          	movzwl 0x6(%rax),%eax
ffffffff8100bf58:	0f b7 c0             	movzwl %ax,%eax
ffffffff8100bf5b:	48 c1 e0 03          	shl    $0x3,%rax
ffffffff8100bf5f:	48 01 d0             	add    %rdx,%rax
ffffffff8100bf62:	48 8b 00             	mov    (%rax),%rax
ffffffff8100bf65:	48 25 00 f0 ff ff    	and    $0xfffffffffffff000,%rax
ffffffff8100bf6b:	be 05 00 00 00       	mov    $0x5,%esi
ffffffff8100bf70:	48 89 c7             	mov    %rax,%rdi
ffffffff8100bf73:	e8 fe f5 ff ff       	callq  ffffffff8100b576 <pagemgr_temp_map>
ffffffff8100bf78:	48 89 c2             	mov    %rax,%rdx
ffffffff8100bf7b:	48 8b 45 f0          	mov    -0x10(%rbp),%rax
ffffffff8100bf7f:	48 89 50 40          	mov    %rdx,0x40(%rax)
ffffffff8100bf83:	48 8b 45 f0          	mov    -0x10(%rbp),%rax
ffffffff8100bf87:	48 8b 40 10          	mov    0x10(%rax),%rax
ffffffff8100bf8b:	48 c1 e8 0c          	shr    $0xc,%rax
ffffffff8100bf8f:	66 25 ff 01          	and    $0x1ff,%ax
ffffffff8100bf93:	89 c2                	mov    %eax,%edx
ffffffff8100bf95:	48 8b 45 f0          	mov    -0x10(%rbp),%rax
ffffffff8100bf99:	66 89 50 08          	mov    %dx,0x8(%rax)
ffffffff8100bf9d:	48 8b 45 f0          	mov    -0x10(%rbp),%rax
ffffffff8100bfa1:	48 8b 50 40          	mov    0x40(%rax),%rdx
ffffffff8100bfa5:	48 8b 45 f0          	mov    -0x10(%rbp),%rax
ffffffff8100bfa9:	0f b7 40 08          	movzwl 0x8(%rax),%eax
ffffffff8100bfad:	0f b7 c0             	movzwl %ax,%eax
ffffffff8100bfb0:	48 c1 e0 03          	shl    $0x3,%rax
ffffffff8100bfb4:	48 01 d0             	add    %rdx,%rax
ffffffff8100bfb7:	0f b6 00             	movzbl (%rax),%eax
ffffffff8100bfba:	83 e0 01             	and    $0x1,%eax
ffffffff8100bfbd:	84 c0                	test   %al,%al
ffffffff8100bfbf:	75 51                	jne    ffffffff8100c012 <pagemgr_alloc_or_map+0x2c1>
ffffffff8100bfc1:	48 8b 45 f8          	mov    -0x8(%rbp),%rax
ffffffff8100bfc5:	48 c1 e0 0c          	shl    $0xc,%rax
ffffffff8100bfc9:	48 89 c1             	mov    %rax,%rcx
ffffffff8100bfcc:	48 8b 45 f0          	mov    -0x10(%rbp),%rax
ffffffff8100bfd0:	48 8b 50 40          	mov    0x40(%rax),%rdx
ffffffff8100bfd4:	48 8b 45 f0          	mov    -0x10(%rbp),%rax
ffffffff8100bfd8:	0f b7 40 08          	movzwl 0x8(%rax),%eax
ffffffff8100bfdc:	0f b7 c0             	movzwl %ax,%eax
ffffffff8100bfdf:	48 c1 e0 03          	shl    $0x3,%rax
ffffffff8100bfe3:	48 01 d0             	add    %rdx,%rax
ffffffff8100bfe6:	48 8b 55 e8          	mov    -0x18(%rbp),%rdx
ffffffff8100bfea:	48 01 ca             	add    %rcx,%rdx
ffffffff8100bfed:	48 89 10             	mov    %rdx,(%rax)
ffffffff8100bff0:	48 8b 45 f0          	mov    -0x10(%rbp),%rax
ffffffff8100bff4:	48 8b 50 40          	mov    0x40(%rax),%rdx
ffffffff8100bff8:	48 8b 45 f0          	mov    -0x10(%rbp),%rax
ffffffff8100bffc:	0f b7 40 08          	movzwl 0x8(%rax),%eax
ffffffff8100c000:	0f b7 c0             	movzwl %ax,%eax
ffffffff8100c003:	48 c1 e0 03          	shl    $0x3,%rax
ffffffff8100c007:	48 01 d0             	add    %rdx,%rax
ffffffff8100c00a:	0f b6 10             	movzbl (%rax),%edx
ffffffff8100c00d:	83 ca 01             	or     $0x1,%edx
ffffffff8100c010:	88 10                	mov    %dl,(%rax)
ffffffff8100c012:	48 8b 45 f0          	mov    -0x10(%rbp),%rax
ffffffff8100c016:	8b 40 48             	mov    0x48(%rax),%eax
ffffffff8100c019:	48 8b 55 f0          	mov    -0x10(%rbp),%rdx
ffffffff8100c01d:	48 8b 4a 40          	mov    0x40(%rdx),%rcx
ffffffff8100c021:	48 8b 55 f0          	mov    -0x10(%rbp),%rdx
ffffffff8100c025:	0f b7 52 08          	movzwl 0x8(%rdx),%edx
ffffffff8100c029:	0f b7 d2             	movzwl %dx,%edx
ffffffff8100c02c:	48 c1 e2 03          	shl    $0x3,%rdx
ffffffff8100c030:	48 01 ca             	add    %rcx,%rdx
ffffffff8100c033:	89 c6                	mov    %eax,%esi
ffffffff8100c035:	48 89 d7             	mov    %rdx,%rdi
ffffffff8100c038:	e8 d0 ed ff ff       	callq  ffffffff8100ae0d <pagemgr_attr_translate>
ffffffff8100c03d:	48 8b 45 f0          	mov    -0x10(%rbp),%rax
ffffffff8100c041:	48 8b 40 10          	mov    0x10(%rax),%rax
ffffffff8100c045:	48 8d 90 00 10 00 00 	lea    0x1000(%rax),%rdx
ffffffff8100c04c:	48 8b 45 f0          	mov    -0x10(%rbp),%rax
ffffffff8100c050:	48 89 50 10          	mov    %rdx,0x10(%rax)
ffffffff8100c054:	48 83 45 f8 01       	addq   $0x1,-0x8(%rbp)
ffffffff8100c059:	48 8b 45 f8          	mov    -0x8(%rbp),%rax
ffffffff8100c05d:	48 3b 45 e0          	cmp    -0x20(%rbp),%rax
ffffffff8100c061:	73 19                	jae    ffffffff8100c07c <pagemgr_alloc_or_map+0x32b>
ffffffff8100c063:	48 8b 45 f0          	mov    -0x10(%rbp),%rax
ffffffff8100c067:	48 8b 50 10          	mov    0x10(%rax),%rdx
ffffffff8100c06b:	48 8b 45 f0          	mov    -0x10(%rbp),%rax
ffffffff8100c06f:	48 8b 40 18          	mov    0x18(%rax),%rax
ffffffff8100c073:	48 39 c2             	cmp    %rax,%rdx
ffffffff8100c076:	0f 82 fe fc ff ff    	jb     ffffffff8100bd7a <pagemgr_alloc_or_map+0x29>
ffffffff8100c07c:	48 8b 45 f8          	mov    -0x8(%rbp),%rax
ffffffff8100c080:	c9                   	leaveq 
ffffffff8100c081:	c3                   	retq   

ffffffff8100c082 <pagemgr_map>:
ffffffff8100c082:	55                   	push   %rbp
ffffffff8100c083:	48 89 e5             	mov    %rsp,%rbp
ffffffff8100c086:	48 81 ec 90 00 00 00 	sub    $0x90,%rsp
ffffffff8100c08d:	48 89 7d 88          	mov    %rdi,-0x78(%rbp)
ffffffff8100c091:	48 89 75 80          	mov    %rsi,-0x80(%rbp)
ffffffff8100c095:	48 89 95 78 ff ff ff 	mov    %rdx,-0x88(%rbp)
ffffffff8100c09c:	89 8d 74 ff ff ff    	mov    %ecx,-0x8c(%rbp)
ffffffff8100c0a2:	c7 45 fc 00 00 00 00 	movl   $0x0,-0x4(%rbp)
ffffffff8100c0a9:	48 c7 45 f0 00 00 00 	movq   $0x0,-0x10(%rbp)
ffffffff8100c0b0:	00 
ffffffff8100c0b1:	48 8d 45 98          	lea    -0x68(%rbp),%rax
ffffffff8100c0b5:	ba 58 00 00 00       	mov    $0x58,%edx
ffffffff8100c0ba:	be 00 00 00 00       	mov    $0x0,%esi
ffffffff8100c0bf:	48 89 c7             	mov    %rax,%rdi
ffffffff8100c0c2:	e8 c0 ea ff ff       	callq  ffffffff8100ab87 <memset>
ffffffff8100c0c7:	48 8b 45 88          	mov    -0x78(%rbp),%rax
ffffffff8100c0cb:	48 89 45 a8          	mov    %rax,-0x58(%rbp)
ffffffff8100c0cf:	48 8b 55 88          	mov    -0x78(%rbp),%rdx
ffffffff8100c0d3:	48 8b 85 78 ff ff ff 	mov    -0x88(%rbp),%rax
ffffffff8100c0da:	48 01 d0             	add    %rdx,%rax
ffffffff8100c0dd:	48 89 45 b0          	mov    %rax,-0x50(%rbp)
ffffffff8100c0e1:	0f b6 05 d8 80 00 00 	movzbl 0x80d8(%rip),%eax        # ffffffff810141c0 <page_manager+0x10>
ffffffff8100c0e8:	84 c0                	test   %al,%al
ffffffff8100c0ea:	74 20                	je     ffffffff8100c10c <pagemgr_map+0x8a>
ffffffff8100c0ec:	48 8b 05 bd 80 00 00 	mov    0x80bd(%rip),%rax        # ffffffff810141b0 <page_manager>
ffffffff8100c0f3:	48 25 00 f0 ff ff    	and    $0xfffffffffffff000,%rax
ffffffff8100c0f9:	be 01 00 00 00       	mov    $0x1,%esi
ffffffff8100c0fe:	48 89 c7             	mov    %rax,%rdi
ffffffff8100c101:	e8 70 f4 ff ff       	callq  ffffffff8100b576 <pagemgr_temp_map>
ffffffff8100c106:	48 89 45 b8          	mov    %rax,-0x48(%rbp)
ffffffff8100c10a:	eb 1e                	jmp    ffffffff8100c12a <pagemgr_map+0xa8>
ffffffff8100c10c:	48 8b 05 9d 80 00 00 	mov    0x809d(%rip),%rax        # ffffffff810141b0 <page_manager>
ffffffff8100c113:	48 25 00 f0 ff ff    	and    $0xfffffffffffff000,%rax
ffffffff8100c119:	be 02 00 00 00       	mov    $0x2,%esi
ffffffff8100c11e:	48 89 c7             	mov    %rax,%rdi
ffffffff8100c121:	e8 50 f4 ff ff       	callq  ffffffff8100b576 <pagemgr_temp_map>
ffffffff8100c126:	48 89 45 c0          	mov    %rax,-0x40(%rbp)
ffffffff8100c12a:	48 8d 45 98          	lea    -0x68(%rbp),%rax
ffffffff8100c12e:	48 89 c7             	mov    %rax,%rdi
ffffffff8100c131:	e8 90 fb ff ff       	callq  ffffffff8100bcc6 <pagemgr_build_page_path>
ffffffff8100c136:	85 c0                	test   %eax,%eax
ffffffff8100c138:	79 07                	jns    ffffffff8100c141 <pagemgr_map+0xbf>
ffffffff8100c13a:	b8 00 00 00 00       	mov    $0x0,%eax
ffffffff8100c13f:	eb 6b                	jmp    ffffffff8100c1ac <pagemgr_map+0x12a>
ffffffff8100c141:	48 8b 45 88          	mov    -0x78(%rbp),%rax
ffffffff8100c145:	48 89 45 a8          	mov    %rax,-0x58(%rbp)
ffffffff8100c149:	66 c7 45 98 ff ff    	movw   $0xffff,-0x68(%rbp)
ffffffff8100c14f:	66 c7 45 9a ff ff    	movw   $0xffff,-0x66(%rbp)
ffffffff8100c155:	66 c7 45 9c ff ff    	movw   $0xffff,-0x64(%rbp)
ffffffff8100c15b:	66 c7 45 9e ff ff    	movw   $0xffff,-0x62(%rbp)
ffffffff8100c161:	66 c7 45 a0 ff ff    	movw   $0xffff,-0x60(%rbp)
ffffffff8100c167:	48 8b 55 88          	mov    -0x78(%rbp),%rdx
ffffffff8100c16b:	48 8b 85 78 ff ff ff 	mov    -0x88(%rbp),%rax
ffffffff8100c172:	48 01 d0             	add    %rdx,%rax
ffffffff8100c175:	48 89 45 b0          	mov    %rax,-0x50(%rbp)
ffffffff8100c179:	8b 85 74 ff ff ff    	mov    -0x8c(%rbp),%eax
ffffffff8100c17f:	89 45 e0             	mov    %eax,-0x20(%rbp)
ffffffff8100c182:	48 8b 85 78 ff ff ff 	mov    -0x88(%rbp),%rax
ffffffff8100c189:	48 c1 e8 0c          	shr    $0xc,%rax
ffffffff8100c18d:	48 89 45 f0          	mov    %rax,-0x10(%rbp)
ffffffff8100c191:	48 8d 55 98          	lea    -0x68(%rbp),%rdx
ffffffff8100c195:	48 8b 4d f0          	mov    -0x10(%rbp),%rcx
ffffffff8100c199:	48 8b 45 80          	mov    -0x80(%rbp),%rax
ffffffff8100c19d:	48 89 ce             	mov    %rcx,%rsi
ffffffff8100c1a0:	48 89 c7             	mov    %rax,%rdi
ffffffff8100c1a3:	e8 a9 fb ff ff       	callq  ffffffff8100bd51 <pagemgr_alloc_or_map>
ffffffff8100c1a8:	48 8b 45 88          	mov    -0x78(%rbp),%rax
ffffffff8100c1ac:	c9                   	leaveq 
ffffffff8100c1ad:	c3                   	retq   

ffffffff8100c1ae <pagemgr_alloc>:
ffffffff8100c1ae:	55                   	push   %rbp
ffffffff8100c1af:	48 89 e5             	mov    %rsp,%rbp
ffffffff8100c1b2:	48 81 ec 90 00 00 00 	sub    $0x90,%rsp
ffffffff8100c1b9:	48 89 7d 88          	mov    %rdi,-0x78(%rbp)
ffffffff8100c1bd:	48 89 75 80          	mov    %rsi,-0x80(%rbp)
ffffffff8100c1c1:	89 95 7c ff ff ff    	mov    %edx,-0x84(%rbp)
ffffffff8100c1c7:	48 c7 45 f8 00 00 00 	movq   $0x0,-0x8(%rbp)
ffffffff8100c1ce:	00 
ffffffff8100c1cf:	c7 45 f4 00 00 00 00 	movl   $0x0,-0xc(%rbp)
ffffffff8100c1d6:	48 8d 45 98          	lea    -0x68(%rbp),%rax
ffffffff8100c1da:	ba 58 00 00 00       	mov    $0x58,%edx
ffffffff8100c1df:	be 00 00 00 00       	mov    $0x0,%esi
ffffffff8100c1e4:	48 89 c7             	mov    %rax,%rdi
ffffffff8100c1e7:	e8 9b e9 ff ff       	callq  ffffffff8100ab87 <memset>
ffffffff8100c1ec:	48 8b 45 88          	mov    -0x78(%rbp),%rax
ffffffff8100c1f0:	48 89 45 a8          	mov    %rax,-0x58(%rbp)
ffffffff8100c1f4:	48 8b 55 88          	mov    -0x78(%rbp),%rdx
ffffffff8100c1f8:	48 8b 45 80          	mov    -0x80(%rbp),%rax
ffffffff8100c1fc:	48 01 d0             	add    %rdx,%rax
ffffffff8100c1ff:	48 89 45 b0          	mov    %rax,-0x50(%rbp)
ffffffff8100c203:	0f b6 05 b6 7f 00 00 	movzbl 0x7fb6(%rip),%eax        # ffffffff810141c0 <page_manager+0x10>
ffffffff8100c20a:	84 c0                	test   %al,%al
ffffffff8100c20c:	74 20                	je     ffffffff8100c22e <pagemgr_alloc+0x80>
ffffffff8100c20e:	48 8b 05 9b 7f 00 00 	mov    0x7f9b(%rip),%rax        # ffffffff810141b0 <page_manager>
ffffffff8100c215:	48 25 00 f0 ff ff    	and    $0xfffffffffffff000,%rax
ffffffff8100c21b:	be 01 00 00 00       	mov    $0x1,%esi
ffffffff8100c220:	48 89 c7             	mov    %rax,%rdi
ffffffff8100c223:	e8 4e f3 ff ff       	callq  ffffffff8100b576 <pagemgr_temp_map>
ffffffff8100c228:	48 89 45 b8          	mov    %rax,-0x48(%rbp)
ffffffff8100c22c:	eb 1e                	jmp    ffffffff8100c24c <pagemgr_alloc+0x9e>
ffffffff8100c22e:	48 8b 05 7b 7f 00 00 	mov    0x7f7b(%rip),%rax        # ffffffff810141b0 <page_manager>
ffffffff8100c235:	48 25 00 f0 ff ff    	and    $0xfffffffffffff000,%rax
ffffffff8100c23b:	be 02 00 00 00       	mov    $0x2,%esi
ffffffff8100c240:	48 89 c7             	mov    %rax,%rdi
ffffffff8100c243:	e8 2e f3 ff ff       	callq  ffffffff8100b576 <pagemgr_temp_map>
ffffffff8100c248:	48 89 45 c0          	mov    %rax,-0x40(%rbp)
ffffffff8100c24c:	48 8d 45 98          	lea    -0x68(%rbp),%rax
ffffffff8100c250:	48 89 c7             	mov    %rax,%rdi
ffffffff8100c253:	e8 6e fa ff ff       	callq  ffffffff8100bcc6 <pagemgr_build_page_path>
ffffffff8100c258:	85 c0                	test   %eax,%eax
ffffffff8100c25a:	79 07                	jns    ffffffff8100c263 <pagemgr_alloc+0xb5>
ffffffff8100c25c:	b8 00 00 00 00       	mov    $0x0,%eax
ffffffff8100c261:	eb 76                	jmp    ffffffff8100c2d9 <pagemgr_alloc+0x12b>
ffffffff8100c263:	48 8b 45 88          	mov    -0x78(%rbp),%rax
ffffffff8100c267:	48 89 45 a8          	mov    %rax,-0x58(%rbp)
ffffffff8100c26b:	66 c7 45 98 ff ff    	movw   $0xffff,-0x68(%rbp)
ffffffff8100c271:	66 c7 45 9a ff ff    	movw   $0xffff,-0x66(%rbp)
ffffffff8100c277:	66 c7 45 9c ff ff    	movw   $0xffff,-0x64(%rbp)
ffffffff8100c27d:	66 c7 45 9e ff ff    	movw   $0xffff,-0x62(%rbp)
ffffffff8100c283:	66 c7 45 a0 ff ff    	movw   $0xffff,-0x60(%rbp)
ffffffff8100c289:	8b 85 7c ff ff ff    	mov    -0x84(%rbp),%eax
ffffffff8100c28f:	89 45 e0             	mov    %eax,-0x20(%rbp)
ffffffff8100c292:	48 8b 45 80          	mov    -0x80(%rbp),%rax
ffffffff8100c296:	48 c1 e8 0c          	shr    $0xc,%rax
ffffffff8100c29a:	48 89 45 f8          	mov    %rax,-0x8(%rbp)
ffffffff8100c29e:	48 8b 05 43 7f 00 00 	mov    0x7f43(%rip),%rax        # ffffffff810141e8 <physmm>
ffffffff8100c2a5:	4c 8b 00             	mov    (%rax),%r8
ffffffff8100c2a8:	48 8d 55 98          	lea    -0x68(%rbp),%rdx
ffffffff8100c2ac:	48 8b 45 f8          	mov    -0x8(%rbp),%rax
ffffffff8100c2b0:	48 89 d1             	mov    %rdx,%rcx
ffffffff8100c2b3:	48 c7 c2 51 bd 00 81 	mov    $0xffffffff8100bd51,%rdx
ffffffff8100c2ba:	be 00 00 00 00       	mov    $0x0,%esi
ffffffff8100c2bf:	48 89 c7             	mov    %rax,%rdi
ffffffff8100c2c2:	41 ff d0             	callq  *%r8
ffffffff8100c2c5:	89 45 f4             	mov    %eax,-0xc(%rbp)
ffffffff8100c2c8:	83 7d f4 00          	cmpl   $0x0,-0xc(%rbp)
ffffffff8100c2cc:	79 07                	jns    ffffffff8100c2d5 <pagemgr_alloc+0x127>
ffffffff8100c2ce:	b8 00 00 00 00       	mov    $0x0,%eax
ffffffff8100c2d3:	eb 04                	jmp    ffffffff8100c2d9 <pagemgr_alloc+0x12b>
ffffffff8100c2d5:	48 8b 45 88          	mov    -0x78(%rbp),%rax
ffffffff8100c2d9:	c9                   	leaveq 
ffffffff8100c2da:	c3                   	retq   

ffffffff8100c2db <pagemgr_attr_change>:
ffffffff8100c2db:	55                   	push   %rbp
ffffffff8100c2dc:	48 89 e5             	mov    %rsp,%rbp
ffffffff8100c2df:	48 83 ec 18          	sub    $0x18,%rsp
ffffffff8100c2e3:	48 89 7d f8          	mov    %rdi,-0x8(%rbp)
ffffffff8100c2e7:	48 89 75 f0          	mov    %rsi,-0x10(%rbp)
ffffffff8100c2eb:	89 55 ec             	mov    %edx,-0x14(%rbp)
ffffffff8100c2ee:	90                   	nop
ffffffff8100c2ef:	c9                   	leaveq 
ffffffff8100c2f0:	c3                   	retq   

ffffffff8100c2f1 <pagemgr_get>:
ffffffff8100c2f1:	55                   	push   %rbp
ffffffff8100c2f2:	48 89 e5             	mov    %rsp,%rbp
ffffffff8100c2f5:	48 c7 c0 d0 41 01 81 	mov    $0xffffffff810141d0,%rax
ffffffff8100c2fc:	5d                   	pop    %rbp
ffffffff8100c2fd:	c3                   	retq   

ffffffff8100c2fe <pagemgr_page_fault_handler>:
ffffffff8100c2fe:	55                   	push   %rbp
ffffffff8100c2ff:	48 89 e5             	mov    %rsp,%rbp
ffffffff8100c302:	48 83 ec 20          	sub    $0x20,%rsp
ffffffff8100c306:	48 89 7d e8          	mov    %rdi,-0x18(%rbp)
ffffffff8100c30a:	48 89 75 e0          	mov    %rsi,-0x20(%rbp)
ffffffff8100c30e:	b8 00 00 00 00       	mov    $0x0,%eax
ffffffff8100c313:	e8 0a b9 ff ff       	callq  ffffffff81007c22 <_cli>
ffffffff8100c318:	b8 00 00 00 00       	mov    $0x0,%eax
ffffffff8100c31d:	e8 84 e7 ff ff       	callq  ffffffff8100aaa6 <read_cr2>
ffffffff8100c322:	48 89 45 f8          	mov    %rax,-0x8(%rbp)
ffffffff8100c326:	48 8b 55 e0          	mov    -0x20(%rbp),%rdx
ffffffff8100c32a:	48 8b 45 f8          	mov    -0x8(%rbp),%rax
ffffffff8100c32e:	48 89 c6             	mov    %rax,%rsi
ffffffff8100c331:	48 c7 c7 fa d2 00 81 	mov    $0xffffffff8100d2fa,%rdi
ffffffff8100c338:	b8 00 00 00 00       	mov    $0x0,%eax
ffffffff8100c33d:	e8 d4 bc ff ff       	callq  ffffffff81008016 <kprintf>
ffffffff8100c342:	48 83 7d f8 00       	cmpq   $0x0,-0x8(%rbp)
ffffffff8100c347:	75 07                	jne    ffffffff8100c350 <pagemgr_page_fault_handler+0x52>
ffffffff8100c349:	b8 00 00 00 00       	mov    $0x0,%eax
ffffffff8100c34e:	eb 0f                	jmp    ffffffff8100c35f <pagemgr_page_fault_handler+0x61>
ffffffff8100c350:	b8 00 00 00 00       	mov    $0x0,%eax
ffffffff8100c355:	e8 ca b8 ff ff       	callq  ffffffff81007c24 <_sti>
ffffffff8100c35a:	b8 00 00 00 00       	mov    $0x0,%eax
ffffffff8100c35f:	c9                   	leaveq 
ffffffff8100c360:	c3                   	retq   
ffffffff8100c361:	66 2e 0f 1f 84 00 00 	nopw   %cs:0x0(%rax,%rax,1)
ffffffff8100c368:	00 00 00 
ffffffff8100c36b:	0f 1f 44 00 00       	nopl   0x0(%rax,%rax,1)

ffffffff8100c370 <has_pml5>:
ffffffff8100c370:	48 31 c0             	xor    %rax,%rax
ffffffff8100c373:	48 31 c9             	xor    %rcx,%rcx
ffffffff8100c376:	b8 07 00 00 00       	mov    $0x7,%eax
ffffffff8100c37b:	0f a2                	cpuid  
ffffffff8100c37d:	81 e1 00 00 01 00    	and    $0x10000,%ecx
ffffffff8100c383:	c1 e9 10             	shr    $0x10,%ecx
ffffffff8100c386:	48 31 c0             	xor    %rax,%rax
ffffffff8100c389:	89 c8                	mov    %ecx,%eax
ffffffff8100c38b:	c3                   	retq   

ffffffff8100c38c <has_nx>:
ffffffff8100c38c:	48 31 c0             	xor    %rax,%rax
ffffffff8100c38f:	b8 01 00 00 80       	mov    $0x80000001,%eax
ffffffff8100c394:	0f a2                	cpuid  
ffffffff8100c396:	81 e2 00 00 10 00    	and    $0x100000,%edx
ffffffff8100c39c:	c1 ea 14             	shr    $0x14,%edx
ffffffff8100c39f:	48 31 c0             	xor    %rax,%rax
ffffffff8100c3a2:	89 d0                	mov    %edx,%eax
ffffffff8100c3a4:	c3                   	retq   

ffffffff8100c3a5 <enable_nx>:
ffffffff8100c3a5:	b9 80 00 00 c0       	mov    $0xc0000080,%ecx
ffffffff8100c3aa:	0f 32                	rdmsr  
ffffffff8100c3ac:	0d 00 08 00 00       	or     $0x800,%eax
ffffffff8100c3b1:	0f 30                	wrmsr  
ffffffff8100c3b3:	c3                   	retq   

ffffffff8100c3b4 <max_linear_address>:
ffffffff8100c3b4:	48 31 c0             	xor    %rax,%rax
ffffffff8100c3b7:	b8 08 00 00 80       	mov    $0x80000008,%eax
ffffffff8100c3bc:	0f a2                	cpuid  
ffffffff8100c3be:	25 00 ff 00 00       	and    $0xff00,%eax
ffffffff8100c3c3:	c1 e8 08             	shr    $0x8,%eax
ffffffff8100c3c6:	c3                   	retq   

ffffffff8100c3c7 <max_physical_address>:
ffffffff8100c3c7:	48 31 c0             	xor    %rax,%rax
ffffffff8100c3ca:	b8 08 00 00 80       	mov    $0x80000008,%eax
ffffffff8100c3cf:	0f a2                	cpuid  
ffffffff8100c3d1:	25 ff 00 00 00       	and    $0xff,%eax
ffffffff8100c3d6:	c3                   	retq   

ffffffff8100c3d7 <read_lapic_base>:
ffffffff8100c3d7:	b9 1b 00 00 00       	mov    $0x1b,%ecx
ffffffff8100c3dc:	0f 32                	rdmsr  
ffffffff8100c3de:	c3                   	retq   

ffffffff8100c3df <write_lapic_base>:
ffffffff8100c3df:	b9 1b 00 00 00       	mov    $0x1b,%ecx
ffffffff8100c3e4:	89 f8                	mov    %edi,%eax
ffffffff8100c3e6:	0f 30                	wrmsr  
ffffffff8100c3e8:	c3                   	retq   

ffffffff8100c3e9 <disable_pic>:
ffffffff8100c3e9:	b0 ff                	mov    $0xff,%al
ffffffff8100c3eb:	e6 a1                	out    %al,$0xa1
ffffffff8100c3ed:	e6 21                	out    %al,$0x21
ffffffff8100c3ef:	c3                   	retq   

ffffffff8100c3f0 <enable_pml5>:
ffffffff8100c3f0:	0f 20 e0             	mov    %cr4,%rax
ffffffff8100c3f3:	0d 00 10 00 00       	or     $0x1000,%eax
ffffffff8100c3f8:	0f 22 e0             	mov    %rax,%cr4
ffffffff8100c3fb:	c3                   	retq   

ffffffff8100c3fc <enable_wp>:
ffffffff8100c3fc:	0f 20 c0             	mov    %cr0,%rax
ffffffff8100c3ff:	0d 00 00 01 00       	or     $0x10000,%eax
ffffffff8100c404:	0f 22 c0             	mov    %rax,%cr0
ffffffff8100c407:	c3                   	retq   

ffffffff8100c408 <linked_list_init>:
ffffffff8100c408:	55                   	push   %rbp
ffffffff8100c409:	48 89 e5             	mov    %rsp,%rbp
ffffffff8100c40c:	48 83 ec 08          	sub    $0x8,%rsp
ffffffff8100c410:	48 89 7d f8          	mov    %rdi,-0x8(%rbp)
ffffffff8100c414:	48 83 7d f8 00       	cmpq   $0x0,-0x8(%rbp)
ffffffff8100c419:	75 07                	jne    ffffffff8100c422 <linked_list_init+0x1a>
ffffffff8100c41b:	b8 ff ff ff ff       	mov    $0xffffffff,%eax
ffffffff8100c420:	eb 28                	jmp    ffffffff8100c44a <linked_list_init+0x42>
ffffffff8100c422:	48 8b 45 f8          	mov    -0x8(%rbp),%rax
ffffffff8100c426:	48 c7 40 10 00 00 00 	movq   $0x0,0x10(%rax)
ffffffff8100c42d:	00 
ffffffff8100c42e:	48 8b 45 f8          	mov    -0x8(%rbp),%rax
ffffffff8100c432:	48 c7 40 08 00 00 00 	movq   $0x0,0x8(%rax)
ffffffff8100c439:	00 
ffffffff8100c43a:	48 8b 45 f8          	mov    -0x8(%rbp),%rax
ffffffff8100c43e:	48 c7 00 00 00 00 00 	movq   $0x0,(%rax)
ffffffff8100c445:	b8 00 00 00 00       	mov    $0x0,%eax
ffffffff8100c44a:	c9                   	leaveq 
ffffffff8100c44b:	c3                   	retq   

ffffffff8100c44c <linked_list_add_head>:
ffffffff8100c44c:	55                   	push   %rbp
ffffffff8100c44d:	48 89 e5             	mov    %rsp,%rbp
ffffffff8100c450:	48 83 ec 10          	sub    $0x10,%rsp
ffffffff8100c454:	48 89 7d f8          	mov    %rdi,-0x8(%rbp)
ffffffff8100c458:	48 89 75 f0          	mov    %rsi,-0x10(%rbp)
ffffffff8100c45c:	48 8b 45 f8          	mov    -0x8(%rbp),%rax
ffffffff8100c460:	48 8b 40 08          	mov    0x8(%rax),%rax
ffffffff8100c464:	48 85 c0             	test   %rax,%rax
ffffffff8100c467:	75 42                	jne    ffffffff8100c4ab <linked_list_add_head+0x5f>
ffffffff8100c469:	48 8b 45 f8          	mov    -0x8(%rbp),%rax
ffffffff8100c46d:	48 8b 40 10          	mov    0x10(%rax),%rax
ffffffff8100c471:	48 85 c0             	test   %rax,%rax
ffffffff8100c474:	75 35                	jne    ffffffff8100c4ab <linked_list_add_head+0x5f>
ffffffff8100c476:	48 8b 45 f8          	mov    -0x8(%rbp),%rax
ffffffff8100c47a:	48 8b 55 f0          	mov    -0x10(%rbp),%rdx
ffffffff8100c47e:	48 89 50 08          	mov    %rdx,0x8(%rax)
ffffffff8100c482:	48 8b 45 f8          	mov    -0x8(%rbp),%rax
ffffffff8100c486:	48 8b 50 08          	mov    0x8(%rax),%rdx
ffffffff8100c48a:	48 8b 45 f8          	mov    -0x8(%rbp),%rax
ffffffff8100c48e:	48 89 50 10          	mov    %rdx,0x10(%rax)
ffffffff8100c492:	48 8b 45 f0          	mov    -0x10(%rbp),%rax
ffffffff8100c496:	48 c7 40 08 00 00 00 	movq   $0x0,0x8(%rax)
ffffffff8100c49d:	00 
ffffffff8100c49e:	48 8b 45 f0          	mov    -0x10(%rbp),%rax
ffffffff8100c4a2:	48 c7 00 00 00 00 00 	movq   $0x0,(%rax)
ffffffff8100c4a9:	eb 36                	jmp    ffffffff8100c4e1 <linked_list_add_head+0x95>
ffffffff8100c4ab:	48 8b 45 f8          	mov    -0x8(%rbp),%rax
ffffffff8100c4af:	48 8b 50 10          	mov    0x10(%rax),%rdx
ffffffff8100c4b3:	48 8b 45 f0          	mov    -0x10(%rbp),%rax
ffffffff8100c4b7:	48 89 50 08          	mov    %rdx,0x8(%rax)
ffffffff8100c4bb:	48 8b 45 f0          	mov    -0x10(%rbp),%rax
ffffffff8100c4bf:	48 8b 40 08          	mov    0x8(%rax),%rax
ffffffff8100c4c3:	48 8b 55 f0          	mov    -0x10(%rbp),%rdx
ffffffff8100c4c7:	48 89 10             	mov    %rdx,(%rax)
ffffffff8100c4ca:	48 8b 45 f0          	mov    -0x10(%rbp),%rax
ffffffff8100c4ce:	48 c7 00 00 00 00 00 	movq   $0x0,(%rax)
ffffffff8100c4d5:	48 8b 45 f8          	mov    -0x8(%rbp),%rax
ffffffff8100c4d9:	48 8b 55 f0          	mov    -0x10(%rbp),%rdx
ffffffff8100c4dd:	48 89 50 10          	mov    %rdx,0x10(%rax)
ffffffff8100c4e1:	48 8b 45 f8          	mov    -0x8(%rbp),%rax
ffffffff8100c4e5:	48 8b 00             	mov    (%rax),%rax
ffffffff8100c4e8:	48 8d 50 01          	lea    0x1(%rax),%rdx
ffffffff8100c4ec:	48 8b 45 f8          	mov    -0x8(%rbp),%rax
ffffffff8100c4f0:	48 89 10             	mov    %rdx,(%rax)
ffffffff8100c4f3:	b8 00 00 00 00       	mov    $0x0,%eax
ffffffff8100c4f8:	c9                   	leaveq 
ffffffff8100c4f9:	c3                   	retq   

ffffffff8100c4fa <linked_list_add_tail>:
ffffffff8100c4fa:	55                   	push   %rbp
ffffffff8100c4fb:	48 89 e5             	mov    %rsp,%rbp
ffffffff8100c4fe:	48 83 ec 10          	sub    $0x10,%rsp
ffffffff8100c502:	48 89 7d f8          	mov    %rdi,-0x8(%rbp)
ffffffff8100c506:	48 89 75 f0          	mov    %rsi,-0x10(%rbp)
ffffffff8100c50a:	48 8b 45 f8          	mov    -0x8(%rbp),%rax
ffffffff8100c50e:	48 8b 40 10          	mov    0x10(%rax),%rax
ffffffff8100c512:	48 85 c0             	test   %rax,%rax
ffffffff8100c515:	75 42                	jne    ffffffff8100c559 <linked_list_add_tail+0x5f>
ffffffff8100c517:	48 8b 45 f8          	mov    -0x8(%rbp),%rax
ffffffff8100c51b:	48 8b 40 08          	mov    0x8(%rax),%rax
ffffffff8100c51f:	48 85 c0             	test   %rax,%rax
ffffffff8100c522:	75 35                	jne    ffffffff8100c559 <linked_list_add_tail+0x5f>
ffffffff8100c524:	48 8b 45 f8          	mov    -0x8(%rbp),%rax
ffffffff8100c528:	48 8b 55 f0          	mov    -0x10(%rbp),%rdx
ffffffff8100c52c:	48 89 50 08          	mov    %rdx,0x8(%rax)
ffffffff8100c530:	48 8b 45 f8          	mov    -0x8(%rbp),%rax
ffffffff8100c534:	48 8b 50 08          	mov    0x8(%rax),%rdx
ffffffff8100c538:	48 8b 45 f8          	mov    -0x8(%rbp),%rax
ffffffff8100c53c:	48 89 50 10          	mov    %rdx,0x10(%rax)
ffffffff8100c540:	48 8b 45 f0          	mov    -0x10(%rbp),%rax
ffffffff8100c544:	48 c7 40 08 00 00 00 	movq   $0x0,0x8(%rax)
ffffffff8100c54b:	00 
ffffffff8100c54c:	48 8b 45 f0          	mov    -0x10(%rbp),%rax
ffffffff8100c550:	48 c7 00 00 00 00 00 	movq   $0x0,(%rax)
ffffffff8100c557:	eb 36                	jmp    ffffffff8100c58f <linked_list_add_tail+0x95>
ffffffff8100c559:	48 8b 45 f0          	mov    -0x10(%rbp),%rax
ffffffff8100c55d:	48 c7 40 08 00 00 00 	movq   $0x0,0x8(%rax)
ffffffff8100c564:	00 
ffffffff8100c565:	48 8b 45 f8          	mov    -0x8(%rbp),%rax
ffffffff8100c569:	48 8b 50 08          	mov    0x8(%rax),%rdx
ffffffff8100c56d:	48 8b 45 f0          	mov    -0x10(%rbp),%rax
ffffffff8100c571:	48 89 10             	mov    %rdx,(%rax)
ffffffff8100c574:	48 8b 45 f0          	mov    -0x10(%rbp),%rax
ffffffff8100c578:	48 8b 00             	mov    (%rax),%rax
ffffffff8100c57b:	48 8b 55 f0          	mov    -0x10(%rbp),%rdx
ffffffff8100c57f:	48 89 50 08          	mov    %rdx,0x8(%rax)
ffffffff8100c583:	48 8b 45 f8          	mov    -0x8(%rbp),%rax
ffffffff8100c587:	48 8b 55 f0          	mov    -0x10(%rbp),%rdx
ffffffff8100c58b:	48 89 50 08          	mov    %rdx,0x8(%rax)
ffffffff8100c58f:	48 8b 45 f8          	mov    -0x8(%rbp),%rax
ffffffff8100c593:	48 8b 00             	mov    (%rax),%rax
ffffffff8100c596:	48 8d 50 01          	lea    0x1(%rax),%rdx
ffffffff8100c59a:	48 8b 45 f8          	mov    -0x8(%rbp),%rax
ffffffff8100c59e:	48 89 10             	mov    %rdx,(%rax)
ffffffff8100c5a1:	b8 00 00 00 00       	mov    $0x0,%eax
ffffffff8100c5a6:	c9                   	leaveq 
ffffffff8100c5a7:	c3                   	retq   

ffffffff8100c5a8 <linked_list_remove>:
ffffffff8100c5a8:	55                   	push   %rbp
ffffffff8100c5a9:	48 89 e5             	mov    %rsp,%rbp
ffffffff8100c5ac:	48 83 ec 10          	sub    $0x10,%rsp
ffffffff8100c5b0:	48 89 7d f8          	mov    %rdi,-0x8(%rbp)
ffffffff8100c5b4:	48 89 75 f0          	mov    %rsi,-0x10(%rbp)
ffffffff8100c5b8:	48 8b 45 f0          	mov    -0x10(%rbp),%rax
ffffffff8100c5bc:	48 8b 00             	mov    (%rax),%rax
ffffffff8100c5bf:	48 85 c0             	test   %rax,%rax
ffffffff8100c5c2:	75 11                	jne    ffffffff8100c5d5 <linked_list_remove+0x2d>
ffffffff8100c5c4:	48 8b 45 f0          	mov    -0x10(%rbp),%rax
ffffffff8100c5c8:	48 8b 10             	mov    (%rax),%rdx
ffffffff8100c5cb:	48 8b 45 f8          	mov    -0x8(%rbp),%rax
ffffffff8100c5cf:	48 89 50 08          	mov    %rdx,0x8(%rax)
ffffffff8100c5d3:	eb 13                	jmp    ffffffff8100c5e8 <linked_list_remove+0x40>
ffffffff8100c5d5:	48 8b 45 f0          	mov    -0x10(%rbp),%rax
ffffffff8100c5d9:	48 8b 00             	mov    (%rax),%rax
ffffffff8100c5dc:	48 8b 55 f0          	mov    -0x10(%rbp),%rdx
ffffffff8100c5e0:	48 8b 52 08          	mov    0x8(%rdx),%rdx
ffffffff8100c5e4:	48 89 50 08          	mov    %rdx,0x8(%rax)
ffffffff8100c5e8:	48 8b 45 f0          	mov    -0x10(%rbp),%rax
ffffffff8100c5ec:	48 8b 40 08          	mov    0x8(%rax),%rax
ffffffff8100c5f0:	48 85 c0             	test   %rax,%rax
ffffffff8100c5f3:	75 12                	jne    ffffffff8100c607 <linked_list_remove+0x5f>
ffffffff8100c5f5:	48 8b 45 f0          	mov    -0x10(%rbp),%rax
ffffffff8100c5f9:	48 8b 50 08          	mov    0x8(%rax),%rdx
ffffffff8100c5fd:	48 8b 45 f8          	mov    -0x8(%rbp),%rax
ffffffff8100c601:	48 89 50 10          	mov    %rdx,0x10(%rax)
ffffffff8100c605:	eb 12                	jmp    ffffffff8100c619 <linked_list_remove+0x71>
ffffffff8100c607:	48 8b 45 f0          	mov    -0x10(%rbp),%rax
ffffffff8100c60b:	48 8b 40 08          	mov    0x8(%rax),%rax
ffffffff8100c60f:	48 8b 55 f0          	mov    -0x10(%rbp),%rdx
ffffffff8100c613:	48 8b 12             	mov    (%rdx),%rdx
ffffffff8100c616:	48 89 10             	mov    %rdx,(%rax)
ffffffff8100c619:	48 8b 45 f8          	mov    -0x8(%rbp),%rax
ffffffff8100c61d:	48 8b 00             	mov    (%rax),%rax
ffffffff8100c620:	48 8d 50 ff          	lea    -0x1(%rax),%rdx
ffffffff8100c624:	48 8b 45 f8          	mov    -0x8(%rbp),%rax
ffffffff8100c628:	48 89 10             	mov    %rdx,(%rax)
ffffffff8100c62b:	90                   	nop
ffffffff8100c62c:	c9                   	leaveq 
ffffffff8100c62d:	c3                   	retq   

ffffffff8100c62e <linked_list_first>:
ffffffff8100c62e:	55                   	push   %rbp
ffffffff8100c62f:	48 89 e5             	mov    %rsp,%rbp
ffffffff8100c632:	48 83 ec 08          	sub    $0x8,%rsp
ffffffff8100c636:	48 89 7d f8          	mov    %rdi,-0x8(%rbp)
ffffffff8100c63a:	48 8b 45 f8          	mov    -0x8(%rbp),%rax
ffffffff8100c63e:	48 8b 40 10          	mov    0x10(%rax),%rax
ffffffff8100c642:	c9                   	leaveq 
ffffffff8100c643:	c3                   	retq   

ffffffff8100c644 <linked_list_next>:
ffffffff8100c644:	55                   	push   %rbp
ffffffff8100c645:	48 89 e5             	mov    %rsp,%rbp
ffffffff8100c648:	48 83 ec 08          	sub    $0x8,%rsp
ffffffff8100c64c:	48 89 7d f8          	mov    %rdi,-0x8(%rbp)
ffffffff8100c650:	48 8b 45 f8          	mov    -0x8(%rbp),%rax
ffffffff8100c654:	48 8b 40 08          	mov    0x8(%rax),%rax
ffffffff8100c658:	c9                   	leaveq 
ffffffff8100c659:	c3                   	retq   

ffffffff8100c65a <linked_list_last>:
ffffffff8100c65a:	55                   	push   %rbp
ffffffff8100c65b:	48 89 e5             	mov    %rsp,%rbp
ffffffff8100c65e:	48 83 ec 08          	sub    $0x8,%rsp
ffffffff8100c662:	48 89 7d f8          	mov    %rdi,-0x8(%rbp)
ffffffff8100c666:	48 8b 45 f8          	mov    -0x8(%rbp),%rax
ffffffff8100c66a:	48 8b 40 08          	mov    0x8(%rax),%rax
ffffffff8100c66e:	c9                   	leaveq 
ffffffff8100c66f:	c3                   	retq   

ffffffff8100c670 <linked_list_prev>:
ffffffff8100c670:	55                   	push   %rbp
ffffffff8100c671:	48 89 e5             	mov    %rsp,%rbp
ffffffff8100c674:	48 83 ec 08          	sub    $0x8,%rsp
ffffffff8100c678:	48 89 7d f8          	mov    %rdi,-0x8(%rbp)
ffffffff8100c67c:	48 8b 45 f8          	mov    -0x8(%rbp),%rax
ffffffff8100c680:	48 8b 00             	mov    (%rax),%rax
ffffffff8100c683:	c9                   	leaveq 
ffffffff8100c684:	c3                   	retq   

ffffffff8100c685 <linked_list_count>:
ffffffff8100c685:	55                   	push   %rbp
ffffffff8100c686:	48 89 e5             	mov    %rsp,%rbp
ffffffff8100c689:	48 83 ec 08          	sub    $0x8,%rsp
ffffffff8100c68d:	48 89 7d f8          	mov    %rdi,-0x8(%rbp)
ffffffff8100c691:	48 8b 45 f8          	mov    -0x8(%rbp),%rax
ffffffff8100c695:	48 8b 00             	mov    (%rax),%rax
ffffffff8100c698:	c9                   	leaveq 
ffffffff8100c699:	c3                   	retq   
ffffffff8100c69a:	66 2e 0f 1f 84 00 00 	nopw   %cs:0x0(%rax,%rax,1)
ffffffff8100c6a1:	00 00 00 
ffffffff8100c6a4:	66 2e 0f 1f 84 00 00 	nopw   %cs:0x0(%rax,%rax,1)
ffffffff8100c6ab:	00 00 00 
ffffffff8100c6ae:	66 2e 0f 1f 84 00 00 	nopw   %cs:0x0(%rax,%rax,1)
ffffffff8100c6b5:	00 00 00 
ffffffff8100c6b8:	66 2e 0f 1f 84 00 00 	nopw   %cs:0x0(%rax,%rax,1)
ffffffff8100c6bf:	00 00 00 
ffffffff8100c6c2:	66 2e 0f 1f 84 00 00 	nopw   %cs:0x0(%rax,%rax,1)
ffffffff8100c6c9:	00 00 00 
ffffffff8100c6cc:	66 2e 0f 1f 84 00 00 	nopw   %cs:0x0(%rax,%rax,1)
ffffffff8100c6d3:	00 00 00 
ffffffff8100c6d6:	66 2e 0f 1f 84 00 00 	nopw   %cs:0x0(%rax,%rax,1)
ffffffff8100c6dd:	00 00 00 
ffffffff8100c6e0:	66 2e 0f 1f 84 00 00 	nopw   %cs:0x0(%rax,%rax,1)
ffffffff8100c6e7:	00 00 00 
ffffffff8100c6ea:	66 2e 0f 1f 84 00 00 	nopw   %cs:0x0(%rax,%rax,1)
ffffffff8100c6f1:	00 00 00 
ffffffff8100c6f4:	66 2e 0f 1f 84 00 00 	nopw   %cs:0x0(%rax,%rax,1)
ffffffff8100c6fb:	00 00 00 
ffffffff8100c6fe:	66 2e 0f 1f 84 00 00 	nopw   %cs:0x0(%rax,%rax,1)
ffffffff8100c705:	00 00 00 
ffffffff8100c708:	66 2e 0f 1f 84 00 00 	nopw   %cs:0x0(%rax,%rax,1)
ffffffff8100c70f:	00 00 00 
ffffffff8100c712:	66 2e 0f 1f 84 00 00 	nopw   %cs:0x0(%rax,%rax,1)
ffffffff8100c719:	00 00 00 
ffffffff8100c71c:	66 2e 0f 1f 84 00 00 	nopw   %cs:0x0(%rax,%rax,1)
ffffffff8100c723:	00 00 00 
ffffffff8100c726:	66 2e 0f 1f 84 00 00 	nopw   %cs:0x0(%rax,%rax,1)
ffffffff8100c72d:	00 00 00 
ffffffff8100c730:	66 2e 0f 1f 84 00 00 	nopw   %cs:0x0(%rax,%rax,1)
ffffffff8100c737:	00 00 00 
ffffffff8100c73a:	66 2e 0f 1f 84 00 00 	nopw   %cs:0x0(%rax,%rax,1)
ffffffff8100c741:	00 00 00 
ffffffff8100c744:	66 2e 0f 1f 84 00 00 	nopw   %cs:0x0(%rax,%rax,1)
ffffffff8100c74b:	00 00 00 
ffffffff8100c74e:	66 2e 0f 1f 84 00 00 	nopw   %cs:0x0(%rax,%rax,1)
ffffffff8100c755:	00 00 00 
ffffffff8100c758:	66 2e 0f 1f 84 00 00 	nopw   %cs:0x0(%rax,%rax,1)
ffffffff8100c75f:	00 00 00 
ffffffff8100c762:	66 2e 0f 1f 84 00 00 	nopw   %cs:0x0(%rax,%rax,1)
ffffffff8100c769:	00 00 00 
ffffffff8100c76c:	66 2e 0f 1f 84 00 00 	nopw   %cs:0x0(%rax,%rax,1)
ffffffff8100c773:	00 00 00 
ffffffff8100c776:	66 2e 0f 1f 84 00 00 	nopw   %cs:0x0(%rax,%rax,1)
ffffffff8100c77d:	00 00 00 
ffffffff8100c780:	66 2e 0f 1f 84 00 00 	nopw   %cs:0x0(%rax,%rax,1)
ffffffff8100c787:	00 00 00 
ffffffff8100c78a:	66 2e 0f 1f 84 00 00 	nopw   %cs:0x0(%rax,%rax,1)
ffffffff8100c791:	00 00 00 
ffffffff8100c794:	66 2e 0f 1f 84 00 00 	nopw   %cs:0x0(%rax,%rax,1)
ffffffff8100c79b:	00 00 00 
ffffffff8100c79e:	66 2e 0f 1f 84 00 00 	nopw   %cs:0x0(%rax,%rax,1)
ffffffff8100c7a5:	00 00 00 
ffffffff8100c7a8:	66 2e 0f 1f 84 00 00 	nopw   %cs:0x0(%rax,%rax,1)
ffffffff8100c7af:	00 00 00 
ffffffff8100c7b2:	66 2e 0f 1f 84 00 00 	nopw   %cs:0x0(%rax,%rax,1)
ffffffff8100c7b9:	00 00 00 
ffffffff8100c7bc:	66 2e 0f 1f 84 00 00 	nopw   %cs:0x0(%rax,%rax,1)
ffffffff8100c7c3:	00 00 00 
ffffffff8100c7c6:	66 2e 0f 1f 84 00 00 	nopw   %cs:0x0(%rax,%rax,1)
ffffffff8100c7cd:	00 00 00 
ffffffff8100c7d0:	66 2e 0f 1f 84 00 00 	nopw   %cs:0x0(%rax,%rax,1)
ffffffff8100c7d7:	00 00 00 
ffffffff8100c7da:	66 2e 0f 1f 84 00 00 	nopw   %cs:0x0(%rax,%rax,1)
ffffffff8100c7e1:	00 00 00 
ffffffff8100c7e4:	66 2e 0f 1f 84 00 00 	nopw   %cs:0x0(%rax,%rax,1)
ffffffff8100c7eb:	00 00 00 
ffffffff8100c7ee:	66 2e 0f 1f 84 00 00 	nopw   %cs:0x0(%rax,%rax,1)
ffffffff8100c7f5:	00 00 00 
ffffffff8100c7f8:	66 2e 0f 1f 84 00 00 	nopw   %cs:0x0(%rax,%rax,1)
ffffffff8100c7ff:	00 00 00 
ffffffff8100c802:	66 2e 0f 1f 84 00 00 	nopw   %cs:0x0(%rax,%rax,1)
ffffffff8100c809:	00 00 00 
ffffffff8100c80c:	66 2e 0f 1f 84 00 00 	nopw   %cs:0x0(%rax,%rax,1)
ffffffff8100c813:	00 00 00 
ffffffff8100c816:	66 2e 0f 1f 84 00 00 	nopw   %cs:0x0(%rax,%rax,1)
ffffffff8100c81d:	00 00 00 
ffffffff8100c820:	66 2e 0f 1f 84 00 00 	nopw   %cs:0x0(%rax,%rax,1)
ffffffff8100c827:	00 00 00 
ffffffff8100c82a:	66 2e 0f 1f 84 00 00 	nopw   %cs:0x0(%rax,%rax,1)
ffffffff8100c831:	00 00 00 
ffffffff8100c834:	66 2e 0f 1f 84 00 00 	nopw   %cs:0x0(%rax,%rax,1)
ffffffff8100c83b:	00 00 00 
ffffffff8100c83e:	66 2e 0f 1f 84 00 00 	nopw   %cs:0x0(%rax,%rax,1)
ffffffff8100c845:	00 00 00 
ffffffff8100c848:	66 2e 0f 1f 84 00 00 	nopw   %cs:0x0(%rax,%rax,1)
ffffffff8100c84f:	00 00 00 
ffffffff8100c852:	66 2e 0f 1f 84 00 00 	nopw   %cs:0x0(%rax,%rax,1)
ffffffff8100c859:	00 00 00 
ffffffff8100c85c:	66 2e 0f 1f 84 00 00 	nopw   %cs:0x0(%rax,%rax,1)
ffffffff8100c863:	00 00 00 
ffffffff8100c866:	66 2e 0f 1f 84 00 00 	nopw   %cs:0x0(%rax,%rax,1)
ffffffff8100c86d:	00 00 00 
ffffffff8100c870:	66 2e 0f 1f 84 00 00 	nopw   %cs:0x0(%rax,%rax,1)
ffffffff8100c877:	00 00 00 
ffffffff8100c87a:	66 2e 0f 1f 84 00 00 	nopw   %cs:0x0(%rax,%rax,1)
ffffffff8100c881:	00 00 00 
ffffffff8100c884:	66 2e 0f 1f 84 00 00 	nopw   %cs:0x0(%rax,%rax,1)
ffffffff8100c88b:	00 00 00 
ffffffff8100c88e:	66 2e 0f 1f 84 00 00 	nopw   %cs:0x0(%rax,%rax,1)
ffffffff8100c895:	00 00 00 
ffffffff8100c898:	66 2e 0f 1f 84 00 00 	nopw   %cs:0x0(%rax,%rax,1)
ffffffff8100c89f:	00 00 00 
ffffffff8100c8a2:	66 2e 0f 1f 84 00 00 	nopw   %cs:0x0(%rax,%rax,1)
ffffffff8100c8a9:	00 00 00 
ffffffff8100c8ac:	66 2e 0f 1f 84 00 00 	nopw   %cs:0x0(%rax,%rax,1)
ffffffff8100c8b3:	00 00 00 
ffffffff8100c8b6:	66 2e 0f 1f 84 00 00 	nopw   %cs:0x0(%rax,%rax,1)
ffffffff8100c8bd:	00 00 00 
ffffffff8100c8c0:	66 2e 0f 1f 84 00 00 	nopw   %cs:0x0(%rax,%rax,1)
ffffffff8100c8c7:	00 00 00 
ffffffff8100c8ca:	66 2e 0f 1f 84 00 00 	nopw   %cs:0x0(%rax,%rax,1)
ffffffff8100c8d1:	00 00 00 
ffffffff8100c8d4:	66 2e 0f 1f 84 00 00 	nopw   %cs:0x0(%rax,%rax,1)
ffffffff8100c8db:	00 00 00 
ffffffff8100c8de:	66 2e 0f 1f 84 00 00 	nopw   %cs:0x0(%rax,%rax,1)
ffffffff8100c8e5:	00 00 00 
ffffffff8100c8e8:	66 2e 0f 1f 84 00 00 	nopw   %cs:0x0(%rax,%rax,1)
ffffffff8100c8ef:	00 00 00 
ffffffff8100c8f2:	66 2e 0f 1f 84 00 00 	nopw   %cs:0x0(%rax,%rax,1)
ffffffff8100c8f9:	00 00 00 
ffffffff8100c8fc:	66 2e 0f 1f 84 00 00 	nopw   %cs:0x0(%rax,%rax,1)
ffffffff8100c903:	00 00 00 
ffffffff8100c906:	66 2e 0f 1f 84 00 00 	nopw   %cs:0x0(%rax,%rax,1)
ffffffff8100c90d:	00 00 00 
ffffffff8100c910:	66 2e 0f 1f 84 00 00 	nopw   %cs:0x0(%rax,%rax,1)
ffffffff8100c917:	00 00 00 
ffffffff8100c91a:	66 2e 0f 1f 84 00 00 	nopw   %cs:0x0(%rax,%rax,1)
ffffffff8100c921:	00 00 00 
ffffffff8100c924:	66 2e 0f 1f 84 00 00 	nopw   %cs:0x0(%rax,%rax,1)
ffffffff8100c92b:	00 00 00 
ffffffff8100c92e:	66 2e 0f 1f 84 00 00 	nopw   %cs:0x0(%rax,%rax,1)
ffffffff8100c935:	00 00 00 
ffffffff8100c938:	66 2e 0f 1f 84 00 00 	nopw   %cs:0x0(%rax,%rax,1)
ffffffff8100c93f:	00 00 00 
ffffffff8100c942:	66 2e 0f 1f 84 00 00 	nopw   %cs:0x0(%rax,%rax,1)
ffffffff8100c949:	00 00 00 
ffffffff8100c94c:	66 2e 0f 1f 84 00 00 	nopw   %cs:0x0(%rax,%rax,1)
ffffffff8100c953:	00 00 00 
ffffffff8100c956:	66 2e 0f 1f 84 00 00 	nopw   %cs:0x0(%rax,%rax,1)
ffffffff8100c95d:	00 00 00 
ffffffff8100c960:	66 2e 0f 1f 84 00 00 	nopw   %cs:0x0(%rax,%rax,1)
ffffffff8100c967:	00 00 00 
ffffffff8100c96a:	66 2e 0f 1f 84 00 00 	nopw   %cs:0x0(%rax,%rax,1)
ffffffff8100c971:	00 00 00 
ffffffff8100c974:	66 2e 0f 1f 84 00 00 	nopw   %cs:0x0(%rax,%rax,1)
ffffffff8100c97b:	00 00 00 
ffffffff8100c97e:	66 2e 0f 1f 84 00 00 	nopw   %cs:0x0(%rax,%rax,1)
ffffffff8100c985:	00 00 00 
ffffffff8100c988:	66 2e 0f 1f 84 00 00 	nopw   %cs:0x0(%rax,%rax,1)
ffffffff8100c98f:	00 00 00 
ffffffff8100c992:	66 2e 0f 1f 84 00 00 	nopw   %cs:0x0(%rax,%rax,1)
ffffffff8100c999:	00 00 00 
ffffffff8100c99c:	66 2e 0f 1f 84 00 00 	nopw   %cs:0x0(%rax,%rax,1)
ffffffff8100c9a3:	00 00 00 
ffffffff8100c9a6:	66 2e 0f 1f 84 00 00 	nopw   %cs:0x0(%rax,%rax,1)
ffffffff8100c9ad:	00 00 00 
ffffffff8100c9b0:	66 2e 0f 1f 84 00 00 	nopw   %cs:0x0(%rax,%rax,1)
ffffffff8100c9b7:	00 00 00 
ffffffff8100c9ba:	66 2e 0f 1f 84 00 00 	nopw   %cs:0x0(%rax,%rax,1)
ffffffff8100c9c1:	00 00 00 
ffffffff8100c9c4:	66 2e 0f 1f 84 00 00 	nopw   %cs:0x0(%rax,%rax,1)
ffffffff8100c9cb:	00 00 00 
ffffffff8100c9ce:	66 2e 0f 1f 84 00 00 	nopw   %cs:0x0(%rax,%rax,1)
ffffffff8100c9d5:	00 00 00 
ffffffff8100c9d8:	66 2e 0f 1f 84 00 00 	nopw   %cs:0x0(%rax,%rax,1)
ffffffff8100c9df:	00 00 00 
ffffffff8100c9e2:	66 2e 0f 1f 84 00 00 	nopw   %cs:0x0(%rax,%rax,1)
ffffffff8100c9e9:	00 00 00 
ffffffff8100c9ec:	66 2e 0f 1f 84 00 00 	nopw   %cs:0x0(%rax,%rax,1)
ffffffff8100c9f3:	00 00 00 
ffffffff8100c9f6:	66 2e 0f 1f 84 00 00 	nopw   %cs:0x0(%rax,%rax,1)
ffffffff8100c9fd:	00 00 00 
ffffffff8100ca00:	66 2e 0f 1f 84 00 00 	nopw   %cs:0x0(%rax,%rax,1)
ffffffff8100ca07:	00 00 00 
ffffffff8100ca0a:	66 2e 0f 1f 84 00 00 	nopw   %cs:0x0(%rax,%rax,1)
ffffffff8100ca11:	00 00 00 
ffffffff8100ca14:	66 2e 0f 1f 84 00 00 	nopw   %cs:0x0(%rax,%rax,1)
ffffffff8100ca1b:	00 00 00 
ffffffff8100ca1e:	66 2e 0f 1f 84 00 00 	nopw   %cs:0x0(%rax,%rax,1)
ffffffff8100ca25:	00 00 00 
ffffffff8100ca28:	66 2e 0f 1f 84 00 00 	nopw   %cs:0x0(%rax,%rax,1)
ffffffff8100ca2f:	00 00 00 
ffffffff8100ca32:	66 2e 0f 1f 84 00 00 	nopw   %cs:0x0(%rax,%rax,1)
ffffffff8100ca39:	00 00 00 
ffffffff8100ca3c:	66 2e 0f 1f 84 00 00 	nopw   %cs:0x0(%rax,%rax,1)
ffffffff8100ca43:	00 00 00 
ffffffff8100ca46:	66 2e 0f 1f 84 00 00 	nopw   %cs:0x0(%rax,%rax,1)
ffffffff8100ca4d:	00 00 00 
ffffffff8100ca50:	66 2e 0f 1f 84 00 00 	nopw   %cs:0x0(%rax,%rax,1)
ffffffff8100ca57:	00 00 00 
ffffffff8100ca5a:	66 2e 0f 1f 84 00 00 	nopw   %cs:0x0(%rax,%rax,1)
ffffffff8100ca61:	00 00 00 
ffffffff8100ca64:	66 2e 0f 1f 84 00 00 	nopw   %cs:0x0(%rax,%rax,1)
ffffffff8100ca6b:	00 00 00 
ffffffff8100ca6e:	66 2e 0f 1f 84 00 00 	nopw   %cs:0x0(%rax,%rax,1)
ffffffff8100ca75:	00 00 00 
ffffffff8100ca78:	66 2e 0f 1f 84 00 00 	nopw   %cs:0x0(%rax,%rax,1)
ffffffff8100ca7f:	00 00 00 
ffffffff8100ca82:	66 2e 0f 1f 84 00 00 	nopw   %cs:0x0(%rax,%rax,1)
ffffffff8100ca89:	00 00 00 
ffffffff8100ca8c:	66 2e 0f 1f 84 00 00 	nopw   %cs:0x0(%rax,%rax,1)
ffffffff8100ca93:	00 00 00 
ffffffff8100ca96:	66 2e 0f 1f 84 00 00 	nopw   %cs:0x0(%rax,%rax,1)
ffffffff8100ca9d:	00 00 00 
ffffffff8100caa0:	66 2e 0f 1f 84 00 00 	nopw   %cs:0x0(%rax,%rax,1)
ffffffff8100caa7:	00 00 00 
ffffffff8100caaa:	66 2e 0f 1f 84 00 00 	nopw   %cs:0x0(%rax,%rax,1)
ffffffff8100cab1:	00 00 00 
ffffffff8100cab4:	66 2e 0f 1f 84 00 00 	nopw   %cs:0x0(%rax,%rax,1)
ffffffff8100cabb:	00 00 00 
ffffffff8100cabe:	66 2e 0f 1f 84 00 00 	nopw   %cs:0x0(%rax,%rax,1)
ffffffff8100cac5:	00 00 00 
ffffffff8100cac8:	66 2e 0f 1f 84 00 00 	nopw   %cs:0x0(%rax,%rax,1)
ffffffff8100cacf:	00 00 00 
ffffffff8100cad2:	66 2e 0f 1f 84 00 00 	nopw   %cs:0x0(%rax,%rax,1)
ffffffff8100cad9:	00 00 00 
ffffffff8100cadc:	66 2e 0f 1f 84 00 00 	nopw   %cs:0x0(%rax,%rax,1)
ffffffff8100cae3:	00 00 00 
ffffffff8100cae6:	66 2e 0f 1f 84 00 00 	nopw   %cs:0x0(%rax,%rax,1)
ffffffff8100caed:	00 00 00 
ffffffff8100caf0:	66 2e 0f 1f 84 00 00 	nopw   %cs:0x0(%rax,%rax,1)
ffffffff8100caf7:	00 00 00 
ffffffff8100cafa:	66 2e 0f 1f 84 00 00 	nopw   %cs:0x0(%rax,%rax,1)
ffffffff8100cb01:	00 00 00 
ffffffff8100cb04:	66 2e 0f 1f 84 00 00 	nopw   %cs:0x0(%rax,%rax,1)
ffffffff8100cb0b:	00 00 00 
ffffffff8100cb0e:	66 2e 0f 1f 84 00 00 	nopw   %cs:0x0(%rax,%rax,1)
ffffffff8100cb15:	00 00 00 
ffffffff8100cb18:	66 2e 0f 1f 84 00 00 	nopw   %cs:0x0(%rax,%rax,1)
ffffffff8100cb1f:	00 00 00 
ffffffff8100cb22:	66 2e 0f 1f 84 00 00 	nopw   %cs:0x0(%rax,%rax,1)
ffffffff8100cb29:	00 00 00 
ffffffff8100cb2c:	66 2e 0f 1f 84 00 00 	nopw   %cs:0x0(%rax,%rax,1)
ffffffff8100cb33:	00 00 00 
ffffffff8100cb36:	66 2e 0f 1f 84 00 00 	nopw   %cs:0x0(%rax,%rax,1)
ffffffff8100cb3d:	00 00 00 
ffffffff8100cb40:	66 2e 0f 1f 84 00 00 	nopw   %cs:0x0(%rax,%rax,1)
ffffffff8100cb47:	00 00 00 
ffffffff8100cb4a:	66 2e 0f 1f 84 00 00 	nopw   %cs:0x0(%rax,%rax,1)
ffffffff8100cb51:	00 00 00 
ffffffff8100cb54:	66 2e 0f 1f 84 00 00 	nopw   %cs:0x0(%rax,%rax,1)
ffffffff8100cb5b:	00 00 00 
ffffffff8100cb5e:	66 2e 0f 1f 84 00 00 	nopw   %cs:0x0(%rax,%rax,1)
ffffffff8100cb65:	00 00 00 
ffffffff8100cb68:	66 2e 0f 1f 84 00 00 	nopw   %cs:0x0(%rax,%rax,1)
ffffffff8100cb6f:	00 00 00 
ffffffff8100cb72:	66 2e 0f 1f 84 00 00 	nopw   %cs:0x0(%rax,%rax,1)
ffffffff8100cb79:	00 00 00 
ffffffff8100cb7c:	66 2e 0f 1f 84 00 00 	nopw   %cs:0x0(%rax,%rax,1)
ffffffff8100cb83:	00 00 00 
ffffffff8100cb86:	66 2e 0f 1f 84 00 00 	nopw   %cs:0x0(%rax,%rax,1)
ffffffff8100cb8d:	00 00 00 
ffffffff8100cb90:	66 2e 0f 1f 84 00 00 	nopw   %cs:0x0(%rax,%rax,1)
ffffffff8100cb97:	00 00 00 
ffffffff8100cb9a:	66 2e 0f 1f 84 00 00 	nopw   %cs:0x0(%rax,%rax,1)
ffffffff8100cba1:	00 00 00 
ffffffff8100cba4:	66 2e 0f 1f 84 00 00 	nopw   %cs:0x0(%rax,%rax,1)
ffffffff8100cbab:	00 00 00 
ffffffff8100cbae:	66 2e 0f 1f 84 00 00 	nopw   %cs:0x0(%rax,%rax,1)
ffffffff8100cbb5:	00 00 00 
ffffffff8100cbb8:	66 2e 0f 1f 84 00 00 	nopw   %cs:0x0(%rax,%rax,1)
ffffffff8100cbbf:	00 00 00 
ffffffff8100cbc2:	66 2e 0f 1f 84 00 00 	nopw   %cs:0x0(%rax,%rax,1)
ffffffff8100cbc9:	00 00 00 
ffffffff8100cbcc:	66 2e 0f 1f 84 00 00 	nopw   %cs:0x0(%rax,%rax,1)
ffffffff8100cbd3:	00 00 00 
ffffffff8100cbd6:	66 2e 0f 1f 84 00 00 	nopw   %cs:0x0(%rax,%rax,1)
ffffffff8100cbdd:	00 00 00 
ffffffff8100cbe0:	66 2e 0f 1f 84 00 00 	nopw   %cs:0x0(%rax,%rax,1)
ffffffff8100cbe7:	00 00 00 
ffffffff8100cbea:	66 2e 0f 1f 84 00 00 	nopw   %cs:0x0(%rax,%rax,1)
ffffffff8100cbf1:	00 00 00 
ffffffff8100cbf4:	66 2e 0f 1f 84 00 00 	nopw   %cs:0x0(%rax,%rax,1)
ffffffff8100cbfb:	00 00 00 
ffffffff8100cbfe:	66 2e 0f 1f 84 00 00 	nopw   %cs:0x0(%rax,%rax,1)
ffffffff8100cc05:	00 00 00 
ffffffff8100cc08:	66 2e 0f 1f 84 00 00 	nopw   %cs:0x0(%rax,%rax,1)
ffffffff8100cc0f:	00 00 00 
ffffffff8100cc12:	66 2e 0f 1f 84 00 00 	nopw   %cs:0x0(%rax,%rax,1)
ffffffff8100cc19:	00 00 00 
ffffffff8100cc1c:	66 2e 0f 1f 84 00 00 	nopw   %cs:0x0(%rax,%rax,1)
ffffffff8100cc23:	00 00 00 
ffffffff8100cc26:	66 2e 0f 1f 84 00 00 	nopw   %cs:0x0(%rax,%rax,1)
ffffffff8100cc2d:	00 00 00 
ffffffff8100cc30:	66 2e 0f 1f 84 00 00 	nopw   %cs:0x0(%rax,%rax,1)
ffffffff8100cc37:	00 00 00 
ffffffff8100cc3a:	66 2e 0f 1f 84 00 00 	nopw   %cs:0x0(%rax,%rax,1)
ffffffff8100cc41:	00 00 00 
ffffffff8100cc44:	66 2e 0f 1f 84 00 00 	nopw   %cs:0x0(%rax,%rax,1)
ffffffff8100cc4b:	00 00 00 
ffffffff8100cc4e:	66 2e 0f 1f 84 00 00 	nopw   %cs:0x0(%rax,%rax,1)
ffffffff8100cc55:	00 00 00 
ffffffff8100cc58:	66 2e 0f 1f 84 00 00 	nopw   %cs:0x0(%rax,%rax,1)
ffffffff8100cc5f:	00 00 00 
ffffffff8100cc62:	66 2e 0f 1f 84 00 00 	nopw   %cs:0x0(%rax,%rax,1)
ffffffff8100cc69:	00 00 00 
ffffffff8100cc6c:	66 2e 0f 1f 84 00 00 	nopw   %cs:0x0(%rax,%rax,1)
ffffffff8100cc73:	00 00 00 
ffffffff8100cc76:	66 2e 0f 1f 84 00 00 	nopw   %cs:0x0(%rax,%rax,1)
ffffffff8100cc7d:	00 00 00 
ffffffff8100cc80:	66 2e 0f 1f 84 00 00 	nopw   %cs:0x0(%rax,%rax,1)
ffffffff8100cc87:	00 00 00 
ffffffff8100cc8a:	66 2e 0f 1f 84 00 00 	nopw   %cs:0x0(%rax,%rax,1)
ffffffff8100cc91:	00 00 00 
ffffffff8100cc94:	66 2e 0f 1f 84 00 00 	nopw   %cs:0x0(%rax,%rax,1)
ffffffff8100cc9b:	00 00 00 
ffffffff8100cc9e:	66 2e 0f 1f 84 00 00 	nopw   %cs:0x0(%rax,%rax,1)
ffffffff8100cca5:	00 00 00 
ffffffff8100cca8:	66 2e 0f 1f 84 00 00 	nopw   %cs:0x0(%rax,%rax,1)
ffffffff8100ccaf:	00 00 00 
ffffffff8100ccb2:	66 2e 0f 1f 84 00 00 	nopw   %cs:0x0(%rax,%rax,1)
ffffffff8100ccb9:	00 00 00 
ffffffff8100ccbc:	66 2e 0f 1f 84 00 00 	nopw   %cs:0x0(%rax,%rax,1)
ffffffff8100ccc3:	00 00 00 
ffffffff8100ccc6:	66 2e 0f 1f 84 00 00 	nopw   %cs:0x0(%rax,%rax,1)
ffffffff8100cccd:	00 00 00 
ffffffff8100ccd0:	66 2e 0f 1f 84 00 00 	nopw   %cs:0x0(%rax,%rax,1)
ffffffff8100ccd7:	00 00 00 
ffffffff8100ccda:	66 2e 0f 1f 84 00 00 	nopw   %cs:0x0(%rax,%rax,1)
ffffffff8100cce1:	00 00 00 
ffffffff8100cce4:	66 2e 0f 1f 84 00 00 	nopw   %cs:0x0(%rax,%rax,1)
ffffffff8100cceb:	00 00 00 
ffffffff8100ccee:	66 2e 0f 1f 84 00 00 	nopw   %cs:0x0(%rax,%rax,1)
ffffffff8100ccf5:	00 00 00 
ffffffff8100ccf8:	66 2e 0f 1f 84 00 00 	nopw   %cs:0x0(%rax,%rax,1)
ffffffff8100ccff:	00 00 00 
ffffffff8100cd02:	66 2e 0f 1f 84 00 00 	nopw   %cs:0x0(%rax,%rax,1)
ffffffff8100cd09:	00 00 00 
ffffffff8100cd0c:	66 2e 0f 1f 84 00 00 	nopw   %cs:0x0(%rax,%rax,1)
ffffffff8100cd13:	00 00 00 
ffffffff8100cd16:	66 2e 0f 1f 84 00 00 	nopw   %cs:0x0(%rax,%rax,1)
ffffffff8100cd1d:	00 00 00 
ffffffff8100cd20:	66 2e 0f 1f 84 00 00 	nopw   %cs:0x0(%rax,%rax,1)
ffffffff8100cd27:	00 00 00 
ffffffff8100cd2a:	66 2e 0f 1f 84 00 00 	nopw   %cs:0x0(%rax,%rax,1)
ffffffff8100cd31:	00 00 00 
ffffffff8100cd34:	66 2e 0f 1f 84 00 00 	nopw   %cs:0x0(%rax,%rax,1)
ffffffff8100cd3b:	00 00 00 
ffffffff8100cd3e:	66 2e 0f 1f 84 00 00 	nopw   %cs:0x0(%rax,%rax,1)
ffffffff8100cd45:	00 00 00 
ffffffff8100cd48:	66 2e 0f 1f 84 00 00 	nopw   %cs:0x0(%rax,%rax,1)
ffffffff8100cd4f:	00 00 00 
ffffffff8100cd52:	66 2e 0f 1f 84 00 00 	nopw   %cs:0x0(%rax,%rax,1)
ffffffff8100cd59:	00 00 00 
ffffffff8100cd5c:	66 2e 0f 1f 84 00 00 	nopw   %cs:0x0(%rax,%rax,1)
ffffffff8100cd63:	00 00 00 
ffffffff8100cd66:	66 2e 0f 1f 84 00 00 	nopw   %cs:0x0(%rax,%rax,1)
ffffffff8100cd6d:	00 00 00 
ffffffff8100cd70:	66 2e 0f 1f 84 00 00 	nopw   %cs:0x0(%rax,%rax,1)
ffffffff8100cd77:	00 00 00 
ffffffff8100cd7a:	66 2e 0f 1f 84 00 00 	nopw   %cs:0x0(%rax,%rax,1)
ffffffff8100cd81:	00 00 00 
ffffffff8100cd84:	66 2e 0f 1f 84 00 00 	nopw   %cs:0x0(%rax,%rax,1)
ffffffff8100cd8b:	00 00 00 
ffffffff8100cd8e:	66 2e 0f 1f 84 00 00 	nopw   %cs:0x0(%rax,%rax,1)
ffffffff8100cd95:	00 00 00 
ffffffff8100cd98:	66 2e 0f 1f 84 00 00 	nopw   %cs:0x0(%rax,%rax,1)
ffffffff8100cd9f:	00 00 00 
ffffffff8100cda2:	66 2e 0f 1f 84 00 00 	nopw   %cs:0x0(%rax,%rax,1)
ffffffff8100cda9:	00 00 00 
ffffffff8100cdac:	66 2e 0f 1f 84 00 00 	nopw   %cs:0x0(%rax,%rax,1)
ffffffff8100cdb3:	00 00 00 
ffffffff8100cdb6:	66 2e 0f 1f 84 00 00 	nopw   %cs:0x0(%rax,%rax,1)
ffffffff8100cdbd:	00 00 00 
ffffffff8100cdc0:	66 2e 0f 1f 84 00 00 	nopw   %cs:0x0(%rax,%rax,1)
ffffffff8100cdc7:	00 00 00 
ffffffff8100cdca:	66 2e 0f 1f 84 00 00 	nopw   %cs:0x0(%rax,%rax,1)
ffffffff8100cdd1:	00 00 00 
ffffffff8100cdd4:	66 2e 0f 1f 84 00 00 	nopw   %cs:0x0(%rax,%rax,1)
ffffffff8100cddb:	00 00 00 
ffffffff8100cdde:	66 2e 0f 1f 84 00 00 	nopw   %cs:0x0(%rax,%rax,1)
ffffffff8100cde5:	00 00 00 
ffffffff8100cde8:	66 2e 0f 1f 84 00 00 	nopw   %cs:0x0(%rax,%rax,1)
ffffffff8100cdef:	00 00 00 
ffffffff8100cdf2:	66 2e 0f 1f 84 00 00 	nopw   %cs:0x0(%rax,%rax,1)
ffffffff8100cdf9:	00 00 00 
ffffffff8100cdfc:	66 2e 0f 1f 84 00 00 	nopw   %cs:0x0(%rax,%rax,1)
ffffffff8100ce03:	00 00 00 
ffffffff8100ce06:	66 2e 0f 1f 84 00 00 	nopw   %cs:0x0(%rax,%rax,1)
ffffffff8100ce0d:	00 00 00 
ffffffff8100ce10:	66 2e 0f 1f 84 00 00 	nopw   %cs:0x0(%rax,%rax,1)
ffffffff8100ce17:	00 00 00 
ffffffff8100ce1a:	66 2e 0f 1f 84 00 00 	nopw   %cs:0x0(%rax,%rax,1)
ffffffff8100ce21:	00 00 00 
ffffffff8100ce24:	66 2e 0f 1f 84 00 00 	nopw   %cs:0x0(%rax,%rax,1)
ffffffff8100ce2b:	00 00 00 
ffffffff8100ce2e:	66 2e 0f 1f 84 00 00 	nopw   %cs:0x0(%rax,%rax,1)
ffffffff8100ce35:	00 00 00 
ffffffff8100ce38:	66 2e 0f 1f 84 00 00 	nopw   %cs:0x0(%rax,%rax,1)
ffffffff8100ce3f:	00 00 00 
ffffffff8100ce42:	66 2e 0f 1f 84 00 00 	nopw   %cs:0x0(%rax,%rax,1)
ffffffff8100ce49:	00 00 00 
ffffffff8100ce4c:	66 2e 0f 1f 84 00 00 	nopw   %cs:0x0(%rax,%rax,1)
ffffffff8100ce53:	00 00 00 
ffffffff8100ce56:	66 2e 0f 1f 84 00 00 	nopw   %cs:0x0(%rax,%rax,1)
ffffffff8100ce5d:	00 00 00 
ffffffff8100ce60:	66 2e 0f 1f 84 00 00 	nopw   %cs:0x0(%rax,%rax,1)
ffffffff8100ce67:	00 00 00 
ffffffff8100ce6a:	66 2e 0f 1f 84 00 00 	nopw   %cs:0x0(%rax,%rax,1)
ffffffff8100ce71:	00 00 00 
ffffffff8100ce74:	66 2e 0f 1f 84 00 00 	nopw   %cs:0x0(%rax,%rax,1)
ffffffff8100ce7b:	00 00 00 
ffffffff8100ce7e:	66 2e 0f 1f 84 00 00 	nopw   %cs:0x0(%rax,%rax,1)
ffffffff8100ce85:	00 00 00 
ffffffff8100ce88:	66 2e 0f 1f 84 00 00 	nopw   %cs:0x0(%rax,%rax,1)
ffffffff8100ce8f:	00 00 00 
ffffffff8100ce92:	66 2e 0f 1f 84 00 00 	nopw   %cs:0x0(%rax,%rax,1)
ffffffff8100ce99:	00 00 00 
ffffffff8100ce9c:	66 2e 0f 1f 84 00 00 	nopw   %cs:0x0(%rax,%rax,1)
ffffffff8100cea3:	00 00 00 
ffffffff8100cea6:	66 2e 0f 1f 84 00 00 	nopw   %cs:0x0(%rax,%rax,1)
ffffffff8100cead:	00 00 00 
ffffffff8100ceb0:	66 2e 0f 1f 84 00 00 	nopw   %cs:0x0(%rax,%rax,1)
ffffffff8100ceb7:	00 00 00 
ffffffff8100ceba:	66 2e 0f 1f 84 00 00 	nopw   %cs:0x0(%rax,%rax,1)
ffffffff8100cec1:	00 00 00 
ffffffff8100cec4:	66 2e 0f 1f 84 00 00 	nopw   %cs:0x0(%rax,%rax,1)
ffffffff8100cecb:	00 00 00 
ffffffff8100cece:	66 2e 0f 1f 84 00 00 	nopw   %cs:0x0(%rax,%rax,1)
ffffffff8100ced5:	00 00 00 
ffffffff8100ced8:	66 2e 0f 1f 84 00 00 	nopw   %cs:0x0(%rax,%rax,1)
ffffffff8100cedf:	00 00 00 
ffffffff8100cee2:	66 2e 0f 1f 84 00 00 	nopw   %cs:0x0(%rax,%rax,1)
ffffffff8100cee9:	00 00 00 
ffffffff8100ceec:	66 2e 0f 1f 84 00 00 	nopw   %cs:0x0(%rax,%rax,1)
ffffffff8100cef3:	00 00 00 
ffffffff8100cef6:	66 2e 0f 1f 84 00 00 	nopw   %cs:0x0(%rax,%rax,1)
ffffffff8100cefd:	00 00 00 
ffffffff8100cf00:	66 2e 0f 1f 84 00 00 	nopw   %cs:0x0(%rax,%rax,1)
ffffffff8100cf07:	00 00 00 
ffffffff8100cf0a:	66 2e 0f 1f 84 00 00 	nopw   %cs:0x0(%rax,%rax,1)
ffffffff8100cf11:	00 00 00 
ffffffff8100cf14:	66 2e 0f 1f 84 00 00 	nopw   %cs:0x0(%rax,%rax,1)
ffffffff8100cf1b:	00 00 00 
ffffffff8100cf1e:	66 2e 0f 1f 84 00 00 	nopw   %cs:0x0(%rax,%rax,1)
ffffffff8100cf25:	00 00 00 
ffffffff8100cf28:	66 2e 0f 1f 84 00 00 	nopw   %cs:0x0(%rax,%rax,1)
ffffffff8100cf2f:	00 00 00 
ffffffff8100cf32:	66 2e 0f 1f 84 00 00 	nopw   %cs:0x0(%rax,%rax,1)
ffffffff8100cf39:	00 00 00 
ffffffff8100cf3c:	66 2e 0f 1f 84 00 00 	nopw   %cs:0x0(%rax,%rax,1)
ffffffff8100cf43:	00 00 00 
ffffffff8100cf46:	66 2e 0f 1f 84 00 00 	nopw   %cs:0x0(%rax,%rax,1)
ffffffff8100cf4d:	00 00 00 
ffffffff8100cf50:	66 2e 0f 1f 84 00 00 	nopw   %cs:0x0(%rax,%rax,1)
ffffffff8100cf57:	00 00 00 
ffffffff8100cf5a:	66 2e 0f 1f 84 00 00 	nopw   %cs:0x0(%rax,%rax,1)
ffffffff8100cf61:	00 00 00 
ffffffff8100cf64:	66 2e 0f 1f 84 00 00 	nopw   %cs:0x0(%rax,%rax,1)
ffffffff8100cf6b:	00 00 00 
ffffffff8100cf6e:	66 2e 0f 1f 84 00 00 	nopw   %cs:0x0(%rax,%rax,1)
ffffffff8100cf75:	00 00 00 
ffffffff8100cf78:	66 2e 0f 1f 84 00 00 	nopw   %cs:0x0(%rax,%rax,1)
ffffffff8100cf7f:	00 00 00 
ffffffff8100cf82:	66 2e 0f 1f 84 00 00 	nopw   %cs:0x0(%rax,%rax,1)
ffffffff8100cf89:	00 00 00 
ffffffff8100cf8c:	66 2e 0f 1f 84 00 00 	nopw   %cs:0x0(%rax,%rax,1)
ffffffff8100cf93:	00 00 00 
ffffffff8100cf96:	66 2e 0f 1f 84 00 00 	nopw   %cs:0x0(%rax,%rax,1)
ffffffff8100cf9d:	00 00 00 
ffffffff8100cfa0:	66 2e 0f 1f 84 00 00 	nopw   %cs:0x0(%rax,%rax,1)
ffffffff8100cfa7:	00 00 00 
ffffffff8100cfaa:	66 2e 0f 1f 84 00 00 	nopw   %cs:0x0(%rax,%rax,1)
ffffffff8100cfb1:	00 00 00 
ffffffff8100cfb4:	66 2e 0f 1f 84 00 00 	nopw   %cs:0x0(%rax,%rax,1)
ffffffff8100cfbb:	00 00 00 
ffffffff8100cfbe:	66 2e 0f 1f 84 00 00 	nopw   %cs:0x0(%rax,%rax,1)
ffffffff8100cfc5:	00 00 00 
ffffffff8100cfc8:	66 2e 0f 1f 84 00 00 	nopw   %cs:0x0(%rax,%rax,1)
ffffffff8100cfcf:	00 00 00 
ffffffff8100cfd2:	66 2e 0f 1f 84 00 00 	nopw   %cs:0x0(%rax,%rax,1)
ffffffff8100cfd9:	00 00 00 
ffffffff8100cfdc:	66 2e 0f 1f 84 00 00 	nopw   %cs:0x0(%rax,%rax,1)
ffffffff8100cfe3:	00 00 00 
ffffffff8100cfe6:	66 2e 0f 1f 84 00 00 	nopw   %cs:0x0(%rax,%rax,1)
ffffffff8100cfed:	00 00 00 
ffffffff8100cff0:	66 2e 0f 1f 84 00 00 	nopw   %cs:0x0(%rax,%rax,1)
ffffffff8100cff7:	00 00 00 
ffffffff8100cffa:	66 0f 1f 44 00 00    	nopw   0x0(%rax,%rax,1)
